Certificate:
    Data:
        Version: 3 (0x2)
        Serial Number:
            33:30:30:30:30:30:33:32:cd:4e:b8:48:1c:b3:38:1b:9b:27
        Signature Algorithm: sha256WithRSAEncryption
        Issuer: C=JP, O=Japanese Government, OU=National Police Agency, OU=NPA ICDL Root CA
        Validity
            Not Before: Jun 19 05:54:42 2023 GMT
            Not After : Jun 18 14:59:59 2028 GMT
        Subject: C=JP, O=Japanese Government, OU=National Police Agency, OU=Prefectural Public Safety Commissions for ICDL, CN=Aichi AltPPSC
        Subject Public Key Info:
            Public Key Algorithm: rsaEncryption
                Public-Key: (2048 bit)
                Modulus:
                    00:8a:48:3f:1a:8b:8d:ea:57:92:de:7d:66:ff:45:
                    8e:11:1d:c7:7b:bf:9a:46:9c:a2:4b:fd:fe:f5:83:
                    eb:90:5c:4d:4e:30:a7:7d:fe:b7:3c:78:ec:12:4a:
                    b7:77:f2:10:ac:98:84:c7:ee:8e:a8:ab:b8:f0:95:
                    eb:ce:02:09:af:fa:7e:28:88:3a:27:11:86:a8:50:
                    c0:9a:56:8e:7a:45:80:8c:83:05:d6:0b:a8:3a:3d:
                    0d:60:fa:25:da:d5:03:ba:90:70:d7:00:44:1d:b9:
                    44:ef:ff:c9:b8:03:f5:ee:ff:ff:30:c2:c1:59:14:
                    1e:12:50:2c:85:0a:7b:ce:43:6b:35:13:a6:de:e7:
                    77:fb:28:8f:10:c3:59:56:0d:53:a5:1c:70:cb:af:
                    2f:a4:e9:4b:c6:35:ad:ef:07:dc:e5:f5:5b:f7:e4:
                    5b:63:5b:5e:96:f3:65:dd:08:69:b4:24:03:da:5c:
                    1b:2f:e1:0a:f8:a8:6e:73:45:f3:89:4e:80:bc:57:
                    5b:ac:b1:82:91:69:14:23:6b:fe:30:4c:1a:db:e9:
                    f8:a1:28:98:d1:c6:15:7b:25:a2:57:6c:b8:ca:80:
                    e0:68:53:85:a7:d8:5f:2b:57:d9:c2:ed:71:79:c4:
                    49:b1:9e:8f:c7:c2:7c:c7:64:23:5c:0f:58:37:98:
                    86:7b
                Exponent: 65537 (0x10001)
        X509v3 extensions:
            X509v3 Authority Key Identifier: 
                keyid:11:CD:8E:60:44:47:57:4F:4F:CB:E9:E7:CB:A1:46:DF:BA:0E:50:8B
                DirName:/C=JP/O=Japanese Government/OU=National Police Agency/OU=NPA ICDL Root CA
                serial:32:30:30:30:30:30:31:36
            X509v3 Subject Key Identifier: 
                23:70:0E:B9:DD:D0:C8:B4:70:E6:F3:68:CC:DD:FD:D3:E4:7C:B6:52
            X509v3 Key Usage: critical
                Digital Signature, Non Repudiation
            X509v3 Certificate Policies: critical
                Policy: 1.2.392.100120.7.5.1.1.10
                  CPS: http://www.npa.go.jp/
            X509v3 Issuer Alternative Name: 
                DirName:/C=JP/O=\xE6\x97\xA5\xE6\x9C\xAC\xE5\x9B\xBD\xE6\x94\xBF\xE5\xBA\x9C/OU=\xE8\xAD\xA6\xE5\xAF\x9F\xE5\xBA\x81/OU=\xE8\xAD\xA6\xE5\xAF\x9F\xE5\xBA\x81\xE9\x81\x8B\xE8\xBB\xA2\xE5\x85\x8D\xE8\xA8\xB1\xE8\xA8\xBC\xE8\xAA\x8D\xE8\xA8\xBC\xE5\xB1\x80
            X509v3 CRL Distribution Points: 
                Full Name:
                  DirName:C = JP, O = Japanese Government, OU = National Police Agency, OU = Prefectural Public Safety Commissions for ICDL
    Signature Algorithm: sha256WithRSAEncryption
    Signature Value:
        ab:37:c2:10:83:66:1d:82:36:17:f6:66:3c:87:7d:a9:18:63:
        9a:d1:d9:3b:60:62:fb:07:a6:65:fe:0d:96:de:5c:6d:8d:4d:
        4d:04:be:70:68:3f:b4:42:e6:b4:5c:f3:01:d7:2b:0d:fb:62:
        9b:83:26:f3:5e:99:9d:7f:a1:54:fe:7d:fc:ac:be:71:82:98:
        f8:4f:b8:bb:be:f1:ff:dd:ca:f1:61:6e:6d:cc:87:86:cc:e3:
        7a:6d:0f:7d:8b:6f:22:16:80:86:7f:be:51:22:5d:c7:e4:2a:
        45:f5:d8:2f:82:0a:d2:11:62:38:6b:05:21:1e:cf:56:8c:26:
        03:a5:88:ba:2e:de:cf:2d:8c:bc:86:17:77:c1:5d:fb:30:d3:
        94:71:8d:80:1c:cd:7e:39:fc:d8:5f:8b:70:42:7d:27:a2:cf:
        32:04:02:92:3f:73:42:be:34:88:cf:c1:59:a2:60:10:a6:a1:
        55:05:e7:ef:ad:3d:4a:05:01:92:ef:49:d9:3a:0d:2e:f0:df:
        dd:ce:63:41:94:26:f0:d0:45:6b:96:84:57:0e:8c:35:26:32:
        f9:12:d6:ad:13:07:79:46:45:c9:e3:9f:e1:bb:fd:59:a1:b1:
        60:1b:67:5f:e1:d6:f1:aa:bd:e6:2d:fb:c8:ba:d1:1e:7a:60:
        a4:70:ef:03
-----BEGIN CERTIFICATE-----
MIIFuzCCBKOgAwIBAgISMzAwMDAwMzLNTrhIHLM4G5snMA0GCSqGSIb3DQEBCwUA
MGcxCzAJBgNVBAYTAkpQMRwwGgYDVQQKDBNKYXBhbmVzZSBHb3Zlcm5tZW50MR8w
HQYDVQQLDBZOYXRpb25hbCBQb2xpY2UgQWdlbmN5MRkwFwYDVQQLDBBOUEEgSUNE
TCBSb290IENBMB4XDTIzMDYxOTA1NTQ0MloXDTI4MDYxODE0NTk1OVowgZ0xCzAJ
BgNVBAYTAkpQMRwwGgYDVQQKDBNKYXBhbmVzZSBHb3Zlcm5tZW50MR8wHQYDVQQL
DBZOYXRpb25hbCBQb2xpY2UgQWdlbmN5MTcwNQYDVQQLDC5QcmVmZWN0dXJhbCBQ
dWJsaWMgU2FmZXR5IENvbW1pc3Npb25zIGZvciBJQ0RMMRYwFAYDVQQDDA1BaWNo
aSBBbHRQUFNDMIIBIjANBgkqhkiG9w0BAQEFAAOCAQ8AMIIBCgKCAQEAikg/GouN
6leS3n1m/0WOER3He7+aRpyiS/3+9YPrkFxNTjCnff63PHjsEkq3d/IQrJiEx+6O
qKu48JXrzgIJr/p+KIg6JxGGqFDAmlaOekWAjIMF1guoOj0NYPol2tUDupBw1wBE
HblE7//JuAP17v//MMLBWRQeElAshQp7zkNrNROm3ud3+yiPEMNZVg1TpRxwy68v
pOlLxjWt7wfc5fVb9+RbY1telvNl3QhptCQD2lwbL+EK+Khuc0XziU6AvFdbrLGC
kWkUI2v+MEwa2+n4oSiY0cYVeyWiV2y4yoDgaFOFp9hfK1fZwu1xecRJsZ6Px8J8
x2QjXA9YN5iGewIDAQABo4ICKDCCAiQwgZgGA1UdIwSBkDCBjYAUEc2OYERHV09P
y+nny6FG37oOUIuha6RpMGcxCzAJBgNVBAYTAkpQMRwwGgYDVQQKDBNKYXBhbmVz
ZSBHb3Zlcm5tZW50MR8wHQYDVQQLDBZOYXRpb25hbCBQb2xpY2UgQWdlbmN5MRkw
FwYDVQQLDBBOUEEgSUNETCBSb290IENBgggyMDAwMDAxNjAdBgNVHQ4EFgQUI3AO
ud3QyLRw5vNozN390+R8tlIwDgYDVR0PAQH/BAQDAgbAMEAGA1UdIAEB/wQ2MDQw
MgYLKoMIho4YBwUBAQowIzAhBggrBgEFBQcCARYVaHR0cDovL3d3dy5ucGEuZ28u
anAvMHQGA1UdEgRtMGukaTBnMQswCQYDVQQGEwJKUDEYMBYGA1UECgwP5pel5pys
5Zu95pS/5bqcMRIwEAYDVQQLDAnorablr5/luoExKjAoBgNVBAsMIeitpuWvn+W6
gemBi+i7ouWFjeioseiovOiqjeiovOWxgDCBnwYDVR0fBIGXMIGUMIGRoIGOoIGL
pIGIMIGFMQswCQYDVQQGEwJKUDEcMBoGA1UECgwTSmFwYW5lc2UgR292ZXJubWVu
dDEfMB0GA1UECwwWTmF0aW9uYWwgUG9saWNlIEFnZW5jeTE3MDUGA1UECwwuUHJl
ZmVjdHVyYWwgUHVibGljIFNhZmV0eSBDb21taXNzaW9ucyBmb3IgSUNETDANBgkq
hkiG9w0BAQsFAAOCAQEAqzfCEINmHYI2F/ZmPId9qRhjmtHZO2Bi+wemZf4Nlt5c
bY1NTQS+cGg/tELmtFzzAdcrDftim4Mm816ZnX+hVP59/Ky+cYKY+E+4u77x/93K
8WFubcyHhszjem0PfYtvIhaAhn++USJdx+QqRfXYL4IK0hFiOGsFIR7PVowmA6WI
ui7ezy2MvIYXd8Fd+zDTlHGNgBzNfjn82F+LcEJ9J6LPMgQCkj9zQr40iM/BWaJg
EKahVQXn7609SgUBku9J2ToNLvDf3c5jQZQm8NBFa5aEVw6MNSYy+RLWrRMHeUZF
yeOf4bv9WaGxYBtnX+HW8aq95i37yLrRHnpgpHDvAw==
-----END CERTIFICATE-----
