Certificate:
    Data:
        Version: 3 (0x2)
        Serial Number:
            33:30:30:30:30:31:30:37
        Signature Algorithm: sha256WithRSAEncryption
        Issuer: C=JP, O=Japanese Government, OU=National Police Agency, OU=NPA ICDL Root CA
        Validity
            Not Before: Sep 17 07:25:49 2024 GMT
            Not After : Sep 16 14:59:59 2029 GMT
        Subject: C=JP, O=Japanese Government, OU=National Police Agency, OU=Prefectural Public Safety Commissions for ICDL, CN=Aichi PPSC
        Subject Public Key Info:
            Public Key Algorithm: rsaEncryption
                Public-Key: (2048 bit)
                Modulus:
                    00:bf:6f:0b:27:72:fd:fa:a2:cf:7f:84:15:20:4a:
                    60:2f:cd:d6:79:3c:49:ad:e0:56:26:85:5c:d7:aa:
                    69:d9:bd:ab:ed:a8:76:95:ee:ba:ae:41:b7:c1:1d:
                    bb:e8:f4:f7:c2:d5:aa:dc:5c:56:b5:f8:ce:1d:84:
                    09:ad:5c:26:ae:b3:ee:ac:96:14:70:c4:9d:af:e5:
                    04:00:2b:c2:a4:a1:04:49:18:b8:b6:4f:d7:df:f0:
                    0c:70:1f:a4:c4:67:f8:5f:27:82:04:0a:44:9c:24:
                    90:c3:b9:6c:c8:41:36:b0:60:96:0b:e8:81:0b:4f:
                    97:9b:a0:99:42:c2:ae:7d:da:e4:f3:b3:4f:35:54:
                    76:9c:39:f1:25:3f:ea:2b:e2:f6:3c:50:3f:84:2a:
                    e0:92:f6:99:a4:f6:82:d9:dd:17:ed:ee:25:5f:e4:
                    8b:3f:d5:6d:e3:8b:e7:a5:54:e3:61:ac:37:cc:bf:
                    0d:d9:bb:4b:6d:60:64:10:43:95:5a:d6:31:fb:83:
                    ac:e7:c1:87:3f:e7:e7:8a:0d:00:9b:d0:fd:c6:f1:
                    26:ed:62:d6:eb:7d:92:a1:08:fb:24:9c:52:60:49:
                    11:d7:5a:9a:d7:71:a5:ce:6b:3e:d7:25:58:d4:e4:
                    ea:90:5b:b6:9c:25:05:72:21:fb:7f:0b:10:a4:27:
                    54:b9
                Exponent: 65537 (0x10001)
        X509v3 extensions:
            X509v3 Authority Key Identifier: 
                keyid:11:CD:8E:60:44:47:57:4F:4F:CB:E9:E7:CB:A1:46:DF:BA:0E:50:8B
                DirName:/C=JP/O=Japanese Government/OU=National Police Agency/OU=NPA ICDL Root CA
                serial:32:30:30:30:30:30:31:36
            X509v3 Subject Key Identifier: 
                B0:90:B4:80:78:6C:15:07:2C:A2:1A:D8:1D:58:1B:52:B0:2B:AA:9A
            X509v3 Key Usage: critical
                Digital Signature, Non Repudiation
            X509v3 Certificate Policies: critical
                Policy: 1.2.392.100120.7.5.1.1.10
                  CPS: http://www.npa.go.jp/
            X509v3 Subject Alternative Name: 
                DirName:/C=JP/O=\xE6\x97\xA5\xE6\x9C\xAC\xE5\x9B\xBD\xE6\x94\xBF\xE5\xBA\x9C/OU=\xE8\xAD\xA6\xE5\xAF\x9F\xE5\xBA\x81/OU=\xE9\x83\xBD\xE9\x81\x93\xE5\xBA\x9C\xE7\x9C\x8C\xE5\x85\xAC\xE5\xAE\x89\xE5\xA7\x94\xE5\x93\xA1\xE4\xBC\x9A
            X509v3 Issuer Alternative Name: 
                DirName:/C=JP/O=\xE6\x97\xA5\xE6\x9C\xAC\xE5\x9B\xBD\xE6\x94\xBF\xE5\xBA\x9C/OU=\xE8\xAD\xA6\xE5\xAF\x9F\xE5\xBA\x81/OU=\xE8\xAD\xA6\xE5\xAF\x9F\xE5\xBA\x81\xE9\x81\x8B\xE8\xBB\xA2\xE5\x85\x8D\xE8\xA8\xB1\xE8\xA8\xBC\xE8\xAA\x8D\xE8\xA8\xBC\xE5\xB1\x80
            X509v3 CRL Distribution Points: 
                Full Name:
                  DirName:C = JP, O = Japanese Government, OU = National Police Agency, OU = Prefectural Public Safety Commissions for ICDL
    Signature Algorithm: sha256WithRSAEncryption
    Signature Value:
        06:96:74:94:c0:99:13:e4:fa:e6:a4:01:6c:dc:e9:85:5d:4f:
        49:33:cd:3f:af:c0:29:29:66:f7:c7:1b:37:a6:f1:a4:90:3e:
        68:20:65:64:c0:39:bf:45:33:7a:36:fc:42:67:8e:37:e1:fa:
        47:e3:ca:02:2d:12:19:c2:a9:77:4c:c8:8c:53:64:2f:89:0b:
        76:19:c8:d4:92:bc:5d:9d:a9:7d:80:e5:c1:0e:6f:65:9d:d2:
        89:86:b7:7b:4a:f7:06:3a:a9:bc:89:93:11:c0:61:b1:30:ed:
        42:62:9f:35:3f:df:a5:4d:7a:57:22:32:ae:78:63:6e:f3:83:
        7e:e3:d2:a1:04:05:fe:eb:2d:75:cc:b1:d5:e7:c2:d3:df:7d:
        66:de:20:2c:ec:ac:50:89:74:94:a5:cd:91:1c:dc:26:a6:c0:
        7a:6e:39:c5:6b:be:79:6c:fb:08:c4:12:10:1e:cb:6d:78:0f:
        3a:29:6e:83:23:55:f7:b5:85:6e:96:dc:57:d5:a3:b0:6b:5b:
        98:bd:ef:d3:d8:45:e1:9b:d2:31:d3:ec:3d:0b:16:87:3f:80:
        75:4a:1c:ab:e5:46:fe:f5:eb:1a:fb:ad:be:a9:28:e8:97:19:
        f4:1f:f2:de:b0:05:8e:98:11:7e:09:f1:6b:39:42:b5:6d:9b:
        d6:bf:19:0a
-----BEGIN CERTIFICATE-----
MIIGRjCCBS6gAwIBAgIIMzAwMDAxMDcwDQYJKoZIhvcNAQELBQAwZzELMAkGA1UE
BhMCSlAxHDAaBgNVBAoME0phcGFuZXNlIEdvdmVybm1lbnQxHzAdBgNVBAsMFk5h
dGlvbmFsIFBvbGljZSBBZ2VuY3kxGTAXBgNVBAsMEE5QQSBJQ0RMIFJvb3QgQ0Ew
HhcNMjQwOTE3MDcyNTQ5WhcNMjkwOTE2MTQ1OTU5WjCBmjELMAkGA1UEBhMCSlAx
HDAaBgNVBAoME0phcGFuZXNlIEdvdmVybm1lbnQxHzAdBgNVBAsMFk5hdGlvbmFs
IFBvbGljZSBBZ2VuY3kxNzA1BgNVBAsMLlByZWZlY3R1cmFsIFB1YmxpYyBTYWZl
dHkgQ29tbWlzc2lvbnMgZm9yIElDREwxEzARBgNVBAMMCkFpY2hpIFBQU0MwggEi
MA0GCSqGSIb3DQEBAQUAA4IBDwAwggEKAoIBAQC/bwsncv36os9/hBUgSmAvzdZ5
PEmt4FYmhVzXqmnZvavtqHaV7rquQbfBHbvo9PfC1arcXFa1+M4dhAmtXCaus+6s
lhRwxJ2v5QQAK8KkoQRJGLi2T9ff8AxwH6TEZ/hfJ4IECkScJJDDuWzIQTawYJYL
6IELT5eboJlCwq592uTzs081VHacOfElP+or4vY8UD+EKuCS9pmk9oLZ3Rft7iVf
5Is/1W3ji+elVONhrDfMvw3Zu0ttYGQQQ5Va1jH7g6znwYc/5+eKDQCb0P3G8Sbt
YtbrfZKhCPsknFJgSRHXWprXcaXOaz7XJVjU5OqQW7acJQVyIft/CxCkJ1S5AgMB
AAGjggLAMIICvDCBmAYDVR0jBIGQMIGNgBQRzY5gREdXT0/L6efLoUbfug5Qi6Fr
pGkwZzELMAkGA1UEBhMCSlAxHDAaBgNVBAoME0phcGFuZXNlIEdvdmVybm1lbnQx
HzAdBgNVBAsMFk5hdGlvbmFsIFBvbGljZSBBZ2VuY3kxGTAXBgNVBAsMEE5QQSBJ
Q0RMIFJvb3QgQ0GCCDIwMDAwMDE2MB0GA1UdDgQWBBSwkLSAeGwVByyiGtgdWBtS
sCuqmjAOBgNVHQ8BAf8EBAMCBsAwQAYDVR0gAQH/BDYwNDAyBgsqgwiGjhgHBQEB
CjAjMCEGCCsGAQUFBwIBFhVodHRwOi8vd3d3Lm5wYS5nby5qcC8wgZUGA1UdEQSB
jTCBiqSBhzCBhDELMAkGA1UEBhMCSlAxGDAWBgNVBAoMD+aXpeacrOWbveaUv+W6
nDESMBAGA1UECwwJ6K2m5a+f5bqBMSQwIgYDVQQLDBvpg73pgZPlupznnIzlhazl
ronlp5Tlk6HkvJoxITAfBgNVBAMMGOaEm+efpeecjOWFrOWuieWnlOWToeS8mjB0
BgNVHRIEbTBrpGkwZzELMAkGA1UEBhMCSlAxGDAWBgNVBAoMD+aXpeacrOWbveaU
v+W6nDESMBAGA1UECwwJ6K2m5a+f5bqBMSowKAYDVQQLDCHorablr5/luoHpgYvo
u6LlhY3oqLHoqLzoqo3oqLzlsYAwgZ8GA1UdHwSBlzCBlDCBkaCBjqCBi6SBiDCB
hTELMAkGA1UEBhMCSlAxHDAaBgNVBAoME0phcGFuZXNlIEdvdmVybm1lbnQxHzAd
BgNVBAsMFk5hdGlvbmFsIFBvbGljZSBBZ2VuY3kxNzA1BgNVBAsMLlByZWZlY3R1
cmFsIFB1YmxpYyBTYWZldHkgQ29tbWlzc2lvbnMgZm9yIElDREwwDQYJKoZIhvcN
AQELBQADggEBAAaWdJTAmRPk+uakAWzc6YVdT0kzzT+vwCkpZvfHGzem8aSQPmgg
ZWTAOb9FM3o2/EJnjjfh+kfjygItEhnCqXdMyIxTZC+JC3YZyNSSvF2dqX2A5cEO
b2Wd0omGt3tK9wY6qbyJkxHAYbEw7UJinzU/36VNelciMq54Y27zg37j0qEEBf7r
LXXMsdXnwtPffWbeICzsrFCJdJSlzZEc3CamwHpuOcVrvnls+wjEEhAey214Dzop
boMjVfe1hW6W3FfVo7BrW5i979PYReGb0jHT7D0LFoc/gHVKHKvlRv716xr7rb6p
KOiXGfQf8t6wBY6YEX4J8Ws5QrVtm9a/GQo=
-----END CERTIFICATE-----
