Certificate:
    Data:
        Version: 3 (0x2)
        Serial Number:
            32:30:30:30:30:30:35:39
        Signature Algorithm: sha256WithRSAEncryption
        Issuer: C=JP, O=Japanese Government, OU=National Police Agency, OU=NPA ICDL Root CA
        Validity
            Not Before: Feb  6 02:26:51 2023 GMT
            Not After : Feb  5 14:59:59 2028 GMT
        Subject: C=JP, O=Japanese Government, OU=National Police Agency, OU=Prefectural Public Safety Commissions for ICDL, CN=Aichi PPSC
        Subject Public Key Info:
            Public Key Algorithm: rsaEncryption
                Public-Key: (2048 bit)
                Modulus:
                    00:b1:a1:a3:c7:13:5b:1a:11:78:3f:53:69:b2:1c:
                    ec:e1:2a:d0:80:e7:14:79:bf:bf:ae:a0:20:ac:e2:
                    cc:e7:71:c4:bd:1e:ab:71:62:ba:ad:d2:7d:63:70:
                    1d:72:55:27:71:fd:89:11:5d:f4:b2:c5:f9:1e:95:
                    e0:ee:1f:4d:9a:bb:6e:b8:22:ed:2e:c7:4b:25:c5:
                    c3:f6:be:78:75:64:9c:b4:b8:e0:cb:c6:4b:f5:f5:
                    60:c4:99:a2:ae:58:de:f8:b0:07:e9:e1:1b:44:7b:
                    ed:66:85:a5:e0:f4:3c:37:04:5a:52:4c:93:43:22:
                    ba:f5:e4:c8:60:87:e7:75:a0:dc:52:c1:d5:2a:90:
                    02:b3:10:25:3c:b5:e3:73:52:d2:99:db:c1:ea:c8:
                    2e:f8:7d:d6:19:bd:3b:11:66:64:6d:2d:62:82:91:
                    22:e1:f7:00:c6:80:55:4c:92:f3:4f:70:97:5e:9a:
                    15:d0:d6:c6:c0:bc:dd:3a:ea:43:e4:05:8d:bb:03:
                    42:52:07:e4:3b:69:5c:92:7f:9a:ad:b8:fd:83:3a:
                    27:ef:4f:5c:81:51:76:35:b2:21:ac:61:60:86:03:
                    a9:94:75:f2:7f:ea:47:14:93:df:a1:69:36:71:3c:
                    b7:f5:1f:77:15:46:8a:2d:ed:15:c3:eb:41:76:fb:
                    af:f5
                Exponent: 65537 (0x10001)
        X509v3 extensions:
            X509v3 Authority Key Identifier: 
                keyid:11:CD:8E:60:44:47:57:4F:4F:CB:E9:E7:CB:A1:46:DF:BA:0E:50:8B
                DirName:/C=JP/O=Japanese Government/OU=National Police Agency/OU=NPA ICDL Root CA
                serial:32:30:30:30:30:30:31:36
            X509v3 Subject Key Identifier: 
                3D:BB:1A:88:2D:93:5C:C8:48:28:A0:05:57:47:90:6A:ED:36:05:6B
            X509v3 Key Usage: critical
                Digital Signature, Non Repudiation
            X509v3 Certificate Policies: critical
                Policy: 1.2.392.100120.7.5.1.1.10
                  CPS: http://www.npa.go.jp/
            X509v3 Subject Alternative Name: 
                DirName:/C=JP/O=\xE6\x97\xA5\xE6\x9C\xAC\xE5\x9B\xBD\xE6\x94\xBF\xE5\xBA\x9C/OU=\xE8\xAD\xA6\xE5\xAF\x9F\xE5\xBA\x81/OU=\xE9\x83\xBD\xE9\x81\x93\xE5\xBA\x9C\xE7\x9C\x8C\xE5\x85\xAC\xE5\xAE\x89\xE5\xA7\x94\xE5\x93\xA1\xE4\xBC\x9A
            X509v3 Issuer Alternative Name: 
                DirName:/C=JP/O=\xE6\x97\xA5\xE6\x9C\xAC\xE5\x9B\xBD\xE6\x94\xBF\xE5\xBA\x9C/OU=\xE8\xAD\xA6\xE5\xAF\x9F\xE5\xBA\x81/OU=\xE8\xAD\xA6\xE5\xAF\x9F\xE5\xBA\x81\xE9\x81\x8B\xE8\xBB\xA2\xE5\x85\x8D\xE8\xA8\xB1\xE8\xA8\xBC\xE8\xAA\x8D\xE8\xA8\xBC\xE5\xB1\x80
            X509v3 CRL Distribution Points: 
                Full Name:
                  DirName:C = JP, O = Japanese Government, OU = National Police Agency, OU = Prefectural Public Safety Commissions for ICDL
    Signature Algorithm: sha256WithRSAEncryption
    Signature Value:
        20:d5:83:47:bc:7a:6b:72:7d:33:93:fc:3a:88:8b:d8:16:8d:
        5a:60:8c:4a:da:20:e5:fe:67:2c:09:de:95:9b:ee:87:3d:b0:
        83:bf:17:07:57:33:0a:0d:b6:97:ad:a2:63:fd:ca:66:34:b3:
        c5:61:9c:04:f7:2d:91:7a:73:4d:18:64:3e:44:cc:e9:d7:a3:
        f4:e1:5c:f9:5f:0e:7b:ff:38:bf:35:d6:52:ae:20:13:d6:23:
        d1:74:0d:bb:a1:4b:24:1e:e2:e8:5c:25:94:aa:1e:09:dc:ad:
        94:dd:c3:4e:4e:35:9c:4b:f6:59:b3:5c:49:4f:40:95:1b:03:
        8d:b3:c5:fe:6c:61:81:7b:94:50:b5:d4:11:52:ad:aa:c5:ee:
        0b:af:ee:7f:53:00:17:d9:eb:23:73:a8:ee:7f:be:4e:91:4b:
        af:7b:0a:32:cd:7b:16:12:2a:57:15:a4:ed:09:bb:f1:d6:b6:
        9e:ac:6b:b9:ea:89:67:c2:8b:a7:6c:8a:d5:a9:72:a9:2d:af:
        c0:62:2c:91:7d:eb:eb:87:c1:e9:0e:cd:5a:db:f1:e4:69:26:
        1a:2e:03:74:40:b8:94:5a:c5:3c:b6:19:e0:f1:7e:ac:00:9e:
        b7:36:b8:62:7e:18:5f:3b:3f:a5:af:92:94:ff:d4:72:ae:b6:
        61:09:ee:48
-----BEGIN CERTIFICATE-----
MIIGRjCCBS6gAwIBAgIIMjAwMDAwNTkwDQYJKoZIhvcNAQELBQAwZzELMAkGA1UE
BhMCSlAxHDAaBgNVBAoME0phcGFuZXNlIEdvdmVybm1lbnQxHzAdBgNVBAsMFk5h
dGlvbmFsIFBvbGljZSBBZ2VuY3kxGTAXBgNVBAsMEE5QQSBJQ0RMIFJvb3QgQ0Ew
HhcNMjMwMjA2MDIyNjUxWhcNMjgwMjA1MTQ1OTU5WjCBmjELMAkGA1UEBhMCSlAx
HDAaBgNVBAoME0phcGFuZXNlIEdvdmVybm1lbnQxHzAdBgNVBAsMFk5hdGlvbmFs
IFBvbGljZSBBZ2VuY3kxNzA1BgNVBAsMLlByZWZlY3R1cmFsIFB1YmxpYyBTYWZl
dHkgQ29tbWlzc2lvbnMgZm9yIElDREwxEzARBgNVBAMMCkFpY2hpIFBQU0MwggEi
MA0GCSqGSIb3DQEBAQUAA4IBDwAwggEKAoIBAQCxoaPHE1saEXg/U2myHOzhKtCA
5xR5v7+uoCCs4sznccS9HqtxYrqt0n1jcB1yVSdx/YkRXfSyxfkeleDuH02au264
Iu0ux0slxcP2vnh1ZJy0uODLxkv19WDEmaKuWN74sAfp4RtEe+1mhaXg9Dw3BFpS
TJNDIrr15Mhgh+d1oNxSwdUqkAKzECU8teNzUtKZ28HqyC74fdYZvTsRZmRtLWKC
kSLh9wDGgFVMkvNPcJdemhXQ1sbAvN066kPkBY27A0JSB+Q7aVySf5qtuP2DOifv
T1yBUXY1siGsYWCGA6mUdfJ/6kcUk9+haTZxPLf1H3cVRoot7RXD60F2+6/1AgMB
AAGjggLAMIICvDCBmAYDVR0jBIGQMIGNgBQRzY5gREdXT0/L6efLoUbfug5Qi6Fr
pGkwZzELMAkGA1UEBhMCSlAxHDAaBgNVBAoME0phcGFuZXNlIEdvdmVybm1lbnQx
HzAdBgNVBAsMFk5hdGlvbmFsIFBvbGljZSBBZ2VuY3kxGTAXBgNVBAsMEE5QQSBJ
Q0RMIFJvb3QgQ0GCCDIwMDAwMDE2MB0GA1UdDgQWBBQ9uxqILZNcyEgooAVXR5Bq
7TYFazAOBgNVHQ8BAf8EBAMCBsAwQAYDVR0gAQH/BDYwNDAyBgsqgwiGjhgHBQEB
CjAjMCEGCCsGAQUFBwIBFhVodHRwOi8vd3d3Lm5wYS5nby5qcC8wgZUGA1UdEQSB
jTCBiqSBhzCBhDELMAkGA1UEBhMCSlAxGDAWBgNVBAoMD+aXpeacrOWbveaUv+W6
nDESMBAGA1UECwwJ6K2m5a+f5bqBMSQwIgYDVQQLDBvpg73pgZPlupznnIzlhazl
ronlp5Tlk6HkvJoxITAfBgNVBAMMGOaEm+efpeecjOWFrOWuieWnlOWToeS8mjB0
BgNVHRIEbTBrpGkwZzELMAkGA1UEBhMCSlAxGDAWBgNVBAoMD+aXpeacrOWbveaU
v+W6nDESMBAGA1UECwwJ6K2m5a+f5bqBMSowKAYDVQQLDCHorablr5/luoHpgYvo
u6LlhY3oqLHoqLzoqo3oqLzlsYAwgZ8GA1UdHwSBlzCBlDCBkaCBjqCBi6SBiDCB
hTELMAkGA1UEBhMCSlAxHDAaBgNVBAoME0phcGFuZXNlIEdvdmVybm1lbnQxHzAd
BgNVBAsMFk5hdGlvbmFsIFBvbGljZSBBZ2VuY3kxNzA1BgNVBAsMLlByZWZlY3R1
cmFsIFB1YmxpYyBTYWZldHkgQ29tbWlzc2lvbnMgZm9yIElDREwwDQYJKoZIhvcN
AQELBQADggEBACDVg0e8emtyfTOT/DqIi9gWjVpgjEraIOX+ZywJ3pWb7oc9sIO/
FwdXMwoNtpetomP9ymY0s8VhnAT3LZF6c00YZD5EzOnXo/ThXPlfDnv/OL811lKu
IBPWI9F0DbuhSyQe4uhcJZSqHgncrZTdw05ONZxL9lmzXElPQJUbA42zxf5sYYF7
lFC11BFSrarF7guv7n9TABfZ6yNzqO5/vk6RS697CjLNexYSKlcVpO0Ju/HWtp6s
a7nqiWfCi6dsitWpcqktr8BiLJF96+uHwekOzVrb8eRpJhouA3RAuJRaxTy2GeDx
fqwAnrc2uGJ+GF87P6WvkpT/1HKutmEJ7kg=
-----END CERTIFICATE-----
