Certificate:
    Data:
        Version: 3 (0x2)
        Serial Number:
            33:30:30:30:30:30:31:34:bb:ab:c0:7f:44:65:ba:88:c8:6b
        Signature Algorithm: sha256WithRSAEncryption
        Issuer: C=JP, O=Japanese Government, OU=National Police Agency, OU=NPA ICDL Root CA
        Validity
            Not Before: Jun 19 05:29:08 2023 GMT
            Not After : Jun 18 14:59:59 2028 GMT
        Subject: C=JP, O=Japanese Government, OU=National Police Agency, OU=Prefectural Public Safety Commissions for ICDL, CN=Akita AltPPSC
        Subject Public Key Info:
            Public Key Algorithm: rsaEncryption
                Public-Key: (2048 bit)
                Modulus:
                    00:a3:92:00:9c:63:a6:5c:f7:31:d7:46:eb:29:f0:
                    90:f9:e5:b6:34:3b:d8:76:b3:90:81:2d:89:26:38:
                    5c:16:ce:b9:aa:72:0b:c3:65:31:58:45:4b:a0:4c:
                    a4:9e:1f:42:2b:ef:40:f0:43:5a:27:49:9a:40:a4:
                    63:1b:3e:23:b1:53:0c:5c:de:f8:e5:52:66:37:1d:
                    17:2c:94:25:99:fe:ae:3b:03:33:75:03:a0:43:ec:
                    4a:5a:00:58:6b:56:1f:fe:6c:18:73:6d:2f:f3:ff:
                    c2:43:f8:b4:1a:03:eb:44:3c:19:e0:2f:c2:d6:b5:
                    24:5e:e5:59:01:4f:32:ee:6e:fc:52:12:a6:21:7a:
                    88:9b:58:c2:32:2d:0a:23:d6:81:d0:f0:f1:f3:db:
                    ca:46:94:39:66:d6:ad:15:1b:1d:5b:1c:46:95:6e:
                    00:c2:89:16:66:d8:e3:54:e5:32:2e:4c:5b:14:5a:
                    0d:3c:5d:a7:7c:08:36:65:b2:89:b4:df:c6:49:79:
                    8f:45:c9:e7:d9:58:98:1b:1b:23:8f:fa:5f:ba:05:
                    74:f5:51:a0:fb:45:43:4a:66:f0:54:86:15:20:e9:
                    ab:58:65:47:21:68:22:c1:f6:47:df:66:2d:c8:1e:
                    6a:b7:72:3e:58:00:e8:0f:52:4b:41:9a:7b:e5:1a:
                    74:d3
                Exponent: 65537 (0x10001)
        X509v3 extensions:
            X509v3 Authority Key Identifier: 
                keyid:11:CD:8E:60:44:47:57:4F:4F:CB:E9:E7:CB:A1:46:DF:BA:0E:50:8B
                DirName:/C=JP/O=Japanese Government/OU=National Police Agency/OU=NPA ICDL Root CA
                serial:32:30:30:30:30:30:31:36
            X509v3 Subject Key Identifier: 
                CD:00:46:BC:42:58:6B:7F:91:BF:5E:19:D9:9F:C6:6F:A7:FE:0B:61
            X509v3 Key Usage: critical
                Digital Signature, Non Repudiation
            X509v3 Certificate Policies: critical
                Policy: 1.2.392.100120.7.5.1.1.10
                  CPS: http://www.npa.go.jp/
            X509v3 Issuer Alternative Name: 
                DirName:/C=JP/O=\xE6\x97\xA5\xE6\x9C\xAC\xE5\x9B\xBD\xE6\x94\xBF\xE5\xBA\x9C/OU=\xE8\xAD\xA6\xE5\xAF\x9F\xE5\xBA\x81/OU=\xE8\xAD\xA6\xE5\xAF\x9F\xE5\xBA\x81\xE9\x81\x8B\xE8\xBB\xA2\xE5\x85\x8D\xE8\xA8\xB1\xE8\xA8\xBC\xE8\xAA\x8D\xE8\xA8\xBC\xE5\xB1\x80
            X509v3 CRL Distribution Points: 
                Full Name:
                  DirName:C = JP, O = Japanese Government, OU = National Police Agency, OU = Prefectural Public Safety Commissions for ICDL
    Signature Algorithm: sha256WithRSAEncryption
    Signature Value:
        05:a9:d4:8d:74:b9:44:e2:24:93:69:39:e9:5a:69:f3:97:44:
        e4:ce:df:fb:52:85:69:d6:9d:3c:1d:6d:b7:b4:91:22:e0:df:
        8f:f3:9a:68:c8:e2:ee:f3:f8:26:a4:fe:1e:4e:9b:10:4a:eb:
        16:a5:5e:e2:19:e5:eb:71:81:7e:f4:23:af:46:82:eb:fa:2e:
        1e:ed:51:00:65:67:bb:73:52:cc:c8:94:b0:0a:fc:e8:be:2a:
        60:f0:c0:52:6f:20:62:d2:db:bf:04:cf:22:f0:b4:19:4f:61:
        f9:a8:be:0d:d0:c0:46:e0:6d:e0:15:69:3d:f9:cb:b8:f8:2a:
        1c:ca:cf:05:aa:2b:4a:c4:28:da:cf:b3:7b:3b:28:e3:90:1c:
        a2:d7:a7:36:37:5f:ae:fc:25:47:1a:94:46:7a:1f:5a:14:42:
        4c:7e:5f:57:36:18:c0:f1:af:86:f6:e5:91:6f:29:2a:6d:41:
        cc:6c:36:7e:1b:db:ef:38:25:d7:ab:70:99:43:d7:92:5b:00:
        57:07:f8:9f:4d:b7:a3:22:25:31:f5:9c:14:0d:ea:88:c6:fb:
        ab:29:7b:46:ab:62:bd:e9:55:3d:a7:50:46:df:07:b7:05:df:
        ee:2c:76:c0:95:ec:00:76:78:7a:78:8e:13:3c:90:3e:cf:54:
        35:1a:eb:cb
-----BEGIN CERTIFICATE-----
MIIFuzCCBKOgAwIBAgISMzAwMDAwMTS7q8B/RGW6iMhrMA0GCSqGSIb3DQEBCwUA
MGcxCzAJBgNVBAYTAkpQMRwwGgYDVQQKDBNKYXBhbmVzZSBHb3Zlcm5tZW50MR8w
HQYDVQQLDBZOYXRpb25hbCBQb2xpY2UgQWdlbmN5MRkwFwYDVQQLDBBOUEEgSUNE
TCBSb290IENBMB4XDTIzMDYxOTA1MjkwOFoXDTI4MDYxODE0NTk1OVowgZ0xCzAJ
BgNVBAYTAkpQMRwwGgYDVQQKDBNKYXBhbmVzZSBHb3Zlcm5tZW50MR8wHQYDVQQL
DBZOYXRpb25hbCBQb2xpY2UgQWdlbmN5MTcwNQYDVQQLDC5QcmVmZWN0dXJhbCBQ
dWJsaWMgU2FmZXR5IENvbW1pc3Npb25zIGZvciBJQ0RMMRYwFAYDVQQDDA1Ba2l0
YSBBbHRQUFNDMIIBIjANBgkqhkiG9w0BAQEFAAOCAQ8AMIIBCgKCAQEAo5IAnGOm
XPcx10brKfCQ+eW2NDvYdrOQgS2JJjhcFs65qnILw2UxWEVLoEyknh9CK+9A8ENa
J0maQKRjGz4jsVMMXN745VJmNx0XLJQlmf6uOwMzdQOgQ+xKWgBYa1Yf/mwYc20v
8//CQ/i0GgPrRDwZ4C/C1rUkXuVZAU8y7m78UhKmIXqIm1jCMi0KI9aB0PDx89vK
RpQ5ZtatFRsdWxxGlW4AwokWZtjjVOUyLkxbFFoNPF2nfAg2ZbKJtN/GSXmPRcnn
2ViYGxsjj/pfugV09VGg+0VDSmbwVIYVIOmrWGVHIWgiwfZH32YtyB5qt3I+WADo
D1JLQZp75Rp00wIDAQABo4ICKDCCAiQwgZgGA1UdIwSBkDCBjYAUEc2OYERHV09P
y+nny6FG37oOUIuha6RpMGcxCzAJBgNVBAYTAkpQMRwwGgYDVQQKDBNKYXBhbmVz
ZSBHb3Zlcm5tZW50MR8wHQYDVQQLDBZOYXRpb25hbCBQb2xpY2UgQWdlbmN5MRkw
FwYDVQQLDBBOUEEgSUNETCBSb290IENBgggyMDAwMDAxNjAdBgNVHQ4EFgQUzQBG
vEJYa3+Rv14Z2Z/Gb6f+C2EwDgYDVR0PAQH/BAQDAgbAMEAGA1UdIAEB/wQ2MDQw
MgYLKoMIho4YBwUBAQowIzAhBggrBgEFBQcCARYVaHR0cDovL3d3dy5ucGEuZ28u
anAvMHQGA1UdEgRtMGukaTBnMQswCQYDVQQGEwJKUDEYMBYGA1UECgwP5pel5pys
5Zu95pS/5bqcMRIwEAYDVQQLDAnorablr5/luoExKjAoBgNVBAsMIeitpuWvn+W6
gemBi+i7ouWFjeioseiovOiqjeiovOWxgDCBnwYDVR0fBIGXMIGUMIGRoIGOoIGL
pIGIMIGFMQswCQYDVQQGEwJKUDEcMBoGA1UECgwTSmFwYW5lc2UgR292ZXJubWVu
dDEfMB0GA1UECwwWTmF0aW9uYWwgUG9saWNlIEFnZW5jeTE3MDUGA1UECwwuUHJl
ZmVjdHVyYWwgUHVibGljIFNhZmV0eSBDb21taXNzaW9ucyBmb3IgSUNETDANBgkq
hkiG9w0BAQsFAAOCAQEABanUjXS5ROIkk2k56Vpp85dE5M7f+1KFadadPB1tt7SR
IuDfj/OaaMji7vP4JqT+Hk6bEErrFqVe4hnl63GBfvQjr0aC6/ouHu1RAGVnu3NS
zMiUsAr86L4qYPDAUm8gYtLbvwTPIvC0GU9h+ai+DdDARuBt4BVpPfnLuPgqHMrP
BaorSsQo2s+zezso45AcotenNjdfrvwlRxqURnofWhRCTH5fVzYYwPGvhvblkW8p
Km1BzGw2fhvb7zgl16twmUPXklsAVwf4n023oyIlMfWcFA3qiMb7qyl7RqtivelV
PadQRt8HtwXf7ix2wJXsAHZ4eniOEzyQPs9UNRrryw==
-----END CERTIFICATE-----
