Certificate:
    Data:
        Version: 3 (0x2)
        Serial Number:
            32:30:30:30:30:30:34:33
        Signature Algorithm: sha256WithRSAEncryption
        Issuer: C=JP, O=Japanese Government, OU=National Police Agency, OU=NPA ICDL Root CA
        Validity
            Not Before: Feb  6 01:37:57 2023 GMT
            Not After : Feb  5 14:59:59 2028 GMT
        Subject: C=JP, O=Japanese Government, OU=National Police Agency, OU=Prefectural Public Safety Commissions for ICDL, CN=Akita PPSC
        Subject Public Key Info:
            Public Key Algorithm: rsaEncryption
                Public-Key: (2048 bit)
                Modulus:
                    00:a5:be:4b:96:53:69:6d:62:d1:b6:b0:7f:27:79:
                    43:83:eb:6f:0a:cd:ae:00:a5:10:3c:a7:70:6d:c9:
                    fa:9c:98:e9:45:81:fc:8f:d9:1f:13:f2:82:54:05:
                    13:a8:0c:5d:99:88:ab:e4:66:bc:66:b8:03:58:39:
                    f9:98:5b:61:0f:03:89:03:80:cb:3f:3a:d1:c5:40:
                    03:1e:4c:b1:c4:bc:bc:68:b8:76:0b:01:9c:7c:76:
                    ea:ee:f6:f0:b8:7c:80:c2:2c:d8:37:00:1e:85:30:
                    65:b6:06:e5:a2:6a:bd:d5:82:d4:cd:d6:f9:c0:ca:
                    37:71:ba:37:dd:f2:a0:52:af:d2:44:e0:e5:41:3f:
                    1f:6e:7a:1d:fc:ed:08:e6:2e:ef:2f:fb:4f:73:f4:
                    cb:d9:55:3a:15:3c:ee:17:bb:7f:69:03:40:c5:57:
                    a5:0d:75:64:37:4d:a2:dd:bd:e6:3b:5d:04:bd:d8:
                    ef:e5:d2:cc:79:cb:b3:67:c5:05:68:9f:c3:9d:2c:
                    38:12:4e:bd:7b:d4:e5:aa:41:2a:39:b0:df:d9:54:
                    f4:f6:a6:04:3e:38:e9:e4:bf:11:de:91:84:49:e2:
                    4e:89:7f:86:d1:be:80:cf:56:cb:cb:e9:4e:09:1d:
                    63:a5:6f:b3:58:bd:7a:e7:a6:bc:5e:51:14:c2:e8:
                    73:37
                Exponent: 65537 (0x10001)
        X509v3 extensions:
            X509v3 Authority Key Identifier: 
                keyid:11:CD:8E:60:44:47:57:4F:4F:CB:E9:E7:CB:A1:46:DF:BA:0E:50:8B
                DirName:/C=JP/O=Japanese Government/OU=National Police Agency/OU=NPA ICDL Root CA
                serial:32:30:30:30:30:30:31:36
            X509v3 Subject Key Identifier: 
                D1:D4:50:69:EB:29:70:9A:00:77:3C:3C:20:11:5F:7B:83:3B:07:F8
            X509v3 Key Usage: critical
                Digital Signature, Non Repudiation
            X509v3 Certificate Policies: critical
                Policy: 1.2.392.100120.7.5.1.1.10
                  CPS: http://www.npa.go.jp/
            X509v3 Subject Alternative Name: 
                DirName:/C=JP/O=\xE6\x97\xA5\xE6\x9C\xAC\xE5\x9B\xBD\xE6\x94\xBF\xE5\xBA\x9C/OU=\xE8\xAD\xA6\xE5\xAF\x9F\xE5\xBA\x81/OU=\xE9\x83\xBD\xE9\x81\x93\xE5\xBA\x9C\xE7\x9C\x8C\xE5\x85\xAC\xE5\xAE\x89\xE5\xA7\x94\xE5\x93\xA1\xE4\xBC\x9A
            X509v3 Issuer Alternative Name: 
                DirName:/C=JP/O=\xE6\x97\xA5\xE6\x9C\xAC\xE5\x9B\xBD\xE6\x94\xBF\xE5\xBA\x9C/OU=\xE8\xAD\xA6\xE5\xAF\x9F\xE5\xBA\x81/OU=\xE8\xAD\xA6\xE5\xAF\x9F\xE5\xBA\x81\xE9\x81\x8B\xE8\xBB\xA2\xE5\x85\x8D\xE8\xA8\xB1\xE8\xA8\xBC\xE8\xAA\x8D\xE8\xA8\xBC\xE5\xB1\x80
            X509v3 CRL Distribution Points: 
                Full Name:
                  DirName:C = JP, O = Japanese Government, OU = National Police Agency, OU = Prefectural Public Safety Commissions for ICDL
    Signature Algorithm: sha256WithRSAEncryption
    Signature Value:
        97:78:f5:cc:67:fd:df:9e:15:3d:21:8d:97:5b:5e:a5:69:ab:
        87:1d:58:a2:15:be:8f:a7:0a:41:e9:74:49:21:49:36:38:03:
        1e:09:fd:d7:36:f9:ea:30:d3:c2:40:33:f2:0e:07:4d:f8:8d:
        56:3e:4a:11:3a:ef:4b:68:e0:01:1a:17:bc:f0:6e:bc:98:46:
        f4:3c:8e:ca:b3:98:c5:6f:46:71:b1:de:b6:4e:65:a0:e0:d9:
        1b:5d:53:0c:ef:d3:8d:c8:1a:b9:a4:35:10:f5:53:93:ad:d0:
        21:e3:4f:a9:28:b9:3a:17:83:4a:2f:82:e8:e9:c2:09:f7:bd:
        12:3e:51:70:05:ef:a4:6d:39:8a:10:bc:a7:e6:3e:ee:6f:26:
        7f:61:45:b3:83:b8:b8:26:95:dd:8f:e8:b8:ce:79:a7:0d:e5:
        41:18:29:b4:7c:d2:c0:88:e3:36:01:af:b8:88:f7:b2:57:52:
        b2:d0:17:74:b1:ef:ea:74:17:34:1e:36:54:17:7e:10:44:66:
        21:c1:30:7f:c8:59:08:79:44:bc:91:97:a6:3b:01:6c:b1:74:
        40:84:91:5f:66:bf:e9:53:81:b5:0a:5c:56:48:f6:cc:e7:ff:
        5f:2b:f0:76:02:39:ec:c5:30:de:67:c5:2e:54:d9:4e:0a:3f:
        d8:1b:74:4e
-----BEGIN CERTIFICATE-----
MIIGRjCCBS6gAwIBAgIIMjAwMDAwNDMwDQYJKoZIhvcNAQELBQAwZzELMAkGA1UE
BhMCSlAxHDAaBgNVBAoME0phcGFuZXNlIEdvdmVybm1lbnQxHzAdBgNVBAsMFk5h
dGlvbmFsIFBvbGljZSBBZ2VuY3kxGTAXBgNVBAsMEE5QQSBJQ0RMIFJvb3QgQ0Ew
HhcNMjMwMjA2MDEzNzU3WhcNMjgwMjA1MTQ1OTU5WjCBmjELMAkGA1UEBhMCSlAx
HDAaBgNVBAoME0phcGFuZXNlIEdvdmVybm1lbnQxHzAdBgNVBAsMFk5hdGlvbmFs
IFBvbGljZSBBZ2VuY3kxNzA1BgNVBAsMLlByZWZlY3R1cmFsIFB1YmxpYyBTYWZl
dHkgQ29tbWlzc2lvbnMgZm9yIElDREwxEzARBgNVBAMMCkFraXRhIFBQU0MwggEi
MA0GCSqGSIb3DQEBAQUAA4IBDwAwggEKAoIBAQClvkuWU2ltYtG2sH8neUOD628K
za4ApRA8p3BtyfqcmOlFgfyP2R8T8oJUBROoDF2ZiKvkZrxmuANYOfmYW2EPA4kD
gMs/OtHFQAMeTLHEvLxouHYLAZx8duru9vC4fIDCLNg3AB6FMGW2BuWiar3VgtTN
1vnAyjdxujfd8qBSr9JE4OVBPx9ueh387QjmLu8v+09z9MvZVToVPO4Xu39pA0DF
V6UNdWQ3TaLdveY7XQS92O/l0sx5y7NnxQVon8OdLDgSTr171OWqQSo5sN/ZVPT2
pgQ+OOnkvxHekYRJ4k6Jf4bRvoDPVsvL6U4JHWOlb7NYvXrnprxeURTC6HM3AgMB
AAGjggLAMIICvDCBmAYDVR0jBIGQMIGNgBQRzY5gREdXT0/L6efLoUbfug5Qi6Fr
pGkwZzELMAkGA1UEBhMCSlAxHDAaBgNVBAoME0phcGFuZXNlIEdvdmVybm1lbnQx
HzAdBgNVBAsMFk5hdGlvbmFsIFBvbGljZSBBZ2VuY3kxGTAXBgNVBAsMEE5QQSBJ
Q0RMIFJvb3QgQ0GCCDIwMDAwMDE2MB0GA1UdDgQWBBTR1FBp6ylwmgB3PDwgEV97
gzsH+DAOBgNVHQ8BAf8EBAMCBsAwQAYDVR0gAQH/BDYwNDAyBgsqgwiGjhgHBQEB
CjAjMCEGCCsGAQUFBwIBFhVodHRwOi8vd3d3Lm5wYS5nby5qcC8wgZUGA1UdEQSB
jTCBiqSBhzCBhDELMAkGA1UEBhMCSlAxGDAWBgNVBAoMD+aXpeacrOWbveaUv+W6
nDESMBAGA1UECwwJ6K2m5a+f5bqBMSQwIgYDVQQLDBvpg73pgZPlupznnIzlhazl
ronlp5Tlk6HkvJoxITAfBgNVBAMMGOeni+eUsOecjOWFrOWuieWnlOWToeS8mjB0
BgNVHRIEbTBrpGkwZzELMAkGA1UEBhMCSlAxGDAWBgNVBAoMD+aXpeacrOWbveaU
v+W6nDESMBAGA1UECwwJ6K2m5a+f5bqBMSowKAYDVQQLDCHorablr5/luoHpgYvo
u6LlhY3oqLHoqLzoqo3oqLzlsYAwgZ8GA1UdHwSBlzCBlDCBkaCBjqCBi6SBiDCB
hTELMAkGA1UEBhMCSlAxHDAaBgNVBAoME0phcGFuZXNlIEdvdmVybm1lbnQxHzAd
BgNVBAsMFk5hdGlvbmFsIFBvbGljZSBBZ2VuY3kxNzA1BgNVBAsMLlByZWZlY3R1
cmFsIFB1YmxpYyBTYWZldHkgQ29tbWlzc2lvbnMgZm9yIElDREwwDQYJKoZIhvcN
AQELBQADggEBAJd49cxn/d+eFT0hjZdbXqVpq4cdWKIVvo+nCkHpdEkhSTY4Ax4J
/dc2+eow08JAM/IOB034jVY+ShE670to4AEaF7zwbryYRvQ8jsqzmMVvRnGx3rZO
ZaDg2RtdUwzv043IGrmkNRD1U5Ot0CHjT6kouToXg0ovgujpwgn3vRI+UXAF76Rt
OYoQvKfmPu5vJn9hRbODuLgmld2P6LjOeacN5UEYKbR80sCI4zYBr7iI97JXUrLQ
F3Sx7+p0FzQeNlQXfhBEZiHBMH/IWQh5RLyRl6Y7AWyxdECEkV9mv+lTgbUKXFZI
9szn/18r8HYCOezFMN5nxS5U2U4KP9gbdE4=
-----END CERTIFICATE-----
