Certificate:
    Data:
        Version: 3 (0x2)
        Serial Number:
            33:30:30:30:30:30:35:38
        Signature Algorithm: sha256WithRSAEncryption
        Issuer: C=JP, O=Japanese Government, OU=National Police Agency, OU=NPA ICDL Root CA
        Validity
            Not Before: Nov  1 04:15:26 2023 GMT
            Not After : Oct 31 14:59:59 2028 GMT
        Subject: C=JP, O=Japanese Government, OU=National Police Agency, OU=Prefectural Public Safety Commissions for ICDL, CN=Akita PPSC
        Subject Public Key Info:
            Public Key Algorithm: rsaEncryption
                Public-Key: (2048 bit)
                Modulus:
                    00:e1:90:15:8f:db:e2:52:d3:72:47:a5:7e:67:ba:
                    af:71:5c:0c:33:60:ef:c0:c1:ba:d1:a3:b9:81:0f:
                    23:91:c2:00:75:9c:df:1b:b3:b7:b9:4b:47:3b:f4:
                    fa:f2:a8:16:a0:64:20:34:dd:c5:95:57:61:6a:08:
                    67:bb:21:8f:d4:6c:41:e9:68:72:54:51:b4:bb:10:
                    d1:3e:00:d4:2d:9e:ff:9b:b9:5f:ce:ed:70:be:19:
                    8c:d7:2d:78:e3:c1:54:cb:e2:0b:aa:f1:39:1b:15:
                    6b:90:29:6e:60:a2:48:c4:7e:51:5c:78:a2:ae:ff:
                    38:39:75:62:a1:0b:45:f5:8c:f9:54:d2:54:54:68:
                    c7:49:51:40:1e:55:cd:9f:5d:35:6f:cd:cc:7c:e0:
                    7d:b9:44:6d:e6:b9:4d:ce:df:b7:95:d0:b2:4f:a5:
                    43:6b:70:05:3f:10:e8:3e:eb:f0:80:4a:85:90:c6:
                    74:68:ce:e1:8a:ba:fc:b1:c5:35:92:ef:68:de:9f:
                    30:cc:4f:87:90:f8:9a:4d:d3:61:56:81:f6:bc:68:
                    b1:a3:a2:4c:88:0e:cf:94:47:95:67:dc:0c:e9:cf:
                    12:28:ec:fa:72:14:0c:82:b3:10:25:64:2c:10:11:
                    21:5c:cd:24:e2:15:f7:86:da:68:07:3e:5e:39:a8:
                    f0:57
                Exponent: 65537 (0x10001)
        X509v3 extensions:
            X509v3 Authority Key Identifier: 
                keyid:11:CD:8E:60:44:47:57:4F:4F:CB:E9:E7:CB:A1:46:DF:BA:0E:50:8B
                DirName:/C=JP/O=Japanese Government/OU=National Police Agency/OU=NPA ICDL Root CA
                serial:32:30:30:30:30:30:31:36
            X509v3 Subject Key Identifier: 
                F2:13:0C:77:F3:62:05:DA:AE:9D:D3:0A:13:8D:1A:6C:96:FF:53:B3
            X509v3 Key Usage: critical
                Digital Signature, Non Repudiation
            X509v3 Certificate Policies: critical
                Policy: 1.2.392.100120.7.5.1.1.10
                  CPS: http://www.npa.go.jp/
            X509v3 Subject Alternative Name: 
                DirName:/C=JP/O=\xE6\x97\xA5\xE6\x9C\xAC\xE5\x9B\xBD\xE6\x94\xBF\xE5\xBA\x9C/OU=\xE8\xAD\xA6\xE5\xAF\x9F\xE5\xBA\x81/OU=\xE9\x83\xBD\xE9\x81\x93\xE5\xBA\x9C\xE7\x9C\x8C\xE5\x85\xAC\xE5\xAE\x89\xE5\xA7\x94\xE5\x93\xA1\xE4\xBC\x9A
            X509v3 Issuer Alternative Name: 
                DirName:/C=JP/O=\xE6\x97\xA5\xE6\x9C\xAC\xE5\x9B\xBD\xE6\x94\xBF\xE5\xBA\x9C/OU=\xE8\xAD\xA6\xE5\xAF\x9F\xE5\xBA\x81/OU=\xE8\xAD\xA6\xE5\xAF\x9F\xE5\xBA\x81\xE9\x81\x8B\xE8\xBB\xA2\xE5\x85\x8D\xE8\xA8\xB1\xE8\xA8\xBC\xE8\xAA\x8D\xE8\xA8\xBC\xE5\xB1\x80
            X509v3 CRL Distribution Points: 
                Full Name:
                  DirName:C = JP, O = Japanese Government, OU = National Police Agency, OU = Prefectural Public Safety Commissions for ICDL
    Signature Algorithm: sha256WithRSAEncryption
    Signature Value:
        4d:8a:a0:43:4e:66:25:6a:f7:66:76:3e:8e:a9:c3:be:ec:c2:
        89:b8:59:e6:dd:08:87:4a:e9:f3:0f:68:93:b8:6b:f6:17:f3:
        63:96:34:b2:f0:71:8a:25:a6:91:03:c8:71:b8:3a:32:af:28:
        f0:d3:db:26:10:e0:41:79:74:ba:74:c3:8c:52:23:df:7f:01:
        2f:19:58:f2:04:88:51:0a:93:a5:09:e7:22:48:5d:f9:a8:4a:
        dd:42:52:9e:ac:40:6d:6e:07:64:11:05:2e:a4:68:ff:a0:0a:
        b3:38:99:79:c6:74:4f:94:31:95:fe:cf:bb:b8:d8:c6:10:d7:
        20:5d:b7:6b:5a:03:76:0f:f8:6a:77:5d:1d:80:95:7a:a7:00:
        40:98:4a:ea:66:c0:47:78:a9:c0:32:4b:24:b8:a5:b9:8e:06:
        70:fa:3d:44:b9:0b:67:96:b2:de:b9:4d:d4:6d:e9:b6:4f:ec:
        d4:e8:cf:ae:22:e0:ae:18:f7:7d:b3:61:b1:24:b8:a4:f1:63:
        32:65:1c:b4:ff:fc:c0:b0:3e:b1:dd:cd:8e:86:f4:8e:1f:cb:
        23:e6:a3:7e:2d:f5:e6:32:2d:88:f9:48:cc:63:5b:65:41:4d:
        db:ed:aa:da:8f:72:ff:33:05:7a:b2:f0:86:a1:60:bc:c5:dd:
        9f:84:7b:93
-----BEGIN CERTIFICATE-----
MIIGRjCCBS6gAwIBAgIIMzAwMDAwNTgwDQYJKoZIhvcNAQELBQAwZzELMAkGA1UE
BhMCSlAxHDAaBgNVBAoME0phcGFuZXNlIEdvdmVybm1lbnQxHzAdBgNVBAsMFk5h
dGlvbmFsIFBvbGljZSBBZ2VuY3kxGTAXBgNVBAsMEE5QQSBJQ0RMIFJvb3QgQ0Ew
HhcNMjMxMTAxMDQxNTI2WhcNMjgxMDMxMTQ1OTU5WjCBmjELMAkGA1UEBhMCSlAx
HDAaBgNVBAoME0phcGFuZXNlIEdvdmVybm1lbnQxHzAdBgNVBAsMFk5hdGlvbmFs
IFBvbGljZSBBZ2VuY3kxNzA1BgNVBAsMLlByZWZlY3R1cmFsIFB1YmxpYyBTYWZl
dHkgQ29tbWlzc2lvbnMgZm9yIElDREwxEzARBgNVBAMMCkFraXRhIFBQU0MwggEi
MA0GCSqGSIb3DQEBAQUAA4IBDwAwggEKAoIBAQDhkBWP2+JS03JHpX5nuq9xXAwz
YO/AwbrRo7mBDyORwgB1nN8bs7e5S0c79PryqBagZCA03cWVV2FqCGe7IY/UbEHp
aHJUUbS7ENE+ANQtnv+buV/O7XC+GYzXLXjjwVTL4guq8TkbFWuQKW5gokjEflFc
eKKu/zg5dWKhC0X1jPlU0lRUaMdJUUAeVc2fXTVvzcx84H25RG3muU3O37eV0LJP
pUNrcAU/EOg+6/CASoWQxnRozuGKuvyxxTWS72jenzDMT4eQ+JpN02FWgfa8aLGj
okyIDs+UR5Vn3AzpzxIo7PpyFAyCsxAlZCwQESFczSTiFfeG2mgHPl45qPBXAgMB
AAGjggLAMIICvDCBmAYDVR0jBIGQMIGNgBQRzY5gREdXT0/L6efLoUbfug5Qi6Fr
pGkwZzELMAkGA1UEBhMCSlAxHDAaBgNVBAoME0phcGFuZXNlIEdvdmVybm1lbnQx
HzAdBgNVBAsMFk5hdGlvbmFsIFBvbGljZSBBZ2VuY3kxGTAXBgNVBAsMEE5QQSBJ
Q0RMIFJvb3QgQ0GCCDIwMDAwMDE2MB0GA1UdDgQWBBTyEwx382IF2q6d0woTjRps
lv9TszAOBgNVHQ8BAf8EBAMCBsAwQAYDVR0gAQH/BDYwNDAyBgsqgwiGjhgHBQEB
CjAjMCEGCCsGAQUFBwIBFhVodHRwOi8vd3d3Lm5wYS5nby5qcC8wgZUGA1UdEQSB
jTCBiqSBhzCBhDELMAkGA1UEBhMCSlAxGDAWBgNVBAoMD+aXpeacrOWbveaUv+W6
nDESMBAGA1UECwwJ6K2m5a+f5bqBMSQwIgYDVQQLDBvpg73pgZPlupznnIzlhazl
ronlp5Tlk6HkvJoxITAfBgNVBAMMGOeni+eUsOecjOWFrOWuieWnlOWToeS8mjB0
BgNVHRIEbTBrpGkwZzELMAkGA1UEBhMCSlAxGDAWBgNVBAoMD+aXpeacrOWbveaU
v+W6nDESMBAGA1UECwwJ6K2m5a+f5bqBMSowKAYDVQQLDCHorablr5/luoHpgYvo
u6LlhY3oqLHoqLzoqo3oqLzlsYAwgZ8GA1UdHwSBlzCBlDCBkaCBjqCBi6SBiDCB
hTELMAkGA1UEBhMCSlAxHDAaBgNVBAoME0phcGFuZXNlIEdvdmVybm1lbnQxHzAd
BgNVBAsMFk5hdGlvbmFsIFBvbGljZSBBZ2VuY3kxNzA1BgNVBAsMLlByZWZlY3R1
cmFsIFB1YmxpYyBTYWZldHkgQ29tbWlzc2lvbnMgZm9yIElDREwwDQYJKoZIhvcN
AQELBQADggEBAE2KoENOZiVq92Z2Po6pw77swom4WebdCIdK6fMPaJO4a/YX82OW
NLLwcYolppEDyHG4OjKvKPDT2yYQ4EF5dLp0w4xSI99/AS8ZWPIEiFEKk6UJ5yJI
XfmoSt1CUp6sQG1uB2QRBS6kaP+gCrM4mXnGdE+UMZX+z7u42MYQ1yBdt2taA3YP
+Gp3XR2AlXqnAECYSupmwEd4qcAySyS4pbmOBnD6PUS5C2eWst65TdRt6bZP7NTo
z64i4K4Y932zYbEkuKTxYzJlHLT//MCwPrHdzY6G9I4fyyPmo34t9eYyLYj5SMxj
W2VBTdvtqtqPcv8zBXqy8IahYLzF3Z+Ee5M=
-----END CERTIFICATE-----
