Certificate:
    Data:
        Version: 3 (0x2)
        Serial Number:
            33:30:30:30:30:30:37:38
        Signature Algorithm: sha256WithRSAEncryption
        Issuer: C=JP, O=Japanese Government, OU=National Police Agency, OU=NPA ICDL Root CA
        Validity
            Not Before: Mar 18 05:12:56 2024 GMT
            Not After : Mar 17 14:59:59 2029 GMT
        Subject: C=JP, O=Japanese Government, OU=National Police Agency, OU=Prefectural Public Safety Commissions for ICDL, CN=Akita AltPPSC
        Subject Public Key Info:
            Public Key Algorithm: rsaEncryption
                Public-Key: (2048 bit)
                Modulus:
                    00:a5:be:4b:96:53:69:6d:62:d1:b6:b0:7f:27:79:
                    43:83:eb:6f:0a:cd:ae:00:a5:10:3c:a7:70:6d:c9:
                    fa:9c:98:e9:45:81:fc:8f:d9:1f:13:f2:82:54:05:
                    13:a8:0c:5d:99:88:ab:e4:66:bc:66:b8:03:58:39:
                    f9:98:5b:61:0f:03:89:03:80:cb:3f:3a:d1:c5:40:
                    03:1e:4c:b1:c4:bc:bc:68:b8:76:0b:01:9c:7c:76:
                    ea:ee:f6:f0:b8:7c:80:c2:2c:d8:37:00:1e:85:30:
                    65:b6:06:e5:a2:6a:bd:d5:82:d4:cd:d6:f9:c0:ca:
                    37:71:ba:37:dd:f2:a0:52:af:d2:44:e0:e5:41:3f:
                    1f:6e:7a:1d:fc:ed:08:e6:2e:ef:2f:fb:4f:73:f4:
                    cb:d9:55:3a:15:3c:ee:17:bb:7f:69:03:40:c5:57:
                    a5:0d:75:64:37:4d:a2:dd:bd:e6:3b:5d:04:bd:d8:
                    ef:e5:d2:cc:79:cb:b3:67:c5:05:68:9f:c3:9d:2c:
                    38:12:4e:bd:7b:d4:e5:aa:41:2a:39:b0:df:d9:54:
                    f4:f6:a6:04:3e:38:e9:e4:bf:11:de:91:84:49:e2:
                    4e:89:7f:86:d1:be:80:cf:56:cb:cb:e9:4e:09:1d:
                    63:a5:6f:b3:58:bd:7a:e7:a6:bc:5e:51:14:c2:e8:
                    73:37
                Exponent: 65537 (0x10001)
        X509v3 extensions:
            X509v3 Authority Key Identifier: 
                keyid:11:CD:8E:60:44:47:57:4F:4F:CB:E9:E7:CB:A1:46:DF:BA:0E:50:8B
                DirName:/C=JP/O=Japanese Government/OU=National Police Agency/OU=NPA ICDL Root CA
                serial:32:30:30:30:30:30:31:36
            X509v3 Subject Key Identifier: 
                D1:D4:50:69:EB:29:70:9A:00:77:3C:3C:20:11:5F:7B:83:3B:07:F8
            X509v3 Key Usage: critical
                Digital Signature, Non Repudiation
            X509v3 Certificate Policies: critical
                Policy: 1.2.392.100120.7.5.1.1.10
                  CPS: http://www.npa.go.jp/
            X509v3 Issuer Alternative Name: 
                DirName:/C=JP/O=\xE6\x97\xA5\xE6\x9C\xAC\xE5\x9B\xBD\xE6\x94\xBF\xE5\xBA\x9C/OU=\xE8\xAD\xA6\xE5\xAF\x9F\xE5\xBA\x81/OU=\xE8\xAD\xA6\xE5\xAF\x9F\xE5\xBA\x81\xE9\x81\x8B\xE8\xBB\xA2\xE5\x85\x8D\xE8\xA8\xB1\xE8\xA8\xBC\xE8\xAA\x8D\xE8\xA8\xBC\xE5\xB1\x80
            X509v3 CRL Distribution Points: 
                Full Name:
                  DirName:C = JP, O = Japanese Government, OU = National Police Agency, OU = Prefectural Public Safety Commissions for ICDL
    Signature Algorithm: sha256WithRSAEncryption
    Signature Value:
        9f:5d:91:f1:69:d3:ab:a6:2c:f5:5c:3f:5a:02:76:fb:75:ca:
        4a:03:7a:6a:84:8d:37:b8:96:cb:68:ff:ee:1e:33:27:bf:14:
        1c:f7:70:eb:cf:25:a8:99:4f:f2:b5:bc:72:68:87:c2:60:f4:
        00:fc:0d:92:79:2d:73:19:d5:3f:2b:a3:44:19:ad:fb:c5:f7:
        f8:c4:9a:f2:18:3c:e3:3b:b5:59:6f:5a:2a:b4:de:e0:30:0d:
        4a:d1:94:d5:00:33:9b:b9:75:f5:d9:86:03:3a:5e:bd:c6:24:
        62:f5:0d:3d:83:30:d1:0f:d1:ac:10:54:94:57:9a:8b:e6:87:
        8c:f0:6f:a9:62:8a:f8:39:9c:86:6d:40:20:70:e1:db:04:b6:
        7e:66:7d:ae:9b:25:b2:39:b4:ea:b2:8a:a6:ba:00:df:86:c3:
        b5:eb:9d:c5:cb:79:d3:7b:81:e0:aa:20:16:c6:df:b5:01:b7:
        a4:36:c2:e3:18:bf:31:6a:2a:39:4e:41:c6:6e:47:f5:3e:98:
        f5:9a:61:80:61:cb:a5:e3:85:14:b1:d8:0f:94:d7:6c:bf:cb:
        be:fe:63:56:58:0e:0d:3b:9e:04:5c:56:6b:0f:6c:bf:c4:81:
        ea:d3:00:eb:f2:ed:6d:ba:68:42:51:dd:f1:dd:fa:bf:e7:d1:
        a8:35:6a:7b
-----BEGIN CERTIFICATE-----
MIIFsTCCBJmgAwIBAgIIMzAwMDAwNzgwDQYJKoZIhvcNAQELBQAwZzELMAkGA1UE
BhMCSlAxHDAaBgNVBAoME0phcGFuZXNlIEdvdmVybm1lbnQxHzAdBgNVBAsMFk5h
dGlvbmFsIFBvbGljZSBBZ2VuY3kxGTAXBgNVBAsMEE5QQSBJQ0RMIFJvb3QgQ0Ew
HhcNMjQwMzE4MDUxMjU2WhcNMjkwMzE3MTQ1OTU5WjCBnTELMAkGA1UEBhMCSlAx
HDAaBgNVBAoME0phcGFuZXNlIEdvdmVybm1lbnQxHzAdBgNVBAsMFk5hdGlvbmFs
IFBvbGljZSBBZ2VuY3kxNzA1BgNVBAsMLlByZWZlY3R1cmFsIFB1YmxpYyBTYWZl
dHkgQ29tbWlzc2lvbnMgZm9yIElDREwxFjAUBgNVBAMMDUFraXRhIEFsdFBQU0Mw
ggEiMA0GCSqGSIb3DQEBAQUAA4IBDwAwggEKAoIBAQClvkuWU2ltYtG2sH8neUOD
628Kza4ApRA8p3BtyfqcmOlFgfyP2R8T8oJUBROoDF2ZiKvkZrxmuANYOfmYW2EP
A4kDgMs/OtHFQAMeTLHEvLxouHYLAZx8duru9vC4fIDCLNg3AB6FMGW2BuWiar3V
gtTN1vnAyjdxujfd8qBSr9JE4OVBPx9ueh387QjmLu8v+09z9MvZVToVPO4Xu39p
A0DFV6UNdWQ3TaLdveY7XQS92O/l0sx5y7NnxQVon8OdLDgSTr171OWqQSo5sN/Z
VPT2pgQ+OOnkvxHekYRJ4k6Jf4bRvoDPVsvL6U4JHWOlb7NYvXrnprxeURTC6HM3
AgMBAAGjggIoMIICJDCBmAYDVR0jBIGQMIGNgBQRzY5gREdXT0/L6efLoUbfug5Q
i6FrpGkwZzELMAkGA1UEBhMCSlAxHDAaBgNVBAoME0phcGFuZXNlIEdvdmVybm1l
bnQxHzAdBgNVBAsMFk5hdGlvbmFsIFBvbGljZSBBZ2VuY3kxGTAXBgNVBAsMEE5Q
QSBJQ0RMIFJvb3QgQ0GCCDIwMDAwMDE2MB0GA1UdDgQWBBTR1FBp6ylwmgB3PDwg
EV97gzsH+DAOBgNVHQ8BAf8EBAMCBsAwQAYDVR0gAQH/BDYwNDAyBgsqgwiGjhgH
BQEBCjAjMCEGCCsGAQUFBwIBFhVodHRwOi8vd3d3Lm5wYS5nby5qcC8wdAYDVR0S
BG0wa6RpMGcxCzAJBgNVBAYTAkpQMRgwFgYDVQQKDA/ml6XmnKzlm73mlL/lupwx
EjAQBgNVBAsMCeitpuWvn+W6gTEqMCgGA1UECwwh6K2m5a+f5bqB6YGL6Lui5YWN
6Kix6Ki86KqN6Ki85bGAMIGfBgNVHR8EgZcwgZQwgZGggY6ggYukgYgwgYUxCzAJ
BgNVBAYTAkpQMRwwGgYDVQQKDBNKYXBhbmVzZSBHb3Zlcm5tZW50MR8wHQYDVQQL
DBZOYXRpb25hbCBQb2xpY2UgQWdlbmN5MTcwNQYDVQQLDC5QcmVmZWN0dXJhbCBQ
dWJsaWMgU2FmZXR5IENvbW1pc3Npb25zIGZvciBJQ0RMMA0GCSqGSIb3DQEBCwUA
A4IBAQCfXZHxadOrpiz1XD9aAnb7dcpKA3pqhI03uJbLaP/uHjMnvxQc93DrzyWo
mU/ytbxyaIfCYPQA/A2SeS1zGdU/K6NEGa37xff4xJryGDzjO7VZb1oqtN7gMA1K
0ZTVADObuXX12YYDOl69xiRi9Q09gzDRD9GsEFSUV5qL5oeM8G+pYor4OZyGbUAg
cOHbBLZ+Zn2umyWyObTqsoqmugDfhsO1653Fy3nTe4HgqiAWxt+1AbekNsLjGL8x
aio5TkHGbkf1Ppj1mmGAYcul44UUsdgPlNdsv8u+/mNWWA4NO54EXFZrD2y/xIHq
0wDr8u1tumhCUd3x3fq/59GoNWp7
-----END CERTIFICATE-----
