Certificate:
    Data:
        Version: 3 (0x2)
        Serial Number:
            33:30:30:30:30:30:39:37
        Signature Algorithm: sha256WithRSAEncryption
        Issuer: C=JP, O=Japanese Government, OU=National Police Agency, OU=NPA ICDL Root CA
        Validity
            Not Before: Sep 17 07:08:12 2024 GMT
            Not After : Sep 16 14:59:59 2029 GMT
        Subject: C=JP, O=Japanese Government, OU=National Police Agency, OU=Prefectural Public Safety Commissions for ICDL, CN=Aomori PPSC
        Subject Public Key Info:
            Public Key Algorithm: rsaEncryption
                Public-Key: (2048 bit)
                Modulus:
                    00:aa:35:09:e9:87:d2:cc:a3:8c:e0:15:00:63:ab:
                    17:e0:dd:15:fd:2d:6c:e1:f1:b1:ea:5b:08:f7:6b:
                    8b:33:97:3a:92:4d:fb:c4:79:3e:7d:cc:de:9b:ba:
                    a6:44:a7:46:75:58:93:f8:3f:b7:2c:8a:21:32:38:
                    d5:71:72:82:7a:96:eb:57:31:3b:28:bf:27:c9:e2:
                    53:fb:aa:08:ec:fd:10:0a:39:dc:59:7a:a5:e6:f5:
                    95:4b:c7:5f:47:d6:06:87:c2:c4:bb:e1:cf:59:06:
                    df:ae:34:62:7a:b5:d4:6c:83:73:3f:99:63:94:d6:
                    60:63:bb:03:13:1c:b9:73:14:f8:aa:61:06:2c:16:
                    2f:2c:77:e3:32:65:9d:77:64:f9:81:e5:c7:a0:36:
                    3d:0f:11:26:c4:bf:d9:24:63:0a:61:be:b9:0d:ea:
                    16:62:eb:14:b5:e5:1d:92:5d:09:3b:5c:f6:7c:2d:
                    bb:a6:cc:e8:00:ba:18:50:ff:40:b7:09:ae:d0:ed:
                    ec:65:40:b2:4d:61:be:f0:09:31:79:8c:23:a4:4f:
                    e6:9e:06:f5:c1:e8:64:c0:91:3b:8c:f0:d4:52:de:
                    ea:2c:4f:78:ff:0a:99:f1:3f:62:25:32:03:e3:8f:
                    ba:9e:4f:fa:e5:c8:b5:74:90:8c:2b:03:b6:fb:b8:
                    10:c9
                Exponent: 65537 (0x10001)
        X509v3 extensions:
            X509v3 Authority Key Identifier: 
                keyid:11:CD:8E:60:44:47:57:4F:4F:CB:E9:E7:CB:A1:46:DF:BA:0E:50:8B
                DirName:/C=JP/O=Japanese Government/OU=National Police Agency/OU=NPA ICDL Root CA
                serial:32:30:30:30:30:30:31:36
            X509v3 Subject Key Identifier: 
                90:85:71:C3:03:6D:C6:53:43:94:87:E3:32:AA:44:3A:4B:F1:8C:6D
            X509v3 Key Usage: critical
                Digital Signature, Non Repudiation
            X509v3 Certificate Policies: critical
                Policy: 1.2.392.100120.7.5.1.1.10
                  CPS: http://www.npa.go.jp/
            X509v3 Subject Alternative Name: 
                DirName:/C=JP/O=\xE6\x97\xA5\xE6\x9C\xAC\xE5\x9B\xBD\xE6\x94\xBF\xE5\xBA\x9C/OU=\xE8\xAD\xA6\xE5\xAF\x9F\xE5\xBA\x81/OU=\xE9\x83\xBD\xE9\x81\x93\xE5\xBA\x9C\xE7\x9C\x8C\xE5\x85\xAC\xE5\xAE\x89\xE5\xA7\x94\xE5\x93\xA1\xE4\xBC\x9A
            X509v3 Issuer Alternative Name: 
                DirName:/C=JP/O=\xE6\x97\xA5\xE6\x9C\xAC\xE5\x9B\xBD\xE6\x94\xBF\xE5\xBA\x9C/OU=\xE8\xAD\xA6\xE5\xAF\x9F\xE5\xBA\x81/OU=\xE8\xAD\xA6\xE5\xAF\x9F\xE5\xBA\x81\xE9\x81\x8B\xE8\xBB\xA2\xE5\x85\x8D\xE8\xA8\xB1\xE8\xA8\xBC\xE8\xAA\x8D\xE8\xA8\xBC\xE5\xB1\x80
            X509v3 CRL Distribution Points: 
                Full Name:
                  DirName:C = JP, O = Japanese Government, OU = National Police Agency, OU = Prefectural Public Safety Commissions for ICDL
    Signature Algorithm: sha256WithRSAEncryption
    Signature Value:
        79:6f:62:f7:bd:03:5c:96:eb:ee:fd:3e:ba:c9:e7:ba:60:35:
        99:a2:f2:87:0a:3d:a3:08:ce:4b:c4:52:7b:f0:fe:fa:43:6d:
        9b:a8:67:67:a4:06:cb:6c:da:4a:bf:70:1f:d4:af:f0:3b:a4:
        84:dd:2d:bc:d4:77:53:1d:2e:2d:51:54:f2:53:6a:95:99:58:
        ad:dc:9b:b3:e3:e2:ee:6f:46:75:fe:a9:02:c9:d1:dc:d8:72:
        27:cc:52:31:12:68:25:2e:63:2c:6b:1e:42:75:31:46:0a:e6:
        55:4e:26:32:ad:de:d4:b3:fc:2b:5c:b4:18:84:ce:69:fc:66:
        cf:90:a6:ff:5b:c2:38:f6:a0:49:32:4c:d4:f4:df:09:82:5f:
        b1:9f:41:5d:f3:4c:40:61:57:ce:83:ef:ea:00:4c:17:de:9b:
        03:9c:99:b0:cb:a2:90:fa:48:07:0f:d6:80:ab:77:c9:1a:25:
        92:1a:ea:37:06:34:61:b9:00:97:96:56:46:9a:a3:1b:4d:14:
        1b:89:41:ec:72:93:2e:6b:c5:ee:f2:30:3c:e3:ab:04:f2:90:
        1f:3f:2c:03:c5:ce:d8:b9:a8:73:1d:d1:ba:0e:ae:9e:2d:6d:
        6e:61:b9:ad:33:20:bf:93:3a:7c:ee:7a:b5:2b:79:82:5b:54:
        f4:f8:5a:28
-----BEGIN CERTIFICATE-----
MIIGRzCCBS+gAwIBAgIIMzAwMDAwOTcwDQYJKoZIhvcNAQELBQAwZzELMAkGA1UE
BhMCSlAxHDAaBgNVBAoME0phcGFuZXNlIEdvdmVybm1lbnQxHzAdBgNVBAsMFk5h
dGlvbmFsIFBvbGljZSBBZ2VuY3kxGTAXBgNVBAsMEE5QQSBJQ0RMIFJvb3QgQ0Ew
HhcNMjQwOTE3MDcwODEyWhcNMjkwOTE2MTQ1OTU5WjCBmzELMAkGA1UEBhMCSlAx
HDAaBgNVBAoME0phcGFuZXNlIEdvdmVybm1lbnQxHzAdBgNVBAsMFk5hdGlvbmFs
IFBvbGljZSBBZ2VuY3kxNzA1BgNVBAsMLlByZWZlY3R1cmFsIFB1YmxpYyBTYWZl
dHkgQ29tbWlzc2lvbnMgZm9yIElDREwxFDASBgNVBAMMC0FvbW9yaSBQUFNDMIIB
IjANBgkqhkiG9w0BAQEFAAOCAQ8AMIIBCgKCAQEAqjUJ6YfSzKOM4BUAY6sX4N0V
/S1s4fGx6lsI92uLM5c6kk37xHk+fczem7qmRKdGdViT+D+3LIohMjjVcXKCepbr
VzE7KL8nyeJT+6oI7P0QCjncWXql5vWVS8dfR9YGh8LEu+HPWQbfrjRierXUbINz
P5ljlNZgY7sDExy5cxT4qmEGLBYvLHfjMmWdd2T5geXHoDY9DxEmxL/ZJGMKYb65
DeoWYusUteUdkl0JO1z2fC27pszoALoYUP9Atwmu0O3sZUCyTWG+8AkxeYwjpE/m
ngb1wehkwJE7jPDUUt7qLE94/wqZ8T9iJTID44+6nk/65ci1dJCMKwO2+7gQyQID
AQABo4ICwDCCArwwgZgGA1UdIwSBkDCBjYAUEc2OYERHV09Py+nny6FG37oOUIuh
a6RpMGcxCzAJBgNVBAYTAkpQMRwwGgYDVQQKDBNKYXBhbmVzZSBHb3Zlcm5tZW50
MR8wHQYDVQQLDBZOYXRpb25hbCBQb2xpY2UgQWdlbmN5MRkwFwYDVQQLDBBOUEEg
SUNETCBSb290IENBgggyMDAwMDAxNjAdBgNVHQ4EFgQUkIVxwwNtxlNDlIfjMqpE
OkvxjG0wDgYDVR0PAQH/BAQDAgbAMEAGA1UdIAEB/wQ2MDQwMgYLKoMIho4YBwUB
AQowIzAhBggrBgEFBQcCARYVaHR0cDovL3d3dy5ucGEuZ28uanAvMIGVBgNVHREE
gY0wgYqkgYcwgYQxCzAJBgNVBAYTAkpQMRgwFgYDVQQKDA/ml6XmnKzlm73mlL/l
upwxEjAQBgNVBAsMCeitpuWvn+W6gTEkMCIGA1UECwwb6YO96YGT5bqc55yM5YWs
5a6J5aeU5ZOh5LyaMSEwHwYDVQQDDBjpnZLmo67nnIzlhazlronlp5Tlk6HkvJow
dAYDVR0SBG0wa6RpMGcxCzAJBgNVBAYTAkpQMRgwFgYDVQQKDA/ml6XmnKzlm73m
lL/lupwxEjAQBgNVBAsMCeitpuWvn+W6gTEqMCgGA1UECwwh6K2m5a+f5bqB6YGL
6Lui5YWN6Kix6Ki86KqN6Ki85bGAMIGfBgNVHR8EgZcwgZQwgZGggY6ggYukgYgw
gYUxCzAJBgNVBAYTAkpQMRwwGgYDVQQKDBNKYXBhbmVzZSBHb3Zlcm5tZW50MR8w
HQYDVQQLDBZOYXRpb25hbCBQb2xpY2UgQWdlbmN5MTcwNQYDVQQLDC5QcmVmZWN0
dXJhbCBQdWJsaWMgU2FmZXR5IENvbW1pc3Npb25zIGZvciBJQ0RMMA0GCSqGSIb3
DQEBCwUAA4IBAQB5b2L3vQNcluvu/T66yee6YDWZovKHCj2jCM5LxFJ78P76Q22b
qGdnpAbLbNpKv3Af1K/wO6SE3S281HdTHS4tUVTyU2qVmVit3Juz4+Lub0Z1/qkC
ydHc2HInzFIxEmglLmMsax5CdTFGCuZVTiYyrd7Us/wrXLQYhM5p/GbPkKb/W8I4
9qBJMkzU9N8Jgl+xn0Fd80xAYVfOg+/qAEwX3psDnJmwy6KQ+kgHD9aAq3fJGiWS
Guo3BjRhuQCXllZGmqMbTRQbiUHscpMua8Xu8jA846sE8pAfPywDxc7YuahzHdG6
Dq6eLW1uYbmtMyC/kzp87nq1K3mCW1T0+Foo
-----END CERTIFICATE-----
