Certificate:
    Data:
        Version: 3 (0x2)
        Serial Number:
            33:30:30:30:30:30:31:31:be:5a:72:b4:17:55:cd:e9:fb:1c
        Signature Algorithm: sha256WithRSAEncryption
        Issuer: C=JP, O=Japanese Government, OU=National Police Agency, OU=NPA ICDL Root CA
        Validity
            Not Before: Jun 19 05:25:36 2023 GMT
            Not After : Jun 18 14:59:59 2028 GMT
        Subject: C=JP, O=Japanese Government, OU=National Police Agency, OU=Prefectural Public Safety Commissions for ICDL, CN=Aomori AltPPSC
        Subject Public Key Info:
            Public Key Algorithm: rsaEncryption
                Public-Key: (2048 bit)
                Modulus:
                    00:a2:82:a1:f9:bf:54:5d:3b:01:98:0c:88:49:d2:
                    4b:3c:c3:3d:21:ae:e4:a7:2f:56:be:22:c7:1a:52:
                    48:6e:0a:df:73:03:6f:e8:3e:9d:ea:bd:44:8a:dc:
                    45:4c:a8:a7:81:6d:7f:da:b9:ec:8a:f4:43:b5:08:
                    af:8d:2e:ca:6e:3c:b6:c9:15:6a:7d:18:fa:d2:07:
                    0b:cf:fb:af:e4:11:e3:7c:ea:0f:b9:38:1f:cd:c2:
                    7d:dd:cc:d4:54:96:da:ce:48:36:15:54:cd:10:92:
                    64:73:a2:fb:c6:75:11:eb:6b:ea:9f:4e:e2:01:91:
                    d7:4d:67:38:c6:20:02:90:e6:32:75:4b:6b:14:2c:
                    3d:e6:e8:26:8e:97:6f:cc:a8:4f:ee:1e:9a:b1:c2:
                    f7:0a:da:39:6d:b8:0d:21:88:e6:b6:ff:0c:31:bc:
                    13:11:f1:62:29:af:34:43:bd:ff:7a:41:20:77:df:
                    28:1d:74:42:6b:b0:93:bf:83:f9:d3:83:a6:4b:3d:
                    02:0a:a3:07:5f:a6:8b:a9:4c:fa:09:06:98:02:7f:
                    e0:e0:74:0a:1f:8c:19:be:4e:a3:2f:1c:98:16:ee:
                    cd:89:ca:c3:5f:93:ce:a6:bf:6e:ab:5b:c2:a6:5e:
                    f0:02:49:c4:67:fc:66:09:c9:de:75:eb:37:12:b8:
                    22:c9
                Exponent: 65537 (0x10001)
        X509v3 extensions:
            X509v3 Authority Key Identifier: 
                keyid:11:CD:8E:60:44:47:57:4F:4F:CB:E9:E7:CB:A1:46:DF:BA:0E:50:8B
                DirName:/C=JP/O=Japanese Government/OU=National Police Agency/OU=NPA ICDL Root CA
                serial:32:30:30:30:30:30:31:36
            X509v3 Subject Key Identifier: 
                E3:F2:08:AB:7E:10:F0:72:ED:1C:69:3E:DA:A3:BE:C9:67:F0:C4:53
            X509v3 Key Usage: critical
                Digital Signature, Non Repudiation
            X509v3 Certificate Policies: critical
                Policy: 1.2.392.100120.7.5.1.1.10
                  CPS: http://www.npa.go.jp/
            X509v3 Issuer Alternative Name: 
                DirName:/C=JP/O=\xE6\x97\xA5\xE6\x9C\xAC\xE5\x9B\xBD\xE6\x94\xBF\xE5\xBA\x9C/OU=\xE8\xAD\xA6\xE5\xAF\x9F\xE5\xBA\x81/OU=\xE8\xAD\xA6\xE5\xAF\x9F\xE5\xBA\x81\xE9\x81\x8B\xE8\xBB\xA2\xE5\x85\x8D\xE8\xA8\xB1\xE8\xA8\xBC\xE8\xAA\x8D\xE8\xA8\xBC\xE5\xB1\x80
            X509v3 CRL Distribution Points: 
                Full Name:
                  DirName:C = JP, O = Japanese Government, OU = National Police Agency, OU = Prefectural Public Safety Commissions for ICDL
    Signature Algorithm: sha256WithRSAEncryption
    Signature Value:
        87:f4:7b:12:57:48:8b:91:42:7d:66:72:e5:55:69:e0:c1:6c:
        c8:2b:17:06:75:8e:62:f6:88:5a:6d:53:7a:7b:3b:ae:dc:e8:
        a3:ba:e8:9b:f8:fc:9a:ec:39:08:e9:c2:28:ee:c0:d3:f2:ba:
        82:b3:15:b1:9a:82:df:6d:08:34:e3:8f:14:53:09:2e:cc:bd:
        a8:50:56:08:e1:0c:27:e5:fb:e8:03:6b:14:ba:a2:f3:b1:6d:
        23:55:03:fb:55:4e:68:77:10:48:04:b1:ab:23:60:6f:a1:0e:
        96:e6:f2:9b:cf:03:b9:8c:c6:4b:02:e5:d1:d5:57:9e:3e:e7:
        b7:3a:0f:1b:3a:30:3d:a0:0a:4a:6a:5e:9f:d4:fb:79:3f:6c:
        d2:20:22:e9:1a:8a:28:f1:2e:29:9a:a9:ed:1e:c7:1b:0a:10:
        3f:3b:b3:e6:88:c6:e3:a7:d1:86:99:95:ea:39:43:4b:0d:62:
        b7:b1:4c:0b:c9:59:d6:fe:dd:74:cb:06:0b:4f:47:46:0c:03:
        c0:0a:d7:5a:54:c8:f8:80:5e:6b:21:74:11:0e:17:e9:af:ce:
        22:11:bd:32:50:81:64:b0:ba:98:c2:16:e0:f1:10:49:22:8a:
        0e:55:3d:b2:4e:89:7c:6b:aa:ec:5e:41:31:c3:9b:b4:7a:24:
        87:8c:ee:50
-----BEGIN CERTIFICATE-----
MIIFvDCCBKSgAwIBAgISMzAwMDAwMTG+WnK0F1XN6fscMA0GCSqGSIb3DQEBCwUA
MGcxCzAJBgNVBAYTAkpQMRwwGgYDVQQKDBNKYXBhbmVzZSBHb3Zlcm5tZW50MR8w
HQYDVQQLDBZOYXRpb25hbCBQb2xpY2UgQWdlbmN5MRkwFwYDVQQLDBBOUEEgSUNE
TCBSb290IENBMB4XDTIzMDYxOTA1MjUzNloXDTI4MDYxODE0NTk1OVowgZ4xCzAJ
BgNVBAYTAkpQMRwwGgYDVQQKDBNKYXBhbmVzZSBHb3Zlcm5tZW50MR8wHQYDVQQL
DBZOYXRpb25hbCBQb2xpY2UgQWdlbmN5MTcwNQYDVQQLDC5QcmVmZWN0dXJhbCBQ
dWJsaWMgU2FmZXR5IENvbW1pc3Npb25zIGZvciBJQ0RMMRcwFQYDVQQDDA5Bb21v
cmkgQWx0UFBTQzCCASIwDQYJKoZIhvcNAQEBBQADggEPADCCAQoCggEBAKKCofm/
VF07AZgMiEnSSzzDPSGu5KcvVr4ixxpSSG4K33MDb+g+neq9RIrcRUyop4Ftf9q5
7Ir0Q7UIr40uym48tskVan0Y+tIHC8/7r+QR43zqD7k4H83Cfd3M1FSW2s5INhVU
zRCSZHOi+8Z1Eetr6p9O4gGR101nOMYgApDmMnVLaxQsPeboJo6Xb8yoT+4emrHC
9wraOW24DSGI5rb/DDG8ExHxYimvNEO9/3pBIHffKB10Qmuwk7+D+dODpks9Agqj
B1+mi6lM+gkGmAJ/4OB0Ch+MGb5Ooy8cmBbuzYnKw1+Tzqa/bqtbwqZe8AJJxGf8
ZgnJ3nXrNxK4IskCAwEAAaOCAigwggIkMIGYBgNVHSMEgZAwgY2AFBHNjmBER1dP
T8vp58uhRt+6DlCLoWukaTBnMQswCQYDVQQGEwJKUDEcMBoGA1UECgwTSmFwYW5l
c2UgR292ZXJubWVudDEfMB0GA1UECwwWTmF0aW9uYWwgUG9saWNlIEFnZW5jeTEZ
MBcGA1UECwwQTlBBIElDREwgUm9vdCBDQYIIMjAwMDAwMTYwHQYDVR0OBBYEFOPy
CKt+EPBy7RxpPtqjvsln8MRTMA4GA1UdDwEB/wQEAwIGwDBABgNVHSABAf8ENjA0
MDIGCyqDCIaOGAcFAQEKMCMwIQYIKwYBBQUHAgEWFWh0dHA6Ly93d3cubnBhLmdv
LmpwLzB0BgNVHRIEbTBrpGkwZzELMAkGA1UEBhMCSlAxGDAWBgNVBAoMD+aXpeac
rOWbveaUv+W6nDESMBAGA1UECwwJ6K2m5a+f5bqBMSowKAYDVQQLDCHorablr5/l
uoHpgYvou6LlhY3oqLHoqLzoqo3oqLzlsYAwgZ8GA1UdHwSBlzCBlDCBkaCBjqCB
i6SBiDCBhTELMAkGA1UEBhMCSlAxHDAaBgNVBAoME0phcGFuZXNlIEdvdmVybm1l
bnQxHzAdBgNVBAsMFk5hdGlvbmFsIFBvbGljZSBBZ2VuY3kxNzA1BgNVBAsMLlBy
ZWZlY3R1cmFsIFB1YmxpYyBTYWZldHkgQ29tbWlzc2lvbnMgZm9yIElDREwwDQYJ
KoZIhvcNAQELBQADggEBAIf0exJXSIuRQn1mcuVVaeDBbMgrFwZ1jmL2iFptU3p7
O67c6KO66Jv4/JrsOQjpwijuwNPyuoKzFbGagt9tCDTjjxRTCS7MvahQVgjhDCfl
++gDaxS6ovOxbSNVA/tVTmh3EEgEsasjYG+hDpbm8pvPA7mMxksC5dHVV54+57c6
Dxs6MD2gCkpqXp/U+3k/bNIgIukaiijxLimaqe0exxsKED87s+aIxuOn0YaZleo5
Q0sNYrexTAvJWdb+3XTLBgtPR0YMA8AK11pUyPiAXmshdBEOF+mvziIRvTJQgWSw
upjCFuDxEEkiig5VPbJOiXxrquxeQTHDm7R6JIeM7lA=
-----END CERTIFICATE-----
