Certificate:
    Data:
        Version: 3 (0x2)
        Serial Number:
            32:30:30:30:30:30:34:30
        Signature Algorithm: sha256WithRSAEncryption
        Issuer: C=JP, O=Japanese Government, OU=National Police Agency, OU=NPA ICDL Root CA
        Validity
            Not Before: Feb  6 01:30:48 2023 GMT
            Not After : Feb  5 14:59:59 2028 GMT
        Subject: C=JP, O=Japanese Government, OU=National Police Agency, OU=Prefectural Public Safety Commissions for ICDL, CN=Aomori PPSC
        Subject Public Key Info:
            Public Key Algorithm: rsaEncryption
                Public-Key: (2048 bit)
                Modulus:
                    00:a9:cb:6c:73:e3:fe:43:70:c9:41:43:0f:5e:5f:
                    01:77:4b:e5:27:79:81:31:6a:69:79:7f:cd:44:b4:
                    e8:34:9c:9a:3c:9c:e4:c0:0e:57:0c:bf:94:bb:5f:
                    12:b5:70:4e:25:48:8e:91:ab:9a:bd:3d:a7:d5:09:
                    b2:20:65:ae:e3:72:22:ce:e4:5a:bc:a1:4c:4b:82:
                    3b:40:b7:66:53:90:56:95:59:41:19:77:a7:5f:2e:
                    2b:f5:bd:84:55:c3:e6:f2:c7:e6:a5:da:d1:dd:d4:
                    13:e4:3f:29:d8:2a:61:84:a4:29:b8:f9:b5:20:54:
                    6d:a1:5d:93:72:ce:bc:70:9a:86:d7:c2:0b:a3:42:
                    d2:35:a4:06:40:80:76:60:29:b8:03:e0:89:33:44:
                    e7:26:e5:c7:cf:72:f2:aa:07:d3:c6:34:07:15:1e:
                    16:29:3f:91:34:a9:b6:b5:e8:78:2d:e3:c1:b7:08:
                    e5:c1:5d:7f:9b:96:4f:2b:ba:3e:dd:1c:a7:ab:6f:
                    24:5f:5f:d4:4c:e6:f7:08:d4:e0:cf:4c:a2:aa:02:
                    6e:22:b0:cb:a1:66:f3:15:40:ff:fa:c1:10:2a:5d:
                    53:61:1a:b2:4c:1a:fb:66:fe:db:74:c5:63:a6:ab:
                    0e:9d:e6:f6:87:f4:e7:a2:37:a4:4e:61:a4:ce:c4:
                    a3:8f
                Exponent: 65537 (0x10001)
        X509v3 extensions:
            X509v3 Authority Key Identifier: 
                keyid:11:CD:8E:60:44:47:57:4F:4F:CB:E9:E7:CB:A1:46:DF:BA:0E:50:8B
                DirName:/C=JP/O=Japanese Government/OU=National Police Agency/OU=NPA ICDL Root CA
                serial:32:30:30:30:30:30:31:36
            X509v3 Subject Key Identifier: 
                C0:DA:4B:FD:BA:93:3C:84:A3:3D:87:D2:8B:A9:16:DB:66:D6:D0:C4
            X509v3 Key Usage: critical
                Digital Signature, Non Repudiation
            X509v3 Certificate Policies: critical
                Policy: 1.2.392.100120.7.5.1.1.10
                  CPS: http://www.npa.go.jp/
            X509v3 Subject Alternative Name: 
                DirName:/C=JP/O=\xE6\x97\xA5\xE6\x9C\xAC\xE5\x9B\xBD\xE6\x94\xBF\xE5\xBA\x9C/OU=\xE8\xAD\xA6\xE5\xAF\x9F\xE5\xBA\x81/OU=\xE9\x83\xBD\xE9\x81\x93\xE5\xBA\x9C\xE7\x9C\x8C\xE5\x85\xAC\xE5\xAE\x89\xE5\xA7\x94\xE5\x93\xA1\xE4\xBC\x9A
            X509v3 Issuer Alternative Name: 
                DirName:/C=JP/O=\xE6\x97\xA5\xE6\x9C\xAC\xE5\x9B\xBD\xE6\x94\xBF\xE5\xBA\x9C/OU=\xE8\xAD\xA6\xE5\xAF\x9F\xE5\xBA\x81/OU=\xE8\xAD\xA6\xE5\xAF\x9F\xE5\xBA\x81\xE9\x81\x8B\xE8\xBB\xA2\xE5\x85\x8D\xE8\xA8\xB1\xE8\xA8\xBC\xE8\xAA\x8D\xE8\xA8\xBC\xE5\xB1\x80
            X509v3 CRL Distribution Points: 
                Full Name:
                  DirName:C = JP, O = Japanese Government, OU = National Police Agency, OU = Prefectural Public Safety Commissions for ICDL
    Signature Algorithm: sha256WithRSAEncryption
    Signature Value:
        a6:0e:e5:02:c1:01:bd:57:6d:75:bd:10:fe:2b:0e:71:33:f4:
        77:f9:99:07:07:92:97:b4:86:29:4b:46:6c:6c:7e:40:5d:48:
        7f:18:4f:96:16:36:49:18:49:ac:aa:dc:7d:c4:07:6d:ff:9a:
        b3:c7:57:20:f5:24:a9:d9:7e:fb:32:9d:1c:71:3c:f8:0c:f4:
        95:4e:bc:99:2a:c3:f3:bf:c0:3f:f0:d2:c5:6a:d3:b9:3e:b4:
        be:88:36:78:ee:49:e3:91:61:de:b1:20:8f:14:72:e7:13:97:
        6b:44:16:68:57:59:25:42:86:d1:17:c1:d2:48:91:f0:9a:ab:
        4f:60:4a:38:02:98:6c:fc:a8:e8:46:ab:29:b8:9d:3e:8f:70:
        50:f0:68:db:db:ba:00:c4:ab:94:df:a9:70:d2:ee:3c:f8:fd:
        6e:9f:fd:70:00:6c:06:00:71:3a:3d:43:e2:bd:3a:79:62:88:
        ca:93:fc:80:c2:64:14:fa:01:8e:e4:3b:45:76:2d:0c:1a:49:
        8b:bd:5c:d7:3a:ba:0b:c3:9c:11:46:ed:85:63:16:bf:19:d4:
        76:01:48:c3:84:9f:08:69:44:99:1d:96:b2:e9:23:b9:d4:eb:
        7c:33:cf:d6:f5:70:5e:5f:3c:40:2f:1a:3b:7f:f5:cf:e1:7f:
        27:ef:9c:24
-----BEGIN CERTIFICATE-----
MIIGRzCCBS+gAwIBAgIIMjAwMDAwNDAwDQYJKoZIhvcNAQELBQAwZzELMAkGA1UE
BhMCSlAxHDAaBgNVBAoME0phcGFuZXNlIEdvdmVybm1lbnQxHzAdBgNVBAsMFk5h
dGlvbmFsIFBvbGljZSBBZ2VuY3kxGTAXBgNVBAsMEE5QQSBJQ0RMIFJvb3QgQ0Ew
HhcNMjMwMjA2MDEzMDQ4WhcNMjgwMjA1MTQ1OTU5WjCBmzELMAkGA1UEBhMCSlAx
HDAaBgNVBAoME0phcGFuZXNlIEdvdmVybm1lbnQxHzAdBgNVBAsMFk5hdGlvbmFs
IFBvbGljZSBBZ2VuY3kxNzA1BgNVBAsMLlByZWZlY3R1cmFsIFB1YmxpYyBTYWZl
dHkgQ29tbWlzc2lvbnMgZm9yIElDREwxFDASBgNVBAMMC0FvbW9yaSBQUFNDMIIB
IjANBgkqhkiG9w0BAQEFAAOCAQ8AMIIBCgKCAQEAqctsc+P+Q3DJQUMPXl8Bd0vl
J3mBMWppeX/NRLToNJyaPJzkwA5XDL+Uu18StXBOJUiOkauavT2n1QmyIGWu43Ii
zuRavKFMS4I7QLdmU5BWlVlBGXenXy4r9b2EVcPm8sfmpdrR3dQT5D8p2CphhKQp
uPm1IFRtoV2Tcs68cJqG18ILo0LSNaQGQIB2YCm4A+CJM0TnJuXHz3LyqgfTxjQH
FR4WKT+RNKm2teh4LePBtwjlwV1/m5ZPK7o+3Rynq28kX1/UTOb3CNTgz0yiqgJu
IrDLoWbzFUD/+sEQKl1TYRqyTBr7Zv7bdMVjpqsOneb2h/TnojekTmGkzsSjjwID
AQABo4ICwDCCArwwgZgGA1UdIwSBkDCBjYAUEc2OYERHV09Py+nny6FG37oOUIuh
a6RpMGcxCzAJBgNVBAYTAkpQMRwwGgYDVQQKDBNKYXBhbmVzZSBHb3Zlcm5tZW50
MR8wHQYDVQQLDBZOYXRpb25hbCBQb2xpY2UgQWdlbmN5MRkwFwYDVQQLDBBOUEEg
SUNETCBSb290IENBgggyMDAwMDAxNjAdBgNVHQ4EFgQUwNpL/bqTPISjPYfSi6kW
22bW0MQwDgYDVR0PAQH/BAQDAgbAMEAGA1UdIAEB/wQ2MDQwMgYLKoMIho4YBwUB
AQowIzAhBggrBgEFBQcCARYVaHR0cDovL3d3dy5ucGEuZ28uanAvMIGVBgNVHREE
gY0wgYqkgYcwgYQxCzAJBgNVBAYTAkpQMRgwFgYDVQQKDA/ml6XmnKzlm73mlL/l
upwxEjAQBgNVBAsMCeitpuWvn+W6gTEkMCIGA1UECwwb6YO96YGT5bqc55yM5YWs
5a6J5aeU5ZOh5LyaMSEwHwYDVQQDDBjpnZLmo67nnIzlhazlronlp5Tlk6HkvJow
dAYDVR0SBG0wa6RpMGcxCzAJBgNVBAYTAkpQMRgwFgYDVQQKDA/ml6XmnKzlm73m
lL/lupwxEjAQBgNVBAsMCeitpuWvn+W6gTEqMCgGA1UECwwh6K2m5a+f5bqB6YGL
6Lui5YWN6Kix6Ki86KqN6Ki85bGAMIGfBgNVHR8EgZcwgZQwgZGggY6ggYukgYgw
gYUxCzAJBgNVBAYTAkpQMRwwGgYDVQQKDBNKYXBhbmVzZSBHb3Zlcm5tZW50MR8w
HQYDVQQLDBZOYXRpb25hbCBQb2xpY2UgQWdlbmN5MTcwNQYDVQQLDC5QcmVmZWN0
dXJhbCBQdWJsaWMgU2FmZXR5IENvbW1pc3Npb25zIGZvciBJQ0RMMA0GCSqGSIb3
DQEBCwUAA4IBAQCmDuUCwQG9V211vRD+Kw5xM/R3+ZkHB5KXtIYpS0ZsbH5AXUh/
GE+WFjZJGEmsqtx9xAdt/5qzx1cg9SSp2X77Mp0ccTz4DPSVTryZKsPzv8A/8NLF
atO5PrS+iDZ47knjkWHesSCPFHLnE5drRBZoV1klQobRF8HSSJHwmqtPYEo4Aphs
/KjoRqspuJ0+j3BQ8Gjb27oAxKuU36lw0u48+P1un/1wAGwGAHE6PUPivTp5YojK
k/yAwmQU+gGO5DtFdi0MGkmLvVzXOroLw5wRRu2FYxa/GdR2AUjDhJ8IaUSZHZay
6SO51Ot8M8/W9XBeXzxALxo7f/XP4X8n75wk
-----END CERTIFICATE-----
