Certificate:
    Data:
        Version: 3 (0x2)
        Serial Number:
            32:30:30:30:30:30:33:37
        Signature Algorithm: sha256WithRSAEncryption
        Issuer: C=JP, O=Japanese Government, OU=National Police Agency, OU=NPA ICDL Root CA
        Validity
            Not Before: Feb  6 01:21:31 2023 GMT
            Not After : Feb  5 14:59:59 2028 GMT
        Subject: C=JP, O=Japanese Government, OU=National Police Agency, OU=Prefectural Public Safety Commissions for ICDL, CN=Asahikawa APSC
        Subject Public Key Info:
            Public Key Algorithm: rsaEncryption
                Public-Key: (2048 bit)
                Modulus:
                    00:a7:c6:33:42:e2:c8:80:3f:cd:0b:47:42:2c:aa:
                    d1:cd:b2:34:9e:b3:63:77:09:6a:8a:83:4b:c1:7f:
                    05:29:43:71:f9:9d:29:75:78:72:28:62:b3:93:fc:
                    95:d0:63:40:8b:c2:d5:a3:d4:38:ce:14:03:01:e8:
                    75:a9:02:d8:3f:24:2b:1a:37:41:46:42:60:b1:d1:
                    45:f3:ea:4a:3f:37:f6:ba:23:c0:42:ed:df:58:3b:
                    44:48:1b:05:46:d8:d1:3c:5a:a7:94:2a:1e:87:ea:
                    ae:0f:cf:8f:7b:5a:d3:e8:ef:d2:92:a1:61:13:24:
                    6f:49:94:d5:ee:a3:40:b0:3b:00:6c:1c:dc:99:7a:
                    28:f6:88:4c:43:a2:b5:a2:dc:ff:e0:67:6c:1f:85:
                    00:ba:60:6e:96:be:fe:9d:a5:20:2c:ae:93:b6:6f:
                    dd:92:ba:c6:01:fe:47:a9:35:53:75:3f:98:79:8a:
                    e5:03:20:0f:5d:dc:8c:c3:99:5b:a3:8a:d2:59:0a:
                    55:70:52:0e:bf:0c:86:a3:cd:3e:89:ef:47:a6:9d:
                    51:98:9c:b3:aa:96:ee:19:7d:8b:e1:5e:58:2a:d5:
                    d1:62:68:80:c1:e7:e1:95:7f:f3:58:fb:7a:8b:f2:
                    d9:fb:bf:02:cb:55:b4:7e:de:54:2a:0c:a9:14:bf:
                    e3:31
                Exponent: 65537 (0x10001)
        X509v3 extensions:
            X509v3 Authority Key Identifier: 
                keyid:11:CD:8E:60:44:47:57:4F:4F:CB:E9:E7:CB:A1:46:DF:BA:0E:50:8B
                DirName:/C=JP/O=Japanese Government/OU=National Police Agency/OU=NPA ICDL Root CA
                serial:32:30:30:30:30:30:31:36
            X509v3 Subject Key Identifier: 
                BC:23:7C:65:EA:1B:7D:8A:0C:A8:83:27:8C:67:D6:00:09:13:2F:BC
            X509v3 Key Usage: critical
                Digital Signature, Non Repudiation
            X509v3 Certificate Policies: critical
                Policy: 1.2.392.100120.7.5.1.1.10
                  CPS: http://www.npa.go.jp/
            X509v3 Subject Alternative Name: 
                DirName:/C=JP/O=\xE6\x97\xA5\xE6\x9C\xAC\xE5\x9B\xBD\xE6\x94\xBF\xE5\xBA\x9C/OU=\xE8\xAD\xA6\xE5\xAF\x9F\xE5\xBA\x81/OU=\xE9\x83\xBD\xE9\x81\x93\xE5\xBA\x9C\xE7\x9C\x8C\xE5\x85\xAC\xE5\xAE\x89\xE5\xA7\x94\xE5\x93\xA1\xE4\xBC\x9A
            X509v3 Issuer Alternative Name: 
                DirName:/C=JP/O=\xE6\x97\xA5\xE6\x9C\xAC\xE5\x9B\xBD\xE6\x94\xBF\xE5\xBA\x9C/OU=\xE8\xAD\xA6\xE5\xAF\x9F\xE5\xBA\x81/OU=\xE8\xAD\xA6\xE5\xAF\x9F\xE5\xBA\x81\xE9\x81\x8B\xE8\xBB\xA2\xE5\x85\x8D\xE8\xA8\xB1\xE8\xA8\xBC\xE8\xAA\x8D\xE8\xA8\xBC\xE5\xB1\x80
            X509v3 CRL Distribution Points: 
                Full Name:
                  DirName:C = JP, O = Japanese Government, OU = National Police Agency, OU = Prefectural Public Safety Commissions for ICDL
    Signature Algorithm: sha256WithRSAEncryption
    Signature Value:
        78:23:33:27:f9:93:e3:52:fa:e8:ab:69:c4:91:f4:04:f2:0a:
        0d:a3:cc:be:9e:41:e3:e3:21:f0:c7:25:f0:76:2d:e4:21:40:
        86:3e:c0:27:1e:31:3f:e6:0a:67:fb:91:d0:b8:8d:1a:7a:89:
        ed:d7:94:42:48:d2:43:6a:32:54:6c:00:80:17:d5:98:82:65:
        3a:04:68:53:de:0c:a4:23:ab:41:0e:11:24:6b:ae:12:cf:76:
        b2:6c:25:a9:65:f9:19:0c:3f:7a:75:5b:83:bf:5c:d1:c8:8b:
        46:12:6b:c3:9b:72:77:61:3b:f9:10:9e:19:20:fa:60:7b:86:
        aa:7e:15:98:08:a3:b7:dd:75:c0:31:f9:f5:9b:82:64:0a:3c:
        76:8a:41:c6:5e:c4:3a:5b:59:68:fd:26:08:74:7b:25:c9:14:
        9a:de:1c:3c:71:e5:5f:93:87:e8:3a:4d:36:87:23:0a:38:4c:
        11:00:82:a7:aa:5e:05:fc:81:1d:09:f3:4f:b9:b8:e4:6b:2b:
        80:f5:57:2d:3a:ae:dd:93:1c:8a:9b:21:7a:5b:7e:37:da:6f:
        54:2c:67:99:dc:93:a0:5d:72:15:4f:94:21:ae:d3:af:0e:08:
        15:49:75:f9:13:2e:2a:01:26:5e:74:fb:c2:98:77:89:f4:29:
        f0:5f:c4:dc
-----BEGIN CERTIFICATE-----
MIIGTTCCBTWgAwIBAgIIMjAwMDAwMzcwDQYJKoZIhvcNAQELBQAwZzELMAkGA1UE
BhMCSlAxHDAaBgNVBAoME0phcGFuZXNlIEdvdmVybm1lbnQxHzAdBgNVBAsMFk5h
dGlvbmFsIFBvbGljZSBBZ2VuY3kxGTAXBgNVBAsMEE5QQSBJQ0RMIFJvb3QgQ0Ew
HhcNMjMwMjA2MDEyMTMxWhcNMjgwMjA1MTQ1OTU5WjCBnjELMAkGA1UEBhMCSlAx
HDAaBgNVBAoME0phcGFuZXNlIEdvdmVybm1lbnQxHzAdBgNVBAsMFk5hdGlvbmFs
IFBvbGljZSBBZ2VuY3kxNzA1BgNVBAsMLlByZWZlY3R1cmFsIFB1YmxpYyBTYWZl
dHkgQ29tbWlzc2lvbnMgZm9yIElDREwxFzAVBgNVBAMMDkFzYWhpa2F3YSBBUFND
MIIBIjANBgkqhkiG9w0BAQEFAAOCAQ8AMIIBCgKCAQEAp8YzQuLIgD/NC0dCLKrR
zbI0nrNjdwlqioNLwX8FKUNx+Z0pdXhyKGKzk/yV0GNAi8LVo9Q4zhQDAeh1qQLY
PyQrGjdBRkJgsdFF8+pKPzf2uiPAQu3fWDtESBsFRtjRPFqnlCoeh+quD8+Pe1rT
6O/SkqFhEyRvSZTV7qNAsDsAbBzcmXoo9ohMQ6K1otz/4GdsH4UAumBulr7+naUg
LK6Ttm/dkrrGAf5HqTVTdT+YeYrlAyAPXdyMw5lbo4rSWQpVcFIOvwyGo80+ie9H
pp1RmJyzqpbuGX2L4V5YKtXRYmiAwefhlX/zWPt6i/LZ+78Cy1W0ft5UKgypFL/j
MQIDAQABo4ICwzCCAr8wgZgGA1UdIwSBkDCBjYAUEc2OYERHV09Py+nny6FG37oO
UIuha6RpMGcxCzAJBgNVBAYTAkpQMRwwGgYDVQQKDBNKYXBhbmVzZSBHb3Zlcm5t
ZW50MR8wHQYDVQQLDBZOYXRpb25hbCBQb2xpY2UgQWdlbmN5MRkwFwYDVQQLDBBO
UEEgSUNETCBSb290IENBgggyMDAwMDAxNjAdBgNVHQ4EFgQUvCN8ZeobfYoMqIMn
jGfWAAkTL7wwDgYDVR0PAQH/BAQDAgbAMEAGA1UdIAEB/wQ2MDQwMgYLKoMIho4Y
BwUBAQowIzAhBggrBgEFBQcCARYVaHR0cDovL3d3dy5ucGEuZ28uanAvMIGYBgNV
HREEgZAwgY2kgYowgYcxCzAJBgNVBAYTAkpQMRgwFgYDVQQKDA/ml6XmnKzlm73m
lL/lupwxEjAQBgNVBAsMCeitpuWvn+W6gTEkMCIGA1UECwwb6YO96YGT5bqc55yM
5YWs5a6J5aeU5ZOh5LyaMSQwIgYDVQQDDBvml63lt53mlrnpnaLlhazlronlp5Tl
k6HkvJowdAYDVR0SBG0wa6RpMGcxCzAJBgNVBAYTAkpQMRgwFgYDVQQKDA/ml6Xm
nKzlm73mlL/lupwxEjAQBgNVBAsMCeitpuWvn+W6gTEqMCgGA1UECwwh6K2m5a+f
5bqB6YGL6Lui5YWN6Kix6Ki86KqN6Ki85bGAMIGfBgNVHR8EgZcwgZQwgZGggY6g
gYukgYgwgYUxCzAJBgNVBAYTAkpQMRwwGgYDVQQKDBNKYXBhbmVzZSBHb3Zlcm5t
ZW50MR8wHQYDVQQLDBZOYXRpb25hbCBQb2xpY2UgQWdlbmN5MTcwNQYDVQQLDC5Q
cmVmZWN0dXJhbCBQdWJsaWMgU2FmZXR5IENvbW1pc3Npb25zIGZvciBJQ0RMMA0G
CSqGSIb3DQEBCwUAA4IBAQB4IzMn+ZPjUvroq2nEkfQE8goNo8y+nkHj4yHwxyXw
di3kIUCGPsAnHjE/5gpn+5HQuI0aeont15RCSNJDajJUbACAF9WYgmU6BGhT3gyk
I6tBDhEka64Sz3aybCWpZfkZDD96dVuDv1zRyItGEmvDm3J3YTv5EJ4ZIPpge4aq
fhWYCKO33XXAMfn1m4JkCjx2ikHGXsQ6W1lo/SYIdHslyRSa3hw8ceVfk4foOk02
hyMKOEwRAIKnql4F/IEdCfNPubjkayuA9VctOq7dkxyKmyF6W3432m9ULGeZ3JOg
XXIVT5QhrtOvDggVSXX5Ey4qASZedPvCmHeJ9CnwX8Tc
-----END CERTIFICATE-----
