Certificate:
    Data:
        Version: 3 (0x2)
        Serial Number:
            33:30:30:30:30:30:39:34
        Signature Algorithm: sha256WithRSAEncryption
        Issuer: C=JP, O=Japanese Government, OU=National Police Agency, OU=NPA ICDL Root CA
        Validity
            Not Before: Sep 17 07:03:23 2024 GMT
            Not After : Sep 16 14:59:59 2029 GMT
        Subject: C=JP, O=Japanese Government, OU=National Police Agency, OU=Prefectural Public Safety Commissions for ICDL, CN=Asahikawa APSC
        Subject Public Key Info:
            Public Key Algorithm: rsaEncryption
                Public-Key: (2048 bit)
                Modulus:
                    00:e2:d9:93:2a:9d:eb:b7:c8:60:f8:ae:38:83:b2:
                    5b:42:0d:a9:00:f1:50:3d:04:74:77:be:84:45:84:
                    b6:34:e6:5a:59:d2:95:36:28:f3:35:76:09:52:f3:
                    e3:7c:71:9e:c8:84:3c:21:49:3a:20:fa:33:33:c2:
                    e6:da:25:88:07:ed:d6:83:0f:81:91:8a:48:a1:78:
                    40:f4:f4:b5:09:2e:2f:44:06:82:7d:5e:eb:70:33:
                    41:92:86:25:39:06:c2:cd:b0:6d:b9:c8:5b:21:4e:
                    ee:1a:99:9a:24:35:4b:d6:d0:93:b1:16:c5:3c:27:
                    2a:e0:ef:af:20:1a:b0:dd:86:03:17:5e:2d:53:cf:
                    4c:a1:73:d1:62:e7:23:ac:96:c6:2b:e2:14:e4:d0:
                    48:5d:31:25:6b:c0:ac:2d:1a:b9:c1:7d:6b:1d:15:
                    26:dd:3d:07:6c:93:35:09:f1:bf:33:18:b7:26:04:
                    bc:bf:5c:15:ef:b3:d0:2a:1b:54:7e:d2:27:f8:dc:
                    17:18:fd:64:c0:ba:7d:2b:a1:c5:87:2f:36:d2:38:
                    0a:5c:d4:23:41:a6:d2:fd:b2:cb:64:e4:9c:fb:79:
                    be:09:55:18:69:36:b1:f0:14:1e:c0:93:50:b3:f9:
                    23:62:33:f9:93:17:b3:f2:5f:f0:70:2f:bb:c7:cb:
                    b7:99
                Exponent: 65537 (0x10001)
        X509v3 extensions:
            X509v3 Authority Key Identifier: 
                keyid:11:CD:8E:60:44:47:57:4F:4F:CB:E9:E7:CB:A1:46:DF:BA:0E:50:8B
                DirName:/C=JP/O=Japanese Government/OU=National Police Agency/OU=NPA ICDL Root CA
                serial:32:30:30:30:30:30:31:36
            X509v3 Subject Key Identifier: 
                CD:15:92:39:12:57:4A:DB:2B:5C:84:EF:E8:D7:18:FA:B1:53:00:BD
            X509v3 Key Usage: critical
                Digital Signature, Non Repudiation
            X509v3 Certificate Policies: critical
                Policy: 1.2.392.100120.7.5.1.1.10
                  CPS: http://www.npa.go.jp/
            X509v3 Subject Alternative Name: 
                DirName:/C=JP/O=\xE6\x97\xA5\xE6\x9C\xAC\xE5\x9B\xBD\xE6\x94\xBF\xE5\xBA\x9C/OU=\xE8\xAD\xA6\xE5\xAF\x9F\xE5\xBA\x81/OU=\xE9\x83\xBD\xE9\x81\x93\xE5\xBA\x9C\xE7\x9C\x8C\xE5\x85\xAC\xE5\xAE\x89\xE5\xA7\x94\xE5\x93\xA1\xE4\xBC\x9A
            X509v3 Issuer Alternative Name: 
                DirName:/C=JP/O=\xE6\x97\xA5\xE6\x9C\xAC\xE5\x9B\xBD\xE6\x94\xBF\xE5\xBA\x9C/OU=\xE8\xAD\xA6\xE5\xAF\x9F\xE5\xBA\x81/OU=\xE8\xAD\xA6\xE5\xAF\x9F\xE5\xBA\x81\xE9\x81\x8B\xE8\xBB\xA2\xE5\x85\x8D\xE8\xA8\xB1\xE8\xA8\xBC\xE8\xAA\x8D\xE8\xA8\xBC\xE5\xB1\x80
            X509v3 CRL Distribution Points: 
                Full Name:
                  DirName:C = JP, O = Japanese Government, OU = National Police Agency, OU = Prefectural Public Safety Commissions for ICDL
    Signature Algorithm: sha256WithRSAEncryption
    Signature Value:
        71:4c:53:bf:43:8a:dd:b5:04:ec:36:c5:0a:d3:d3:30:c4:40:
        92:a6:83:00:5a:07:7d:15:33:b5:95:5c:d5:f6:2e:f6:93:8f:
        ee:bb:ca:29:43:51:f5:45:b7:af:44:34:97:33:3e:df:37:ae:
        e3:1c:68:5a:70:65:2e:42:61:80:23:6f:97:28:e3:63:43:c1:
        23:da:79:83:ab:75:e4:f4:a6:80:92:1f:37:22:03:7f:3f:27:
        47:78:6e:1d:4c:35:d0:47:41:36:b7:68:6e:40:8c:5e:6e:6d:
        f8:be:9e:a9:12:d2:44:6a:38:fd:b6:9f:c6:0a:6c:84:86:1a:
        ba:32:b9:67:09:31:da:e3:7c:07:84:f1:03:76:fa:52:e6:26:
        c0:b0:23:63:45:f8:ca:63:11:a1:a3:5e:0f:71:4b:a3:82:0e:
        69:5e:ce:94:a4:d9:f4:3d:1e:b4:64:33:99:ae:63:2f:ef:33:
        ea:9a:68:c8:a0:ea:d2:bf:72:53:06:be:89:a9:3b:4b:1d:68:
        ad:c3:7b:4b:34:b8:3f:f6:f5:e2:46:27:64:36:e8:87:c9:eb:
        5b:53:3a:6b:d2:5d:ee:87:31:7d:68:ac:d0:de:e8:99:9f:63:
        95:a6:00:fc:a2:31:69:4b:1b:08:ee:21:61:3c:dd:35:30:6a:
        9b:ac:54:23
-----BEGIN CERTIFICATE-----
MIIGTTCCBTWgAwIBAgIIMzAwMDAwOTQwDQYJKoZIhvcNAQELBQAwZzELMAkGA1UE
BhMCSlAxHDAaBgNVBAoME0phcGFuZXNlIEdvdmVybm1lbnQxHzAdBgNVBAsMFk5h
dGlvbmFsIFBvbGljZSBBZ2VuY3kxGTAXBgNVBAsMEE5QQSBJQ0RMIFJvb3QgQ0Ew
HhcNMjQwOTE3MDcwMzIzWhcNMjkwOTE2MTQ1OTU5WjCBnjELMAkGA1UEBhMCSlAx
HDAaBgNVBAoME0phcGFuZXNlIEdvdmVybm1lbnQxHzAdBgNVBAsMFk5hdGlvbmFs
IFBvbGljZSBBZ2VuY3kxNzA1BgNVBAsMLlByZWZlY3R1cmFsIFB1YmxpYyBTYWZl
dHkgQ29tbWlzc2lvbnMgZm9yIElDREwxFzAVBgNVBAMMDkFzYWhpa2F3YSBBUFND
MIIBIjANBgkqhkiG9w0BAQEFAAOCAQ8AMIIBCgKCAQEA4tmTKp3rt8hg+K44g7Jb
Qg2pAPFQPQR0d76ERYS2NOZaWdKVNijzNXYJUvPjfHGeyIQ8IUk6IPozM8Lm2iWI
B+3Wgw+BkYpIoXhA9PS1CS4vRAaCfV7rcDNBkoYlOQbCzbBtuchbIU7uGpmaJDVL
1tCTsRbFPCcq4O+vIBqw3YYDF14tU89MoXPRYucjrJbGK+IU5NBIXTEla8CsLRq5
wX1rHRUm3T0HbJM1CfG/Mxi3JgS8v1wV77PQKhtUftIn+NwXGP1kwLp9K6HFhy82
0jgKXNQjQabS/bLLZOSc+3m+CVUYaTax8BQewJNQs/kjYjP5kxez8l/wcC+7x8u3
mQIDAQABo4ICwzCCAr8wgZgGA1UdIwSBkDCBjYAUEc2OYERHV09Py+nny6FG37oO
UIuha6RpMGcxCzAJBgNVBAYTAkpQMRwwGgYDVQQKDBNKYXBhbmVzZSBHb3Zlcm5t
ZW50MR8wHQYDVQQLDBZOYXRpb25hbCBQb2xpY2UgQWdlbmN5MRkwFwYDVQQLDBBO
UEEgSUNETCBSb290IENBgggyMDAwMDAxNjAdBgNVHQ4EFgQUzRWSORJXStsrXITv
6NcY+rFTAL0wDgYDVR0PAQH/BAQDAgbAMEAGA1UdIAEB/wQ2MDQwMgYLKoMIho4Y
BwUBAQowIzAhBggrBgEFBQcCARYVaHR0cDovL3d3dy5ucGEuZ28uanAvMIGYBgNV
HREEgZAwgY2kgYowgYcxCzAJBgNVBAYTAkpQMRgwFgYDVQQKDA/ml6XmnKzlm73m
lL/lupwxEjAQBgNVBAsMCeitpuWvn+W6gTEkMCIGA1UECwwb6YO96YGT5bqc55yM
5YWs5a6J5aeU5ZOh5LyaMSQwIgYDVQQDDBvml63lt53mlrnpnaLlhazlronlp5Tl
k6HkvJowdAYDVR0SBG0wa6RpMGcxCzAJBgNVBAYTAkpQMRgwFgYDVQQKDA/ml6Xm
nKzlm73mlL/lupwxEjAQBgNVBAsMCeitpuWvn+W6gTEqMCgGA1UECwwh6K2m5a+f
5bqB6YGL6Lui5YWN6Kix6Ki86KqN6Ki85bGAMIGfBgNVHR8EgZcwgZQwgZGggY6g
gYukgYgwgYUxCzAJBgNVBAYTAkpQMRwwGgYDVQQKDBNKYXBhbmVzZSBHb3Zlcm5t
ZW50MR8wHQYDVQQLDBZOYXRpb25hbCBQb2xpY2UgQWdlbmN5MTcwNQYDVQQLDC5Q
cmVmZWN0dXJhbCBQdWJsaWMgU2FmZXR5IENvbW1pc3Npb25zIGZvciBJQ0RMMA0G
CSqGSIb3DQEBCwUAA4IBAQBxTFO/Q4rdtQTsNsUK09MwxECSpoMAWgd9FTO1lVzV
9i72k4/uu8opQ1H1RbevRDSXMz7fN67jHGhacGUuQmGAI2+XKONjQ8Ej2nmDq3Xk
9KaAkh83IgN/PydHeG4dTDXQR0E2t2huQIxebm34vp6pEtJEajj9tp/GCmyEhhq6
MrlnCTHa43wHhPEDdvpS5ibAsCNjRfjKYxGho14PcUujgg5pXs6UpNn0PR60ZDOZ
rmMv7zPqmmjIoOrSv3JTBr6JqTtLHWitw3tLNLg/9vXiRidkNuiHyetbUzpr0l3u
hzF9aKzQ3uiZn2OVpgD8ojFpSxsI7iFhPN01MGqbrFQj
-----END CERTIFICATE-----
