Certificate:
    Data:
        Version: 3 (0x2)
        Serial Number:
            33:30:30:30:30:30:37:34
        Signature Algorithm: sha256WithRSAEncryption
        Issuer: C=JP, O=Japanese Government, OU=National Police Agency, OU=NPA ICDL Root CA
        Validity
            Not Before: Feb  2 12:08:22 2024 GMT
            Not After : Feb  1 14:59:59 2029 GMT
        Subject: C=JP, O=Japanese Government, OU=National Police Agency, OU=Prefectural Public Safety Commissions for ICDL, CN=Asahikawa AltAPSC
        Subject Public Key Info:
            Public Key Algorithm: rsaEncryption
                Public-Key: (2048 bit)
                Modulus:
                    00:88:b2:95:5e:c3:a1:48:63:30:49:cd:e5:37:e7:
                    6f:44:90:ca:6d:78:c3:00:50:90:a3:08:2e:3e:11:
                    f8:da:c5:47:8e:49:ad:f9:cf:77:de:4a:05:2f:d4:
                    95:5a:47:4d:13:af:83:ae:54:bc:a6:5a:ea:1e:71:
                    1e:2e:8d:21:48:a9:70:f1:4f:50:3a:06:2d:7b:a9:
                    28:f2:bd:ff:b8:39:bb:a7:ea:fc:7b:54:c9:28:da:
                    be:ea:66:2c:36:69:92:c4:4f:73:8a:fd:fa:93:05:
                    0a:03:43:66:a0:9b:80:02:fb:e3:26:d7:0c:8c:52:
                    51:f3:ed:7d:4e:b3:e5:12:59:f3:b6:b7:8d:47:e3:
                    67:ad:5e:1b:11:a8:d7:76:c3:05:17:78:77:26:fc:
                    90:af:30:fa:24:63:12:cb:67:c3:be:e5:1d:a9:2c:
                    d2:f6:0b:bc:52:bb:ac:33:71:61:1f:e5:e4:10:bb:
                    a1:1d:4a:1e:72:e5:64:3d:d5:87:51:6d:e2:a3:03:
                    b5:f8:b9:1a:6e:dd:c8:a9:88:ae:97:47:aa:4f:5a:
                    e2:67:ef:30:5a:ca:71:f9:64:48:aa:01:bc:cc:fb:
                    f0:b2:5b:87:e8:91:c7:64:49:3c:95:d0:0f:b6:66:
                    c9:af:76:a0:0b:b1:14:70:25:af:1a:15:12:79:26:
                    6e:f1
                Exponent: 65537 (0x10001)
        X509v3 extensions:
            X509v3 Authority Key Identifier: 
                keyid:11:CD:8E:60:44:47:57:4F:4F:CB:E9:E7:CB:A1:46:DF:BA:0E:50:8B
                DirName:/C=JP/O=Japanese Government/OU=National Police Agency/OU=NPA ICDL Root CA
                serial:32:30:30:30:30:30:31:36
            X509v3 Subject Key Identifier: 
                52:86:10:0A:65:E5:B0:BB:6D:44:EE:E4:88:78:DD:42:16:45:B9:EA
            X509v3 Key Usage: critical
                Digital Signature, Non Repudiation
            X509v3 Certificate Policies: critical
                Policy: 1.2.392.100120.7.5.1.1.10
                  CPS: http://www.npa.go.jp/
            X509v3 Issuer Alternative Name: 
                DirName:/C=JP/O=\xE6\x97\xA5\xE6\x9C\xAC\xE5\x9B\xBD\xE6\x94\xBF\xE5\xBA\x9C/OU=\xE8\xAD\xA6\xE5\xAF\x9F\xE5\xBA\x81/OU=\xE8\xAD\xA6\xE5\xAF\x9F\xE5\xBA\x81\xE9\x81\x8B\xE8\xBB\xA2\xE5\x85\x8D\xE8\xA8\xB1\xE8\xA8\xBC\xE8\xAA\x8D\xE8\xA8\xBC\xE5\xB1\x80
            X509v3 CRL Distribution Points: 
                Full Name:
                  DirName:C = JP, O = Japanese Government, OU = National Police Agency, OU = Prefectural Public Safety Commissions for ICDL
    Signature Algorithm: sha256WithRSAEncryption
    Signature Value:
        5d:bd:70:6a:f5:a0:36:76:02:7b:98:64:17:d8:c5:19:3d:54:
        b7:75:4d:18:ae:2e:0f:d9:63:e2:44:71:88:a8:3c:ea:fe:93:
        eb:0a:09:fd:2f:3a:a4:bf:0e:43:1b:10:ea:87:34:76:0e:a0:
        61:46:cf:f2:cc:67:44:e4:36:b5:a4:5f:c4:76:2a:9e:4e:06:
        1c:16:72:0f:69:bb:b5:62:ae:6e:52:5c:b4:3b:37:0f:0d:c2:
        fa:f7:3b:33:6c:2f:fc:9f:a2:04:13:5d:c7:62:be:c8:a4:cc:
        69:44:2a:8e:7c:ec:58:b8:dc:40:d7:10:99:76:ba:13:48:18:
        af:f7:79:4c:c8:87:f9:15:1f:b1:c8:14:83:be:77:3e:72:6b:
        21:9f:b8:b4:c3:d4:a3:04:4b:2e:dd:09:0e:ba:2c:c3:06:fc:
        28:ca:a8:f7:13:5a:e3:3f:38:f3:a9:33:3a:3b:f8:ea:55:eb:
        0a:18:d9:ce:be:66:49:89:0e:a6:a5:2c:bf:56:82:61:04:97:
        aa:d0:20:b0:9d:de:4e:a8:b6:be:0b:f0:e5:a6:b1:09:7b:af:
        69:00:14:7c:66:ad:8b:4b:e7:2b:31:fe:3e:59:3d:fd:3a:ef:
        0d:44:94:32:fb:c9:bb:8e:df:2a:5b:cd:25:99:39:5b:de:32:
        01:0b:b1:6a
-----BEGIN CERTIFICATE-----
MIIFtTCCBJ2gAwIBAgIIMzAwMDAwNzQwDQYJKoZIhvcNAQELBQAwZzELMAkGA1UE
BhMCSlAxHDAaBgNVBAoME0phcGFuZXNlIEdvdmVybm1lbnQxHzAdBgNVBAsMFk5h
dGlvbmFsIFBvbGljZSBBZ2VuY3kxGTAXBgNVBAsMEE5QQSBJQ0RMIFJvb3QgQ0Ew
HhcNMjQwMjAyMTIwODIyWhcNMjkwMjAxMTQ1OTU5WjCBoTELMAkGA1UEBhMCSlAx
HDAaBgNVBAoME0phcGFuZXNlIEdvdmVybm1lbnQxHzAdBgNVBAsMFk5hdGlvbmFs
IFBvbGljZSBBZ2VuY3kxNzA1BgNVBAsMLlByZWZlY3R1cmFsIFB1YmxpYyBTYWZl
dHkgQ29tbWlzc2lvbnMgZm9yIElDREwxGjAYBgNVBAMMEUFzYWhpa2F3YSBBbHRB
UFNDMIIBIjANBgkqhkiG9w0BAQEFAAOCAQ8AMIIBCgKCAQEAiLKVXsOhSGMwSc3l
N+dvRJDKbXjDAFCQowguPhH42sVHjkmt+c933koFL9SVWkdNE6+DrlS8plrqHnEe
Lo0hSKlw8U9QOgYte6ko8r3/uDm7p+r8e1TJKNq+6mYsNmmSxE9ziv36kwUKA0Nm
oJuAAvvjJtcMjFJR8+19TrPlElnztreNR+NnrV4bEajXdsMFF3h3JvyQrzD6JGMS
y2fDvuUdqSzS9gu8UrusM3FhH+XkELuhHUoecuVkPdWHUW3iowO1+Lkabt3IqYiu
l0eqT1riZ+8wWspx+WRIqgG8zPvwsluH6JHHZEk8ldAPtmbJr3agC7EUcCWvGhUS
eSZu8QIDAQABo4ICKDCCAiQwgZgGA1UdIwSBkDCBjYAUEc2OYERHV09Py+nny6FG
37oOUIuha6RpMGcxCzAJBgNVBAYTAkpQMRwwGgYDVQQKDBNKYXBhbmVzZSBHb3Zl
cm5tZW50MR8wHQYDVQQLDBZOYXRpb25hbCBQb2xpY2UgQWdlbmN5MRkwFwYDVQQL
DBBOUEEgSUNETCBSb290IENBgggyMDAwMDAxNjAdBgNVHQ4EFgQUUoYQCmXlsLtt
RO7kiHjdQhZFueowDgYDVR0PAQH/BAQDAgbAMEAGA1UdIAEB/wQ2MDQwMgYLKoMI
ho4YBwUBAQowIzAhBggrBgEFBQcCARYVaHR0cDovL3d3dy5ucGEuZ28uanAvMHQG
A1UdEgRtMGukaTBnMQswCQYDVQQGEwJKUDEYMBYGA1UECgwP5pel5pys5Zu95pS/
5bqcMRIwEAYDVQQLDAnorablr5/luoExKjAoBgNVBAsMIeitpuWvn+W6gemBi+i7
ouWFjeioseiovOiqjeiovOWxgDCBnwYDVR0fBIGXMIGUMIGRoIGOoIGLpIGIMIGF
MQswCQYDVQQGEwJKUDEcMBoGA1UECgwTSmFwYW5lc2UgR292ZXJubWVudDEfMB0G
A1UECwwWTmF0aW9uYWwgUG9saWNlIEFnZW5jeTE3MDUGA1UECwwuUHJlZmVjdHVy
YWwgUHVibGljIFNhZmV0eSBDb21taXNzaW9ucyBmb3IgSUNETDANBgkqhkiG9w0B
AQsFAAOCAQEAXb1wavWgNnYCe5hkF9jFGT1Ut3VNGK4uD9lj4kRxiKg86v6T6woJ
/S86pL8OQxsQ6oc0dg6gYUbP8sxnROQ2taRfxHYqnk4GHBZyD2m7tWKublJctDs3
Dw3C+vc7M2wv/J+iBBNdx2K+yKTMaUQqjnzsWLjcQNcQmXa6E0gYr/d5TMiH+RUf
scgUg753PnJrIZ+4tMPUowRLLt0JDroswwb8KMqo9xNa4z8486kzOjv46lXrChjZ
zr5mSYkOpqUsv1aCYQSXqtAgsJ3eTqi2vgvw5aaxCXuvaQAUfGati0vnKzH+Plk9
/TrvDUSUMvvJu47fKlvNJZk5W94yAQuxag==
-----END CERTIFICATE-----
