Certificate:
    Data:
        Version: 3 (0x2)
        Serial Number:
            33:30:30:30:30:30:38:32
        Signature Algorithm: sha256WithRSAEncryption
        Issuer: C=JP, O=Japanese Government, OU=National Police Agency, OU=NPA ICDL Root CA
        Validity
            Not Before: Mar 18 05:18:31 2024 GMT
            Not After : Mar 17 14:59:59 2029 GMT
        Subject: C=JP, O=Japanese Government, OU=National Police Agency, OU=Prefectural Public Safety Commissions for ICDL, CN=Chiba AltPPSC
        Subject Public Key Info:
            Public Key Algorithm: rsaEncryption
                Public-Key: (2048 bit)
                Modulus:
                    00:93:37:15:2b:60:ef:47:5f:dd:45:a6:4c:f9:07:
                    e5:48:a1:05:8d:62:d8:b6:78:31:0d:c2:45:88:1a:
                    d3:e5:76:9a:bf:f1:ba:ea:41:88:04:70:f7:07:e2:
                    3d:11:18:42:1b:fc:d7:01:24:1e:22:c7:63:1f:43:
                    32:bc:97:d6:fe:70:ea:0b:e4:e0:a9:13:6a:38:5d:
                    df:c4:13:15:cc:73:59:ba:32:29:2d:9b:14:c9:d4:
                    ca:44:1c:1a:df:4a:5c:ec:33:fe:8c:b2:65:1d:90:
                    f1:56:1b:96:26:6e:1e:18:40:8f:63:bd:bf:c8:88:
                    b2:26:4c:f2:59:3e:f8:e2:9b:70:f7:3d:a9:18:0b:
                    2e:e8:3d:1f:7f:8f:de:10:f2:0f:a5:72:2e:82:e7:
                    12:94:a5:45:a6:5f:3d:5c:d4:ec:81:20:ca:b5:72:
                    78:57:5c:1a:b6:5c:95:e9:d7:fa:17:a6:8b:15:53:
                    df:67:50:15:44:0b:9d:4d:4b:5e:d9:5e:e1:98:04:
                    a9:59:d5:e9:07:04:3e:56:d6:62:4a:c4:68:19:fd:
                    23:75:64:cc:b2:55:b0:a8:0a:aa:7f:4a:11:34:cf:
                    61:3e:6f:42:a0:45:06:ec:8a:ec:5a:0f:6b:58:61:
                    11:99:d9:b2:53:eb:18:0e:73:8b:03:c0:ca:a5:2b:
                    78:e3
                Exponent: 65537 (0x10001)
        X509v3 extensions:
            X509v3 Authority Key Identifier: 
                keyid:11:CD:8E:60:44:47:57:4F:4F:CB:E9:E7:CB:A1:46:DF:BA:0E:50:8B
                DirName:/C=JP/O=Japanese Government/OU=National Police Agency/OU=NPA ICDL Root CA
                serial:32:30:30:30:30:30:31:36
            X509v3 Subject Key Identifier: 
                7D:53:BC:A2:72:69:DF:67:82:AB:70:FD:35:4B:BE:4A:70:52:A5:81
            X509v3 Key Usage: critical
                Digital Signature, Non Repudiation
            X509v3 Certificate Policies: critical
                Policy: 1.2.392.100120.7.5.1.1.10
                  CPS: http://www.npa.go.jp/
            X509v3 Issuer Alternative Name: 
                DirName:/C=JP/O=\xE6\x97\xA5\xE6\x9C\xAC\xE5\x9B\xBD\xE6\x94\xBF\xE5\xBA\x9C/OU=\xE8\xAD\xA6\xE5\xAF\x9F\xE5\xBA\x81/OU=\xE8\xAD\xA6\xE5\xAF\x9F\xE5\xBA\x81\xE9\x81\x8B\xE8\xBB\xA2\xE5\x85\x8D\xE8\xA8\xB1\xE8\xA8\xBC\xE8\xAA\x8D\xE8\xA8\xBC\xE5\xB1\x80
            X509v3 CRL Distribution Points: 
                Full Name:
                  DirName:C = JP, O = Japanese Government, OU = National Police Agency, OU = Prefectural Public Safety Commissions for ICDL
    Signature Algorithm: sha256WithRSAEncryption
    Signature Value:
        0b:9a:be:56:2d:be:f1:57:97:e6:5b:8b:c6:ff:5d:23:20:df:
        f5:01:df:35:43:cb:c4:c1:7a:58:fa:d7:b0:19:87:1e:16:3c:
        9f:de:c2:08:cd:ba:e1:93:8a:08:2e:69:42:aa:02:ae:63:80:
        4d:80:61:e2:4e:e0:b9:bb:af:c2:93:3b:d5:35:54:84:b1:53:
        c6:b4:90:c7:90:5f:6b:65:07:a4:da:25:37:72:e0:40:2b:06:
        13:ea:a7:de:9c:97:4e:e5:8b:05:bb:4a:f4:10:b0:b4:39:c0:
        2e:97:2e:18:33:78:d6:dc:fc:22:d8:3a:4c:11:5a:c2:95:26:
        29:d2:f5:fb:91:20:41:d2:0a:7e:ae:29:b5:26:73:86:f7:c6:
        d7:cd:ff:e1:a6:79:8c:5c:5b:1d:b4:0f:06:3a:b1:50:86:6b:
        ec:b7:e7:34:01:f2:cf:03:7b:bf:39:c6:58:fd:0b:28:60:3e:
        34:c4:fb:fa:df:9b:a9:90:22:8d:c1:57:3a:ff:ae:26:98:85:
        10:c9:c1:f1:4c:aa:90:5e:3b:8e:5c:2b:0b:ff:f1:34:24:16:
        89:d9:d0:7d:b2:06:b3:30:ee:57:ba:3a:b6:7f:c4:e4:cd:dd:
        f6:c2:8a:e6:e9:c4:62:c3:32:b3:d8:cc:9b:32:6a:c4:78:0f:
        aa:ac:ab:7c
-----BEGIN CERTIFICATE-----
MIIFsTCCBJmgAwIBAgIIMzAwMDAwODIwDQYJKoZIhvcNAQELBQAwZzELMAkGA1UE
BhMCSlAxHDAaBgNVBAoME0phcGFuZXNlIEdvdmVybm1lbnQxHzAdBgNVBAsMFk5h
dGlvbmFsIFBvbGljZSBBZ2VuY3kxGTAXBgNVBAsMEE5QQSBJQ0RMIFJvb3QgQ0Ew
HhcNMjQwMzE4MDUxODMxWhcNMjkwMzE3MTQ1OTU5WjCBnTELMAkGA1UEBhMCSlAx
HDAaBgNVBAoME0phcGFuZXNlIEdvdmVybm1lbnQxHzAdBgNVBAsMFk5hdGlvbmFs
IFBvbGljZSBBZ2VuY3kxNzA1BgNVBAsMLlByZWZlY3R1cmFsIFB1YmxpYyBTYWZl
dHkgQ29tbWlzc2lvbnMgZm9yIElDREwxFjAUBgNVBAMMDUNoaWJhIEFsdFBQU0Mw
ggEiMA0GCSqGSIb3DQEBAQUAA4IBDwAwggEKAoIBAQCTNxUrYO9HX91Fpkz5B+VI
oQWNYti2eDENwkWIGtPldpq/8brqQYgEcPcH4j0RGEIb/NcBJB4ix2MfQzK8l9b+
cOoL5OCpE2o4Xd/EExXMc1m6MiktmxTJ1MpEHBrfSlzsM/6MsmUdkPFWG5Ymbh4Y
QI9jvb/IiLImTPJZPvjim3D3PakYCy7oPR9/j94Q8g+lci6C5xKUpUWmXz1c1OyB
IMq1cnhXXBq2XJXp1/oXposVU99nUBVEC51NS17ZXuGYBKlZ1ekHBD5W1mJKxGgZ
/SN1ZMyyVbCoCqp/ShE0z2E+b0KgRQbsiuxaD2tYYRGZ2bJT6xgOc4sDwMqlK3jj
AgMBAAGjggIoMIICJDCBmAYDVR0jBIGQMIGNgBQRzY5gREdXT0/L6efLoUbfug5Q
i6FrpGkwZzELMAkGA1UEBhMCSlAxHDAaBgNVBAoME0phcGFuZXNlIEdvdmVybm1l
bnQxHzAdBgNVBAsMFk5hdGlvbmFsIFBvbGljZSBBZ2VuY3kxGTAXBgNVBAsMEE5Q
QSBJQ0RMIFJvb3QgQ0GCCDIwMDAwMDE2MB0GA1UdDgQWBBR9U7yicmnfZ4KrcP01
S75KcFKlgTAOBgNVHQ8BAf8EBAMCBsAwQAYDVR0gAQH/BDYwNDAyBgsqgwiGjhgH
BQEBCjAjMCEGCCsGAQUFBwIBFhVodHRwOi8vd3d3Lm5wYS5nby5qcC8wdAYDVR0S
BG0wa6RpMGcxCzAJBgNVBAYTAkpQMRgwFgYDVQQKDA/ml6XmnKzlm73mlL/lupwx
EjAQBgNVBAsMCeitpuWvn+W6gTEqMCgGA1UECwwh6K2m5a+f5bqB6YGL6Lui5YWN
6Kix6Ki86KqN6Ki85bGAMIGfBgNVHR8EgZcwgZQwgZGggY6ggYukgYgwgYUxCzAJ
BgNVBAYTAkpQMRwwGgYDVQQKDBNKYXBhbmVzZSBHb3Zlcm5tZW50MR8wHQYDVQQL
DBZOYXRpb25hbCBQb2xpY2UgQWdlbmN5MTcwNQYDVQQLDC5QcmVmZWN0dXJhbCBQ
dWJsaWMgU2FmZXR5IENvbW1pc3Npb25zIGZvciBJQ0RMMA0GCSqGSIb3DQEBCwUA
A4IBAQALmr5WLb7xV5fmW4vG/10jIN/1Ad81Q8vEwXpY+tewGYceFjyf3sIIzbrh
k4oILmlCqgKuY4BNgGHiTuC5u6/CkzvVNVSEsVPGtJDHkF9rZQek2iU3cuBAKwYT
6qfenJdO5YsFu0r0ELC0OcAuly4YM3jW3Pwi2DpMEVrClSYp0vX7kSBB0gp+rim1
JnOG98bXzf/hpnmMXFsdtA8GOrFQhmvst+c0AfLPA3u/OcZY/QsoYD40xPv635up
kCKNwVc6/64mmIUQycHxTKqQXjuOXCsL//E0JBaJ2dB9sgazMO5Xujq2f8Tkzd32
worm6cRiwzKz2MybMmrEeA+qrKt8
-----END CERTIFICATE-----
