Certificate:
    Data:
        Version: 3 (0x2)
        Serial Number:
            33:30:30:30:30:30:36:32
        Signature Algorithm: sha256WithRSAEncryption
        Issuer: C=JP, O=Japanese Government, OU=National Police Agency, OU=NPA ICDL Root CA
        Validity
            Not Before: Nov  1 04:31:03 2023 GMT
            Not After : Oct 31 14:59:59 2028 GMT
        Subject: C=JP, O=Japanese Government, OU=National Police Agency, OU=Prefectural Public Safety Commissions for ICDL, CN=Chiba PPSC
        Subject Public Key Info:
            Public Key Algorithm: rsaEncryption
                Public-Key: (2048 bit)
                Modulus:
                    00:c4:33:15:84:8a:e6:13:b7:77:5c:9a:44:aa:2b:
                    e7:5d:84:75:4c:9a:33:f1:60:a6:85:7d:61:9b:1d:
                    be:e9:fa:1d:91:d4:61:71:da:b1:cb:2c:8b:2c:1b:
                    ea:6a:41:c8:57:55:ce:d1:f0:5a:df:df:f3:f0:0b:
                    12:9b:93:e5:ce:ec:2e:aa:63:f9:0b:a8:fc:c2:bb:
                    4a:29:d9:1d:ed:62:16:f1:ee:54:d3:80:79:c1:4d:
                    19:81:76:18:8a:07:63:59:cc:01:78:2a:24:18:7f:
                    3c:ee:c8:51:9a:b1:0e:29:0b:b0:3e:df:0c:81:53:
                    c1:99:a9:4c:4f:cc:9a:11:fb:6c:92:84:9e:6c:19:
                    9d:21:2d:f0:b9:ec:15:2c:45:47:35:63:5f:b7:15:
                    5f:99:e0:2b:e3:ff:52:f1:c7:da:e2:1d:52:32:93:
                    30:40:f1:a8:cc:35:1b:0d:ba:0b:14:aa:c9:82:6e:
                    34:a5:26:9a:88:b6:b0:c7:07:74:ed:b9:c5:c2:69:
                    14:99:14:97:45:86:d2:11:8a:db:19:e3:82:51:7c:
                    e2:86:ea:f7:35:84:84:f2:d9:80:b2:5f:d5:f2:e2:
                    0a:04:6b:2d:93:8d:ac:88:b0:85:88:55:ae:cb:94:
                    0a:81:b4:15:60:0c:f7:fb:6f:b3:f9:81:78:ec:4d:
                    f8:15
                Exponent: 65537 (0x10001)
        X509v3 extensions:
            X509v3 Authority Key Identifier: 
                keyid:11:CD:8E:60:44:47:57:4F:4F:CB:E9:E7:CB:A1:46:DF:BA:0E:50:8B
                DirName:/C=JP/O=Japanese Government/OU=National Police Agency/OU=NPA ICDL Root CA
                serial:32:30:30:30:30:30:31:36
            X509v3 Subject Key Identifier: 
                87:37:86:2F:9F:9B:98:56:F7:FA:94:45:1D:9B:08:B4:29:53:47:93
            X509v3 Key Usage: critical
                Digital Signature, Non Repudiation
            X509v3 Certificate Policies: critical
                Policy: 1.2.392.100120.7.5.1.1.10
                  CPS: http://www.npa.go.jp/
            X509v3 Subject Alternative Name: 
                DirName:/C=JP/O=\xE6\x97\xA5\xE6\x9C\xAC\xE5\x9B\xBD\xE6\x94\xBF\xE5\xBA\x9C/OU=\xE8\xAD\xA6\xE5\xAF\x9F\xE5\xBA\x81/OU=\xE9\x83\xBD\xE9\x81\x93\xE5\xBA\x9C\xE7\x9C\x8C\xE5\x85\xAC\xE5\xAE\x89\xE5\xA7\x94\xE5\x93\xA1\xE4\xBC\x9A
            X509v3 Issuer Alternative Name: 
                DirName:/C=JP/O=\xE6\x97\xA5\xE6\x9C\xAC\xE5\x9B\xBD\xE6\x94\xBF\xE5\xBA\x9C/OU=\xE8\xAD\xA6\xE5\xAF\x9F\xE5\xBA\x81/OU=\xE8\xAD\xA6\xE5\xAF\x9F\xE5\xBA\x81\xE9\x81\x8B\xE8\xBB\xA2\xE5\x85\x8D\xE8\xA8\xB1\xE8\xA8\xBC\xE8\xAA\x8D\xE8\xA8\xBC\xE5\xB1\x80
            X509v3 CRL Distribution Points: 
                Full Name:
                  DirName:C = JP, O = Japanese Government, OU = National Police Agency, OU = Prefectural Public Safety Commissions for ICDL
    Signature Algorithm: sha256WithRSAEncryption
    Signature Value:
        3e:66:ac:fb:96:7a:44:8b:e6:4d:5f:5f:97:59:49:85:22:94:
        ab:01:5b:64:6d:eb:8d:52:97:f8:23:f8:c9:52:d9:ea:3c:63:
        36:a2:67:2f:ab:06:7f:ed:f7:5e:81:4a:af:c2:12:87:e5:46:
        e7:6b:87:fe:f1:34:cf:b2:4f:7e:92:54:5e:24:38:7d:91:7a:
        5e:bb:14:b9:82:75:b2:a4:53:47:9b:58:83:e9:e5:03:4a:90:
        53:6f:9a:44:02:33:ac:ff:bc:ab:81:5e:f0:fd:0f:9a:32:53:
        19:71:93:a4:47:b8:b1:39:3e:8d:b6:61:c1:27:5b:36:ec:6e:
        84:0a:49:9a:da:09:b5:56:ed:8b:ab:11:7d:13:86:41:60:9b:
        b6:d0:e9:2d:d0:9b:26:a2:2b:1f:af:21:17:04:23:21:fe:a2:
        9d:df:ad:0d:cd:8d:7e:58:88:97:12:bb:64:7b:3c:8c:17:ee:
        32:5f:25:41:97:b5:a7:3f:38:96:5e:08:5a:39:0f:13:dc:6a:
        b0:4b:4a:26:30:ab:bc:9b:ef:62:46:46:9b:69:79:43:ff:db:
        e5:68:d2:80:53:8b:4c:d7:6c:f0:38:63:50:95:2a:c8:9d:ce:
        2d:6d:f3:94:75:81:ce:52:b4:24:6d:df:f9:b7:3f:ed:cd:be:
        b7:5b:e1:a6
-----BEGIN CERTIFICATE-----
MIIGRjCCBS6gAwIBAgIIMzAwMDAwNjIwDQYJKoZIhvcNAQELBQAwZzELMAkGA1UE
BhMCSlAxHDAaBgNVBAoME0phcGFuZXNlIEdvdmVybm1lbnQxHzAdBgNVBAsMFk5h
dGlvbmFsIFBvbGljZSBBZ2VuY3kxGTAXBgNVBAsMEE5QQSBJQ0RMIFJvb3QgQ0Ew
HhcNMjMxMTAxMDQzMTAzWhcNMjgxMDMxMTQ1OTU5WjCBmjELMAkGA1UEBhMCSlAx
HDAaBgNVBAoME0phcGFuZXNlIEdvdmVybm1lbnQxHzAdBgNVBAsMFk5hdGlvbmFs
IFBvbGljZSBBZ2VuY3kxNzA1BgNVBAsMLlByZWZlY3R1cmFsIFB1YmxpYyBTYWZl
dHkgQ29tbWlzc2lvbnMgZm9yIElDREwxEzARBgNVBAMMCkNoaWJhIFBQU0MwggEi
MA0GCSqGSIb3DQEBAQUAA4IBDwAwggEKAoIBAQDEMxWEiuYTt3dcmkSqK+ddhHVM
mjPxYKaFfWGbHb7p+h2R1GFx2rHLLIssG+pqQchXVc7R8Frf3/PwCxKbk+XO7C6q
Y/kLqPzCu0op2R3tYhbx7lTTgHnBTRmBdhiKB2NZzAF4KiQYfzzuyFGasQ4pC7A+
3wyBU8GZqUxPzJoR+2yShJ5sGZ0hLfC57BUsRUc1Y1+3FV+Z4Cvj/1Lxx9riHVIy
kzBA8ajMNRsNugsUqsmCbjSlJpqItrDHB3TtucXCaRSZFJdFhtIRitsZ44JRfOKG
6vc1hITy2YCyX9Xy4goEay2TjayIsIWIVa7LlAqBtBVgDPf7b7P5gXjsTfgVAgMB
AAGjggLAMIICvDCBmAYDVR0jBIGQMIGNgBQRzY5gREdXT0/L6efLoUbfug5Qi6Fr
pGkwZzELMAkGA1UEBhMCSlAxHDAaBgNVBAoME0phcGFuZXNlIEdvdmVybm1lbnQx
HzAdBgNVBAsMFk5hdGlvbmFsIFBvbGljZSBBZ2VuY3kxGTAXBgNVBAsMEE5QQSBJ
Q0RMIFJvb3QgQ0GCCDIwMDAwMDE2MB0GA1UdDgQWBBSHN4Yvn5uYVvf6lEUdmwi0
KVNHkzAOBgNVHQ8BAf8EBAMCBsAwQAYDVR0gAQH/BDYwNDAyBgsqgwiGjhgHBQEB
CjAjMCEGCCsGAQUFBwIBFhVodHRwOi8vd3d3Lm5wYS5nby5qcC8wgZUGA1UdEQSB
jTCBiqSBhzCBhDELMAkGA1UEBhMCSlAxGDAWBgNVBAoMD+aXpeacrOWbveaUv+W6
nDESMBAGA1UECwwJ6K2m5a+f5bqBMSQwIgYDVQQLDBvpg73pgZPlupznnIzlhazl
ronlp5Tlk6HkvJoxITAfBgNVBAMMGOWNg+iRieecjOWFrOWuieWnlOWToeS8mjB0
BgNVHRIEbTBrpGkwZzELMAkGA1UEBhMCSlAxGDAWBgNVBAoMD+aXpeacrOWbveaU
v+W6nDESMBAGA1UECwwJ6K2m5a+f5bqBMSowKAYDVQQLDCHorablr5/luoHpgYvo
u6LlhY3oqLHoqLzoqo3oqLzlsYAwgZ8GA1UdHwSBlzCBlDCBkaCBjqCBi6SBiDCB
hTELMAkGA1UEBhMCSlAxHDAaBgNVBAoME0phcGFuZXNlIEdvdmVybm1lbnQxHzAd
BgNVBAsMFk5hdGlvbmFsIFBvbGljZSBBZ2VuY3kxNzA1BgNVBAsMLlByZWZlY3R1
cmFsIFB1YmxpYyBTYWZldHkgQ29tbWlzc2lvbnMgZm9yIElDREwwDQYJKoZIhvcN
AQELBQADggEBAD5mrPuWekSL5k1fX5dZSYUilKsBW2Rt641Sl/gj+MlS2eo8Yzai
Zy+rBn/t916BSq/CEoflRudrh/7xNM+yT36SVF4kOH2Rel67FLmCdbKkU0ebWIPp
5QNKkFNvmkQCM6z/vKuBXvD9D5oyUxlxk6RHuLE5Po22YcEnWzbsboQKSZraCbVW
7YurEX0ThkFgm7bQ6S3QmyaiKx+vIRcEIyH+op3frQ3NjX5YiJcSu2R7PIwX7jJf
JUGXtac/OJZeCFo5DxPcarBLSiYwq7yb72JGRptpeUP/2+Vo0oBTi0zXbPA4Y1CV
Ksidzi1t85R1gc5StCRt3/m3P+3Nvrdb4aY=
-----END CERTIFICATE-----
