Certificate:
    Data:
        Version: 3 (0x2)
        Serial Number:
            33:30:30:30:30:30:32:32:54:b9:6e:ef:bf:5f:f2:c8:59:0b
        Signature Algorithm: sha256WithRSAEncryption
        Issuer: C=JP, O=Japanese Government, OU=National Police Agency, OU=NPA ICDL Root CA
        Validity
            Not Before: Jun 19 05:39:23 2023 GMT
            Not After : Jun 18 14:59:59 2028 GMT
        Subject: C=JP, O=Japanese Government, OU=National Police Agency, OU=Prefectural Public Safety Commissions for ICDL, CN=Chiba AltPPSC
        Subject Public Key Info:
            Public Key Algorithm: rsaEncryption
                Public-Key: (2048 bit)
                Modulus:
                    00:8f:02:24:ba:ea:85:a3:7b:d4:b1:03:a0:28:cd:
                    39:f1:bf:44:63:c0:52:60:5a:fc:85:32:a2:30:7d:
                    7e:c0:c7:d5:1c:a0:95:2f:7b:cc:b8:25:f9:df:9e:
                    66:f7:58:a4:b7:d0:eb:a4:ce:cd:08:dc:5b:ab:35:
                    e0:51:50:7c:25:95:81:05:ed:2c:2e:6b:dc:74:cc:
                    ca:ce:f7:8d:b6:a1:99:3f:9b:d8:eb:08:76:63:80:
                    03:4e:dc:63:15:2e:70:74:56:45:db:05:10:de:7b:
                    4e:da:3f:76:34:16:f2:d1:ae:2f:a0:4b:0c:5c:2e:
                    5a:9f:a0:e9:b8:f0:06:4b:1a:85:e0:22:2d:61:85:
                    67:af:cf:4a:e3:71:cd:2f:d9:0b:60:d0:fb:56:b6:
                    59:aa:2f:56:3d:ef:dc:d6:19:eb:5f:dd:d2:a7:2d:
                    3b:6e:22:bf:c8:1e:c2:45:57:e6:b8:7d:d9:4e:23:
                    8d:e3:21:10:86:93:86:33:3e:06:09:4d:f2:ec:20:
                    81:2a:a3:76:29:ff:85:80:67:61:0c:e5:23:36:7e:
                    1c:24:7c:d0:c4:36:dd:d9:bb:24:42:70:9c:87:d7:
                    01:be:47:6c:78:d7:01:c5:27:d0:6d:67:c5:be:a0:
                    5c:3f:1e:39:9e:00:23:b4:1c:01:48:25:ce:a6:a0:
                    19:8b
                Exponent: 65537 (0x10001)
        X509v3 extensions:
            X509v3 Authority Key Identifier: 
                keyid:11:CD:8E:60:44:47:57:4F:4F:CB:E9:E7:CB:A1:46:DF:BA:0E:50:8B
                DirName:/C=JP/O=Japanese Government/OU=National Police Agency/OU=NPA ICDL Root CA
                serial:32:30:30:30:30:30:31:36
            X509v3 Subject Key Identifier: 
                4B:F0:4D:4A:49:10:79:3E:5F:1F:77:85:B0:B8:C4:17:8E:E6:92:8E
            X509v3 Key Usage: critical
                Digital Signature, Non Repudiation
            X509v3 Certificate Policies: critical
                Policy: 1.2.392.100120.7.5.1.1.10
                  CPS: http://www.npa.go.jp/
            X509v3 Issuer Alternative Name: 
                DirName:/C=JP/O=\xE6\x97\xA5\xE6\x9C\xAC\xE5\x9B\xBD\xE6\x94\xBF\xE5\xBA\x9C/OU=\xE8\xAD\xA6\xE5\xAF\x9F\xE5\xBA\x81/OU=\xE8\xAD\xA6\xE5\xAF\x9F\xE5\xBA\x81\xE9\x81\x8B\xE8\xBB\xA2\xE5\x85\x8D\xE8\xA8\xB1\xE8\xA8\xBC\xE8\xAA\x8D\xE8\xA8\xBC\xE5\xB1\x80
            X509v3 CRL Distribution Points: 
                Full Name:
                  DirName:C = JP, O = Japanese Government, OU = National Police Agency, OU = Prefectural Public Safety Commissions for ICDL
    Signature Algorithm: sha256WithRSAEncryption
    Signature Value:
        87:b7:2c:18:83:61:9c:28:3a:86:71:34:92:42:e4:dc:7c:b7:
        3f:6e:e3:1c:53:24:d9:5c:d1:90:59:0b:1f:8d:79:7d:d0:3b:
        26:c1:f7:41:2a:83:e7:cd:39:61:82:ce:05:6a:7f:f6:99:a4:
        05:a9:92:6f:eb:15:01:2d:59:19:7d:f1:24:33:54:e0:f2:50:
        96:e5:5a:c0:a1:c5:ad:40:a7:de:6d:5e:67:85:dc:1b:2c:ff:
        86:f0:ab:d8:fd:e5:92:15:79:2d:4e:68:a7:8b:6f:fe:5b:01:
        c8:93:0b:15:6e:06:4b:e2:6b:56:a8:7f:a8:24:72:d4:1a:12:
        88:6c:bd:a9:de:fe:a8:15:9e:dc:41:4b:a2:a5:75:45:13:b9:
        9c:c5:f8:59:a4:5f:92:bc:be:28:64:d7:c3:d7:ef:3d:4e:96:
        e5:e9:72:e1:9e:8b:8d:fe:12:71:48:2c:77:b7:6c:4e:3e:8b:
        02:68:d0:ca:52:fc:7e:86:f7:3f:0f:65:f6:64:28:90:6a:ac:
        76:fc:76:80:96:2e:96:78:a3:b6:9a:ec:5d:88:25:46:9e:3a:
        2f:c3:13:16:0f:cb:d3:27:19:de:99:34:c9:10:65:59:40:b6:
        39:a5:db:ff:05:52:2b:d7:a2:a7:8b:e9:31:60:d9:51:b5:40:
        db:50:b4:f3
-----BEGIN CERTIFICATE-----
MIIFuzCCBKOgAwIBAgISMzAwMDAwMjJUuW7vv1/yyFkLMA0GCSqGSIb3DQEBCwUA
MGcxCzAJBgNVBAYTAkpQMRwwGgYDVQQKDBNKYXBhbmVzZSBHb3Zlcm5tZW50MR8w
HQYDVQQLDBZOYXRpb25hbCBQb2xpY2UgQWdlbmN5MRkwFwYDVQQLDBBOUEEgSUNE
TCBSb290IENBMB4XDTIzMDYxOTA1MzkyM1oXDTI4MDYxODE0NTk1OVowgZ0xCzAJ
BgNVBAYTAkpQMRwwGgYDVQQKDBNKYXBhbmVzZSBHb3Zlcm5tZW50MR8wHQYDVQQL
DBZOYXRpb25hbCBQb2xpY2UgQWdlbmN5MTcwNQYDVQQLDC5QcmVmZWN0dXJhbCBQ
dWJsaWMgU2FmZXR5IENvbW1pc3Npb25zIGZvciBJQ0RMMRYwFAYDVQQDDA1DaGli
YSBBbHRQUFNDMIIBIjANBgkqhkiG9w0BAQEFAAOCAQ8AMIIBCgKCAQEAjwIkuuqF
o3vUsQOgKM058b9EY8BSYFr8hTKiMH1+wMfVHKCVL3vMuCX5355m91ikt9DrpM7N
CNxbqzXgUVB8JZWBBe0sLmvcdMzKzveNtqGZP5vY6wh2Y4ADTtxjFS5wdFZF2wUQ
3ntO2j92NBby0a4voEsMXC5an6DpuPAGSxqF4CItYYVnr89K43HNL9kLYND7VrZZ
qi9WPe/c1hnrX93Spy07biK/yB7CRVfmuH3ZTiON4yEQhpOGMz4GCU3y7CCBKqN2
Kf+FgGdhDOUjNn4cJHzQxDbd2bskQnCch9cBvkdseNcBxSfQbWfFvqBcPx45ngAj
tBwBSCXOpqAZiwIDAQABo4ICKDCCAiQwgZgGA1UdIwSBkDCBjYAUEc2OYERHV09P
y+nny6FG37oOUIuha6RpMGcxCzAJBgNVBAYTAkpQMRwwGgYDVQQKDBNKYXBhbmVz
ZSBHb3Zlcm5tZW50MR8wHQYDVQQLDBZOYXRpb25hbCBQb2xpY2UgQWdlbmN5MRkw
FwYDVQQLDBBOUEEgSUNETCBSb290IENBgggyMDAwMDAxNjAdBgNVHQ4EFgQUS/BN
SkkQeT5fH3eFsLjEF47mko4wDgYDVR0PAQH/BAQDAgbAMEAGA1UdIAEB/wQ2MDQw
MgYLKoMIho4YBwUBAQowIzAhBggrBgEFBQcCARYVaHR0cDovL3d3dy5ucGEuZ28u
anAvMHQGA1UdEgRtMGukaTBnMQswCQYDVQQGEwJKUDEYMBYGA1UECgwP5pel5pys
5Zu95pS/5bqcMRIwEAYDVQQLDAnorablr5/luoExKjAoBgNVBAsMIeitpuWvn+W6
gemBi+i7ouWFjeioseiovOiqjeiovOWxgDCBnwYDVR0fBIGXMIGUMIGRoIGOoIGL
pIGIMIGFMQswCQYDVQQGEwJKUDEcMBoGA1UECgwTSmFwYW5lc2UgR292ZXJubWVu
dDEfMB0GA1UECwwWTmF0aW9uYWwgUG9saWNlIEFnZW5jeTE3MDUGA1UECwwuUHJl
ZmVjdHVyYWwgUHVibGljIFNhZmV0eSBDb21taXNzaW9ucyBmb3IgSUNETDANBgkq
hkiG9w0BAQsFAAOCAQEAh7csGINhnCg6hnE0kkLk3Hy3P27jHFMk2VzRkFkLH415
fdA7JsH3QSqD5805YYLOBWp/9pmkBamSb+sVAS1ZGX3xJDNU4PJQluVawKHFrUCn
3m1eZ4XcGyz/hvCr2P3lkhV5LU5op4tv/lsByJMLFW4GS+JrVqh/qCRy1BoSiGy9
qd7+qBWe3EFLoqV1RRO5nMX4WaRfkry+KGTXw9fvPU6W5ely4Z6Ljf4ScUgsd7ds
Tj6LAmjQylL8fob3Pw9l9mQokGqsdvx2gJYulnijtprsXYglRp46L8MTFg/L0ycZ
3pk0yRBlWUC2OaXb/wVSK9eip4vpMWDZUbVA21C08w==
-----END CERTIFICATE-----
