Certificate:
    Data:
        Version: 3 (0x2)
        Serial Number:
            32:30:30:30:30:30:35:30
        Signature Algorithm: sha256WithRSAEncryption
        Issuer: C=JP, O=Japanese Government, OU=National Police Agency, OU=NPA ICDL Root CA
        Validity
            Not Before: Feb  6 01:59:41 2023 GMT
            Not After : Feb  5 14:59:59 2028 GMT
        Subject: C=JP, O=Japanese Government, OU=National Police Agency, OU=Prefectural Public Safety Commissions for ICDL, CN=Chiba PPSC
        Subject Public Key Info:
            Public Key Algorithm: rsaEncryption
                Public-Key: (2048 bit)
                Modulus:
                    00:93:37:15:2b:60:ef:47:5f:dd:45:a6:4c:f9:07:
                    e5:48:a1:05:8d:62:d8:b6:78:31:0d:c2:45:88:1a:
                    d3:e5:76:9a:bf:f1:ba:ea:41:88:04:70:f7:07:e2:
                    3d:11:18:42:1b:fc:d7:01:24:1e:22:c7:63:1f:43:
                    32:bc:97:d6:fe:70:ea:0b:e4:e0:a9:13:6a:38:5d:
                    df:c4:13:15:cc:73:59:ba:32:29:2d:9b:14:c9:d4:
                    ca:44:1c:1a:df:4a:5c:ec:33:fe:8c:b2:65:1d:90:
                    f1:56:1b:96:26:6e:1e:18:40:8f:63:bd:bf:c8:88:
                    b2:26:4c:f2:59:3e:f8:e2:9b:70:f7:3d:a9:18:0b:
                    2e:e8:3d:1f:7f:8f:de:10:f2:0f:a5:72:2e:82:e7:
                    12:94:a5:45:a6:5f:3d:5c:d4:ec:81:20:ca:b5:72:
                    78:57:5c:1a:b6:5c:95:e9:d7:fa:17:a6:8b:15:53:
                    df:67:50:15:44:0b:9d:4d:4b:5e:d9:5e:e1:98:04:
                    a9:59:d5:e9:07:04:3e:56:d6:62:4a:c4:68:19:fd:
                    23:75:64:cc:b2:55:b0:a8:0a:aa:7f:4a:11:34:cf:
                    61:3e:6f:42:a0:45:06:ec:8a:ec:5a:0f:6b:58:61:
                    11:99:d9:b2:53:eb:18:0e:73:8b:03:c0:ca:a5:2b:
                    78:e3
                Exponent: 65537 (0x10001)
        X509v3 extensions:
            X509v3 Authority Key Identifier: 
                keyid:11:CD:8E:60:44:47:57:4F:4F:CB:E9:E7:CB:A1:46:DF:BA:0E:50:8B
                DirName:/C=JP/O=Japanese Government/OU=National Police Agency/OU=NPA ICDL Root CA
                serial:32:30:30:30:30:30:31:36
            X509v3 Subject Key Identifier: 
                7D:53:BC:A2:72:69:DF:67:82:AB:70:FD:35:4B:BE:4A:70:52:A5:81
            X509v3 Key Usage: critical
                Digital Signature, Non Repudiation
            X509v3 Certificate Policies: critical
                Policy: 1.2.392.100120.7.5.1.1.10
                  CPS: http://www.npa.go.jp/
            X509v3 Subject Alternative Name: 
                DirName:/C=JP/O=\xE6\x97\xA5\xE6\x9C\xAC\xE5\x9B\xBD\xE6\x94\xBF\xE5\xBA\x9C/OU=\xE8\xAD\xA6\xE5\xAF\x9F\xE5\xBA\x81/OU=\xE9\x83\xBD\xE9\x81\x93\xE5\xBA\x9C\xE7\x9C\x8C\xE5\x85\xAC\xE5\xAE\x89\xE5\xA7\x94\xE5\x93\xA1\xE4\xBC\x9A
            X509v3 Issuer Alternative Name: 
                DirName:/C=JP/O=\xE6\x97\xA5\xE6\x9C\xAC\xE5\x9B\xBD\xE6\x94\xBF\xE5\xBA\x9C/OU=\xE8\xAD\xA6\xE5\xAF\x9F\xE5\xBA\x81/OU=\xE8\xAD\xA6\xE5\xAF\x9F\xE5\xBA\x81\xE9\x81\x8B\xE8\xBB\xA2\xE5\x85\x8D\xE8\xA8\xB1\xE8\xA8\xBC\xE8\xAA\x8D\xE8\xA8\xBC\xE5\xB1\x80
            X509v3 CRL Distribution Points: 
                Full Name:
                  DirName:C = JP, O = Japanese Government, OU = National Police Agency, OU = Prefectural Public Safety Commissions for ICDL
    Signature Algorithm: sha256WithRSAEncryption
    Signature Value:
        2e:f3:c2:53:4a:4a:25:af:2d:db:12:db:47:05:79:38:62:a7:
        23:e7:45:46:b1:ff:74:42:ac:81:87:85:75:19:6b:91:e4:28:
        30:41:7d:d6:1b:8e:5d:ba:7c:95:b4:8c:76:60:80:f4:fb:03:
        ca:1d:f6:2f:2f:3f:62:eb:bf:d5:c8:05:5c:5c:5e:ec:2e:cc:
        27:c1:9a:7c:54:3b:0e:22:7c:9f:74:fe:59:8c:cf:a6:3d:1e:
        71:54:1b:91:cc:0f:2f:a1:5c:eb:6c:47:c6:af:75:56:f5:1a:
        88:b4:a8:23:4b:6b:50:59:c3:a1:d8:50:b2:3e:f0:03:fa:d6:
        f0:95:21:fe:16:47:9b:e7:29:96:d5:5e:bf:35:7d:2b:fc:30:
        5a:6c:52:26:37:a8:63:e1:bf:8d:f9:75:29:27:31:63:65:4e:
        98:a1:7d:6a:c4:45:6a:db:aa:e5:50:af:ef:34:1e:0f:d9:e4:
        76:63:c7:24:c4:9f:2e:5a:9c:86:d1:1a:4d:de:32:af:13:70:
        2e:ee:73:8d:8f:64:3a:8c:89:77:7a:a4:d9:91:6c:b7:59:58:
        32:51:c5:63:9b:ca:64:58:5d:11:eb:20:dd:23:4d:a4:8c:fb:
        eb:d2:9b:40:9e:1b:d0:a2:96:48:50:9a:65:81:eb:cf:3e:52:
        b8:aa:42:bb
-----BEGIN CERTIFICATE-----
MIIGRjCCBS6gAwIBAgIIMjAwMDAwNTAwDQYJKoZIhvcNAQELBQAwZzELMAkGA1UE
BhMCSlAxHDAaBgNVBAoME0phcGFuZXNlIEdvdmVybm1lbnQxHzAdBgNVBAsMFk5h
dGlvbmFsIFBvbGljZSBBZ2VuY3kxGTAXBgNVBAsMEE5QQSBJQ0RMIFJvb3QgQ0Ew
HhcNMjMwMjA2MDE1OTQxWhcNMjgwMjA1MTQ1OTU5WjCBmjELMAkGA1UEBhMCSlAx
HDAaBgNVBAoME0phcGFuZXNlIEdvdmVybm1lbnQxHzAdBgNVBAsMFk5hdGlvbmFs
IFBvbGljZSBBZ2VuY3kxNzA1BgNVBAsMLlByZWZlY3R1cmFsIFB1YmxpYyBTYWZl
dHkgQ29tbWlzc2lvbnMgZm9yIElDREwxEzARBgNVBAMMCkNoaWJhIFBQU0MwggEi
MA0GCSqGSIb3DQEBAQUAA4IBDwAwggEKAoIBAQCTNxUrYO9HX91Fpkz5B+VIoQWN
Yti2eDENwkWIGtPldpq/8brqQYgEcPcH4j0RGEIb/NcBJB4ix2MfQzK8l9b+cOoL
5OCpE2o4Xd/EExXMc1m6MiktmxTJ1MpEHBrfSlzsM/6MsmUdkPFWG5Ymbh4YQI9j
vb/IiLImTPJZPvjim3D3PakYCy7oPR9/j94Q8g+lci6C5xKUpUWmXz1c1OyBIMq1
cnhXXBq2XJXp1/oXposVU99nUBVEC51NS17ZXuGYBKlZ1ekHBD5W1mJKxGgZ/SN1
ZMyyVbCoCqp/ShE0z2E+b0KgRQbsiuxaD2tYYRGZ2bJT6xgOc4sDwMqlK3jjAgMB
AAGjggLAMIICvDCBmAYDVR0jBIGQMIGNgBQRzY5gREdXT0/L6efLoUbfug5Qi6Fr
pGkwZzELMAkGA1UEBhMCSlAxHDAaBgNVBAoME0phcGFuZXNlIEdvdmVybm1lbnQx
HzAdBgNVBAsMFk5hdGlvbmFsIFBvbGljZSBBZ2VuY3kxGTAXBgNVBAsMEE5QQSBJ
Q0RMIFJvb3QgQ0GCCDIwMDAwMDE2MB0GA1UdDgQWBBR9U7yicmnfZ4KrcP01S75K
cFKlgTAOBgNVHQ8BAf8EBAMCBsAwQAYDVR0gAQH/BDYwNDAyBgsqgwiGjhgHBQEB
CjAjMCEGCCsGAQUFBwIBFhVodHRwOi8vd3d3Lm5wYS5nby5qcC8wgZUGA1UdEQSB
jTCBiqSBhzCBhDELMAkGA1UEBhMCSlAxGDAWBgNVBAoMD+aXpeacrOWbveaUv+W6
nDESMBAGA1UECwwJ6K2m5a+f5bqBMSQwIgYDVQQLDBvpg73pgZPlupznnIzlhazl
ronlp5Tlk6HkvJoxITAfBgNVBAMMGOWNg+iRieecjOWFrOWuieWnlOWToeS8mjB0
BgNVHRIEbTBrpGkwZzELMAkGA1UEBhMCSlAxGDAWBgNVBAoMD+aXpeacrOWbveaU
v+W6nDESMBAGA1UECwwJ6K2m5a+f5bqBMSowKAYDVQQLDCHorablr5/luoHpgYvo
u6LlhY3oqLHoqLzoqo3oqLzlsYAwgZ8GA1UdHwSBlzCBlDCBkaCBjqCBi6SBiDCB
hTELMAkGA1UEBhMCSlAxHDAaBgNVBAoME0phcGFuZXNlIEdvdmVybm1lbnQxHzAd
BgNVBAsMFk5hdGlvbmFsIFBvbGljZSBBZ2VuY3kxNzA1BgNVBAsMLlByZWZlY3R1
cmFsIFB1YmxpYyBTYWZldHkgQ29tbWlzc2lvbnMgZm9yIElDREwwDQYJKoZIhvcN
AQELBQADggEBAC7zwlNKSiWvLdsS20cFeThipyPnRUax/3RCrIGHhXUZa5HkKDBB
fdYbjl26fJW0jHZggPT7A8od9i8vP2Lrv9XIBVxcXuwuzCfBmnxUOw4ifJ90/lmM
z6Y9HnFUG5HMDy+hXOtsR8avdVb1Goi0qCNLa1BZw6HYULI+8AP61vCVIf4WR5vn
KZbVXr81fSv8MFpsUiY3qGPhv435dSknMWNlTpihfWrERWrbquVQr+80Hg/Z5HZj
xyTEny5anIbRGk3eMq8TcC7uc42PZDqMiXd6pNmRbLdZWDJRxWObymRYXRHrIN0j
TaSM++vSm0CeG9CilkhQmmWB688+UriqQrs=
-----END CERTIFICATE-----
