Certificate:
    Data:
        Version: 3 (0x2)
        Serial Number:
            32:30:30:30:30:30:37:32
        Signature Algorithm: sha256WithRSAEncryption
        Issuer: C=JP, O=Japanese Government, OU=National Police Agency, OU=NPA ICDL Root CA
        Validity
            Not Before: Feb  6 04:27:54 2023 GMT
            Not After : Feb  5 14:59:59 2028 GMT
        Subject: C=JP, O=Japanese Government, OU=National Police Agency, OU=Prefectural Public Safety Commissions for ICDL, CN=Ehime PPSC
        Subject Public Key Info:
            Public Key Algorithm: rsaEncryption
                Public-Key: (2048 bit)
                Modulus:
                    00:fb:d9:ed:cd:be:e9:f5:2f:85:ba:d3:9d:5d:b6:
                    f3:13:20:f8:cf:7f:4a:0f:95:b2:8c:9d:b6:4a:ce:
                    50:0c:45:0d:2e:3c:2b:11:d4:7f:c2:f9:19:f7:20:
                    cd:0e:c7:a6:29:57:c3:2f:0e:70:aa:b3:a6:79:bb:
                    cc:b4:41:96:2c:5c:70:37:08:39:de:7d:ec:19:ac:
                    5d:da:95:dd:b2:44:a8:11:98:49:88:4b:88:50:aa:
                    a0:1b:e1:ae:8e:ca:3f:76:58:03:8e:f2:1d:03:ec:
                    13:37:97:65:ba:a0:77:88:a7:df:b0:15:02:e4:30:
                    d7:23:01:3b:31:bd:02:6b:9d:ba:7d:b2:c3:7c:a6:
                    1f:77:0e:d5:9c:c2:06:f3:de:74:a2:e0:a7:6a:28:
                    36:a9:a1:bf:28:d4:03:c7:18:69:85:9c:67:aa:7c:
                    8a:f8:4e:32:8b:2a:42:8b:40:58:aa:ac:85:fe:5c:
                    37:78:b4:7c:10:be:fd:ee:bb:20:8b:cf:6d:2d:e7:
                    43:35:5a:cd:d8:4a:d3:b9:09:31:c3:92:e9:a7:ce:
                    79:b5:ef:34:27:91:bf:95:01:59:f6:c2:82:a0:07:
                    c8:5e:9a:ad:72:67:a7:8e:a9:e7:9c:d2:ec:cf:24:
                    a2:37:2b:0f:68:a2:0c:8e:1a:17:9c:9c:06:4a:8b:
                    0c:a9
                Exponent: 65537 (0x10001)
        X509v3 extensions:
            X509v3 Authority Key Identifier: 
                keyid:11:CD:8E:60:44:47:57:4F:4F:CB:E9:E7:CB:A1:46:DF:BA:0E:50:8B
                DirName:/C=JP/O=Japanese Government/OU=National Police Agency/OU=NPA ICDL Root CA
                serial:32:30:30:30:30:30:31:36
            X509v3 Subject Key Identifier: 
                2D:F0:D7:CE:34:61:FA:21:57:BA:8F:CD:47:37:AA:F8:08:7A:1B:4C
            X509v3 Key Usage: critical
                Digital Signature, Non Repudiation
            X509v3 Certificate Policies: critical
                Policy: 1.2.392.100120.7.5.1.1.10
                  CPS: http://www.npa.go.jp/
            X509v3 Subject Alternative Name: 
                DirName:/C=JP/O=\xE6\x97\xA5\xE6\x9C\xAC\xE5\x9B\xBD\xE6\x94\xBF\xE5\xBA\x9C/OU=\xE8\xAD\xA6\xE5\xAF\x9F\xE5\xBA\x81/OU=\xE9\x83\xBD\xE9\x81\x93\xE5\xBA\x9C\xE7\x9C\x8C\xE5\x85\xAC\xE5\xAE\x89\xE5\xA7\x94\xE5\x93\xA1\xE4\xBC\x9A
            X509v3 Issuer Alternative Name: 
                DirName:/C=JP/O=\xE6\x97\xA5\xE6\x9C\xAC\xE5\x9B\xBD\xE6\x94\xBF\xE5\xBA\x9C/OU=\xE8\xAD\xA6\xE5\xAF\x9F\xE5\xBA\x81/OU=\xE8\xAD\xA6\xE5\xAF\x9F\xE5\xBA\x81\xE9\x81\x8B\xE8\xBB\xA2\xE5\x85\x8D\xE8\xA8\xB1\xE8\xA8\xBC\xE8\xAA\x8D\xE8\xA8\xBC\xE5\xB1\x80
            X509v3 CRL Distribution Points: 
                Full Name:
                  DirName:C = JP, O = Japanese Government, OU = National Police Agency, OU = Prefectural Public Safety Commissions for ICDL
    Signature Algorithm: sha256WithRSAEncryption
    Signature Value:
        7a:ff:cb:f4:5d:93:ce:1c:8b:13:fe:63:01:dd:2f:d4:34:4c:
        8d:24:fc:fd:22:38:54:76:9c:c4:41:da:cf:9a:4a:fa:89:4f:
        4b:9f:51:c6:0e:be:0e:64:1d:f6:67:a6:f7:6c:5d:c4:29:5e:
        ae:b2:17:aa:e9:be:cb:f6:a9:88:8b:a5:56:38:c7:9b:57:e9:
        79:24:29:eb:e2:c5:bf:28:3e:a3:14:6b:ae:36:94:92:df:c0:
        32:dc:d6:6f:5e:52:4a:21:dc:5f:88:72:fd:99:57:1f:49:b1:
        ae:0a:57:c0:31:32:67:87:d3:37:76:b2:29:cf:bd:a1:ac:65:
        72:66:5a:20:34:fb:b0:13:c2:57:d9:28:c7:d4:16:75:b8:69:
        d5:65:88:bd:a6:b2:31:b6:54:40:7e:e9:55:5a:91:44:fe:9a:
        98:6a:18:46:1c:a6:3d:b9:4e:dc:32:a5:c1:ef:63:b3:ac:27:
        c4:0b:2b:7e:21:10:e0:29:5e:df:a0:d2:7f:bc:48:33:41:f4:
        bf:bf:cd:da:5b:9b:00:24:2b:67:f2:5e:11:46:ba:88:c5:11:
        de:25:7d:e4:6c:01:45:e1:10:52:17:d9:aa:de:91:e5:40:89:
        9f:3b:86:f6:58:96:14:c1:11:26:81:c8:b6:f2:7d:70:c8:94:
        26:97:fb:81
-----BEGIN CERTIFICATE-----
MIIGRjCCBS6gAwIBAgIIMjAwMDAwNzIwDQYJKoZIhvcNAQELBQAwZzELMAkGA1UE
BhMCSlAxHDAaBgNVBAoME0phcGFuZXNlIEdvdmVybm1lbnQxHzAdBgNVBAsMFk5h
dGlvbmFsIFBvbGljZSBBZ2VuY3kxGTAXBgNVBAsMEE5QQSBJQ0RMIFJvb3QgQ0Ew
HhcNMjMwMjA2MDQyNzU0WhcNMjgwMjA1MTQ1OTU5WjCBmjELMAkGA1UEBhMCSlAx
HDAaBgNVBAoME0phcGFuZXNlIEdvdmVybm1lbnQxHzAdBgNVBAsMFk5hdGlvbmFs
IFBvbGljZSBBZ2VuY3kxNzA1BgNVBAsMLlByZWZlY3R1cmFsIFB1YmxpYyBTYWZl
dHkgQ29tbWlzc2lvbnMgZm9yIElDREwxEzARBgNVBAMMCkVoaW1lIFBQU0MwggEi
MA0GCSqGSIb3DQEBAQUAA4IBDwAwggEKAoIBAQD72e3Nvun1L4W6051dtvMTIPjP
f0oPlbKMnbZKzlAMRQ0uPCsR1H/C+Rn3IM0Ox6YpV8MvDnCqs6Z5u8y0QZYsXHA3
CDnefewZrF3ald2yRKgRmEmIS4hQqqAb4a6Oyj92WAOO8h0D7BM3l2W6oHeIp9+w
FQLkMNcjATsxvQJrnbp9ssN8ph93DtWcwgbz3nSi4KdqKDapob8o1APHGGmFnGeq
fIr4TjKLKkKLQFiqrIX+XDd4tHwQvv3uuyCLz20t50M1Ws3YStO5CTHDkumnznm1
7zQnkb+VAVn2woKgB8hemq1yZ6eOqeec0uzPJKI3Kw9oogyOGhecnAZKiwypAgMB
AAGjggLAMIICvDCBmAYDVR0jBIGQMIGNgBQRzY5gREdXT0/L6efLoUbfug5Qi6Fr
pGkwZzELMAkGA1UEBhMCSlAxHDAaBgNVBAoME0phcGFuZXNlIEdvdmVybm1lbnQx
HzAdBgNVBAsMFk5hdGlvbmFsIFBvbGljZSBBZ2VuY3kxGTAXBgNVBAsMEE5QQSBJ
Q0RMIFJvb3QgQ0GCCDIwMDAwMDE2MB0GA1UdDgQWBBQt8NfONGH6IVe6j81HN6r4
CHobTDAOBgNVHQ8BAf8EBAMCBsAwQAYDVR0gAQH/BDYwNDAyBgsqgwiGjhgHBQEB
CjAjMCEGCCsGAQUFBwIBFhVodHRwOi8vd3d3Lm5wYS5nby5qcC8wgZUGA1UdEQSB
jTCBiqSBhzCBhDELMAkGA1UEBhMCSlAxGDAWBgNVBAoMD+aXpeacrOWbveaUv+W6
nDESMBAGA1UECwwJ6K2m5a+f5bqBMSQwIgYDVQQLDBvpg73pgZPlupznnIzlhazl
ronlp5Tlk6HkvJoxITAfBgNVBAMMGOaEm+Wqm+ecjOWFrOWuieWnlOWToeS8mjB0
BgNVHRIEbTBrpGkwZzELMAkGA1UEBhMCSlAxGDAWBgNVBAoMD+aXpeacrOWbveaU
v+W6nDESMBAGA1UECwwJ6K2m5a+f5bqBMSowKAYDVQQLDCHorablr5/luoHpgYvo
u6LlhY3oqLHoqLzoqo3oqLzlsYAwgZ8GA1UdHwSBlzCBlDCBkaCBjqCBi6SBiDCB
hTELMAkGA1UEBhMCSlAxHDAaBgNVBAoME0phcGFuZXNlIEdvdmVybm1lbnQxHzAd
BgNVBAsMFk5hdGlvbmFsIFBvbGljZSBBZ2VuY3kxNzA1BgNVBAsMLlByZWZlY3R1
cmFsIFB1YmxpYyBTYWZldHkgQ29tbWlzc2lvbnMgZm9yIElDREwwDQYJKoZIhvcN
AQELBQADggEBAHr/y/Rdk84cixP+YwHdL9Q0TI0k/P0iOFR2nMRB2s+aSvqJT0uf
UcYOvg5kHfZnpvdsXcQpXq6yF6rpvsv2qYiLpVY4x5tX6XkkKevixb8oPqMUa642
lJLfwDLc1m9eUkoh3F+Icv2ZVx9Jsa4KV8AxMmeH0zd2sinPvaGsZXJmWiA0+7AT
wlfZKMfUFnW4adVliL2msjG2VEB+6VVakUT+mphqGEYcpj25TtwypcHvY7OsJ8QL
K34hEOApXt+g0n+8SDNB9L+/zdpbmwAkK2fyXhFGuojFEd4lfeRsAUXhEFIX2are
keVAiZ87hvZYlhTBESaByLbyfXDIlCaX+4E=
-----END CERTIFICATE-----
