Certificate:
    Data:
        Version: 3 (0x2)
        Serial Number:
            33:30:30:30:30:30:36:38
        Signature Algorithm: sha256WithRSAEncryption
        Issuer: C=JP, O=Japanese Government, OU=National Police Agency, OU=NPA ICDL Root CA
        Validity
            Not Before: Nov  1 04:50:31 2023 GMT
            Not After : Oct 31 14:59:59 2028 GMT
        Subject: C=JP, O=Japanese Government, OU=National Police Agency, OU=Prefectural Public Safety Commissions for ICDL, CN=Ehime PPSC
        Subject Public Key Info:
            Public Key Algorithm: rsaEncryption
                Public-Key: (2048 bit)
                Modulus:
                    00:bf:b2:79:63:29:63:a9:fb:0d:93:e3:b9:b7:54:
                    d5:70:0c:59:f4:ab:13:70:65:1a:ba:e7:f9:8f:9c:
                    b1:0f:41:c1:ae:5f:bd:d6:7c:c8:00:df:ab:ea:33:
                    d6:98:1c:75:26:2a:18:7c:bf:88:a9:5f:21:65:72:
                    3d:d6:87:5b:dd:bf:a3:1c:d2:ba:16:d8:84:ef:93:
                    de:4b:3a:d3:b3:27:32:86:7c:e3:b5:13:2b:70:fc:
                    62:1c:d8:de:2b:c0:eb:bc:ff:aa:e2:9b:e0:2f:50:
                    bf:24:a3:67:19:19:f2:5d:8d:56:61:84:c8:70:51:
                    d3:b8:ef:7e:b0:c5:b8:18:d5:d1:8d:8c:b5:91:30:
                    39:34:4b:7c:9e:85:86:d0:2b:8e:1b:a3:4d:eb:3c:
                    0f:9b:d9:5b:c2:ab:e5:65:59:ec:62:85:b4:a7:55:
                    68:ab:43:40:6a:5d:b8:48:86:95:a7:a1:ce:4a:4c:
                    90:f0:bd:61:71:8c:67:74:38:6b:fa:64:66:84:43:
                    7d:5a:6a:a7:77:5b:ef:2f:42:af:39:b2:a9:a8:d4:
                    08:1c:bc:da:2a:15:f2:df:5c:a7:3e:29:45:64:84:
                    ba:33:da:cf:0a:0c:37:88:0b:97:1c:8a:d9:ff:a8:
                    7c:60:a6:97:ca:c4:a7:de:9a:38:f7:30:d6:4a:59:
                    34:01
                Exponent: 65537 (0x10001)
        X509v3 extensions:
            X509v3 Authority Key Identifier: 
                keyid:11:CD:8E:60:44:47:57:4F:4F:CB:E9:E7:CB:A1:46:DF:BA:0E:50:8B
                DirName:/C=JP/O=Japanese Government/OU=National Police Agency/OU=NPA ICDL Root CA
                serial:32:30:30:30:30:30:31:36
            X509v3 Subject Key Identifier: 
                5E:63:90:74:69:34:02:01:09:7B:73:0A:B5:04:93:EA:3B:D5:AA:46
            X509v3 Key Usage: critical
                Digital Signature, Non Repudiation
            X509v3 Certificate Policies: critical
                Policy: 1.2.392.100120.7.5.1.1.10
                  CPS: http://www.npa.go.jp/
            X509v3 Subject Alternative Name: 
                DirName:/C=JP/O=\xE6\x97\xA5\xE6\x9C\xAC\xE5\x9B\xBD\xE6\x94\xBF\xE5\xBA\x9C/OU=\xE8\xAD\xA6\xE5\xAF\x9F\xE5\xBA\x81/OU=\xE9\x83\xBD\xE9\x81\x93\xE5\xBA\x9C\xE7\x9C\x8C\xE5\x85\xAC\xE5\xAE\x89\xE5\xA7\x94\xE5\x93\xA1\xE4\xBC\x9A
            X509v3 Issuer Alternative Name: 
                DirName:/C=JP/O=\xE6\x97\xA5\xE6\x9C\xAC\xE5\x9B\xBD\xE6\x94\xBF\xE5\xBA\x9C/OU=\xE8\xAD\xA6\xE5\xAF\x9F\xE5\xBA\x81/OU=\xE8\xAD\xA6\xE5\xAF\x9F\xE5\xBA\x81\xE9\x81\x8B\xE8\xBB\xA2\xE5\x85\x8D\xE8\xA8\xB1\xE8\xA8\xBC\xE8\xAA\x8D\xE8\xA8\xBC\xE5\xB1\x80
            X509v3 CRL Distribution Points: 
                Full Name:
                  DirName:C = JP, O = Japanese Government, OU = National Police Agency, OU = Prefectural Public Safety Commissions for ICDL
    Signature Algorithm: sha256WithRSAEncryption
    Signature Value:
        96:5f:ee:d4:c1:04:25:d1:9e:14:8b:80:9a:d9:b5:4e:00:84:
        7c:ba:24:70:40:9e:a5:d6:9c:69:12:20:bd:cf:16:8b:33:a9:
        02:4f:94:0f:75:6e:96:c1:4b:17:27:4a:7f:8d:d6:50:fb:b5:
        76:05:cc:ed:93:2c:96:69:63:68:f4:e6:04:fe:c6:1b:14:1d:
        3c:a9:2b:e7:c5:05:8e:b0:f7:ba:de:38:40:c5:0f:88:ac:4b:
        21:49:a0:3e:aa:94:ed:e3:ae:6d:9c:3e:13:b1:ae:39:54:d0:
        59:d3:e1:42:80:47:a4:44:09:bb:7d:14:9c:4d:9a:45:40:e3:
        7a:51:1a:6c:f2:33:01:7b:6c:06:28:06:f3:f0:50:ac:8f:08:
        bb:14:6f:d9:16:be:f7:eb:0c:75:14:d9:e2:15:20:36:79:e7:
        75:15:c8:4a:d2:ba:b7:36:75:82:db:97:5f:e2:01:11:bb:db:
        ea:18:f0:32:47:a2:e7:74:06:03:07:08:e2:85:9b:47:fd:2f:
        e4:60:91:16:44:fc:fe:b9:29:41:99:cd:b4:7a:ca:1e:ef:6a:
        bf:8b:82:8d:06:0a:63:44:fb:b1:ad:b9:ca:8f:73:1a:00:54:
        de:36:e5:a3:5d:bf:d4:88:28:da:f1:8b:b5:4a:90:df:4c:48:
        0c:9a:61:93
-----BEGIN CERTIFICATE-----
MIIGRjCCBS6gAwIBAgIIMzAwMDAwNjgwDQYJKoZIhvcNAQELBQAwZzELMAkGA1UE
BhMCSlAxHDAaBgNVBAoME0phcGFuZXNlIEdvdmVybm1lbnQxHzAdBgNVBAsMFk5h
dGlvbmFsIFBvbGljZSBBZ2VuY3kxGTAXBgNVBAsMEE5QQSBJQ0RMIFJvb3QgQ0Ew
HhcNMjMxMTAxMDQ1MDMxWhcNMjgxMDMxMTQ1OTU5WjCBmjELMAkGA1UEBhMCSlAx
HDAaBgNVBAoME0phcGFuZXNlIEdvdmVybm1lbnQxHzAdBgNVBAsMFk5hdGlvbmFs
IFBvbGljZSBBZ2VuY3kxNzA1BgNVBAsMLlByZWZlY3R1cmFsIFB1YmxpYyBTYWZl
dHkgQ29tbWlzc2lvbnMgZm9yIElDREwxEzARBgNVBAMMCkVoaW1lIFBQU0MwggEi
MA0GCSqGSIb3DQEBAQUAA4IBDwAwggEKAoIBAQC/snljKWOp+w2T47m3VNVwDFn0
qxNwZRq65/mPnLEPQcGuX73WfMgA36vqM9aYHHUmKhh8v4ipXyFlcj3Wh1vdv6Mc
0roW2ITvk95LOtOzJzKGfOO1Eytw/GIc2N4rwOu8/6rim+AvUL8ko2cZGfJdjVZh
hMhwUdO4736wxbgY1dGNjLWRMDk0S3yehYbQK44bo03rPA+b2VvCq+VlWexihbSn
VWirQ0BqXbhIhpWnoc5KTJDwvWFxjGd0OGv6ZGaEQ31aaqd3W+8vQq85sqmo1Agc
vNoqFfLfXKc+KUVkhLoz2s8KDDeIC5ccitn/qHxgppfKxKfemjj3MNZKWTQBAgMB
AAGjggLAMIICvDCBmAYDVR0jBIGQMIGNgBQRzY5gREdXT0/L6efLoUbfug5Qi6Fr
pGkwZzELMAkGA1UEBhMCSlAxHDAaBgNVBAoME0phcGFuZXNlIEdvdmVybm1lbnQx
HzAdBgNVBAsMFk5hdGlvbmFsIFBvbGljZSBBZ2VuY3kxGTAXBgNVBAsMEE5QQSBJ
Q0RMIFJvb3QgQ0GCCDIwMDAwMDE2MB0GA1UdDgQWBBReY5B0aTQCAQl7cwq1BJPq
O9WqRjAOBgNVHQ8BAf8EBAMCBsAwQAYDVR0gAQH/BDYwNDAyBgsqgwiGjhgHBQEB
CjAjMCEGCCsGAQUFBwIBFhVodHRwOi8vd3d3Lm5wYS5nby5qcC8wgZUGA1UdEQSB
jTCBiqSBhzCBhDELMAkGA1UEBhMCSlAxGDAWBgNVBAoMD+aXpeacrOWbveaUv+W6
nDESMBAGA1UECwwJ6K2m5a+f5bqBMSQwIgYDVQQLDBvpg73pgZPlupznnIzlhazl
ronlp5Tlk6HkvJoxITAfBgNVBAMMGOaEm+Wqm+ecjOWFrOWuieWnlOWToeS8mjB0
BgNVHRIEbTBrpGkwZzELMAkGA1UEBhMCSlAxGDAWBgNVBAoMD+aXpeacrOWbveaU
v+W6nDESMBAGA1UECwwJ6K2m5a+f5bqBMSowKAYDVQQLDCHorablr5/luoHpgYvo
u6LlhY3oqLHoqLzoqo3oqLzlsYAwgZ8GA1UdHwSBlzCBlDCBkaCBjqCBi6SBiDCB
hTELMAkGA1UEBhMCSlAxHDAaBgNVBAoME0phcGFuZXNlIEdvdmVybm1lbnQxHzAd
BgNVBAsMFk5hdGlvbmFsIFBvbGljZSBBZ2VuY3kxNzA1BgNVBAsMLlByZWZlY3R1
cmFsIFB1YmxpYyBTYWZldHkgQ29tbWlzc2lvbnMgZm9yIElDREwwDQYJKoZIhvcN
AQELBQADggEBAJZf7tTBBCXRnhSLgJrZtU4AhHy6JHBAnqXWnGkSIL3PFoszqQJP
lA91bpbBSxcnSn+N1lD7tXYFzO2TLJZpY2j05gT+xhsUHTypK+fFBY6w97reOEDF
D4isSyFJoD6qlO3jrm2cPhOxrjlU0FnT4UKAR6RECbt9FJxNmkVA43pRGmzyMwF7
bAYoBvPwUKyPCLsUb9kWvvfrDHUU2eIVIDZ553UVyErSurc2dYLbl1/iARG72+oY
8DJHoud0BgMHCOKFm0f9L+RgkRZE/P65KUGZzbR6yh7var+Lgo0GCmNE+7GtucqP
cxoAVN425aNdv9SIKNrxi7VKkN9MSAyaYZM=
-----END CERTIFICATE-----
