Certificate:
    Data:
        Version: 3 (0x2)
        Serial Number:
            33:30:30:30:30:30:38:38
        Signature Algorithm: sha256WithRSAEncryption
        Issuer: C=JP, O=Japanese Government, OU=National Police Agency, OU=NPA ICDL Root CA
        Validity
            Not Before: Mar 18 05:29:17 2024 GMT
            Not After : Mar 17 14:59:59 2029 GMT
        Subject: C=JP, O=Japanese Government, OU=National Police Agency, OU=Prefectural Public Safety Commissions for ICDL, CN=Ehime AltPPSC
        Subject Public Key Info:
            Public Key Algorithm: rsaEncryption
                Public-Key: (2048 bit)
                Modulus:
                    00:fb:d9:ed:cd:be:e9:f5:2f:85:ba:d3:9d:5d:b6:
                    f3:13:20:f8:cf:7f:4a:0f:95:b2:8c:9d:b6:4a:ce:
                    50:0c:45:0d:2e:3c:2b:11:d4:7f:c2:f9:19:f7:20:
                    cd:0e:c7:a6:29:57:c3:2f:0e:70:aa:b3:a6:79:bb:
                    cc:b4:41:96:2c:5c:70:37:08:39:de:7d:ec:19:ac:
                    5d:da:95:dd:b2:44:a8:11:98:49:88:4b:88:50:aa:
                    a0:1b:e1:ae:8e:ca:3f:76:58:03:8e:f2:1d:03:ec:
                    13:37:97:65:ba:a0:77:88:a7:df:b0:15:02:e4:30:
                    d7:23:01:3b:31:bd:02:6b:9d:ba:7d:b2:c3:7c:a6:
                    1f:77:0e:d5:9c:c2:06:f3:de:74:a2:e0:a7:6a:28:
                    36:a9:a1:bf:28:d4:03:c7:18:69:85:9c:67:aa:7c:
                    8a:f8:4e:32:8b:2a:42:8b:40:58:aa:ac:85:fe:5c:
                    37:78:b4:7c:10:be:fd:ee:bb:20:8b:cf:6d:2d:e7:
                    43:35:5a:cd:d8:4a:d3:b9:09:31:c3:92:e9:a7:ce:
                    79:b5:ef:34:27:91:bf:95:01:59:f6:c2:82:a0:07:
                    c8:5e:9a:ad:72:67:a7:8e:a9:e7:9c:d2:ec:cf:24:
                    a2:37:2b:0f:68:a2:0c:8e:1a:17:9c:9c:06:4a:8b:
                    0c:a9
                Exponent: 65537 (0x10001)
        X509v3 extensions:
            X509v3 Authority Key Identifier: 
                keyid:11:CD:8E:60:44:47:57:4F:4F:CB:E9:E7:CB:A1:46:DF:BA:0E:50:8B
                DirName:/C=JP/O=Japanese Government/OU=National Police Agency/OU=NPA ICDL Root CA
                serial:32:30:30:30:30:30:31:36
            X509v3 Subject Key Identifier: 
                2D:F0:D7:CE:34:61:FA:21:57:BA:8F:CD:47:37:AA:F8:08:7A:1B:4C
            X509v3 Key Usage: critical
                Digital Signature, Non Repudiation
            X509v3 Certificate Policies: critical
                Policy: 1.2.392.100120.7.5.1.1.10
                  CPS: http://www.npa.go.jp/
            X509v3 Issuer Alternative Name: 
                DirName:/C=JP/O=\xE6\x97\xA5\xE6\x9C\xAC\xE5\x9B\xBD\xE6\x94\xBF\xE5\xBA\x9C/OU=\xE8\xAD\xA6\xE5\xAF\x9F\xE5\xBA\x81/OU=\xE8\xAD\xA6\xE5\xAF\x9F\xE5\xBA\x81\xE9\x81\x8B\xE8\xBB\xA2\xE5\x85\x8D\xE8\xA8\xB1\xE8\xA8\xBC\xE8\xAA\x8D\xE8\xA8\xBC\xE5\xB1\x80
            X509v3 CRL Distribution Points: 
                Full Name:
                  DirName:C = JP, O = Japanese Government, OU = National Police Agency, OU = Prefectural Public Safety Commissions for ICDL
    Signature Algorithm: sha256WithRSAEncryption
    Signature Value:
        41:33:a1:07:48:f0:bb:7e:3e:e6:51:23:f6:bd:39:d5:2c:a5:
        86:7a:4b:2f:b0:4a:d8:db:20:d4:97:2d:30:27:4f:c0:42:c5:
        a7:48:58:4c:cb:22:03:f7:75:0f:2c:ac:b8:09:ba:58:f1:68:
        cf:21:03:30:47:58:02:91:12:ef:7a:40:67:be:9d:57:ba:f3:
        cb:8b:09:67:8f:2d:b5:54:c1:2a:c3:58:80:e9:09:aa:bf:31:
        19:71:bf:61:27:0a:fc:8c:3f:5a:d9:82:27:25:c2:0e:31:fe:
        b1:80:0d:98:08:a4:a8:ac:f5:33:dd:e9:0f:18:18:6f:c7:3e:
        40:ae:24:ae:62:f5:bf:7e:db:6a:d7:95:63:a8:62:e3:8a:3c:
        01:73:63:18:38:57:25:88:3e:c7:6c:12:a8:da:ba:18:59:4d:
        0d:fa:f7:1b:24:d8:6a:34:d5:00:02:0e:37:1a:d2:74:74:3b:
        ff:f7:3c:98:49:85:26:30:e9:be:d7:7a:4c:b1:28:44:06:4e:
        31:7f:d9:d4:47:53:6d:3a:1c:f0:b6:5b:75:84:d3:8f:81:8d:
        fb:9c:38:e7:7c:6b:3a:0e:9a:0b:b1:e0:da:b3:58:3b:d3:ab:
        58:2f:a9:e3:d7:73:0e:41:86:5c:26:cb:7e:f3:eb:57:28:e3:
        b4:65:09:a4
-----BEGIN CERTIFICATE-----
MIIFsTCCBJmgAwIBAgIIMzAwMDAwODgwDQYJKoZIhvcNAQELBQAwZzELMAkGA1UE
BhMCSlAxHDAaBgNVBAoME0phcGFuZXNlIEdvdmVybm1lbnQxHzAdBgNVBAsMFk5h
dGlvbmFsIFBvbGljZSBBZ2VuY3kxGTAXBgNVBAsMEE5QQSBJQ0RMIFJvb3QgQ0Ew
HhcNMjQwMzE4MDUyOTE3WhcNMjkwMzE3MTQ1OTU5WjCBnTELMAkGA1UEBhMCSlAx
HDAaBgNVBAoME0phcGFuZXNlIEdvdmVybm1lbnQxHzAdBgNVBAsMFk5hdGlvbmFs
IFBvbGljZSBBZ2VuY3kxNzA1BgNVBAsMLlByZWZlY3R1cmFsIFB1YmxpYyBTYWZl
dHkgQ29tbWlzc2lvbnMgZm9yIElDREwxFjAUBgNVBAMMDUVoaW1lIEFsdFBQU0Mw
ggEiMA0GCSqGSIb3DQEBAQUAA4IBDwAwggEKAoIBAQD72e3Nvun1L4W6051dtvMT
IPjPf0oPlbKMnbZKzlAMRQ0uPCsR1H/C+Rn3IM0Ox6YpV8MvDnCqs6Z5u8y0QZYs
XHA3CDnefewZrF3ald2yRKgRmEmIS4hQqqAb4a6Oyj92WAOO8h0D7BM3l2W6oHeI
p9+wFQLkMNcjATsxvQJrnbp9ssN8ph93DtWcwgbz3nSi4KdqKDapob8o1APHGGmF
nGeqfIr4TjKLKkKLQFiqrIX+XDd4tHwQvv3uuyCLz20t50M1Ws3YStO5CTHDkumn
znm17zQnkb+VAVn2woKgB8hemq1yZ6eOqeec0uzPJKI3Kw9oogyOGhecnAZKiwyp
AgMBAAGjggIoMIICJDCBmAYDVR0jBIGQMIGNgBQRzY5gREdXT0/L6efLoUbfug5Q
i6FrpGkwZzELMAkGA1UEBhMCSlAxHDAaBgNVBAoME0phcGFuZXNlIEdvdmVybm1l
bnQxHzAdBgNVBAsMFk5hdGlvbmFsIFBvbGljZSBBZ2VuY3kxGTAXBgNVBAsMEE5Q
QSBJQ0RMIFJvb3QgQ0GCCDIwMDAwMDE2MB0GA1UdDgQWBBQt8NfONGH6IVe6j81H
N6r4CHobTDAOBgNVHQ8BAf8EBAMCBsAwQAYDVR0gAQH/BDYwNDAyBgsqgwiGjhgH
BQEBCjAjMCEGCCsGAQUFBwIBFhVodHRwOi8vd3d3Lm5wYS5nby5qcC8wdAYDVR0S
BG0wa6RpMGcxCzAJBgNVBAYTAkpQMRgwFgYDVQQKDA/ml6XmnKzlm73mlL/lupwx
EjAQBgNVBAsMCeitpuWvn+W6gTEqMCgGA1UECwwh6K2m5a+f5bqB6YGL6Lui5YWN
6Kix6Ki86KqN6Ki85bGAMIGfBgNVHR8EgZcwgZQwgZGggY6ggYukgYgwgYUxCzAJ
BgNVBAYTAkpQMRwwGgYDVQQKDBNKYXBhbmVzZSBHb3Zlcm5tZW50MR8wHQYDVQQL
DBZOYXRpb25hbCBQb2xpY2UgQWdlbmN5MTcwNQYDVQQLDC5QcmVmZWN0dXJhbCBQ
dWJsaWMgU2FmZXR5IENvbW1pc3Npb25zIGZvciBJQ0RMMA0GCSqGSIb3DQEBCwUA
A4IBAQBBM6EHSPC7fj7mUSP2vTnVLKWGeksvsErY2yDUly0wJ0/AQsWnSFhMyyID
93UPLKy4CbpY8WjPIQMwR1gCkRLvekBnvp1XuvPLiwlnjy21VMEqw1iA6QmqvzEZ
cb9hJwr8jD9a2YInJcIOMf6xgA2YCKSorPUz3ekPGBhvxz5AriSuYvW/fttq15Vj
qGLjijwBc2MYOFcliD7HbBKo2roYWU0N+vcbJNhqNNUAAg43GtJ0dDv/9zyYSYUm
MOm+13pMsShEBk4xf9nUR1NtOhzwtlt1hNOPgY37nDjnfGs6DpoLseDas1g706tY
L6nj13MOQYZcJst+8+tXKOO0ZQmk
-----END CERTIFICATE-----
