Certificate:
    Data:
        Version: 3 (0x2)
        Serial Number:
            33:30:30:30:30:30:34:37:92:ea:c5:1e:53:1b:f6:cf:d3:eb
        Signature Algorithm: sha256WithRSAEncryption
        Issuer: C=JP, O=Japanese Government, OU=National Police Agency, OU=NPA ICDL Root CA
        Validity
            Not Before: Jun 19 06:14:14 2023 GMT
            Not After : Jun 18 14:59:59 2028 GMT
        Subject: C=JP, O=Japanese Government, OU=National Police Agency, OU=Prefectural Public Safety Commissions for ICDL, CN=Ehime AltPPSC
        Subject Public Key Info:
            Public Key Algorithm: rsaEncryption
                Public-Key: (2048 bit)
                Modulus:
                    00:89:0d:44:f9:7a:24:9b:f9:f8:3f:f6:af:84:26:
                    71:46:c9:0e:85:30:2f:c1:23:ca:db:c8:98:44:5e:
                    05:50:1f:64:72:78:35:e3:dc:48:94:e9:a3:d3:0c:
                    60:06:91:2c:de:ad:6d:eb:a7:d0:89:df:c3:0e:45:
                    1a:4b:a6:94:ed:8a:65:dd:37:3a:5d:3d:3c:d6:48:
                    8a:ad:6b:aa:2e:8b:4a:64:af:b5:a9:d0:3d:88:04:
                    91:8a:f2:39:4a:86:e7:2c:ca:ee:64:fe:3d:56:22:
                    be:5b:4b:2f:94:09:e8:da:1e:52:65:ca:01:69:51:
                    c5:2b:96:cf:b9:23:58:89:46:f3:80:cf:df:af:72:
                    65:16:4c:a1:59:fe:cd:9e:52:f5:b3:00:84:b1:7e:
                    78:c9:09:da:d1:64:81:74:67:a6:1f:ee:41:b0:00:
                    66:43:44:d9:f9:b7:2f:34:4d:9b:e5:1b:db:46:0e:
                    54:74:97:f1:d4:e7:71:b4:d7:79:1c:04:8e:83:8f:
                    b4:67:ed:61:28:54:5d:de:45:72:39:a9:ce:2f:4c:
                    ec:ff:45:59:5f:18:11:b3:e5:cd:ab:e6:35:28:cb:
                    69:ee:b8:a6:be:1a:83:ed:2b:78:29:49:1d:6b:1e:
                    f1:a9:6d:f5:c3:9a:57:7c:43:b4:2e:66:ef:14:1d:
                    65:1f
                Exponent: 65537 (0x10001)
        X509v3 extensions:
            X509v3 Authority Key Identifier: 
                keyid:11:CD:8E:60:44:47:57:4F:4F:CB:E9:E7:CB:A1:46:DF:BA:0E:50:8B
                DirName:/C=JP/O=Japanese Government/OU=National Police Agency/OU=NPA ICDL Root CA
                serial:32:30:30:30:30:30:31:36
            X509v3 Subject Key Identifier: 
                84:A8:03:33:A5:5F:FD:4E:D8:0A:0D:59:E2:08:EE:AE:73:3E:EB:F5
            X509v3 Key Usage: critical
                Digital Signature, Non Repudiation
            X509v3 Certificate Policies: critical
                Policy: 1.2.392.100120.7.5.1.1.10
                  CPS: http://www.npa.go.jp/
            X509v3 Issuer Alternative Name: 
                DirName:/C=JP/O=\xE6\x97\xA5\xE6\x9C\xAC\xE5\x9B\xBD\xE6\x94\xBF\xE5\xBA\x9C/OU=\xE8\xAD\xA6\xE5\xAF\x9F\xE5\xBA\x81/OU=\xE8\xAD\xA6\xE5\xAF\x9F\xE5\xBA\x81\xE9\x81\x8B\xE8\xBB\xA2\xE5\x85\x8D\xE8\xA8\xB1\xE8\xA8\xBC\xE8\xAA\x8D\xE8\xA8\xBC\xE5\xB1\x80
            X509v3 CRL Distribution Points: 
                Full Name:
                  DirName:C = JP, O = Japanese Government, OU = National Police Agency, OU = Prefectural Public Safety Commissions for ICDL
    Signature Algorithm: sha256WithRSAEncryption
    Signature Value:
        5b:e1:85:98:ca:56:8d:03:8b:6c:71:03:29:19:ef:4a:e2:6b:
        c2:1c:15:89:2f:70:5d:66:57:4f:38:fc:f7:03:ca:77:f6:56:
        4a:84:e2:54:99:1a:2b:71:f8:9c:2e:d1:26:2f:51:a1:78:51:
        af:6e:30:40:c9:cd:74:d4:36:42:d7:f8:a2:d4:66:06:d6:70:
        c7:5e:5c:bf:1a:b1:4a:1e:f3:54:c5:5d:32:1d:66:c7:f1:bc:
        43:52:ca:e8:3b:ba:de:f2:6a:d9:de:9d:2e:db:12:cb:87:24:
        f3:ba:16:53:9c:16:01:d7:c2:dc:01:b4:c8:69:a5:8c:9e:a1:
        6d:47:11:42:dc:83:32:9f:da:3d:ab:57:9c:6d:d0:5b:6e:00:
        ee:1a:66:89:8d:85:61:06:e6:26:ad:02:74:c6:53:47:02:70:
        5b:6e:76:ad:fb:00:d6:d7:8f:97:79:8a:3a:ff:13:f0:2b:f6:
        86:74:1b:c0:bc:88:3f:d3:4f:6a:7b:57:90:30:25:60:00:52:
        ca:84:8f:17:18:14:2c:bc:83:0e:31:81:d6:ed:f4:ea:80:b5:
        08:6b:85:59:bb:0c:3d:59:ae:06:7c:48:fe:6f:19:6d:59:42:
        c1:b6:ea:bc:03:0b:36:3e:57:c9:e2:ca:b4:20:f9:d8:95:d8:
        53:4d:0b:50
-----BEGIN CERTIFICATE-----
MIIFuzCCBKOgAwIBAgISMzAwMDAwNDeS6sUeUxv2z9PrMA0GCSqGSIb3DQEBCwUA
MGcxCzAJBgNVBAYTAkpQMRwwGgYDVQQKDBNKYXBhbmVzZSBHb3Zlcm5tZW50MR8w
HQYDVQQLDBZOYXRpb25hbCBQb2xpY2UgQWdlbmN5MRkwFwYDVQQLDBBOUEEgSUNE
TCBSb290IENBMB4XDTIzMDYxOTA2MTQxNFoXDTI4MDYxODE0NTk1OVowgZ0xCzAJ
BgNVBAYTAkpQMRwwGgYDVQQKDBNKYXBhbmVzZSBHb3Zlcm5tZW50MR8wHQYDVQQL
DBZOYXRpb25hbCBQb2xpY2UgQWdlbmN5MTcwNQYDVQQLDC5QcmVmZWN0dXJhbCBQ
dWJsaWMgU2FmZXR5IENvbW1pc3Npb25zIGZvciBJQ0RMMRYwFAYDVQQDDA1FaGlt
ZSBBbHRQUFNDMIIBIjANBgkqhkiG9w0BAQEFAAOCAQ8AMIIBCgKCAQEAiQ1E+Xok
m/n4P/avhCZxRskOhTAvwSPK28iYRF4FUB9kcng149xIlOmj0wxgBpEs3q1t66fQ
id/DDkUaS6aU7Ypl3Tc6XT081kiKrWuqLotKZK+1qdA9iASRivI5SobnLMruZP49
ViK+W0svlAno2h5SZcoBaVHFK5bPuSNYiUbzgM/fr3JlFkyhWf7NnlL1swCEsX54
yQna0WSBdGemH+5BsABmQ0TZ+bcvNE2b5RvbRg5UdJfx1OdxtNd5HASOg4+0Z+1h
KFRd3kVyOanOL0zs/0VZXxgRs+XNq+Y1KMtp7rimvhqD7St4KUkdax7xqW31w5pX
fEO0LmbvFB1lHwIDAQABo4ICKDCCAiQwgZgGA1UdIwSBkDCBjYAUEc2OYERHV09P
y+nny6FG37oOUIuha6RpMGcxCzAJBgNVBAYTAkpQMRwwGgYDVQQKDBNKYXBhbmVz
ZSBHb3Zlcm5tZW50MR8wHQYDVQQLDBZOYXRpb25hbCBQb2xpY2UgQWdlbmN5MRkw
FwYDVQQLDBBOUEEgSUNETCBSb290IENBgggyMDAwMDAxNjAdBgNVHQ4EFgQUhKgD
M6Vf/U7YCg1Z4gjurnM+6/UwDgYDVR0PAQH/BAQDAgbAMEAGA1UdIAEB/wQ2MDQw
MgYLKoMIho4YBwUBAQowIzAhBggrBgEFBQcCARYVaHR0cDovL3d3dy5ucGEuZ28u
anAvMHQGA1UdEgRtMGukaTBnMQswCQYDVQQGEwJKUDEYMBYGA1UECgwP5pel5pys
5Zu95pS/5bqcMRIwEAYDVQQLDAnorablr5/luoExKjAoBgNVBAsMIeitpuWvn+W6
gemBi+i7ouWFjeioseiovOiqjeiovOWxgDCBnwYDVR0fBIGXMIGUMIGRoIGOoIGL
pIGIMIGFMQswCQYDVQQGEwJKUDEcMBoGA1UECgwTSmFwYW5lc2UgR292ZXJubWVu
dDEfMB0GA1UECwwWTmF0aW9uYWwgUG9saWNlIEFnZW5jeTE3MDUGA1UECwwuUHJl
ZmVjdHVyYWwgUHVibGljIFNhZmV0eSBDb21taXNzaW9ucyBmb3IgSUNETDANBgkq
hkiG9w0BAQsFAAOCAQEAW+GFmMpWjQOLbHEDKRnvSuJrwhwViS9wXWZXTzj89wPK
d/ZWSoTiVJkaK3H4nC7RJi9RoXhRr24wQMnNdNQ2Qtf4otRmBtZwx15cvxqxSh7z
VMVdMh1mx/G8Q1LK6Du63vJq2d6dLtsSy4ck87oWU5wWAdfC3AG0yGmljJ6hbUcR
QtyDMp/aPatXnG3QW24A7hpmiY2FYQbmJq0CdMZTRwJwW252rfsA1tePl3mKOv8T
8Cv2hnQbwLyIP9NPantXkDAlYABSyoSPFxgULLyDDjGB1u306oC1CGuFWbsMPVmu
BnxI/m8ZbVlCwbbqvAMLNj5XyeLKtCD52JXYU00LUA==
-----END CERTIFICATE-----
