Certificate:
    Data:
        Version: 3 (0x2)
        Serial Number:
            33:30:30:30:30:30:34:39:51:11:ae:b3:a3:a9:78:b6:ae:9f
        Signature Algorithm: sha256WithRSAEncryption
        Issuer: C=JP, O=Japanese Government, OU=National Police Agency, OU=NPA ICDL Root CA
        Validity
            Not Before: Jun 19 06:16:31 2023 GMT
            Not After : Jun 18 14:59:59 2028 GMT
        Subject: C=JP, O=Japanese Government, OU=National Police Agency, OU=Prefectural Public Safety Commissions for ICDL, CN=Fukuoka AltPPSC
        Subject Public Key Info:
            Public Key Algorithm: rsaEncryption
                Public-Key: (2048 bit)
                Modulus:
                    00:85:eb:2e:95:ba:34:54:3a:d6:30:9a:6b:1d:ca:
                    6a:16:75:5c:8a:92:65:59:db:0b:d3:4d:ca:69:b6:
                    65:dc:46:55:68:94:f9:15:2d:d2:a7:b0:ef:cc:30:
                    65:dd:06:6d:53:27:2c:13:de:fd:21:c6:cf:b5:6b:
                    fb:25:c2:9d:27:c6:40:89:72:4b:db:de:64:17:e4:
                    b2:e7:4e:5b:46:d1:98:80:2c:02:6c:a4:53:1b:36:
                    d0:fe:f9:15:f5:3b:6f:b0:f9:1e:df:68:48:f5:09:
                    3d:df:e5:6e:8d:4b:76:1c:37:fe:ae:58:82:69:c1:
                    b3:a0:52:0d:9c:3e:a3:18:6f:77:07:78:fc:25:4e:
                    f0:4f:0f:bc:eb:47:e0:42:a2:6b:0e:10:d1:de:88:
                    69:e7:e0:c7:22:bb:b7:29:cb:fe:18:2b:ce:e8:47:
                    84:f5:c4:3b:f0:fb:58:fd:60:6e:ed:48:93:36:05:
                    75:ca:ce:ef:40:27:4f:4d:0f:4a:bc:d1:3a:ec:2d:
                    87:4e:c3:2f:c9:f4:1a:76:68:31:47:28:64:b8:bf:
                    ee:ef:d4:b5:c5:09:13:fb:b4:e2:1d:a8:ee:75:7c:
                    5b:3d:d0:94:f8:a6:41:70:40:43:ba:f9:bc:36:33:
                    ec:71:1a:d8:ed:4f:e9:15:4d:a3:66:10:37:f2:49:
                    90:13
                Exponent: 65537 (0x10001)
        X509v3 extensions:
            X509v3 Authority Key Identifier: 
                keyid:11:CD:8E:60:44:47:57:4F:4F:CB:E9:E7:CB:A1:46:DF:BA:0E:50:8B
                DirName:/C=JP/O=Japanese Government/OU=National Police Agency/OU=NPA ICDL Root CA
                serial:32:30:30:30:30:30:31:36
            X509v3 Subject Key Identifier: 
                16:C8:05:1F:08:62:25:A7:92:F4:39:08:B6:E2:92:D6:45:3A:BF:E0
            X509v3 Key Usage: critical
                Digital Signature, Non Repudiation
            X509v3 Certificate Policies: critical
                Policy: 1.2.392.100120.7.5.1.1.10
                  CPS: http://www.npa.go.jp/
            X509v3 Issuer Alternative Name: 
                DirName:/C=JP/O=\xE6\x97\xA5\xE6\x9C\xAC\xE5\x9B\xBD\xE6\x94\xBF\xE5\xBA\x9C/OU=\xE8\xAD\xA6\xE5\xAF\x9F\xE5\xBA\x81/OU=\xE8\xAD\xA6\xE5\xAF\x9F\xE5\xBA\x81\xE9\x81\x8B\xE8\xBB\xA2\xE5\x85\x8D\xE8\xA8\xB1\xE8\xA8\xBC\xE8\xAA\x8D\xE8\xA8\xBC\xE5\xB1\x80
            X509v3 CRL Distribution Points: 
                Full Name:
                  DirName:C = JP, O = Japanese Government, OU = National Police Agency, OU = Prefectural Public Safety Commissions for ICDL
    Signature Algorithm: sha256WithRSAEncryption
    Signature Value:
        07:9e:7a:19:08:ad:53:4c:7e:62:c4:0c:a2:e6:35:bb:7e:91:
        2f:f8:55:bf:0f:1b:42:01:29:94:c8:8e:d3:0a:30:03:a8:9d:
        5b:5a:c8:eb:a1:a6:97:a8:6b:2f:d2:82:c9:b1:db:01:79:0c:
        9f:d2:51:74:08:0b:5d:3a:2f:7b:5f:bb:c0:ed:cc:9a:03:a5:
        34:37:95:d9:86:38:bf:a3:34:23:5b:f1:3e:9c:69:a6:0d:5b:
        62:e4:99:e1:3f:91:ca:9f:82:48:7a:b9:33:88:9d:2e:30:f3:
        b4:3d:4e:28:25:9d:59:15:9b:1a:51:f1:ab:39:70:26:02:ff:
        66:22:e8:7f:9f:09:aa:eb:19:7e:47:ee:59:62:6f:34:11:a8:
        17:3e:69:ae:6e:1c:5c:2c:01:1a:f6:11:f7:d0:87:00:2f:03:
        c9:fa:c5:d1:8a:34:be:dd:e5:6b:4d:4c:b3:14:1c:c2:66:5f:
        f6:2a:c4:2f:e4:ed:e4:89:dd:bd:8a:c9:f4:0b:32:c7:92:68:
        ca:49:50:ee:17:8a:f3:64:74:1e:cb:08:0b:bf:06:6e:e9:20:
        78:5a:27:0d:8d:47:d2:5a:56:eb:72:bd:3a:b5:01:7a:2c:da:
        05:99:3e:e4:e9:e4:ba:0a:b4:2a:5b:fd:d5:46:36:b7:64:8a:
        0d:da:9d:8f
-----BEGIN CERTIFICATE-----
MIIFvTCCBKWgAwIBAgISMzAwMDAwNDlREa6zo6l4tq6fMA0GCSqGSIb3DQEBCwUA
MGcxCzAJBgNVBAYTAkpQMRwwGgYDVQQKDBNKYXBhbmVzZSBHb3Zlcm5tZW50MR8w
HQYDVQQLDBZOYXRpb25hbCBQb2xpY2UgQWdlbmN5MRkwFwYDVQQLDBBOUEEgSUNE
TCBSb290IENBMB4XDTIzMDYxOTA2MTYzMVoXDTI4MDYxODE0NTk1OVowgZ8xCzAJ
BgNVBAYTAkpQMRwwGgYDVQQKDBNKYXBhbmVzZSBHb3Zlcm5tZW50MR8wHQYDVQQL
DBZOYXRpb25hbCBQb2xpY2UgQWdlbmN5MTcwNQYDVQQLDC5QcmVmZWN0dXJhbCBQ
dWJsaWMgU2FmZXR5IENvbW1pc3Npb25zIGZvciBJQ0RMMRgwFgYDVQQDDA9GdWt1
b2thIEFsdFBQU0MwggEiMA0GCSqGSIb3DQEBAQUAA4IBDwAwggEKAoIBAQCF6y6V
ujRUOtYwmmsdymoWdVyKkmVZ2wvTTcpptmXcRlVolPkVLdKnsO/MMGXdBm1TJywT
3v0hxs+1a/slwp0nxkCJckvb3mQX5LLnTltG0ZiALAJspFMbNtD++RX1O2+w+R7f
aEj1CT3f5W6NS3YcN/6uWIJpwbOgUg2cPqMYb3cHePwlTvBPD7zrR+BComsOENHe
iGnn4Mciu7cpy/4YK87oR4T1xDvw+1j9YG7tSJM2BXXKzu9AJ09ND0q80TrsLYdO
wy/J9Bp2aDFHKGS4v+7v1LXFCRP7tOIdqO51fFs90JT4pkFwQEO6+bw2M+xxGtjt
T+kVTaNmEDfySZATAgMBAAGjggIoMIICJDCBmAYDVR0jBIGQMIGNgBQRzY5gREdX
T0/L6efLoUbfug5Qi6FrpGkwZzELMAkGA1UEBhMCSlAxHDAaBgNVBAoME0phcGFu
ZXNlIEdvdmVybm1lbnQxHzAdBgNVBAsMFk5hdGlvbmFsIFBvbGljZSBBZ2VuY3kx
GTAXBgNVBAsMEE5QQSBJQ0RMIFJvb3QgQ0GCCDIwMDAwMDE2MB0GA1UdDgQWBBQW
yAUfCGIlp5L0OQi24pLWRTq/4DAOBgNVHQ8BAf8EBAMCBsAwQAYDVR0gAQH/BDYw
NDAyBgsqgwiGjhgHBQEBCjAjMCEGCCsGAQUFBwIBFhVodHRwOi8vd3d3Lm5wYS5n
by5qcC8wdAYDVR0SBG0wa6RpMGcxCzAJBgNVBAYTAkpQMRgwFgYDVQQKDA/ml6Xm
nKzlm73mlL/lupwxEjAQBgNVBAsMCeitpuWvn+W6gTEqMCgGA1UECwwh6K2m5a+f
5bqB6YGL6Lui5YWN6Kix6Ki86KqN6Ki85bGAMIGfBgNVHR8EgZcwgZQwgZGggY6g
gYukgYgwgYUxCzAJBgNVBAYTAkpQMRwwGgYDVQQKDBNKYXBhbmVzZSBHb3Zlcm5t
ZW50MR8wHQYDVQQLDBZOYXRpb25hbCBQb2xpY2UgQWdlbmN5MTcwNQYDVQQLDC5Q
cmVmZWN0dXJhbCBQdWJsaWMgU2FmZXR5IENvbW1pc3Npb25zIGZvciBJQ0RMMA0G
CSqGSIb3DQEBCwUAA4IBAQAHnnoZCK1TTH5ixAyi5jW7fpEv+FW/DxtCASmUyI7T
CjADqJ1bWsjroaaXqGsv0oLJsdsBeQyf0lF0CAtdOi97X7vA7cyaA6U0N5XZhji/
ozQjW/E+nGmmDVti5JnhP5HKn4JIerkziJ0uMPO0PU4oJZ1ZFZsaUfGrOXAmAv9m
Iuh/nwmq6xl+R+5ZYm80EagXPmmubhxcLAEa9hH30IcALwPJ+sXRijS+3eVrTUyz
FBzCZl/2KsQv5O3kid29isn0CzLHkmjKSVDuF4rzZHQeywgLvwZu6SB4WicNjUfS
Wlbrcr06tQF6LNoFmT7k6eS6CrQqW/3VRja3ZIoN2p2P
-----END CERTIFICATE-----
