Certificate:
    Data:
        Version: 3 (0x2)
        Serial Number:
            33:30:30:30:30:30:33:30:05:c5:46:78:e2:63:ac:93:9f:35
        Signature Algorithm: sha256WithRSAEncryption
        Issuer: C=JP, O=Japanese Government, OU=National Police Agency, OU=NPA ICDL Root CA
        Validity
            Not Before: Jun 19 05:52:39 2023 GMT
            Not After : Jun 18 14:59:59 2028 GMT
        Subject: C=JP, O=Japanese Government, OU=National Police Agency, OU=Prefectural Public Safety Commissions for ICDL, CN=Fukui AltPPSC
        Subject Public Key Info:
            Public Key Algorithm: rsaEncryption
                Public-Key: (2048 bit)
                Modulus:
                    00:8c:62:4d:d1:57:cc:b0:26:c0:20:77:05:39:66:
                    11:9a:f2:67:fb:08:0d:b2:be:67:9f:bb:01:da:dd:
                    39:ed:16:de:36:03:e1:84:d4:89:91:12:4e:90:ed:
                    eb:78:c2:89:fe:2d:0e:58:54:cf:24:f1:23:ad:18:
                    7b:3f:cf:c7:95:c2:18:a8:bc:9a:89:37:1e:2e:e6:
                    2d:6d:18:f1:9a:68:8b:09:44:20:e3:b9:15:9d:c0:
                    b8:08:cb:d1:f3:49:be:9c:98:d2:55:ba:f8:67:dc:
                    9f:b8:b7:88:33:c5:e2:61:c9:e5:7e:cd:14:1f:b0:
                    85:02:8e:ca:c4:22:db:45:7a:7f:9d:ca:f0:cc:93:
                    75:11:32:48:09:73:cd:9a:6e:e5:22:6d:a0:1f:84:
                    5e:d0:0e:9c:ca:12:d7:04:9b:68:cf:61:5f:b8:04:
                    12:12:4d:80:5e:6b:97:ba:e9:5b:5c:f3:81:d0:ee:
                    ad:88:52:ad:6f:73:01:19:dc:05:fe:6f:bc:63:bd:
                    b7:c7:96:43:6f:3e:af:ed:df:44:10:da:c0:3d:9c:
                    d6:ae:a9:2f:cd:ad:a9:1f:33:a9:1b:8e:51:ae:89:
                    03:1d:f7:e6:ea:b8:b3:33:ba:86:18:24:e3:2d:53:
                    ce:8c:62:2a:8f:45:e7:a5:bb:4b:81:5e:d3:3a:4b:
                    1d:b7
                Exponent: 65537 (0x10001)
        X509v3 extensions:
            X509v3 Authority Key Identifier: 
                keyid:11:CD:8E:60:44:47:57:4F:4F:CB:E9:E7:CB:A1:46:DF:BA:0E:50:8B
                DirName:/C=JP/O=Japanese Government/OU=National Police Agency/OU=NPA ICDL Root CA
                serial:32:30:30:30:30:30:31:36
            X509v3 Subject Key Identifier: 
                CB:E2:66:68:BB:54:C2:88:D5:38:00:3D:A1:A3:79:9B:5F:F3:7C:C7
            X509v3 Key Usage: critical
                Digital Signature, Non Repudiation
            X509v3 Certificate Policies: critical
                Policy: 1.2.392.100120.7.5.1.1.10
                  CPS: http://www.npa.go.jp/
            X509v3 Issuer Alternative Name: 
                DirName:/C=JP/O=\xE6\x97\xA5\xE6\x9C\xAC\xE5\x9B\xBD\xE6\x94\xBF\xE5\xBA\x9C/OU=\xE8\xAD\xA6\xE5\xAF\x9F\xE5\xBA\x81/OU=\xE8\xAD\xA6\xE5\xAF\x9F\xE5\xBA\x81\xE9\x81\x8B\xE8\xBB\xA2\xE5\x85\x8D\xE8\xA8\xB1\xE8\xA8\xBC\xE8\xAA\x8D\xE8\xA8\xBC\xE5\xB1\x80
            X509v3 CRL Distribution Points: 
                Full Name:
                  DirName:C = JP, O = Japanese Government, OU = National Police Agency, OU = Prefectural Public Safety Commissions for ICDL
    Signature Algorithm: sha256WithRSAEncryption
    Signature Value:
        9d:93:2c:98:ff:c5:ce:16:50:81:58:0f:2d:c5:1d:7d:27:79:
        94:26:f7:e3:22:4b:cf:0e:d6:8c:65:bb:2a:7e:4a:5c:9f:1d:
        f4:c7:58:23:1c:e3:6d:30:f6:90:03:34:a4:c3:3c:e2:e7:e4:
        09:e9:02:2f:89:4f:fc:1e:02:e1:43:e6:6a:80:35:a4:13:8a:
        1a:12:a3:33:ad:69:74:7b:56:6e:63:a2:c2:c0:47:50:e8:da:
        5f:ee:2e:28:c2:20:11:b4:be:ba:31:0a:ef:2e:c7:75:2f:a9:
        9c:39:d5:c9:a4:b4:0d:0a:d7:1c:bd:0a:f4:f4:13:ff:1b:eb:
        4f:c5:50:27:a1:9b:fc:f9:19:83:a8:2c:b0:fb:8a:a9:9e:27:
        e9:f4:18:82:06:5e:04:6a:8e:7d:d9:97:8e:d1:7a:4b:36:0d:
        4d:fd:3f:e9:1a:74:38:ff:6b:41:84:c6:4d:0d:1a:a1:dd:96:
        6c:d8:00:d4:05:ac:a7:4c:d9:13:33:5e:4e:3e:d8:6a:72:3d:
        7c:a4:04:eb:e4:f0:0d:86:81:de:5f:fb:05:6d:a6:10:94:57:
        07:90:a9:5d:49:87:18:d3:7d:07:75:29:c2:f8:c4:66:05:28:
        88:3f:67:16:79:b4:3e:0d:24:5e:40:a8:28:4b:a0:ad:00:52:
        5a:67:de:3b
-----BEGIN CERTIFICATE-----
MIIFuzCCBKOgAwIBAgISMzAwMDAwMzAFxUZ44mOsk581MA0GCSqGSIb3DQEBCwUA
MGcxCzAJBgNVBAYTAkpQMRwwGgYDVQQKDBNKYXBhbmVzZSBHb3Zlcm5tZW50MR8w
HQYDVQQLDBZOYXRpb25hbCBQb2xpY2UgQWdlbmN5MRkwFwYDVQQLDBBOUEEgSUNE
TCBSb290IENBMB4XDTIzMDYxOTA1NTIzOVoXDTI4MDYxODE0NTk1OVowgZ0xCzAJ
BgNVBAYTAkpQMRwwGgYDVQQKDBNKYXBhbmVzZSBHb3Zlcm5tZW50MR8wHQYDVQQL
DBZOYXRpb25hbCBQb2xpY2UgQWdlbmN5MTcwNQYDVQQLDC5QcmVmZWN0dXJhbCBQ
dWJsaWMgU2FmZXR5IENvbW1pc3Npb25zIGZvciBJQ0RMMRYwFAYDVQQDDA1GdWt1
aSBBbHRQUFNDMIIBIjANBgkqhkiG9w0BAQEFAAOCAQ8AMIIBCgKCAQEAjGJN0VfM
sCbAIHcFOWYRmvJn+wgNsr5nn7sB2t057RbeNgPhhNSJkRJOkO3reMKJ/i0OWFTP
JPEjrRh7P8/HlcIYqLyaiTceLuYtbRjxmmiLCUQg47kVncC4CMvR80m+nJjSVbr4
Z9yfuLeIM8XiYcnlfs0UH7CFAo7KxCLbRXp/ncrwzJN1ETJICXPNmm7lIm2gH4Re
0A6cyhLXBJtoz2FfuAQSEk2AXmuXuulbXPOB0O6tiFKtb3MBGdwF/m+8Y723x5ZD
bz6v7d9EENrAPZzWrqkvza2pHzOpG45RrokDHffm6rizM7qGGCTjLVPOjGIqj0Xn
pbtLgV7TOksdtwIDAQABo4ICKDCCAiQwgZgGA1UdIwSBkDCBjYAUEc2OYERHV09P
y+nny6FG37oOUIuha6RpMGcxCzAJBgNVBAYTAkpQMRwwGgYDVQQKDBNKYXBhbmVz
ZSBHb3Zlcm5tZW50MR8wHQYDVQQLDBZOYXRpb25hbCBQb2xpY2UgQWdlbmN5MRkw
FwYDVQQLDBBOUEEgSUNETCBSb290IENBgggyMDAwMDAxNjAdBgNVHQ4EFgQUy+Jm
aLtUwojVOAA9oaN5m1/zfMcwDgYDVR0PAQH/BAQDAgbAMEAGA1UdIAEB/wQ2MDQw
MgYLKoMIho4YBwUBAQowIzAhBggrBgEFBQcCARYVaHR0cDovL3d3dy5ucGEuZ28u
anAvMHQGA1UdEgRtMGukaTBnMQswCQYDVQQGEwJKUDEYMBYGA1UECgwP5pel5pys
5Zu95pS/5bqcMRIwEAYDVQQLDAnorablr5/luoExKjAoBgNVBAsMIeitpuWvn+W6
gemBi+i7ouWFjeioseiovOiqjeiovOWxgDCBnwYDVR0fBIGXMIGUMIGRoIGOoIGL
pIGIMIGFMQswCQYDVQQGEwJKUDEcMBoGA1UECgwTSmFwYW5lc2UgR292ZXJubWVu
dDEfMB0GA1UECwwWTmF0aW9uYWwgUG9saWNlIEFnZW5jeTE3MDUGA1UECwwuUHJl
ZmVjdHVyYWwgUHVibGljIFNhZmV0eSBDb21taXNzaW9ucyBmb3IgSUNETDANBgkq
hkiG9w0BAQsFAAOCAQEAnZMsmP/FzhZQgVgPLcUdfSd5lCb34yJLzw7WjGW7Kn5K
XJ8d9MdYIxzjbTD2kAM0pMM84ufkCekCL4lP/B4C4UPmaoA1pBOKGhKjM61pdHtW
bmOiwsBHUOjaX+4uKMIgEbS+ujEK7y7HdS+pnDnVyaS0DQrXHL0K9PQT/xvrT8VQ
J6Gb/PkZg6gssPuKqZ4n6fQYggZeBGqOfdmXjtF6SzYNTf0/6Rp0OP9rQYTGTQ0a
od2WbNgA1AWsp0zZEzNeTj7YanI9fKQE6+TwDYaB3l/7BW2mEJRXB5CpXUmHGNN9
B3UpwvjEZgUoiD9nFnm0Pg0kXkCoKEugrQBSWmfeOw==
-----END CERTIFICATE-----
