Certificate:
    Data:
        Version: 3 (0x2)
        Serial Number:
            32:30:30:30:30:30:37:34
        Signature Algorithm: sha256WithRSAEncryption
        Issuer: C=JP, O=Japanese Government, OU=National Police Agency, OU=NPA ICDL Root CA
        Validity
            Not Before: Feb  6 04:34:14 2023 GMT
            Not After : Feb  5 14:59:59 2028 GMT
        Subject: C=JP, O=Japanese Government, OU=National Police Agency, OU=Prefectural Public Safety Commissions for ICDL, CN=Fukuoka PPSC
        Subject Public Key Info:
            Public Key Algorithm: rsaEncryption
                Public-Key: (2048 bit)
                Modulus:
                    00:c1:08:23:19:6d:9d:dd:dc:15:62:fb:9d:ed:56:
                    8b:85:0b:56:92:34:8c:9c:02:a6:fa:7c:3d:1a:47:
                    99:d4:c4:22:32:eb:7f:a6:f0:7d:6a:41:0f:2e:0d:
                    47:91:46:9b:23:d1:51:84:bd:a2:25:dc:3a:6d:e8:
                    04:76:56:8b:dc:06:34:dc:2e:56:54:50:d1:93:3c:
                    01:15:cd:b5:3c:1e:9c:53:e9:8b:05:55:99:4c:49:
                    64:58:6b:37:07:92:41:d4:ce:a4:fb:ae:f8:8b:11:
                    26:23:58:2f:aa:1b:ef:b6:f9:97:22:a4:2b:53:d1:
                    ae:bc:c6:f4:d8:35:75:47:fe:75:c7:80:29:1c:54:
                    cf:1f:41:01:b1:36:9e:2c:29:40:b7:5f:d6:86:04:
                    f9:61:78:74:61:f3:5d:6b:a5:3d:50:68:af:a0:14:
                    b9:25:cd:e4:bb:e5:7c:ad:f2:66:e2:71:c8:cb:d5:
                    0e:a8:2a:8d:11:10:ed:33:17:30:fe:cb:34:43:f9:
                    b2:b6:d8:b4:ba:ad:16:0e:aa:50:d7:b8:20:44:f8:
                    b1:55:f2:01:2c:29:67:9c:6b:90:08:2b:ed:ee:f8:
                    67:28:09:d4:46:1b:3d:ef:e3:2b:d7:f3:fe:ce:a2:
                    c0:a1:5a:0f:4a:0d:a8:44:32:cb:0f:ed:51:9a:4c:
                    ec:5b
                Exponent: 65537 (0x10001)
        X509v3 extensions:
            X509v3 Authority Key Identifier: 
                keyid:11:CD:8E:60:44:47:57:4F:4F:CB:E9:E7:CB:A1:46:DF:BA:0E:50:8B
                DirName:/C=JP/O=Japanese Government/OU=National Police Agency/OU=NPA ICDL Root CA
                serial:32:30:30:30:30:30:31:36
            X509v3 Subject Key Identifier: 
                0E:6D:B1:64:39:80:2D:C8:71:38:0B:73:B7:5D:F0:BE:59:B3:D0:81
            X509v3 Key Usage: critical
                Digital Signature, Non Repudiation
            X509v3 Certificate Policies: critical
                Policy: 1.2.392.100120.7.5.1.1.10
                  CPS: http://www.npa.go.jp/
            X509v3 Subject Alternative Name: 
                DirName:/C=JP/O=\xE6\x97\xA5\xE6\x9C\xAC\xE5\x9B\xBD\xE6\x94\xBF\xE5\xBA\x9C/OU=\xE8\xAD\xA6\xE5\xAF\x9F\xE5\xBA\x81/OU=\xE9\x83\xBD\xE9\x81\x93\xE5\xBA\x9C\xE7\x9C\x8C\xE5\x85\xAC\xE5\xAE\x89\xE5\xA7\x94\xE5\x93\xA1\xE4\xBC\x9A
            X509v3 Issuer Alternative Name: 
                DirName:/C=JP/O=\xE6\x97\xA5\xE6\x9C\xAC\xE5\x9B\xBD\xE6\x94\xBF\xE5\xBA\x9C/OU=\xE8\xAD\xA6\xE5\xAF\x9F\xE5\xBA\x81/OU=\xE8\xAD\xA6\xE5\xAF\x9F\xE5\xBA\x81\xE9\x81\x8B\xE8\xBB\xA2\xE5\x85\x8D\xE8\xA8\xB1\xE8\xA8\xBC\xE8\xAA\x8D\xE8\xA8\xBC\xE5\xB1\x80
            X509v3 CRL Distribution Points: 
                Full Name:
                  DirName:C = JP, O = Japanese Government, OU = National Police Agency, OU = Prefectural Public Safety Commissions for ICDL
    Signature Algorithm: sha256WithRSAEncryption
    Signature Value:
        3a:f7:05:ce:c6:24:5e:99:8a:ec:dd:90:85:18:e4:01:3b:6f:
        60:69:48:2f:a9:00:0e:68:2a:80:fd:09:d1:73:a8:28:22:15:
        b7:88:ed:f9:43:3c:69:eb:e1:da:64:a2:c8:78:96:0d:40:68:
        e1:b6:8b:92:52:78:1b:74:2e:a6:85:bf:b3:52:ed:cf:60:51:
        d1:09:86:97:36:58:f6:58:79:e0:73:9e:1b:15:0f:e3:68:67:
        93:d3:84:5f:81:be:db:86:74:44:b7:32:39:9f:82:09:f6:3c:
        f6:ca:6a:f7:ac:4e:4c:77:62:fb:26:b0:ea:06:bb:08:3d:44:
        bc:c0:db:b6:b2:99:93:bb:0d:fd:31:57:0e:b5:af:f3:78:b2:
        bc:83:05:3f:30:5a:e8:8d:27:bd:b1:7e:1b:e6:14:18:1b:1d:
        71:de:4a:30:92:f9:e0:b3:6d:b8:a6:68:cc:7e:d8:32:a4:66:
        07:0e:19:b1:b1:64:c5:14:3b:cf:ca:43:29:a2:c2:43:de:19:
        8a:f8:9f:0e:14:10:86:7c:94:79:58:7f:cd:fe:82:96:c5:c9:
        1a:7f:39:5e:66:8c:c0:ab:9c:06:3b:59:f9:60:01:26:2b:76:
        e2:a7:02:31:04:6e:f2:30:8a:1a:24:71:68:39:e8:b8:ea:f7:
        65:ca:8d:76
-----BEGIN CERTIFICATE-----
MIIGSDCCBTCgAwIBAgIIMjAwMDAwNzQwDQYJKoZIhvcNAQELBQAwZzELMAkGA1UE
BhMCSlAxHDAaBgNVBAoME0phcGFuZXNlIEdvdmVybm1lbnQxHzAdBgNVBAsMFk5h
dGlvbmFsIFBvbGljZSBBZ2VuY3kxGTAXBgNVBAsMEE5QQSBJQ0RMIFJvb3QgQ0Ew
HhcNMjMwMjA2MDQzNDE0WhcNMjgwMjA1MTQ1OTU5WjCBnDELMAkGA1UEBhMCSlAx
HDAaBgNVBAoME0phcGFuZXNlIEdvdmVybm1lbnQxHzAdBgNVBAsMFk5hdGlvbmFs
IFBvbGljZSBBZ2VuY3kxNzA1BgNVBAsMLlByZWZlY3R1cmFsIFB1YmxpYyBTYWZl
dHkgQ29tbWlzc2lvbnMgZm9yIElDREwxFTATBgNVBAMMDEZ1a3Vva2EgUFBTQzCC
ASIwDQYJKoZIhvcNAQEBBQADggEPADCCAQoCggEBAMEIIxltnd3cFWL7ne1Wi4UL
VpI0jJwCpvp8PRpHmdTEIjLrf6bwfWpBDy4NR5FGmyPRUYS9oiXcOm3oBHZWi9wG
NNwuVlRQ0ZM8ARXNtTwenFPpiwVVmUxJZFhrNweSQdTOpPuu+IsRJiNYL6ob77b5
lyKkK1PRrrzG9Ng1dUf+dceAKRxUzx9BAbE2niwpQLdf1oYE+WF4dGHzXWulPVBo
r6AUuSXN5LvlfK3yZuJxyMvVDqgqjREQ7TMXMP7LNEP5srbYtLqtFg6qUNe4IET4
sVXyASwpZ5xrkAgr7e74ZygJ1EYbPe/jK9fz/s6iwKFaD0oNqEQyyw/tUZpM7FsC
AwEAAaOCAsAwggK8MIGYBgNVHSMEgZAwgY2AFBHNjmBER1dPT8vp58uhRt+6DlCL
oWukaTBnMQswCQYDVQQGEwJKUDEcMBoGA1UECgwTSmFwYW5lc2UgR292ZXJubWVu
dDEfMB0GA1UECwwWTmF0aW9uYWwgUG9saWNlIEFnZW5jeTEZMBcGA1UECwwQTlBB
IElDREwgUm9vdCBDQYIIMjAwMDAwMTYwHQYDVR0OBBYEFA5tsWQ5gC3IcTgLc7dd
8L5Zs9CBMA4GA1UdDwEB/wQEAwIGwDBABgNVHSABAf8ENjA0MDIGCyqDCIaOGAcF
AQEKMCMwIQYIKwYBBQUHAgEWFWh0dHA6Ly93d3cubnBhLmdvLmpwLzCBlQYDVR0R
BIGNMIGKpIGHMIGEMQswCQYDVQQGEwJKUDEYMBYGA1UECgwP5pel5pys5Zu95pS/
5bqcMRIwEAYDVQQLDAnorablr5/luoExJDAiBgNVBAsMG+mDvemBk+W6nOecjOWF
rOWuieWnlOWToeS8mjEhMB8GA1UEAwwY56aP5bKh55yM5YWs5a6J5aeU5ZOh5Lya
MHQGA1UdEgRtMGukaTBnMQswCQYDVQQGEwJKUDEYMBYGA1UECgwP5pel5pys5Zu9
5pS/5bqcMRIwEAYDVQQLDAnorablr5/luoExKjAoBgNVBAsMIeitpuWvn+W6gemB
i+i7ouWFjeioseiovOiqjeiovOWxgDCBnwYDVR0fBIGXMIGUMIGRoIGOoIGLpIGI
MIGFMQswCQYDVQQGEwJKUDEcMBoGA1UECgwTSmFwYW5lc2UgR292ZXJubWVudDEf
MB0GA1UECwwWTmF0aW9uYWwgUG9saWNlIEFnZW5jeTE3MDUGA1UECwwuUHJlZmVj
dHVyYWwgUHVibGljIFNhZmV0eSBDb21taXNzaW9ucyBmb3IgSUNETDANBgkqhkiG
9w0BAQsFAAOCAQEAOvcFzsYkXpmK7N2QhRjkATtvYGlIL6kADmgqgP0J0XOoKCIV
t4jt+UM8aevh2mSiyHiWDUBo4baLklJ4G3QupoW/s1Ltz2BR0QmGlzZY9lh54HOe
GxUP42hnk9OEX4G+24Z0RLcyOZ+CCfY89spq96xOTHdi+yaw6ga7CD1EvMDbtrKZ
k7sN/TFXDrWv83iyvIMFPzBa6I0nvbF+G+YUGBsdcd5KMJL54LNtuKZozH7YMqRm
Bw4ZsbFkxRQ7z8pDKaLCQ94ZivifDhQQhnyUeVh/zf6ClsXJGn85XmaMwKucBjtZ
+WABJit24qcCMQRu8jCKGiRxaDnouOr3ZcqNdg==
-----END CERTIFICATE-----
