Certificate:
    Data:
        Version: 3 (0x2)
        Serial Number:
            32:30:30:30:30:30:34:35
        Signature Algorithm: sha256WithRSAEncryption
        Issuer: C=JP, O=Japanese Government, OU=National Police Agency, OU=NPA ICDL Root CA
        Validity
            Not Before: Feb  6 01:43:31 2023 GMT
            Not After : Feb  5 14:59:59 2028 GMT
        Subject: C=JP, O=Japanese Government, OU=National Police Agency, OU=Prefectural Public Safety Commissions for ICDL, CN=Fukushima PPSC
        Subject Public Key Info:
            Public Key Algorithm: rsaEncryption
                Public-Key: (2048 bit)
                Modulus:
                    00:d7:61:7b:de:65:8b:76:ef:66:0b:e3:aa:19:f8:
                    55:12:ac:12:93:3a:bf:cb:b2:29:7a:fe:9d:9b:0c:
                    7e:ba:42:20:36:dc:78:a9:09:8f:78:6f:ca:8d:c4:
                    cb:6e:f8:76:75:b3:ed:77:b5:1d:87:98:9c:f2:25:
                    c2:00:96:66:20:03:5b:90:fa:0b:29:91:82:28:df:
                    5d:e0:75:72:f5:06:16:9a:d4:a6:be:75:a0:eb:c7:
                    6a:09:f0:0f:3a:cc:7d:d8:c2:8b:28:fc:42:4b:14:
                    31:c5:4e:7c:2f:b7:a1:cc:b0:aa:de:e6:18:9f:71:
                    4f:24:d5:8e:ee:c7:54:b2:4d:d9:78:34:c4:f4:85:
                    58:0a:1a:fa:66:80:46:b0:c3:ac:31:1d:35:ec:01:
                    4b:2a:fa:0d:ba:04:b5:a0:b7:1e:78:96:17:2c:80:
                    4d:8d:4f:e4:b2:ff:78:83:bb:3c:51:60:1e:36:2c:
                    89:b5:a7:05:7f:62:d2:9c:c1:a7:1b:38:09:a0:89:
                    b9:b5:09:a2:4f:85:d2:70:9f:39:1a:40:e1:1c:ea:
                    76:35:2e:4b:22:e8:0c:7d:75:7e:e2:81:6e:d9:05:
                    2b:0e:a8:2d:57:da:f7:f6:81:64:0f:6c:56:86:ab:
                    1a:ce:f5:a7:82:e9:1d:cc:4a:4e:0d:6c:b3:7c:6d:
                    39:bd
                Exponent: 65537 (0x10001)
        X509v3 extensions:
            X509v3 Authority Key Identifier: 
                keyid:11:CD:8E:60:44:47:57:4F:4F:CB:E9:E7:CB:A1:46:DF:BA:0E:50:8B
                DirName:/C=JP/O=Japanese Government/OU=National Police Agency/OU=NPA ICDL Root CA
                serial:32:30:30:30:30:30:31:36
            X509v3 Subject Key Identifier: 
                33:A2:B4:0B:2D:AD:87:3C:67:E9:4E:E2:8D:3D:6C:4D:34:F5:5D:39
            X509v3 Key Usage: critical
                Digital Signature, Non Repudiation
            X509v3 Certificate Policies: critical
                Policy: 1.2.392.100120.7.5.1.1.10
                  CPS: http://www.npa.go.jp/
            X509v3 Subject Alternative Name: 
                DirName:/C=JP/O=\xE6\x97\xA5\xE6\x9C\xAC\xE5\x9B\xBD\xE6\x94\xBF\xE5\xBA\x9C/OU=\xE8\xAD\xA6\xE5\xAF\x9F\xE5\xBA\x81/OU=\xE9\x83\xBD\xE9\x81\x93\xE5\xBA\x9C\xE7\x9C\x8C\xE5\x85\xAC\xE5\xAE\x89\xE5\xA7\x94\xE5\x93\xA1\xE4\xBC\x9A
            X509v3 Issuer Alternative Name: 
                DirName:/C=JP/O=\xE6\x97\xA5\xE6\x9C\xAC\xE5\x9B\xBD\xE6\x94\xBF\xE5\xBA\x9C/OU=\xE8\xAD\xA6\xE5\xAF\x9F\xE5\xBA\x81/OU=\xE8\xAD\xA6\xE5\xAF\x9F\xE5\xBA\x81\xE9\x81\x8B\xE8\xBB\xA2\xE5\x85\x8D\xE8\xA8\xB1\xE8\xA8\xBC\xE8\xAA\x8D\xE8\xA8\xBC\xE5\xB1\x80
            X509v3 CRL Distribution Points: 
                Full Name:
                  DirName:C = JP, O = Japanese Government, OU = National Police Agency, OU = Prefectural Public Safety Commissions for ICDL
    Signature Algorithm: sha256WithRSAEncryption
    Signature Value:
        70:61:df:3e:37:b3:94:dc:14:85:c7:33:eb:f6:49:14:0e:34:
        2f:31:8d:31:93:80:2f:1f:d1:c0:98:e8:65:08:be:d0:02:e5:
        b5:c1:1e:87:81:25:cb:45:cd:05:19:b9:b8:55:57:df:71:1d:
        70:4a:62:6e:b5:af:64:aa:ad:44:47:95:d8:67:2a:67:46:a8:
        12:92:27:15:66:cf:56:59:73:72:b8:ab:2b:c0:4f:94:ea:f5:
        d5:74:db:be:c9:70:be:51:bc:bc:df:7d:bf:f8:27:78:79:d1:
        c8:fe:6b:db:56:07:32:4c:e2:a1:48:da:b1:8b:08:83:eb:61:
        ca:b8:bb:16:5d:d0:f6:f3:10:0b:ed:53:f4:74:1c:4d:f2:6c:
        76:20:20:78:2c:db:43:47:08:13:8d:5a:0b:fb:de:92:d1:65:
        d8:92:f6:90:2b:41:48:5c:77:04:d7:d9:e6:77:57:12:3d:df:
        d6:5d:e9:66:68:22:3d:de:7e:d7:1f:1b:a5:36:17:ac:99:e0:
        64:65:7c:b2:f6:29:25:e5:93:79:f1:fe:d0:2a:81:da:76:bb:
        58:7a:32:f5:f9:d1:e0:cd:25:64:72:d4:f3:5b:cb:57:0d:a9:
        ea:fd:fa:a1:60:81:e2:5b:b0:37:8d:38:a9:fc:bd:25:2a:8d:
        d5:09:69:d1
-----BEGIN CERTIFICATE-----
MIIGSjCCBTKgAwIBAgIIMjAwMDAwNDUwDQYJKoZIhvcNAQELBQAwZzELMAkGA1UE
BhMCSlAxHDAaBgNVBAoME0phcGFuZXNlIEdvdmVybm1lbnQxHzAdBgNVBAsMFk5h
dGlvbmFsIFBvbGljZSBBZ2VuY3kxGTAXBgNVBAsMEE5QQSBJQ0RMIFJvb3QgQ0Ew
HhcNMjMwMjA2MDE0MzMxWhcNMjgwMjA1MTQ1OTU5WjCBnjELMAkGA1UEBhMCSlAx
HDAaBgNVBAoME0phcGFuZXNlIEdvdmVybm1lbnQxHzAdBgNVBAsMFk5hdGlvbmFs
IFBvbGljZSBBZ2VuY3kxNzA1BgNVBAsMLlByZWZlY3R1cmFsIFB1YmxpYyBTYWZl
dHkgQ29tbWlzc2lvbnMgZm9yIElDREwxFzAVBgNVBAMMDkZ1a3VzaGltYSBQUFND
MIIBIjANBgkqhkiG9w0BAQEFAAOCAQ8AMIIBCgKCAQEA12F73mWLdu9mC+OqGfhV
EqwSkzq/y7Ipev6dmwx+ukIgNtx4qQmPeG/KjcTLbvh2dbPtd7Udh5ic8iXCAJZm
IANbkPoLKZGCKN9d4HVy9QYWmtSmvnWg68dqCfAPOsx92MKLKPxCSxQxxU58L7eh
zLCq3uYYn3FPJNWO7sdUsk3ZeDTE9IVYChr6ZoBGsMOsMR017AFLKvoNugS1oLce
eJYXLIBNjU/ksv94g7s8UWAeNiyJtacFf2LSnMGnGzgJoIm5tQmiT4XScJ85GkDh
HOp2NS5LIugMfXV+4oFu2QUrDqgtV9r39oFkD2xWhqsazvWngukdzEpODWyzfG05
vQIDAQABo4ICwDCCArwwgZgGA1UdIwSBkDCBjYAUEc2OYERHV09Py+nny6FG37oO
UIuha6RpMGcxCzAJBgNVBAYTAkpQMRwwGgYDVQQKDBNKYXBhbmVzZSBHb3Zlcm5t
ZW50MR8wHQYDVQQLDBZOYXRpb25hbCBQb2xpY2UgQWdlbmN5MRkwFwYDVQQLDBBO
UEEgSUNETCBSb290IENBgggyMDAwMDAxNjAdBgNVHQ4EFgQUM6K0Cy2thzxn6U7i
jT1sTTT1XTkwDgYDVR0PAQH/BAQDAgbAMEAGA1UdIAEB/wQ2MDQwMgYLKoMIho4Y
BwUBAQowIzAhBggrBgEFBQcCARYVaHR0cDovL3d3dy5ucGEuZ28uanAvMIGVBgNV
HREEgY0wgYqkgYcwgYQxCzAJBgNVBAYTAkpQMRgwFgYDVQQKDA/ml6XmnKzlm73m
lL/lupwxEjAQBgNVBAsMCeitpuWvn+W6gTEkMCIGA1UECwwb6YO96YGT5bqc55yM
5YWs5a6J5aeU5ZOh5LyaMSEwHwYDVQQDDBjnpo/ls7bnnIzlhazlronlp5Tlk6Hk
vJowdAYDVR0SBG0wa6RpMGcxCzAJBgNVBAYTAkpQMRgwFgYDVQQKDA/ml6XmnKzl
m73mlL/lupwxEjAQBgNVBAsMCeitpuWvn+W6gTEqMCgGA1UECwwh6K2m5a+f5bqB
6YGL6Lui5YWN6Kix6Ki86KqN6Ki85bGAMIGfBgNVHR8EgZcwgZQwgZGggY6ggYuk
gYgwgYUxCzAJBgNVBAYTAkpQMRwwGgYDVQQKDBNKYXBhbmVzZSBHb3Zlcm5tZW50
MR8wHQYDVQQLDBZOYXRpb25hbCBQb2xpY2UgQWdlbmN5MTcwNQYDVQQLDC5QcmVm
ZWN0dXJhbCBQdWJsaWMgU2FmZXR5IENvbW1pc3Npb25zIGZvciBJQ0RMMA0GCSqG
SIb3DQEBCwUAA4IBAQBwYd8+N7OU3BSFxzPr9kkUDjQvMY0xk4AvH9HAmOhlCL7Q
AuW1wR6HgSXLRc0FGbm4VVffcR1wSmJuta9kqq1ER5XYZypnRqgSkicVZs9WWXNy
uKsrwE+U6vXVdNu+yXC+Uby8332/+Cd4edHI/mvbVgcyTOKhSNqxiwiD62HKuLsW
XdD28xAL7VP0dBxN8mx2ICB4LNtDRwgTjVoL+96S0WXYkvaQK0FIXHcE19nmd1cS
Pd/WXelmaCI93n7XHxulNhesmeBkZXyy9ikl5ZN58f7QKoHadrtYejL1+dHgzSVk
ctTzW8tXDanq/fqhYIHiW7A3jTip/L0lKo3VCWnR
-----END CERTIFICATE-----
