Certificate:
    Data:
        Version: 3 (0x2)
        Serial Number:
            33:30:30:30:30:31:31:38
        Signature Algorithm: sha256WithRSAEncryption
        Issuer: C=JP, O=Japanese Government, OU=National Police Agency, OU=NPA ICDL Root CA
        Validity
            Not Before: Sep 17 07:45:15 2024 GMT
            Not After : Sep 16 14:59:59 2029 GMT
        Subject: C=JP, O=Japanese Government, OU=National Police Agency, OU=Prefectural Public Safety Commissions for ICDL, CN=Fukuoka PPSC
        Subject Public Key Info:
            Public Key Algorithm: rsaEncryption
                Public-Key: (2048 bit)
                Modulus:
                    00:b7:a2:6e:b9:a3:0a:a9:12:32:aa:61:f2:bc:f9:
                    8f:8b:c5:5a:0b:4e:98:64:5d:8a:87:ad:ec:cd:2a:
                    b6:07:00:60:85:e8:26:d8:90:a1:67:8e:e8:06:d9:
                    d4:0d:08:b4:8a:2e:55:32:d9:a8:19:ef:4c:bd:df:
                    08:5d:89:04:ed:c0:86:c9:cc:73:2e:19:e6:7f:f4:
                    d1:35:d7:83:f2:c9:c6:7b:c2:b5:3f:be:e9:cc:25:
                    9a:b9:9b:24:e8:47:c7:e4:f9:0c:04:a8:91:b9:af:
                    ee:46:6b:28:eb:19:52:a1:cb:49:13:88:6b:90:76:
                    0d:72:dc:d5:5d:e3:e3:0f:d1:e7:c8:53:d6:75:b6:
                    2c:c2:94:df:32:15:b3:b7:a3:f0:fa:c1:2e:e7:e0:
                    b9:9e:a1:30:89:c4:e2:1e:0c:66:42:74:ee:a8:be:
                    5b:bb:95:9a:08:34:04:9a:3f:85:43:cb:60:cc:df:
                    4f:ba:d0:72:ae:8c:c8:f9:49:86:da:88:d0:3d:92:
                    f2:38:d9:85:4e:16:13:05:22:01:6c:61:7e:6a:ea:
                    6f:29:13:63:ef:cf:fe:f7:1e:b4:49:7a:b5:b9:7a:
                    57:a3:1b:68:43:fc:1d:8f:d8:91:d6:4f:5a:7d:64:
                    08:e7:02:7b:f7:8b:79:76:cb:4a:85:7b:dc:8e:76:
                    87:eb
                Exponent: 65537 (0x10001)
        X509v3 extensions:
            X509v3 Authority Key Identifier: 
                keyid:11:CD:8E:60:44:47:57:4F:4F:CB:E9:E7:CB:A1:46:DF:BA:0E:50:8B
                DirName:/C=JP/O=Japanese Government/OU=National Police Agency/OU=NPA ICDL Root CA
                serial:32:30:30:30:30:30:31:36
            X509v3 Subject Key Identifier: 
                8B:2C:FD:2F:C6:CA:C6:60:92:C6:5B:99:AC:A0:8D:33:6D:34:F2:ED
            X509v3 Key Usage: critical
                Digital Signature, Non Repudiation
            X509v3 Certificate Policies: critical
                Policy: 1.2.392.100120.7.5.1.1.10
                  CPS: http://www.npa.go.jp/
            X509v3 Subject Alternative Name: 
                DirName:/C=JP/O=\xE6\x97\xA5\xE6\x9C\xAC\xE5\x9B\xBD\xE6\x94\xBF\xE5\xBA\x9C/OU=\xE8\xAD\xA6\xE5\xAF\x9F\xE5\xBA\x81/OU=\xE9\x83\xBD\xE9\x81\x93\xE5\xBA\x9C\xE7\x9C\x8C\xE5\x85\xAC\xE5\xAE\x89\xE5\xA7\x94\xE5\x93\xA1\xE4\xBC\x9A
            X509v3 Issuer Alternative Name: 
                DirName:/C=JP/O=\xE6\x97\xA5\xE6\x9C\xAC\xE5\x9B\xBD\xE6\x94\xBF\xE5\xBA\x9C/OU=\xE8\xAD\xA6\xE5\xAF\x9F\xE5\xBA\x81/OU=\xE8\xAD\xA6\xE5\xAF\x9F\xE5\xBA\x81\xE9\x81\x8B\xE8\xBB\xA2\xE5\x85\x8D\xE8\xA8\xB1\xE8\xA8\xBC\xE8\xAA\x8D\xE8\xA8\xBC\xE5\xB1\x80
            X509v3 CRL Distribution Points: 
                Full Name:
                  DirName:C = JP, O = Japanese Government, OU = National Police Agency, OU = Prefectural Public Safety Commissions for ICDL
    Signature Algorithm: sha256WithRSAEncryption
    Signature Value:
        4e:a5:df:5c:95:b7:68:d7:d9:9a:bd:9f:19:82:83:b3:18:2f:
        19:33:c0:31:d0:81:29:83:99:70:5d:a3:59:18:04:ea:b3:e4:
        34:55:c8:f1:e8:75:e7:1e:f2:74:6e:67:d0:c2:33:1f:f0:25:
        9c:c6:95:f8:d9:9d:af:1a:82:5a:ad:e2:30:9d:e9:31:54:3d:
        d9:6c:3e:16:d4:49:95:f6:93:0c:12:f7:63:5b:fe:05:19:74:
        92:66:5d:cb:5e:81:7d:52:f9:91:e9:a7:37:c0:2f:c6:f3:7c:
        fc:01:77:e4:3d:b5:27:dc:85:36:5e:2b:69:01:e9:a5:c9:97:
        95:31:3d:bd:19:e4:d7:fb:af:10:69:31:ec:22:bc:1b:c6:8c:
        03:ab:3d:61:32:a4:8a:3a:36:94:e1:5f:a7:44:82:6f:5f:61:
        f8:ef:0b:57:93:e0:95:6b:4f:69:04:37:4c:f3:31:bf:18:9a:
        04:28:12:e9:7f:a1:1c:8e:83:3c:52:b1:82:5c:87:61:22:1d:
        20:9d:22:86:8b:77:68:8d:e8:b9:2c:6f:b7:e4:64:3d:df:86:
        e4:d4:32:23:a7:3c:78:f9:69:05:00:98:01:0a:f2:d4:07:cd:
        f2:88:f1:ef:68:51:48:da:3e:1d:41:3c:b1:83:3e:2c:86:b6:
        ed:ed:23:43
-----BEGIN CERTIFICATE-----
MIIGSDCCBTCgAwIBAgIIMzAwMDAxMTgwDQYJKoZIhvcNAQELBQAwZzELMAkGA1UE
BhMCSlAxHDAaBgNVBAoME0phcGFuZXNlIEdvdmVybm1lbnQxHzAdBgNVBAsMFk5h
dGlvbmFsIFBvbGljZSBBZ2VuY3kxGTAXBgNVBAsMEE5QQSBJQ0RMIFJvb3QgQ0Ew
HhcNMjQwOTE3MDc0NTE1WhcNMjkwOTE2MTQ1OTU5WjCBnDELMAkGA1UEBhMCSlAx
HDAaBgNVBAoME0phcGFuZXNlIEdvdmVybm1lbnQxHzAdBgNVBAsMFk5hdGlvbmFs
IFBvbGljZSBBZ2VuY3kxNzA1BgNVBAsMLlByZWZlY3R1cmFsIFB1YmxpYyBTYWZl
dHkgQ29tbWlzc2lvbnMgZm9yIElDREwxFTATBgNVBAMMDEZ1a3Vva2EgUFBTQzCC
ASIwDQYJKoZIhvcNAQEBBQADggEPADCCAQoCggEBALeibrmjCqkSMqph8rz5j4vF
WgtOmGRdioet7M0qtgcAYIXoJtiQoWeO6AbZ1A0ItIouVTLZqBnvTL3fCF2JBO3A
hsnMcy4Z5n/00TXXg/LJxnvCtT++6cwlmrmbJOhHx+T5DASokbmv7kZrKOsZUqHL
SROIa5B2DXLc1V3j4w/R58hT1nW2LMKU3zIVs7ej8PrBLufguZ6hMInE4h4MZkJ0
7qi+W7uVmgg0BJo/hUPLYMzfT7rQcq6MyPlJhtqI0D2S8jjZhU4WEwUiAWxhfmrq
bykTY+/P/vcetEl6tbl6V6MbaEP8HY/YkdZPWn1kCOcCe/eLeXbLSoV73I52h+sC
AwEAAaOCAsAwggK8MIGYBgNVHSMEgZAwgY2AFBHNjmBER1dPT8vp58uhRt+6DlCL
oWukaTBnMQswCQYDVQQGEwJKUDEcMBoGA1UECgwTSmFwYW5lc2UgR292ZXJubWVu
dDEfMB0GA1UECwwWTmF0aW9uYWwgUG9saWNlIEFnZW5jeTEZMBcGA1UECwwQTlBB
IElDREwgUm9vdCBDQYIIMjAwMDAwMTYwHQYDVR0OBBYEFIss/S/GysZgksZbmayg
jTNtNPLtMA4GA1UdDwEB/wQEAwIGwDBABgNVHSABAf8ENjA0MDIGCyqDCIaOGAcF
AQEKMCMwIQYIKwYBBQUHAgEWFWh0dHA6Ly93d3cubnBhLmdvLmpwLzCBlQYDVR0R
BIGNMIGKpIGHMIGEMQswCQYDVQQGEwJKUDEYMBYGA1UECgwP5pel5pys5Zu95pS/
5bqcMRIwEAYDVQQLDAnorablr5/luoExJDAiBgNVBAsMG+mDvemBk+W6nOecjOWF
rOWuieWnlOWToeS8mjEhMB8GA1UEAwwY56aP5bKh55yM5YWs5a6J5aeU5ZOh5Lya
MHQGA1UdEgRtMGukaTBnMQswCQYDVQQGEwJKUDEYMBYGA1UECgwP5pel5pys5Zu9
5pS/5bqcMRIwEAYDVQQLDAnorablr5/luoExKjAoBgNVBAsMIeitpuWvn+W6gemB
i+i7ouWFjeioseiovOiqjeiovOWxgDCBnwYDVR0fBIGXMIGUMIGRoIGOoIGLpIGI
MIGFMQswCQYDVQQGEwJKUDEcMBoGA1UECgwTSmFwYW5lc2UgR292ZXJubWVudDEf
MB0GA1UECwwWTmF0aW9uYWwgUG9saWNlIEFnZW5jeTE3MDUGA1UECwwuUHJlZmVj
dHVyYWwgUHVibGljIFNhZmV0eSBDb21taXNzaW9ucyBmb3IgSUNETDANBgkqhkiG
9w0BAQsFAAOCAQEATqXfXJW3aNfZmr2fGYKDsxgvGTPAMdCBKYOZcF2jWRgE6rPk
NFXI8eh15x7ydG5n0MIzH/AlnMaV+NmdrxqCWq3iMJ3pMVQ92Ww+FtRJlfaTDBL3
Y1v+BRl0kmZdy16BfVL5kemnN8AvxvN8/AF35D21J9yFNl4raQHppcmXlTE9vRnk
1/uvEGkx7CK8G8aMA6s9YTKkijo2lOFfp0SCb19h+O8LV5PglWtPaQQ3TPMxvxia
BCgS6X+hHI6DPFKxglyHYSIdIJ0ihot3aI3ouSxvt+RkPd+G5NQyI6c8ePlpBQCY
AQry1AfN8ojx72hRSNo+HUE8sYM+LIa27e0jQw==
-----END CERTIFICATE-----
