Certificate:
    Data:
        Version: 3 (0x2)
        Serial Number:
            33:30:30:30:30:30:31:36:b2:bc:7f:38:72:f0:f9:fc:75:1a
        Signature Algorithm: sha256WithRSAEncryption
        Issuer: C=JP, O=Japanese Government, OU=National Police Agency, OU=NPA ICDL Root CA
        Validity
            Not Before: Jun 19 05:31:08 2023 GMT
            Not After : Jun 18 14:59:59 2028 GMT
        Subject: C=JP, O=Japanese Government, OU=National Police Agency, OU=Prefectural Public Safety Commissions for ICDL, CN=Fukushima AltPPSC
        Subject Public Key Info:
            Public Key Algorithm: rsaEncryption
                Public-Key: (2048 bit)
                Modulus:
                    00:9a:f8:d9:fc:e8:10:d6:d4:3f:4b:a0:e7:bf:62:
                    f2:83:36:bd:4c:a9:a9:21:d2:d6:72:51:7f:9d:4d:
                    11:46:d1:c2:cb:38:33:16:70:19:79:ed:c0:33:ed:
                    ff:1a:f6:d6:0e:e3:42:47:03:80:dc:4d:32:43:2e:
                    70:81:2b:92:33:a8:a0:96:6a:9f:67:40:b2:9e:f9:
                    6c:0b:bc:a9:77:f2:6b:6d:b0:28:dc:30:7e:c5:93:
                    9b:2f:82:88:dc:09:0f:c3:3a:9f:91:e1:44:64:a6:
                    ee:96:ed:50:c7:b0:a6:46:62:80:da:da:4a:3c:51:
                    c5:be:74:45:8d:ef:10:b1:19:de:92:89:cb:f4:0f:
                    9a:3d:2e:b0:2c:15:b2:7c:19:c4:48:20:72:8c:d6:
                    66:9b:5a:ee:8a:d4:f3:90:88:05:9b:de:10:4c:e6:
                    71:7b:77:4f:78:bc:2d:cc:62:87:a6:de:92:13:53:
                    cb:0a:62:3c:32:f0:54:9a:b6:de:1b:6c:45:de:fd:
                    4e:2f:a0:42:2e:78:7f:5a:c2:84:1e:b8:a5:59:75:
                    a0:bf:15:07:55:72:33:87:6e:f1:c2:db:4c:a4:8c:
                    ad:db:49:2b:51:bb:c7:8f:ee:3e:88:0f:07:36:cf:
                    aa:90:6c:0b:b1:b6:93:5e:9b:6a:f2:a7:98:28:84:
                    da:8f
                Exponent: 65537 (0x10001)
        X509v3 extensions:
            X509v3 Authority Key Identifier: 
                keyid:11:CD:8E:60:44:47:57:4F:4F:CB:E9:E7:CB:A1:46:DF:BA:0E:50:8B
                DirName:/C=JP/O=Japanese Government/OU=National Police Agency/OU=NPA ICDL Root CA
                serial:32:30:30:30:30:30:31:36
            X509v3 Subject Key Identifier: 
                95:C7:BE:14:3D:25:24:9F:58:34:E8:88:C1:C3:68:9E:B8:CC:6D:9C
            X509v3 Key Usage: critical
                Digital Signature, Non Repudiation
            X509v3 Certificate Policies: critical
                Policy: 1.2.392.100120.7.5.1.1.10
                  CPS: http://www.npa.go.jp/
            X509v3 Issuer Alternative Name: 
                DirName:/C=JP/O=\xE6\x97\xA5\xE6\x9C\xAC\xE5\x9B\xBD\xE6\x94\xBF\xE5\xBA\x9C/OU=\xE8\xAD\xA6\xE5\xAF\x9F\xE5\xBA\x81/OU=\xE8\xAD\xA6\xE5\xAF\x9F\xE5\xBA\x81\xE9\x81\x8B\xE8\xBB\xA2\xE5\x85\x8D\xE8\xA8\xB1\xE8\xA8\xBC\xE8\xAA\x8D\xE8\xA8\xBC\xE5\xB1\x80
            X509v3 CRL Distribution Points: 
                Full Name:
                  DirName:C = JP, O = Japanese Government, OU = National Police Agency, OU = Prefectural Public Safety Commissions for ICDL
    Signature Algorithm: sha256WithRSAEncryption
    Signature Value:
        56:f1:db:b6:5e:b6:ab:44:3b:2f:28:78:0a:d7:fe:2d:15:b7:
        93:c7:ad:0e:60:bb:6f:68:42:7a:f4:12:71:5c:5c:f2:3c:88:
        84:8f:1d:44:13:45:cc:fc:17:03:6a:5b:eb:fd:24:57:a5:7a:
        d0:d0:02:b5:fa:01:d4:7d:81:ea:8e:3a:4e:c2:c3:d8:f0:dc:
        28:18:ee:ad:60:40:70:aa:e8:5a:a3:08:01:40:d7:59:f1:c0:
        f9:4c:d5:6c:4f:99:a3:fb:9b:bc:a3:88:ea:f4:ae:e5:ea:2b:
        97:69:94:78:6a:06:5b:b1:ee:55:15:06:88:fe:b1:74:80:47:
        40:5f:fc:a6:0e:58:ed:47:0e:39:70:37:a8:4d:e0:f8:29:72:
        25:19:53:54:16:1b:79:7b:8d:cd:a7:52:f0:bb:36:49:03:74:
        5b:46:f5:cc:ff:08:99:cf:85:7a:35:2a:05:7f:ff:2a:fb:74:
        d8:f5:41:55:73:fb:c4:02:58:45:80:53:24:cc:cc:ac:d3:cd:
        5e:c0:ff:1b:a2:8c:bf:73:d7:97:be:05:fe:a5:66:31:9b:b4:
        9d:5c:2d:71:ca:f4:9a:b0:35:16:81:9d:84:73:c9:62:be:b7:
        55:a5:c7:6d:50:be:3e:e4:2a:61:36:a5:98:a3:3e:5e:47:26:
        9f:0e:5b:30
-----BEGIN CERTIFICATE-----
MIIFvzCCBKegAwIBAgISMzAwMDAwMTayvH84cvD5/HUaMA0GCSqGSIb3DQEBCwUA
MGcxCzAJBgNVBAYTAkpQMRwwGgYDVQQKDBNKYXBhbmVzZSBHb3Zlcm5tZW50MR8w
HQYDVQQLDBZOYXRpb25hbCBQb2xpY2UgQWdlbmN5MRkwFwYDVQQLDBBOUEEgSUNE
TCBSb290IENBMB4XDTIzMDYxOTA1MzEwOFoXDTI4MDYxODE0NTk1OVowgaExCzAJ
BgNVBAYTAkpQMRwwGgYDVQQKDBNKYXBhbmVzZSBHb3Zlcm5tZW50MR8wHQYDVQQL
DBZOYXRpb25hbCBQb2xpY2UgQWdlbmN5MTcwNQYDVQQLDC5QcmVmZWN0dXJhbCBQ
dWJsaWMgU2FmZXR5IENvbW1pc3Npb25zIGZvciBJQ0RMMRowGAYDVQQDDBFGdWt1
c2hpbWEgQWx0UFBTQzCCASIwDQYJKoZIhvcNAQEBBQADggEPADCCAQoCggEBAJr4
2fzoENbUP0ug579i8oM2vUypqSHS1nJRf51NEUbRwss4MxZwGXntwDPt/xr21g7j
QkcDgNxNMkMucIErkjOooJZqn2dAsp75bAu8qXfya22wKNwwfsWTmy+CiNwJD8M6
n5HhRGSm7pbtUMewpkZigNraSjxRxb50RY3vELEZ3pKJy/QPmj0usCwVsnwZxEgg
cozWZpta7orU85CIBZveEEzmcXt3T3i8Lcxih6bekhNTywpiPDLwVJq23htsRd79
Ti+gQi54f1rChB64pVl1oL8VB1VyM4du8cLbTKSMrdtJK1G7x4/uPogPBzbPqpBs
C7G2k16bavKnmCiE2o8CAwEAAaOCAigwggIkMIGYBgNVHSMEgZAwgY2AFBHNjmBE
R1dPT8vp58uhRt+6DlCLoWukaTBnMQswCQYDVQQGEwJKUDEcMBoGA1UECgwTSmFw
YW5lc2UgR292ZXJubWVudDEfMB0GA1UECwwWTmF0aW9uYWwgUG9saWNlIEFnZW5j
eTEZMBcGA1UECwwQTlBBIElDREwgUm9vdCBDQYIIMjAwMDAwMTYwHQYDVR0OBBYE
FJXHvhQ9JSSfWDToiMHDaJ64zG2cMA4GA1UdDwEB/wQEAwIGwDBABgNVHSABAf8E
NjA0MDIGCyqDCIaOGAcFAQEKMCMwIQYIKwYBBQUHAgEWFWh0dHA6Ly93d3cubnBh
LmdvLmpwLzB0BgNVHRIEbTBrpGkwZzELMAkGA1UEBhMCSlAxGDAWBgNVBAoMD+aX
peacrOWbveaUv+W6nDESMBAGA1UECwwJ6K2m5a+f5bqBMSowKAYDVQQLDCHorabl
r5/luoHpgYvou6LlhY3oqLHoqLzoqo3oqLzlsYAwgZ8GA1UdHwSBlzCBlDCBkaCB
jqCBi6SBiDCBhTELMAkGA1UEBhMCSlAxHDAaBgNVBAoME0phcGFuZXNlIEdvdmVy
bm1lbnQxHzAdBgNVBAsMFk5hdGlvbmFsIFBvbGljZSBBZ2VuY3kxNzA1BgNVBAsM
LlByZWZlY3R1cmFsIFB1YmxpYyBTYWZldHkgQ29tbWlzc2lvbnMgZm9yIElDREww
DQYJKoZIhvcNAQELBQADggEBAFbx27ZetqtEOy8oeArX/i0Vt5PHrQ5gu29oQnr0
EnFcXPI8iISPHUQTRcz8FwNqW+v9JFeletDQArX6AdR9geqOOk7Cw9jw3CgY7q1g
QHCq6FqjCAFA11nxwPlM1WxPmaP7m7yjiOr0ruXqK5dplHhqBlux7lUVBoj+sXSA
R0Bf/KYOWO1HDjlwN6hN4PgpciUZU1QWG3l7jc2nUvC7NkkDdFtG9cz/CJnPhXo1
KgV//yr7dNj1QVVz+8QCWEWAUyTMzKzTzV7A/xuijL9z15e+Bf6lZjGbtJ1cLXHK
9JqwNRaBnYRzyWK+t1Wlx21Qvj7kKmE2pZijPl5HJp8OWzA=
-----END CERTIFICATE-----
