Certificate:
    Data:
        Version: 3 (0x2)
        Serial Number:
            33:30:30:30:30:30:39:39
        Signature Algorithm: sha256WithRSAEncryption
        Issuer: C=JP, O=Japanese Government, OU=National Police Agency, OU=NPA ICDL Root CA
        Validity
            Not Before: Sep 17 07:11:11 2024 GMT
            Not After : Sep 16 14:59:59 2029 GMT
        Subject: C=JP, O=Japanese Government, OU=National Police Agency, OU=Prefectural Public Safety Commissions for ICDL, CN=Fukushima PPSC
        Subject Public Key Info:
            Public Key Algorithm: rsaEncryption
                Public-Key: (2048 bit)
                Modulus:
                    00:c7:0f:d5:55:79:c5:9e:ac:e4:fa:49:be:0e:56:
                    90:22:b0:c5:47:66:17:a5:0a:ec:f9:6c:91:14:e7:
                    41:50:25:0b:e9:6d:08:9c:95:1d:9f:16:8b:7d:65:
                    03:2d:f4:12:d4:15:01:24:2f:a7:ae:c6:f4:76:61:
                    3c:33:41:c2:a3:14:d3:b2:65:7f:c8:60:0b:4a:d1:
                    cd:a4:d7:9e:35:82:ec:ae:fb:67:85:0f:d0:2d:c3:
                    0a:45:22:96:14:35:f6:f6:9d:92:66:93:f4:99:4e:
                    af:29:3e:ed:fc:70:7a:a9:01:ed:f7:a7:77:fd:fd:
                    ae:f6:b9:ec:d2:e7:92:eb:da:69:bd:bb:eb:10:32:
                    5f:73:d8:b2:66:d1:3a:35:f7:c4:dc:4e:d0:70:96:
                    03:77:4e:2a:2f:6a:5e:fd:73:06:02:d0:09:ff:d1:
                    47:4a:3a:f4:13:29:a2:20:57:61:04:c2:ea:b0:e7:
                    ba:b9:04:01:72:6b:8a:fc:44:58:44:d1:b8:c9:cb:
                    eb:59:d6:e4:8e:53:40:ed:fb:45:7d:69:a6:fd:81:
                    d1:7a:d5:65:d1:9f:0a:de:ef:cf:f2:31:2e:ca:97:
                    42:3d:d9:23:02:37:c4:dc:7b:08:42:18:d7:e5:ed:
                    cb:64:f3:1b:f7:6a:4c:44:e4:8f:8b:8b:e9:3e:a9:
                    99:ad
                Exponent: 65537 (0x10001)
        X509v3 extensions:
            X509v3 Authority Key Identifier: 
                keyid:11:CD:8E:60:44:47:57:4F:4F:CB:E9:E7:CB:A1:46:DF:BA:0E:50:8B
                DirName:/C=JP/O=Japanese Government/OU=National Police Agency/OU=NPA ICDL Root CA
                serial:32:30:30:30:30:30:31:36
            X509v3 Subject Key Identifier: 
                D2:5E:1E:8C:66:3E:64:95:C9:82:C1:E5:19:0E:E9:9F:E2:AF:F9:F3
            X509v3 Key Usage: critical
                Digital Signature, Non Repudiation
            X509v3 Certificate Policies: critical
                Policy: 1.2.392.100120.7.5.1.1.10
                  CPS: http://www.npa.go.jp/
            X509v3 Subject Alternative Name: 
                DirName:/C=JP/O=\xE6\x97\xA5\xE6\x9C\xAC\xE5\x9B\xBD\xE6\x94\xBF\xE5\xBA\x9C/OU=\xE8\xAD\xA6\xE5\xAF\x9F\xE5\xBA\x81/OU=\xE9\x83\xBD\xE9\x81\x93\xE5\xBA\x9C\xE7\x9C\x8C\xE5\x85\xAC\xE5\xAE\x89\xE5\xA7\x94\xE5\x93\xA1\xE4\xBC\x9A
            X509v3 Issuer Alternative Name: 
                DirName:/C=JP/O=\xE6\x97\xA5\xE6\x9C\xAC\xE5\x9B\xBD\xE6\x94\xBF\xE5\xBA\x9C/OU=\xE8\xAD\xA6\xE5\xAF\x9F\xE5\xBA\x81/OU=\xE8\xAD\xA6\xE5\xAF\x9F\xE5\xBA\x81\xE9\x81\x8B\xE8\xBB\xA2\xE5\x85\x8D\xE8\xA8\xB1\xE8\xA8\xBC\xE8\xAA\x8D\xE8\xA8\xBC\xE5\xB1\x80
            X509v3 CRL Distribution Points: 
                Full Name:
                  DirName:C = JP, O = Japanese Government, OU = National Police Agency, OU = Prefectural Public Safety Commissions for ICDL
    Signature Algorithm: sha256WithRSAEncryption
    Signature Value:
        28:42:c7:99:e8:9a:c9:e7:f4:64:11:9c:37:cc:0c:9a:4c:56:
        10:43:8c:02:4a:5c:59:17:f6:02:a2:bb:1a:28:1b:a9:33:d7:
        f0:4b:1f:61:85:48:75:bb:84:b2:38:15:1c:79:12:23:0d:6e:
        58:c2:c0:16:51:66:3b:b4:25:16:87:74:d6:b3:c1:41:36:37:
        4c:1c:b7:9a:d9:fa:50:e7:0a:f6:80:4a:16:fc:c3:a1:47:83:
        2b:17:66:4a:f0:75:6c:6e:60:9d:fd:2c:3a:52:12:37:a3:c3:
        ea:cb:d4:15:bc:48:30:82:06:fe:2d:01:5d:3b:db:23:a3:b8:
        13:d0:6a:6d:61:dd:cd:47:52:a3:16:20:a0:da:f4:5d:42:64:
        44:38:17:38:ba:95:0f:2a:fc:ee:37:4e:23:78:75:01:ce:55:
        88:ff:c2:d9:0c:ea:2b:d0:32:55:df:a8:60:42:42:b1:4b:fd:
        f5:06:86:e1:26:26:ff:e3:13:a7:21:21:8f:df:32:40:36:b0:
        fa:f2:a6:60:67:89:c2:b3:11:99:59:f5:32:5d:8a:c5:10:fb:
        fb:d1:5d:9e:78:6b:f2:82:72:2a:56:b9:dd:96:37:69:ae:39:
        e4:fe:5c:34:8f:8d:53:7e:9f:91:ef:52:c6:a4:7e:66:99:28:
        18:a5:61:dd
-----BEGIN CERTIFICATE-----
MIIGSjCCBTKgAwIBAgIIMzAwMDAwOTkwDQYJKoZIhvcNAQELBQAwZzELMAkGA1UE
BhMCSlAxHDAaBgNVBAoME0phcGFuZXNlIEdvdmVybm1lbnQxHzAdBgNVBAsMFk5h
dGlvbmFsIFBvbGljZSBBZ2VuY3kxGTAXBgNVBAsMEE5QQSBJQ0RMIFJvb3QgQ0Ew
HhcNMjQwOTE3MDcxMTExWhcNMjkwOTE2MTQ1OTU5WjCBnjELMAkGA1UEBhMCSlAx
HDAaBgNVBAoME0phcGFuZXNlIEdvdmVybm1lbnQxHzAdBgNVBAsMFk5hdGlvbmFs
IFBvbGljZSBBZ2VuY3kxNzA1BgNVBAsMLlByZWZlY3R1cmFsIFB1YmxpYyBTYWZl
dHkgQ29tbWlzc2lvbnMgZm9yIElDREwxFzAVBgNVBAMMDkZ1a3VzaGltYSBQUFND
MIIBIjANBgkqhkiG9w0BAQEFAAOCAQ8AMIIBCgKCAQEAxw/VVXnFnqzk+km+DlaQ
IrDFR2YXpQrs+WyRFOdBUCUL6W0InJUdnxaLfWUDLfQS1BUBJC+nrsb0dmE8M0HC
oxTTsmV/yGALStHNpNeeNYLsrvtnhQ/QLcMKRSKWFDX29p2SZpP0mU6vKT7t/HB6
qQHt96d3/f2u9rns0ueS69ppvbvrEDJfc9iyZtE6NffE3E7QcJYDd04qL2pe/XMG
AtAJ/9FHSjr0EymiIFdhBMLqsOe6uQQBcmuK/ERYRNG4ycvrWdbkjlNA7ftFfWmm
/YHRetVl0Z8K3u/P8jEuypdCPdkjAjfE3HsIQhjX5e3LZPMb92pMROSPi4vpPqmZ
rQIDAQABo4ICwDCCArwwgZgGA1UdIwSBkDCBjYAUEc2OYERHV09Py+nny6FG37oO
UIuha6RpMGcxCzAJBgNVBAYTAkpQMRwwGgYDVQQKDBNKYXBhbmVzZSBHb3Zlcm5t
ZW50MR8wHQYDVQQLDBZOYXRpb25hbCBQb2xpY2UgQWdlbmN5MRkwFwYDVQQLDBBO
UEEgSUNETCBSb290IENBgggyMDAwMDAxNjAdBgNVHQ4EFgQU0l4ejGY+ZJXJgsHl
GQ7pn+Kv+fMwDgYDVR0PAQH/BAQDAgbAMEAGA1UdIAEB/wQ2MDQwMgYLKoMIho4Y
BwUBAQowIzAhBggrBgEFBQcCARYVaHR0cDovL3d3dy5ucGEuZ28uanAvMIGVBgNV
HREEgY0wgYqkgYcwgYQxCzAJBgNVBAYTAkpQMRgwFgYDVQQKDA/ml6XmnKzlm73m
lL/lupwxEjAQBgNVBAsMCeitpuWvn+W6gTEkMCIGA1UECwwb6YO96YGT5bqc55yM
5YWs5a6J5aeU5ZOh5LyaMSEwHwYDVQQDDBjnpo/ls7bnnIzlhazlronlp5Tlk6Hk
vJowdAYDVR0SBG0wa6RpMGcxCzAJBgNVBAYTAkpQMRgwFgYDVQQKDA/ml6XmnKzl
m73mlL/lupwxEjAQBgNVBAsMCeitpuWvn+W6gTEqMCgGA1UECwwh6K2m5a+f5bqB
6YGL6Lui5YWN6Kix6Ki86KqN6Ki85bGAMIGfBgNVHR8EgZcwgZQwgZGggY6ggYuk
gYgwgYUxCzAJBgNVBAYTAkpQMRwwGgYDVQQKDBNKYXBhbmVzZSBHb3Zlcm5tZW50
MR8wHQYDVQQLDBZOYXRpb25hbCBQb2xpY2UgQWdlbmN5MTcwNQYDVQQLDC5QcmVm
ZWN0dXJhbCBQdWJsaWMgU2FmZXR5IENvbW1pc3Npb25zIGZvciBJQ0RMMA0GCSqG
SIb3DQEBCwUAA4IBAQAoQseZ6JrJ5/RkEZw3zAyaTFYQQ4wCSlxZF/YCorsaKBup
M9fwSx9hhUh1u4SyOBUceRIjDW5YwsAWUWY7tCUWh3TWs8FBNjdMHLea2fpQ5wr2
gEoW/MOhR4MrF2ZK8HVsbmCd/Sw6UhI3o8Pqy9QVvEgwggb+LQFdO9sjo7gT0Gpt
Yd3NR1KjFiCg2vRdQmREOBc4upUPKvzuN04jeHUBzlWI/8LZDOor0DJV36hgQkKx
S/31BobhJib/4xOnISGP3zJANrD68qZgZ4nCsxGZWfUyXYrFEPv70V2eeGvygnIq
Vrndljdprjnk/lw0j41Tfp+R71LGpH5mmSgYpWHd
-----END CERTIFICATE-----
