Certificate:
    Data:
        Version: 3 (0x2)
        Serial Number:
            33:30:30:30:30:30:36:35
        Signature Algorithm: sha256WithRSAEncryption
        Issuer: C=JP, O=Japanese Government, OU=National Police Agency, OU=NPA ICDL Root CA
        Validity
            Not Before: Nov  1 04:39:30 2023 GMT
            Not After : Oct 31 14:59:59 2028 GMT
        Subject: C=JP, O=Japanese Government, OU=National Police Agency, OU=Prefectural Public Safety Commissions for ICDL, CN=Fukui PPSC
        Subject Public Key Info:
            Public Key Algorithm: rsaEncryption
                Public-Key: (2048 bit)
                Modulus:
                    00:b8:d0:5d:d0:07:11:a9:a8:c7:d1:6b:a0:0c:8b:
                    24:8c:94:c7:e8:20:8b:e2:45:62:a1:39:98:c1:5d:
                    8f:fa:f5:33:14:16:b2:b2:d7:1b:dd:54:0b:63:54:
                    63:07:d9:06:2f:89:94:88:96:ba:c0:9e:91:a8:95:
                    d5:a3:15:f3:47:ab:ac:4a:81:49:6d:a5:28:ba:3d:
                    09:29:a8:05:be:f9:ef:aa:bc:47:4f:46:5a:21:c7:
                    04:5e:eb:86:59:ae:c4:3e:9f:73:98:73:87:7f:8c:
                    88:af:27:08:a5:e1:56:90:ba:59:8a:f8:e0:ed:d8:
                    bf:1a:93:a2:2d:6a:04:98:98:c2:de:10:4d:bb:5b:
                    92:c2:63:2e:22:82:5e:f4:9a:0f:43:55:55:47:a3:
                    bd:db:3b:6a:ce:20:cb:13:5b:26:cd:e8:4c:01:fb:
                    9c:9f:53:5e:7d:83:3c:92:8f:a6:5a:7a:35:20:da:
                    bf:6c:ef:29:17:81:2b:00:36:05:6d:63:c3:32:26:
                    af:1e:d9:a9:fd:c5:a1:a8:d1:ed:9d:3a:24:bd:77:
                    45:ce:6c:e3:a7:45:df:1b:0e:5d:15:83:48:db:e2:
                    0d:36:69:8d:69:d5:58:74:4f:06:e2:b7:d2:9f:cd:
                    df:a1:a1:d2:8a:d9:47:a7:b2:25:10:38:49:24:a2:
                    33:9b
                Exponent: 65537 (0x10001)
        X509v3 extensions:
            X509v3 Authority Key Identifier: 
                keyid:11:CD:8E:60:44:47:57:4F:4F:CB:E9:E7:CB:A1:46:DF:BA:0E:50:8B
                DirName:/C=JP/O=Japanese Government/OU=National Police Agency/OU=NPA ICDL Root CA
                serial:32:30:30:30:30:30:31:36
            X509v3 Subject Key Identifier: 
                AB:C9:4E:6B:CE:A2:64:E9:7E:8F:8B:74:E0:BF:36:84:B9:DE:55:F9
            X509v3 Key Usage: critical
                Digital Signature, Non Repudiation
            X509v3 Certificate Policies: critical
                Policy: 1.2.392.100120.7.5.1.1.10
                  CPS: http://www.npa.go.jp/
            X509v3 Subject Alternative Name: 
                DirName:/C=JP/O=\xE6\x97\xA5\xE6\x9C\xAC\xE5\x9B\xBD\xE6\x94\xBF\xE5\xBA\x9C/OU=\xE8\xAD\xA6\xE5\xAF\x9F\xE5\xBA\x81/OU=\xE9\x83\xBD\xE9\x81\x93\xE5\xBA\x9C\xE7\x9C\x8C\xE5\x85\xAC\xE5\xAE\x89\xE5\xA7\x94\xE5\x93\xA1\xE4\xBC\x9A
            X509v3 Issuer Alternative Name: 
                DirName:/C=JP/O=\xE6\x97\xA5\xE6\x9C\xAC\xE5\x9B\xBD\xE6\x94\xBF\xE5\xBA\x9C/OU=\xE8\xAD\xA6\xE5\xAF\x9F\xE5\xBA\x81/OU=\xE8\xAD\xA6\xE5\xAF\x9F\xE5\xBA\x81\xE9\x81\x8B\xE8\xBB\xA2\xE5\x85\x8D\xE8\xA8\xB1\xE8\xA8\xBC\xE8\xAA\x8D\xE8\xA8\xBC\xE5\xB1\x80
            X509v3 CRL Distribution Points: 
                Full Name:
                  DirName:C = JP, O = Japanese Government, OU = National Police Agency, OU = Prefectural Public Safety Commissions for ICDL
    Signature Algorithm: sha256WithRSAEncryption
    Signature Value:
        7e:f1:ed:1e:63:05:18:f1:e8:df:94:9c:fe:e5:6d:ae:5b:17:
        8c:db:c3:66:70:00:4f:71:59:bb:c7:4f:11:1f:db:fc:d6:6b:
        2f:6e:8b:ff:ed:12:72:a1:ae:27:bc:40:a8:2e:5f:69:a9:47:
        44:6f:27:7b:d0:8e:2e:74:03:e1:01:9f:ad:ac:3d:be:16:85:
        06:3d:df:d3:c3:22:21:fb:be:59:9c:4f:ba:79:7e:d3:cb:a7:
        93:4c:a4:91:c4:00:b5:53:6f:1c:8d:65:3e:4d:ca:e3:a9:9b:
        b5:92:73:e9:0d:f9:2d:63:59:b8:af:f4:28:a3:48:a0:89:10:
        75:da:4d:b9:92:8d:69:27:33:9c:68:57:66:35:91:d1:57:d7:
        c0:02:a9:80:f0:f7:ad:27:c7:35:a5:47:4b:8c:8d:c9:10:00:
        8a:89:f2:10:0e:36:52:86:c4:c1:69:49:22:5a:0e:6e:ae:80:
        ad:31:fe:5c:bc:2c:82:56:e9:e2:aa:1e:9e:50:e2:d2:f1:51:
        63:7d:01:37:ef:35:b0:ad:9b:37:3a:8d:43:f3:9f:c5:9d:86:
        35:80:4a:49:e2:7c:d7:67:99:7a:95:9e:f2:2e:ca:24:09:6c:
        02:5c:bb:c9:22:72:ca:25:f1:20:88:83:d8:61:f1:09:70:25:
        1f:1b:f9:0f
-----BEGIN CERTIFICATE-----
MIIGRjCCBS6gAwIBAgIIMzAwMDAwNjUwDQYJKoZIhvcNAQELBQAwZzELMAkGA1UE
BhMCSlAxHDAaBgNVBAoME0phcGFuZXNlIEdvdmVybm1lbnQxHzAdBgNVBAsMFk5h
dGlvbmFsIFBvbGljZSBBZ2VuY3kxGTAXBgNVBAsMEE5QQSBJQ0RMIFJvb3QgQ0Ew
HhcNMjMxMTAxMDQzOTMwWhcNMjgxMDMxMTQ1OTU5WjCBmjELMAkGA1UEBhMCSlAx
HDAaBgNVBAoME0phcGFuZXNlIEdvdmVybm1lbnQxHzAdBgNVBAsMFk5hdGlvbmFs
IFBvbGljZSBBZ2VuY3kxNzA1BgNVBAsMLlByZWZlY3R1cmFsIFB1YmxpYyBTYWZl
dHkgQ29tbWlzc2lvbnMgZm9yIElDREwxEzARBgNVBAMMCkZ1a3VpIFBQU0MwggEi
MA0GCSqGSIb3DQEBAQUAA4IBDwAwggEKAoIBAQC40F3QBxGpqMfRa6AMiySMlMfo
IIviRWKhOZjBXY/69TMUFrKy1xvdVAtjVGMH2QYviZSIlrrAnpGoldWjFfNHq6xK
gUltpSi6PQkpqAW++e+qvEdPRlohxwRe64ZZrsQ+n3OYc4d/jIivJwil4VaQulmK
+ODt2L8ak6ItagSYmMLeEE27W5LCYy4igl70mg9DVVVHo73bO2rOIMsTWybN6EwB
+5yfU159gzySj6ZaejUg2r9s7ykXgSsANgVtY8MyJq8e2an9xaGo0e2dOiS9d0XO
bOOnRd8bDl0Vg0jb4g02aY1p1Vh0Twbit9Kfzd+hodKK2UensiUQOEkkojObAgMB
AAGjggLAMIICvDCBmAYDVR0jBIGQMIGNgBQRzY5gREdXT0/L6efLoUbfug5Qi6Fr
pGkwZzELMAkGA1UEBhMCSlAxHDAaBgNVBAoME0phcGFuZXNlIEdvdmVybm1lbnQx
HzAdBgNVBAsMFk5hdGlvbmFsIFBvbGljZSBBZ2VuY3kxGTAXBgNVBAsMEE5QQSBJ
Q0RMIFJvb3QgQ0GCCDIwMDAwMDE2MB0GA1UdDgQWBBSryU5rzqJk6X6Pi3TgvzaE
ud5V+TAOBgNVHQ8BAf8EBAMCBsAwQAYDVR0gAQH/BDYwNDAyBgsqgwiGjhgHBQEB
CjAjMCEGCCsGAQUFBwIBFhVodHRwOi8vd3d3Lm5wYS5nby5qcC8wgZUGA1UdEQSB
jTCBiqSBhzCBhDELMAkGA1UEBhMCSlAxGDAWBgNVBAoMD+aXpeacrOWbveaUv+W6
nDESMBAGA1UECwwJ6K2m5a+f5bqBMSQwIgYDVQQLDBvpg73pgZPlupznnIzlhazl
ronlp5Tlk6HkvJoxITAfBgNVBAMMGOemj+S6leecjOWFrOWuieWnlOWToeS8mjB0
BgNVHRIEbTBrpGkwZzELMAkGA1UEBhMCSlAxGDAWBgNVBAoMD+aXpeacrOWbveaU
v+W6nDESMBAGA1UECwwJ6K2m5a+f5bqBMSowKAYDVQQLDCHorablr5/luoHpgYvo
u6LlhY3oqLHoqLzoqo3oqLzlsYAwgZ8GA1UdHwSBlzCBlDCBkaCBjqCBi6SBiDCB
hTELMAkGA1UEBhMCSlAxHDAaBgNVBAoME0phcGFuZXNlIEdvdmVybm1lbnQxHzAd
BgNVBAsMFk5hdGlvbmFsIFBvbGljZSBBZ2VuY3kxNzA1BgNVBAsMLlByZWZlY3R1
cmFsIFB1YmxpYyBTYWZldHkgQ29tbWlzc2lvbnMgZm9yIElDREwwDQYJKoZIhvcN
AQELBQADggEBAH7x7R5jBRjx6N+UnP7lba5bF4zbw2ZwAE9xWbvHTxEf2/zWay9u
i//tEnKhrie8QKguX2mpR0RvJ3vQji50A+EBn62sPb4WhQY939PDIiH7vlmcT7p5
ftPLp5NMpJHEALVTbxyNZT5NyuOpm7WSc+kN+S1jWbiv9CijSKCJEHXaTbmSjWkn
M5xoV2Y1kdFX18ACqYDw960nxzWlR0uMjckQAIqJ8hAONlKGxMFpSSJaDm6ugK0x
/ly8LIJW6eKqHp5Q4tLxUWN9ATfvNbCtmzc6jUPzn8WdhjWASknifNdnmXqVnvIu
yiQJbAJcu8kicsol8SCIg9hh8QlwJR8b+Q8=
-----END CERTIFICATE-----
