Certificate:
    Data:
        Version: 3 (0x2)
        Serial Number:
            32:30:30:30:30:30:35:37
        Signature Algorithm: sha256WithRSAEncryption
        Issuer: C=JP, O=Japanese Government, OU=National Police Agency, OU=NPA ICDL Root CA
        Validity
            Not Before: Feb  6 02:21:14 2023 GMT
            Not After : Feb  5 14:59:59 2028 GMT
        Subject: C=JP, O=Japanese Government, OU=National Police Agency, OU=Prefectural Public Safety Commissions for ICDL, CN=Fukui PPSC
        Subject Public Key Info:
            Public Key Algorithm: rsaEncryption
                Public-Key: (2048 bit)
                Modulus:
                    00:ba:29:81:b0:57:4a:32:4b:9f:11:93:75:26:5a:
                    d8:c5:1f:5f:84:79:c3:26:08:65:2e:de:bf:7c:7b:
                    b0:7b:81:5b:30:40:50:b5:ac:78:55:e8:f7:f9:af:
                    ed:d5:f3:60:95:f9:1f:a3:35:b6:01:3b:6a:82:9d:
                    a1:8f:85:a7:6e:92:20:1b:e1:ac:76:da:24:7c:ee:
                    bf:79:4c:4f:bc:d5:e7:99:14:2b:f2:40:93:db:22:
                    e1:74:3f:52:ef:00:a8:6b:8e:de:e8:ae:40:a0:d4:
                    80:f7:57:a5:1e:ca:13:04:25:9f:95:76:fa:68:47:
                    d3:91:6b:e6:7f:2c:13:0e:34:3d:5e:88:f4:2f:41:
                    37:ce:55:f7:01:af:a9:10:1d:b8:79:a2:41:80:91:
                    d2:8c:05:e1:55:d6:72:60:d5:da:e6:32:f6:c0:c7:
                    4c:89:47:37:21:b9:3d:50:87:cb:61:be:9a:bd:a4:
                    96:0e:1f:69:0c:a3:1e:5a:07:7d:22:94:ca:d5:4b:
                    49:69:d0:57:6f:0c:e5:51:f3:34:ea:63:e9:bf:5c:
                    4b:a6:ed:76:04:fc:d5:22:c7:76:52:f0:83:a4:2c:
                    87:2f:73:f0:25:13:f2:fa:2e:fe:e2:de:55:2a:a5:
                    21:a1:e4:6a:d4:59:3b:41:b1:b9:7d:b1:97:f5:0e:
                    9b:27
                Exponent: 65537 (0x10001)
        X509v3 extensions:
            X509v3 Authority Key Identifier: 
                keyid:11:CD:8E:60:44:47:57:4F:4F:CB:E9:E7:CB:A1:46:DF:BA:0E:50:8B
                DirName:/C=JP/O=Japanese Government/OU=National Police Agency/OU=NPA ICDL Root CA
                serial:32:30:30:30:30:30:31:36
            X509v3 Subject Key Identifier: 
                1E:0D:EC:0E:11:8E:57:A4:6F:38:00:01:F2:D5:88:58:54:71:B7:A8
            X509v3 Key Usage: critical
                Digital Signature, Non Repudiation
            X509v3 Certificate Policies: critical
                Policy: 1.2.392.100120.7.5.1.1.10
                  CPS: http://www.npa.go.jp/
            X509v3 Subject Alternative Name: 
                DirName:/C=JP/O=\xE6\x97\xA5\xE6\x9C\xAC\xE5\x9B\xBD\xE6\x94\xBF\xE5\xBA\x9C/OU=\xE8\xAD\xA6\xE5\xAF\x9F\xE5\xBA\x81/OU=\xE9\x83\xBD\xE9\x81\x93\xE5\xBA\x9C\xE7\x9C\x8C\xE5\x85\xAC\xE5\xAE\x89\xE5\xA7\x94\xE5\x93\xA1\xE4\xBC\x9A
            X509v3 Issuer Alternative Name: 
                DirName:/C=JP/O=\xE6\x97\xA5\xE6\x9C\xAC\xE5\x9B\xBD\xE6\x94\xBF\xE5\xBA\x9C/OU=\xE8\xAD\xA6\xE5\xAF\x9F\xE5\xBA\x81/OU=\xE8\xAD\xA6\xE5\xAF\x9F\xE5\xBA\x81\xE9\x81\x8B\xE8\xBB\xA2\xE5\x85\x8D\xE8\xA8\xB1\xE8\xA8\xBC\xE8\xAA\x8D\xE8\xA8\xBC\xE5\xB1\x80
            X509v3 CRL Distribution Points: 
                Full Name:
                  DirName:C = JP, O = Japanese Government, OU = National Police Agency, OU = Prefectural Public Safety Commissions for ICDL
    Signature Algorithm: sha256WithRSAEncryption
    Signature Value:
        a5:69:96:8b:82:a3:cd:df:f0:a4:9b:e5:ba:02:b2:fe:18:27:
        64:93:21:3e:f5:b3:fe:d3:75:fa:f5:9e:59:6d:da:fe:27:f7:
        c2:02:4a:d6:8e:ab:97:2a:2a:8b:b1:0e:ce:6c:c5:f4:24:64:
        6f:ed:0d:24:28:da:3f:33:cd:1d:e2:84:7d:1a:64:90:28:92:
        e8:cd:45:37:00:c8:ba:b8:2c:2e:fc:b7:b7:bd:f9:72:33:c0:
        44:ff:44:93:08:37:82:f1:e1:5d:88:8f:79:c6:bf:d3:5c:26:
        e9:4e:c5:93:f7:b0:c2:6c:41:15:d1:9b:9a:8e:83:2d:9c:6d:
        e6:92:7e:76:fe:e0:f9:b5:00:fd:4d:e6:e5:84:33:24:a6:19:
        a6:c9:3f:4f:4e:d7:a4:14:3c:e9:60:73:55:9a:9b:74:ef:09:
        34:bf:3c:7f:f0:c2:48:91:6a:76:9c:46:ad:89:53:f9:0e:b4:
        a1:dc:8d:4e:d4:b1:5b:af:26:ea:d7:16:66:63:31:33:2d:3c:
        05:d9:e9:e2:5d:05:2a:52:94:de:aa:a8:3b:d2:83:bc:0d:80:
        1b:27:9a:1e:e4:42:b0:f5:dc:76:fa:fe:d2:51:7c:a5:ac:31:
        11:34:be:93:4f:70:b2:9c:f0:bc:58:06:92:cc:13:43:18:f2:
        ec:5e:88:cc
-----BEGIN CERTIFICATE-----
MIIGRjCCBS6gAwIBAgIIMjAwMDAwNTcwDQYJKoZIhvcNAQELBQAwZzELMAkGA1UE
BhMCSlAxHDAaBgNVBAoME0phcGFuZXNlIEdvdmVybm1lbnQxHzAdBgNVBAsMFk5h
dGlvbmFsIFBvbGljZSBBZ2VuY3kxGTAXBgNVBAsMEE5QQSBJQ0RMIFJvb3QgQ0Ew
HhcNMjMwMjA2MDIyMTE0WhcNMjgwMjA1MTQ1OTU5WjCBmjELMAkGA1UEBhMCSlAx
HDAaBgNVBAoME0phcGFuZXNlIEdvdmVybm1lbnQxHzAdBgNVBAsMFk5hdGlvbmFs
IFBvbGljZSBBZ2VuY3kxNzA1BgNVBAsMLlByZWZlY3R1cmFsIFB1YmxpYyBTYWZl
dHkgQ29tbWlzc2lvbnMgZm9yIElDREwxEzARBgNVBAMMCkZ1a3VpIFBQU0MwggEi
MA0GCSqGSIb3DQEBAQUAA4IBDwAwggEKAoIBAQC6KYGwV0oyS58Rk3UmWtjFH1+E
ecMmCGUu3r98e7B7gVswQFC1rHhV6Pf5r+3V82CV+R+jNbYBO2qCnaGPhadukiAb
4ax22iR87r95TE+81eeZFCvyQJPbIuF0P1LvAKhrjt7orkCg1ID3V6UeyhMEJZ+V
dvpoR9ORa+Z/LBMOND1eiPQvQTfOVfcBr6kQHbh5okGAkdKMBeFV1nJg1drmMvbA
x0yJRzchuT1Qh8thvpq9pJYOH2kMox5aB30ilMrVS0lp0FdvDOVR8zTqY+m/XEum
7XYE/NUix3ZS8IOkLIcvc/AlE/L6Lv7i3lUqpSGh5GrUWTtBsbl9sZf1DpsnAgMB
AAGjggLAMIICvDCBmAYDVR0jBIGQMIGNgBQRzY5gREdXT0/L6efLoUbfug5Qi6Fr
pGkwZzELMAkGA1UEBhMCSlAxHDAaBgNVBAoME0phcGFuZXNlIEdvdmVybm1lbnQx
HzAdBgNVBAsMFk5hdGlvbmFsIFBvbGljZSBBZ2VuY3kxGTAXBgNVBAsMEE5QQSBJ
Q0RMIFJvb3QgQ0GCCDIwMDAwMDE2MB0GA1UdDgQWBBQeDewOEY5XpG84AAHy1YhY
VHG3qDAOBgNVHQ8BAf8EBAMCBsAwQAYDVR0gAQH/BDYwNDAyBgsqgwiGjhgHBQEB
CjAjMCEGCCsGAQUFBwIBFhVodHRwOi8vd3d3Lm5wYS5nby5qcC8wgZUGA1UdEQSB
jTCBiqSBhzCBhDELMAkGA1UEBhMCSlAxGDAWBgNVBAoMD+aXpeacrOWbveaUv+W6
nDESMBAGA1UECwwJ6K2m5a+f5bqBMSQwIgYDVQQLDBvpg73pgZPlupznnIzlhazl
ronlp5Tlk6HkvJoxITAfBgNVBAMMGOemj+S6leecjOWFrOWuieWnlOWToeS8mjB0
BgNVHRIEbTBrpGkwZzELMAkGA1UEBhMCSlAxGDAWBgNVBAoMD+aXpeacrOWbveaU
v+W6nDESMBAGA1UECwwJ6K2m5a+f5bqBMSowKAYDVQQLDCHorablr5/luoHpgYvo
u6LlhY3oqLHoqLzoqo3oqLzlsYAwgZ8GA1UdHwSBlzCBlDCBkaCBjqCBi6SBiDCB
hTELMAkGA1UEBhMCSlAxHDAaBgNVBAoME0phcGFuZXNlIEdvdmVybm1lbnQxHzAd
BgNVBAsMFk5hdGlvbmFsIFBvbGljZSBBZ2VuY3kxNzA1BgNVBAsMLlByZWZlY3R1
cmFsIFB1YmxpYyBTYWZldHkgQ29tbWlzc2lvbnMgZm9yIElDREwwDQYJKoZIhvcN
AQELBQADggEBAKVplouCo83f8KSb5boCsv4YJ2STIT71s/7Tdfr1nllt2v4n98IC
StaOq5cqKouxDs5sxfQkZG/tDSQo2j8zzR3ihH0aZJAokujNRTcAyLq4LC78t7e9
+XIzwET/RJMIN4Lx4V2Ij3nGv9NcJulOxZP3sMJsQRXRm5qOgy2cbeaSfnb+4Pm1
AP1N5uWEMySmGabJP09O16QUPOlgc1Wam3TvCTS/PH/wwkiRanacRq2JU/kOtKHc
jU7UsVuvJurXFmZjMTMtPAXZ6eJdBSpSlN6qqDvSg7wNgBsnmh7kQrD13Hb6/tJR
fKWsMRE0vpNPcLKc8LxYBpLME0MY8uxeiMw=
-----END CERTIFICATE-----
