Certificate:
    Data:
        Version: 3 (0x2)
        Serial Number:
            33:30:30:30:30:30:38:35
        Signature Algorithm: sha256WithRSAEncryption
        Issuer: C=JP, O=Japanese Government, OU=National Police Agency, OU=NPA ICDL Root CA
        Validity
            Not Before: Mar 18 05:23:26 2024 GMT
            Not After : Mar 17 14:59:59 2029 GMT
        Subject: C=JP, O=Japanese Government, OU=National Police Agency, OU=Prefectural Public Safety Commissions for ICDL, CN=Fukui AltPPSC
        Subject Public Key Info:
            Public Key Algorithm: rsaEncryption
                Public-Key: (2048 bit)
                Modulus:
                    00:ba:29:81:b0:57:4a:32:4b:9f:11:93:75:26:5a:
                    d8:c5:1f:5f:84:79:c3:26:08:65:2e:de:bf:7c:7b:
                    b0:7b:81:5b:30:40:50:b5:ac:78:55:e8:f7:f9:af:
                    ed:d5:f3:60:95:f9:1f:a3:35:b6:01:3b:6a:82:9d:
                    a1:8f:85:a7:6e:92:20:1b:e1:ac:76:da:24:7c:ee:
                    bf:79:4c:4f:bc:d5:e7:99:14:2b:f2:40:93:db:22:
                    e1:74:3f:52:ef:00:a8:6b:8e:de:e8:ae:40:a0:d4:
                    80:f7:57:a5:1e:ca:13:04:25:9f:95:76:fa:68:47:
                    d3:91:6b:e6:7f:2c:13:0e:34:3d:5e:88:f4:2f:41:
                    37:ce:55:f7:01:af:a9:10:1d:b8:79:a2:41:80:91:
                    d2:8c:05:e1:55:d6:72:60:d5:da:e6:32:f6:c0:c7:
                    4c:89:47:37:21:b9:3d:50:87:cb:61:be:9a:bd:a4:
                    96:0e:1f:69:0c:a3:1e:5a:07:7d:22:94:ca:d5:4b:
                    49:69:d0:57:6f:0c:e5:51:f3:34:ea:63:e9:bf:5c:
                    4b:a6:ed:76:04:fc:d5:22:c7:76:52:f0:83:a4:2c:
                    87:2f:73:f0:25:13:f2:fa:2e:fe:e2:de:55:2a:a5:
                    21:a1:e4:6a:d4:59:3b:41:b1:b9:7d:b1:97:f5:0e:
                    9b:27
                Exponent: 65537 (0x10001)
        X509v3 extensions:
            X509v3 Authority Key Identifier: 
                keyid:11:CD:8E:60:44:47:57:4F:4F:CB:E9:E7:CB:A1:46:DF:BA:0E:50:8B
                DirName:/C=JP/O=Japanese Government/OU=National Police Agency/OU=NPA ICDL Root CA
                serial:32:30:30:30:30:30:31:36
            X509v3 Subject Key Identifier: 
                1E:0D:EC:0E:11:8E:57:A4:6F:38:00:01:F2:D5:88:58:54:71:B7:A8
            X509v3 Key Usage: critical
                Digital Signature, Non Repudiation
            X509v3 Certificate Policies: critical
                Policy: 1.2.392.100120.7.5.1.1.10
                  CPS: http://www.npa.go.jp/
            X509v3 Issuer Alternative Name: 
                DirName:/C=JP/O=\xE6\x97\xA5\xE6\x9C\xAC\xE5\x9B\xBD\xE6\x94\xBF\xE5\xBA\x9C/OU=\xE8\xAD\xA6\xE5\xAF\x9F\xE5\xBA\x81/OU=\xE8\xAD\xA6\xE5\xAF\x9F\xE5\xBA\x81\xE9\x81\x8B\xE8\xBB\xA2\xE5\x85\x8D\xE8\xA8\xB1\xE8\xA8\xBC\xE8\xAA\x8D\xE8\xA8\xBC\xE5\xB1\x80
            X509v3 CRL Distribution Points: 
                Full Name:
                  DirName:C = JP, O = Japanese Government, OU = National Police Agency, OU = Prefectural Public Safety Commissions for ICDL
    Signature Algorithm: sha256WithRSAEncryption
    Signature Value:
        51:52:93:93:4c:ce:13:a8:bc:06:50:d5:94:5f:63:c9:22:ba:
        38:b9:cb:c8:1a:22:5a:1c:b2:6d:48:13:d3:fb:71:fe:ac:92:
        3f:bb:bb:af:54:be:f9:64:9b:90:98:95:64:2c:77:5c:85:25:
        85:94:cf:94:84:2d:45:a9:ec:76:c7:51:de:95:b4:35:bb:44:
        fc:2c:db:6b:7a:dc:a9:cc:9a:ed:17:5f:ac:15:e7:be:ed:5c:
        b1:e5:be:b0:40:6e:8c:25:bf:13:55:47:09:7f:fe:c2:3b:97:
        de:0a:cb:65:15:08:e0:32:84:63:4f:b0:88:86:08:de:11:50:
        ba:14:3b:0f:0d:35:de:f7:88:6e:b0:60:e7:6c:d9:0d:ec:4b:
        81:23:8c:f4:5e:24:57:75:47:64:34:32:a5:83:fd:3c:17:36:
        51:28:78:fe:5f:92:16:2e:26:6e:91:a7:2e:d6:f3:b4:27:c8:
        97:9e:76:87:d0:66:0d:67:62:74:cb:ee:d6:7e:25:a2:9e:33:
        c4:03:4c:3a:92:37:7a:de:0c:41:37:c7:6c:eb:52:58:cd:db:
        45:2e:89:eb:76:c6:ee:f5:45:63:a1:20:fb:69:f7:35:4b:f4:
        d8:4a:d4:d7:b3:cf:b9:f1:a2:64:8b:1e:af:33:7f:9f:f6:5a:
        b7:d0:e7:81
-----BEGIN CERTIFICATE-----
MIIFsTCCBJmgAwIBAgIIMzAwMDAwODUwDQYJKoZIhvcNAQELBQAwZzELMAkGA1UE
BhMCSlAxHDAaBgNVBAoME0phcGFuZXNlIEdvdmVybm1lbnQxHzAdBgNVBAsMFk5h
dGlvbmFsIFBvbGljZSBBZ2VuY3kxGTAXBgNVBAsMEE5QQSBJQ0RMIFJvb3QgQ0Ew
HhcNMjQwMzE4MDUyMzI2WhcNMjkwMzE3MTQ1OTU5WjCBnTELMAkGA1UEBhMCSlAx
HDAaBgNVBAoME0phcGFuZXNlIEdvdmVybm1lbnQxHzAdBgNVBAsMFk5hdGlvbmFs
IFBvbGljZSBBZ2VuY3kxNzA1BgNVBAsMLlByZWZlY3R1cmFsIFB1YmxpYyBTYWZl
dHkgQ29tbWlzc2lvbnMgZm9yIElDREwxFjAUBgNVBAMMDUZ1a3VpIEFsdFBQU0Mw
ggEiMA0GCSqGSIb3DQEBAQUAA4IBDwAwggEKAoIBAQC6KYGwV0oyS58Rk3UmWtjF
H1+EecMmCGUu3r98e7B7gVswQFC1rHhV6Pf5r+3V82CV+R+jNbYBO2qCnaGPhadu
kiAb4ax22iR87r95TE+81eeZFCvyQJPbIuF0P1LvAKhrjt7orkCg1ID3V6UeyhME
JZ+VdvpoR9ORa+Z/LBMOND1eiPQvQTfOVfcBr6kQHbh5okGAkdKMBeFV1nJg1drm
MvbAx0yJRzchuT1Qh8thvpq9pJYOH2kMox5aB30ilMrVS0lp0FdvDOVR8zTqY+m/
XEum7XYE/NUix3ZS8IOkLIcvc/AlE/L6Lv7i3lUqpSGh5GrUWTtBsbl9sZf1Dpsn
AgMBAAGjggIoMIICJDCBmAYDVR0jBIGQMIGNgBQRzY5gREdXT0/L6efLoUbfug5Q
i6FrpGkwZzELMAkGA1UEBhMCSlAxHDAaBgNVBAoME0phcGFuZXNlIEdvdmVybm1l
bnQxHzAdBgNVBAsMFk5hdGlvbmFsIFBvbGljZSBBZ2VuY3kxGTAXBgNVBAsMEE5Q
QSBJQ0RMIFJvb3QgQ0GCCDIwMDAwMDE2MB0GA1UdDgQWBBQeDewOEY5XpG84AAHy
1YhYVHG3qDAOBgNVHQ8BAf8EBAMCBsAwQAYDVR0gAQH/BDYwNDAyBgsqgwiGjhgH
BQEBCjAjMCEGCCsGAQUFBwIBFhVodHRwOi8vd3d3Lm5wYS5nby5qcC8wdAYDVR0S
BG0wa6RpMGcxCzAJBgNVBAYTAkpQMRgwFgYDVQQKDA/ml6XmnKzlm73mlL/lupwx
EjAQBgNVBAsMCeitpuWvn+W6gTEqMCgGA1UECwwh6K2m5a+f5bqB6YGL6Lui5YWN
6Kix6Ki86KqN6Ki85bGAMIGfBgNVHR8EgZcwgZQwgZGggY6ggYukgYgwgYUxCzAJ
BgNVBAYTAkpQMRwwGgYDVQQKDBNKYXBhbmVzZSBHb3Zlcm5tZW50MR8wHQYDVQQL
DBZOYXRpb25hbCBQb2xpY2UgQWdlbmN5MTcwNQYDVQQLDC5QcmVmZWN0dXJhbCBQ
dWJsaWMgU2FmZXR5IENvbW1pc3Npb25zIGZvciBJQ0RMMA0GCSqGSIb3DQEBCwUA
A4IBAQBRUpOTTM4TqLwGUNWUX2PJIro4ucvIGiJaHLJtSBPT+3H+rJI/u7uvVL75
ZJuQmJVkLHdchSWFlM+UhC1Fqex2x1HelbQ1u0T8LNtretypzJrtF1+sFee+7Vyx
5b6wQG6MJb8TVUcJf/7CO5feCstlFQjgMoRjT7CIhgjeEVC6FDsPDTXe94husGDn
bNkN7EuBI4z0XiRXdUdkNDKlg/08FzZRKHj+X5IWLiZukacu1vO0J8iXnnaH0GYN
Z2J0y+7WfiWinjPEA0w6kjd63gxBN8ds61JYzdtFLonrdsbu9UVjoSD7afc1S/TY
StTXs8+58aJkix6vM3+f9lq30OeB
-----END CERTIFICATE-----
