Certificate:
    Data:
        Version: 3 (0x2)
        Serial Number:
            33:30:30:30:30:31:30:36
        Signature Algorithm: sha256WithRSAEncryption
        Issuer: C=JP, O=Japanese Government, OU=National Police Agency, OU=NPA ICDL Root CA
        Validity
            Not Before: Sep 17 07:24:11 2024 GMT
            Not After : Sep 16 14:59:59 2029 GMT
        Subject: C=JP, O=Japanese Government, OU=National Police Agency, OU=Prefectural Public Safety Commissions for ICDL, CN=Gifu PPSC
        Subject Public Key Info:
            Public Key Algorithm: rsaEncryption
                Public-Key: (2048 bit)
                Modulus:
                    00:b7:bb:29:a6:c5:f9:42:61:2b:c5:6e:1f:24:a2:
                    c3:30:79:ee:32:a5:e0:45:b3:cf:2c:94:a1:9f:9a:
                    68:7e:7d:15:ec:bc:39:2a:eb:32:37:24:2d:82:97:
                    b3:35:da:d4:08:03:7e:40:1c:cd:36:ad:4a:ae:79:
                    de:ad:b4:a5:19:f2:4d:54:8d:bb:22:61:0c:4f:b5:
                    df:d2:2a:93:4a:21:5e:b7:68:ad:14:17:8a:8c:0c:
                    48:75:d5:65:4a:f7:06:bd:18:b1:54:a0:4a:5c:e0:
                    0c:fc:8d:c8:0b:ad:8d:43:62:2d:eb:53:b3:e6:cc:
                    4c:e4:8d:5f:4d:c2:1c:46:68:6d:c3:99:33:d2:84:
                    93:03:43:e6:b7:a9:30:b4:f4:8c:9e:d1:bd:e6:27:
                    76:f9:4f:44:ca:a6:3c:79:ca:ea:73:60:5a:95:71:
                    6b:e0:47:7f:fd:1e:ce:33:28:c3:4b:1d:09:3e:a5:
                    93:38:2c:a1:d7:7f:66:d5:51:cd:7e:d6:ab:89:02:
                    47:94:09:b3:3b:dd:81:1b:d4:e0:46:55:e1:8c:ea:
                    83:5b:e3:7a:a4:17:a5:f0:c2:8d:ee:85:ad:59:72:
                    cc:46:ce:33:8a:2f:04:0d:c0:95:3c:8f:3e:a9:75:
                    cd:79:79:98:82:65:a0:95:48:05:be:45:a7:57:00:
                    d5:3d
                Exponent: 65537 (0x10001)
        X509v3 extensions:
            X509v3 Authority Key Identifier: 
                keyid:11:CD:8E:60:44:47:57:4F:4F:CB:E9:E7:CB:A1:46:DF:BA:0E:50:8B
                DirName:/C=JP/O=Japanese Government/OU=National Police Agency/OU=NPA ICDL Root CA
                serial:32:30:30:30:30:30:31:36
            X509v3 Subject Key Identifier: 
                11:52:29:E5:6D:D8:63:C9:83:35:BF:1C:FB:26:47:6F:AF:1F:EA:C0
            X509v3 Key Usage: critical
                Digital Signature, Non Repudiation
            X509v3 Certificate Policies: critical
                Policy: 1.2.392.100120.7.5.1.1.10
                  CPS: http://www.npa.go.jp/
            X509v3 Subject Alternative Name: 
                DirName:/C=JP/O=\xE6\x97\xA5\xE6\x9C\xAC\xE5\x9B\xBD\xE6\x94\xBF\xE5\xBA\x9C/OU=\xE8\xAD\xA6\xE5\xAF\x9F\xE5\xBA\x81/OU=\xE9\x83\xBD\xE9\x81\x93\xE5\xBA\x9C\xE7\x9C\x8C\xE5\x85\xAC\xE5\xAE\x89\xE5\xA7\x94\xE5\x93\xA1\xE4\xBC\x9A
            X509v3 Issuer Alternative Name: 
                DirName:/C=JP/O=\xE6\x97\xA5\xE6\x9C\xAC\xE5\x9B\xBD\xE6\x94\xBF\xE5\xBA\x9C/OU=\xE8\xAD\xA6\xE5\xAF\x9F\xE5\xBA\x81/OU=\xE8\xAD\xA6\xE5\xAF\x9F\xE5\xBA\x81\xE9\x81\x8B\xE8\xBB\xA2\xE5\x85\x8D\xE8\xA8\xB1\xE8\xA8\xBC\xE8\xAA\x8D\xE8\xA8\xBC\xE5\xB1\x80
            X509v3 CRL Distribution Points: 
                Full Name:
                  DirName:C = JP, O = Japanese Government, OU = National Police Agency, OU = Prefectural Public Safety Commissions for ICDL
    Signature Algorithm: sha256WithRSAEncryption
    Signature Value:
        22:95:a0:c6:7a:2d:16:a5:02:69:5d:61:b2:71:9b:12:d9:70:
        88:dd:fc:fb:8a:d3:e3:03:c4:17:9e:fc:b5:3d:46:b7:a3:29:
        b9:ff:06:21:85:9d:17:86:05:7f:06:52:ee:fc:94:31:2e:62:
        6d:11:fd:de:2b:e7:33:02:d4:0f:0d:94:d8:5d:a5:ec:e6:27:
        13:d3:59:b5:95:45:4d:f7:9b:17:54:12:45:a2:4b:8b:f4:70:
        3b:72:6b:49:28:b4:e9:c6:5d:84:7e:47:0a:dd:ce:41:05:4d:
        34:5f:f4:e7:da:2f:a2:c8:04:df:c5:8f:97:78:12:9a:f7:cc:
        3b:1d:0d:87:bb:3f:32:ba:2d:e3:dc:8a:52:f1:16:0a:c5:13:
        ee:3c:a3:e3:ce:fe:e3:23:33:70:28:f2:63:96:51:61:f4:d9:
        b2:b0:05:1a:76:74:b1:b3:b5:72:61:95:85:bb:04:59:77:47:
        6b:a4:86:55:6d:d6:42:59:7f:a6:da:b0:fe:7e:59:53:63:b9:
        fa:90:ad:aa:da:b3:42:ce:28:b1:14:93:0b:1a:d3:d8:43:e8:
        b9:32:62:ec:f8:80:82:e1:2b:31:24:8e:3d:c0:94:17:07:59:
        63:85:4a:b6:07:cd:86:d3:8f:2f:4a:73:83:b9:df:af:29:01:
        25:e7:c2:21
-----BEGIN CERTIFICATE-----
MIIGRTCCBS2gAwIBAgIIMzAwMDAxMDYwDQYJKoZIhvcNAQELBQAwZzELMAkGA1UE
BhMCSlAxHDAaBgNVBAoME0phcGFuZXNlIEdvdmVybm1lbnQxHzAdBgNVBAsMFk5h
dGlvbmFsIFBvbGljZSBBZ2VuY3kxGTAXBgNVBAsMEE5QQSBJQ0RMIFJvb3QgQ0Ew
HhcNMjQwOTE3MDcyNDExWhcNMjkwOTE2MTQ1OTU5WjCBmTELMAkGA1UEBhMCSlAx
HDAaBgNVBAoME0phcGFuZXNlIEdvdmVybm1lbnQxHzAdBgNVBAsMFk5hdGlvbmFs
IFBvbGljZSBBZ2VuY3kxNzA1BgNVBAsMLlByZWZlY3R1cmFsIFB1YmxpYyBTYWZl
dHkgQ29tbWlzc2lvbnMgZm9yIElDREwxEjAQBgNVBAMMCUdpZnUgUFBTQzCCASIw
DQYJKoZIhvcNAQEBBQADggEPADCCAQoCggEBALe7KabF+UJhK8VuHySiwzB57jKl
4EWzzyyUoZ+aaH59Fey8OSrrMjckLYKXszXa1AgDfkAczTatSq553q20pRnyTVSN
uyJhDE+139Iqk0ohXrdorRQXiowMSHXVZUr3Br0YsVSgSlzgDPyNyAutjUNiLetT
s+bMTOSNX03CHEZobcOZM9KEkwND5repMLT0jJ7RveYndvlPRMqmPHnK6nNgWpVx
a+BHf/0ezjMow0sdCT6lkzgsodd/ZtVRzX7Wq4kCR5QJszvdgRvU4EZV4Yzqg1vj
eqQXpfDCje6FrVlyzEbOM4ovBA3AlTyPPql1zXl5mIJloJVIBb5Fp1cA1T0CAwEA
AaOCAsAwggK8MIGYBgNVHSMEgZAwgY2AFBHNjmBER1dPT8vp58uhRt+6DlCLoWuk
aTBnMQswCQYDVQQGEwJKUDEcMBoGA1UECgwTSmFwYW5lc2UgR292ZXJubWVudDEf
MB0GA1UECwwWTmF0aW9uYWwgUG9saWNlIEFnZW5jeTEZMBcGA1UECwwQTlBBIElD
REwgUm9vdCBDQYIIMjAwMDAwMTYwHQYDVR0OBBYEFBFSKeVt2GPJgzW/HPsmR2+v
H+rAMA4GA1UdDwEB/wQEAwIGwDBABgNVHSABAf8ENjA0MDIGCyqDCIaOGAcFAQEK
MCMwIQYIKwYBBQUHAgEWFWh0dHA6Ly93d3cubnBhLmdvLmpwLzCBlQYDVR0RBIGN
MIGKpIGHMIGEMQswCQYDVQQGEwJKUDEYMBYGA1UECgwP5pel5pys5Zu95pS/5bqc
MRIwEAYDVQQLDAnorablr5/luoExJDAiBgNVBAsMG+mDvemBk+W6nOecjOWFrOWu
ieWnlOWToeS8mjEhMB8GA1UEAwwY5bKQ6Zic55yM5YWs5a6J5aeU5ZOh5LyaMHQG
A1UdEgRtMGukaTBnMQswCQYDVQQGEwJKUDEYMBYGA1UECgwP5pel5pys5Zu95pS/
5bqcMRIwEAYDVQQLDAnorablr5/luoExKjAoBgNVBAsMIeitpuWvn+W6gemBi+i7
ouWFjeioseiovOiqjeiovOWxgDCBnwYDVR0fBIGXMIGUMIGRoIGOoIGLpIGIMIGF
MQswCQYDVQQGEwJKUDEcMBoGA1UECgwTSmFwYW5lc2UgR292ZXJubWVudDEfMB0G
A1UECwwWTmF0aW9uYWwgUG9saWNlIEFnZW5jeTE3MDUGA1UECwwuUHJlZmVjdHVy
YWwgUHVibGljIFNhZmV0eSBDb21taXNzaW9ucyBmb3IgSUNETDANBgkqhkiG9w0B
AQsFAAOCAQEAIpWgxnotFqUCaV1hsnGbEtlwiN38+4rT4wPEF578tT1Gt6Mpuf8G
IYWdF4YFfwZS7vyUMS5ibRH93ivnMwLUDw2U2F2l7OYnE9NZtZVFTfebF1QSRaJL
i/RwO3JrSSi06cZdhH5HCt3OQQVNNF/059ovosgE38WPl3gSmvfMOx0Nh7s/Mrot
49yKUvEWCsUT7jyj487+4yMzcCjyY5ZRYfTZsrAFGnZ0sbO1cmGVhbsEWXdHa6SG
VW3WQll/ptqw/n5ZU2O5+pCtqtqzQs4osRSTCxrT2EPouTJi7PiAguErMSSOPcCU
FwdZY4VKtgfNhtOPL0pzg7nfrykBJefCIQ==
-----END CERTIFICATE-----
