Certificate:
    Data:
        Version: 3 (0x2)
        Serial Number:
            33:30:30:30:30:30:33:31:2c:88:31:cf:eb:a7:c8:f2:43:fb
        Signature Algorithm: sha256WithRSAEncryption
        Issuer: C=JP, O=Japanese Government, OU=National Police Agency, OU=NPA ICDL Root CA
        Validity
            Not Before: Jun 19 05:53:43 2023 GMT
            Not After : Jun 18 14:59:59 2028 GMT
        Subject: C=JP, O=Japanese Government, OU=National Police Agency, OU=Prefectural Public Safety Commissions for ICDL, CN=Gifu AltPPSC
        Subject Public Key Info:
            Public Key Algorithm: rsaEncryption
                Public-Key: (2048 bit)
                Modulus:
                    00:9b:1e:31:f1:3f:0e:75:e3:9f:89:1a:70:cc:d0:
                    b6:69:ae:5d:90:09:75:bf:c1:8b:08:10:43:14:ce:
                    d0:58:e6:7d:4c:6d:8a:9a:1e:79:02:04:bd:38:a3:
                    a3:3a:96:f7:1c:b4:cd:01:de:d7:a2:8e:82:57:e2:
                    04:d1:62:a8:f7:ff:fc:d7:fe:ce:7e:eb:ff:44:90:
                    a2:03:c4:94:ae:5a:49:f8:1c:40:12:e5:96:fe:2b:
                    88:ce:05:8f:94:a7:60:7a:68:44:a5:af:fe:13:3a:
                    77:9a:5f:60:58:3f:f5:77:26:68:98:02:ff:d7:0a:
                    3e:c8:d7:33:b0:62:4d:ff:3d:f8:b0:b2:f0:44:85:
                    f2:51:36:49:b2:f2:2d:c1:f4:a1:3c:90:f3:71:73:
                    73:f3:48:92:70:27:ba:e2:04:be:7e:4e:3d:0d:b3:
                    43:0f:26:8c:7a:94:09:ae:4d:f0:2a:64:6a:0a:79:
                    91:d5:a3:02:bc:21:cb:1b:b9:82:f2:b7:90:b1:18:
                    44:ff:8b:28:c9:c9:83:0f:27:8c:23:0c:ea:55:6c:
                    08:40:9a:0f:9c:e6:1a:ec:f1:55:58:e4:76:09:54:
                    ed:0d:ae:8c:88:a4:7c:58:c9:4f:b1:40:e7:31:04:
                    96:8a:1f:58:03:f0:31:01:9d:21:bd:7e:48:8b:f6:
                    68:f1
                Exponent: 65537 (0x10001)
        X509v3 extensions:
            X509v3 Authority Key Identifier: 
                keyid:11:CD:8E:60:44:47:57:4F:4F:CB:E9:E7:CB:A1:46:DF:BA:0E:50:8B
                DirName:/C=JP/O=Japanese Government/OU=National Police Agency/OU=NPA ICDL Root CA
                serial:32:30:30:30:30:30:31:36
            X509v3 Subject Key Identifier: 
                5A:7C:BC:43:A8:6B:F8:FB:79:58:E0:D7:5F:4C:EA:60:64:E8:92:5B
            X509v3 Key Usage: critical
                Digital Signature, Non Repudiation
            X509v3 Certificate Policies: critical
                Policy: 1.2.392.100120.7.5.1.1.10
                  CPS: http://www.npa.go.jp/
            X509v3 Issuer Alternative Name: 
                DirName:/C=JP/O=\xE6\x97\xA5\xE6\x9C\xAC\xE5\x9B\xBD\xE6\x94\xBF\xE5\xBA\x9C/OU=\xE8\xAD\xA6\xE5\xAF\x9F\xE5\xBA\x81/OU=\xE8\xAD\xA6\xE5\xAF\x9F\xE5\xBA\x81\xE9\x81\x8B\xE8\xBB\xA2\xE5\x85\x8D\xE8\xA8\xB1\xE8\xA8\xBC\xE8\xAA\x8D\xE8\xA8\xBC\xE5\xB1\x80
            X509v3 CRL Distribution Points: 
                Full Name:
                  DirName:C = JP, O = Japanese Government, OU = National Police Agency, OU = Prefectural Public Safety Commissions for ICDL
    Signature Algorithm: sha256WithRSAEncryption
    Signature Value:
        40:0e:51:19:76:81:45:7e:13:37:af:db:6a:78:3b:d4:9a:71:
        8b:87:0f:e6:1a:72:00:72:cc:c2:67:e9:ca:0a:16:fc:78:5a:
        28:af:6e:f5:58:d0:79:76:bd:12:e9:95:c8:39:15:7d:c0:2d:
        fc:e1:98:4b:89:40:a8:68:91:de:e7:0a:b7:04:2a:b0:22:2a:
        0e:db:32:9c:b9:53:d1:f2:55:95:2b:d5:60:d7:23:e8:d5:6e:
        5c:88:d8:46:ac:74:55:ee:6b:72:a4:4b:e2:21:0b:5b:1c:2d:
        b1:0e:01:f7:cc:fb:95:c3:4a:f8:62:d1:66:ad:87:4b:3a:7e:
        97:49:10:91:44:d8:2a:c5:fd:50:7e:c4:b3:80:62:4f:8e:64:
        3c:c1:ca:d6:43:84:b0:5d:03:42:fb:8e:1b:f5:3a:2a:85:9c:
        fa:39:2c:24:aa:12:30:43:4e:1b:b7:3d:05:d0:65:fc:e5:72:
        f3:fa:65:94:75:5f:07:43:dc:92:7a:1a:9c:d5:8d:2d:1a:60:
        e2:41:62:c8:83:f4:89:13:6b:27:9e:34:f1:a1:b4:10:42:a3:
        ea:77:41:53:a2:93:07:bd:41:19:cf:94:cf:37:af:ba:f3:d2:
        7b:b9:57:8b:4d:21:c2:d4:bc:ae:af:4a:e8:3f:fe:a0:d6:13:
        0d:a1:f5:d6
-----BEGIN CERTIFICATE-----
MIIFujCCBKKgAwIBAgISMzAwMDAwMzEsiDHP66fI8kP7MA0GCSqGSIb3DQEBCwUA
MGcxCzAJBgNVBAYTAkpQMRwwGgYDVQQKDBNKYXBhbmVzZSBHb3Zlcm5tZW50MR8w
HQYDVQQLDBZOYXRpb25hbCBQb2xpY2UgQWdlbmN5MRkwFwYDVQQLDBBOUEEgSUNE
TCBSb290IENBMB4XDTIzMDYxOTA1NTM0M1oXDTI4MDYxODE0NTk1OVowgZwxCzAJ
BgNVBAYTAkpQMRwwGgYDVQQKDBNKYXBhbmVzZSBHb3Zlcm5tZW50MR8wHQYDVQQL
DBZOYXRpb25hbCBQb2xpY2UgQWdlbmN5MTcwNQYDVQQLDC5QcmVmZWN0dXJhbCBQ
dWJsaWMgU2FmZXR5IENvbW1pc3Npb25zIGZvciBJQ0RMMRUwEwYDVQQDDAxHaWZ1
IEFsdFBQU0MwggEiMA0GCSqGSIb3DQEBAQUAA4IBDwAwggEKAoIBAQCbHjHxPw51
45+JGnDM0LZprl2QCXW/wYsIEEMUztBY5n1MbYqaHnkCBL04o6M6lvcctM0B3tei
joJX4gTRYqj3//zX/s5+6/9EkKIDxJSuWkn4HEAS5Zb+K4jOBY+Up2B6aESlr/4T
OneaX2BYP/V3JmiYAv/XCj7I1zOwYk3/PfiwsvBEhfJRNkmy8i3B9KE8kPNxc3Pz
SJJwJ7riBL5+Tj0Ns0MPJox6lAmuTfAqZGoKeZHVowK8IcsbuYLyt5CxGET/iyjJ
yYMPJ4wjDOpVbAhAmg+c5hrs8VVY5HYJVO0NroyIpHxYyU+xQOcxBJaKH1gD8DEB
nSG9fkiL9mjxAgMBAAGjggIoMIICJDCBmAYDVR0jBIGQMIGNgBQRzY5gREdXT0/L
6efLoUbfug5Qi6FrpGkwZzELMAkGA1UEBhMCSlAxHDAaBgNVBAoME0phcGFuZXNl
IEdvdmVybm1lbnQxHzAdBgNVBAsMFk5hdGlvbmFsIFBvbGljZSBBZ2VuY3kxGTAX
BgNVBAsMEE5QQSBJQ0RMIFJvb3QgQ0GCCDIwMDAwMDE2MB0GA1UdDgQWBBRafLxD
qGv4+3lY4NdfTOpgZOiSWzAOBgNVHQ8BAf8EBAMCBsAwQAYDVR0gAQH/BDYwNDAy
BgsqgwiGjhgHBQEBCjAjMCEGCCsGAQUFBwIBFhVodHRwOi8vd3d3Lm5wYS5nby5q
cC8wdAYDVR0SBG0wa6RpMGcxCzAJBgNVBAYTAkpQMRgwFgYDVQQKDA/ml6XmnKzl
m73mlL/lupwxEjAQBgNVBAsMCeitpuWvn+W6gTEqMCgGA1UECwwh6K2m5a+f5bqB
6YGL6Lui5YWN6Kix6Ki86KqN6Ki85bGAMIGfBgNVHR8EgZcwgZQwgZGggY6ggYuk
gYgwgYUxCzAJBgNVBAYTAkpQMRwwGgYDVQQKDBNKYXBhbmVzZSBHb3Zlcm5tZW50
MR8wHQYDVQQLDBZOYXRpb25hbCBQb2xpY2UgQWdlbmN5MTcwNQYDVQQLDC5QcmVm
ZWN0dXJhbCBQdWJsaWMgU2FmZXR5IENvbW1pc3Npb25zIGZvciBJQ0RMMA0GCSqG
SIb3DQEBCwUAA4IBAQBADlEZdoFFfhM3r9tqeDvUmnGLhw/mGnIAcszCZ+nKChb8
eFoor271WNB5dr0S6ZXIORV9wC384ZhLiUCoaJHe5wq3BCqwIioO2zKcuVPR8lWV
K9Vg1yPo1W5ciNhGrHRV7mtypEviIQtbHC2xDgH3zPuVw0r4YtFmrYdLOn6XSRCR
RNgqxf1QfsSzgGJPjmQ8wcrWQ4SwXQNC+44b9ToqhZz6OSwkqhIwQ04btz0F0GX8
5XLz+mWUdV8HQ9ySehqc1Y0tGmDiQWLIg/SJE2snnjTxobQQQqPqd0FTopMHvUEZ
z5TPN6+689J7uVeLTSHC1Lyur0roP/6g1hMNofXW
-----END CERTIFICATE-----
