Certificate:
    Data:
        Version: 3 (0x2)
        Serial Number:
            32:30:30:30:30:30:35:38
        Signature Algorithm: sha256WithRSAEncryption
        Issuer: C=JP, O=Japanese Government, OU=National Police Agency, OU=NPA ICDL Root CA
        Validity
            Not Before: Feb  6 02:24:26 2023 GMT
            Not After : Feb  5 14:59:59 2028 GMT
        Subject: C=JP, O=Japanese Government, OU=National Police Agency, OU=Prefectural Public Safety Commissions for ICDL, CN=Gifu PPSC
        Subject Public Key Info:
            Public Key Algorithm: rsaEncryption
                Public-Key: (2048 bit)
                Modulus:
                    00:9c:0d:e3:22:e5:a8:d6:aa:1a:fa:34:17:12:92:
                    0c:52:68:ca:3a:ac:3a:39:c3:8d:6c:89:04:ab:ab:
                    5a:f4:73:1a:7f:d9:91:96:dd:36:ec:5b:09:6e:59:
                    5d:03:1e:c8:b7:d0:f9:41:a0:eb:6c:4e:50:92:0d:
                    d1:4a:2f:59:5e:f4:a7:09:69:15:75:73:51:35:c9:
                    7a:5b:91:f8:e4:ac:4a:8a:83:54:8f:c6:4e:ee:bd:
                    ff:c8:16:d5:40:6d:99:fc:32:93:e7:2c:27:b8:13:
                    05:2a:f2:28:9f:5e:50:8d:c3:7f:51:f8:8b:b9:85:
                    23:9a:21:ef:b1:92:3b:a0:b4:56:4b:8a:43:76:a2:
                    f5:23:94:fd:4e:2c:0b:e0:5d:a9:c8:f1:63:3f:cb:
                    e9:9a:a0:40:99:a8:b3:19:a0:dd:11:8e:f0:ef:c8:
                    b0:a1:68:d1:4c:ec:cf:e1:28:e7:02:68:0c:01:02:
                    00:bd:90:c5:e0:a4:54:9d:e7:ca:4d:02:4d:ff:18:
                    ea:8d:d9:62:7d:e9:13:f1:0d:2d:c9:79:d9:49:cb:
                    39:39:0e:f5:f0:95:bc:47:38:3b:1e:75:ca:70:0f:
                    bc:f1:0c:cc:0e:a7:ee:91:ef:5d:3a:15:5f:61:a5:
                    5c:aa:8e:ab:96:d9:cf:6a:18:17:d4:8c:e6:14:f3:
                    58:57
                Exponent: 65537 (0x10001)
        X509v3 extensions:
            X509v3 Authority Key Identifier: 
                keyid:11:CD:8E:60:44:47:57:4F:4F:CB:E9:E7:CB:A1:46:DF:BA:0E:50:8B
                DirName:/C=JP/O=Japanese Government/OU=National Police Agency/OU=NPA ICDL Root CA
                serial:32:30:30:30:30:30:31:36
            X509v3 Subject Key Identifier: 
                8B:2B:AE:20:41:E1:42:FA:46:8F:41:49:12:EF:FC:43:DE:57:3E:C3
            X509v3 Key Usage: critical
                Digital Signature, Non Repudiation
            X509v3 Certificate Policies: critical
                Policy: 1.2.392.100120.7.5.1.1.10
                  CPS: http://www.npa.go.jp/
            X509v3 Subject Alternative Name: 
                DirName:/C=JP/O=\xE6\x97\xA5\xE6\x9C\xAC\xE5\x9B\xBD\xE6\x94\xBF\xE5\xBA\x9C/OU=\xE8\xAD\xA6\xE5\xAF\x9F\xE5\xBA\x81/OU=\xE9\x83\xBD\xE9\x81\x93\xE5\xBA\x9C\xE7\x9C\x8C\xE5\x85\xAC\xE5\xAE\x89\xE5\xA7\x94\xE5\x93\xA1\xE4\xBC\x9A
            X509v3 Issuer Alternative Name: 
                DirName:/C=JP/O=\xE6\x97\xA5\xE6\x9C\xAC\xE5\x9B\xBD\xE6\x94\xBF\xE5\xBA\x9C/OU=\xE8\xAD\xA6\xE5\xAF\x9F\xE5\xBA\x81/OU=\xE8\xAD\xA6\xE5\xAF\x9F\xE5\xBA\x81\xE9\x81\x8B\xE8\xBB\xA2\xE5\x85\x8D\xE8\xA8\xB1\xE8\xA8\xBC\xE8\xAA\x8D\xE8\xA8\xBC\xE5\xB1\x80
            X509v3 CRL Distribution Points: 
                Full Name:
                  DirName:C = JP, O = Japanese Government, OU = National Police Agency, OU = Prefectural Public Safety Commissions for ICDL
    Signature Algorithm: sha256WithRSAEncryption
    Signature Value:
        17:98:c6:0f:e3:6f:ec:5a:d3:5b:88:40:ae:6e:e2:31:3a:78:
        94:2a:73:a6:4e:e1:58:20:e5:2c:e8:25:ae:6f:96:55:67:cc:
        63:f4:89:39:56:92:29:b3:27:4b:52:0e:8c:20:07:da:09:02:
        30:4d:74:b7:da:de:98:97:23:8b:4b:1c:91:d1:b8:ea:ba:73:
        69:a0:00:31:e2:88:ea:f6:79:1d:e1:c0:e1:37:09:f0:1c:b5:
        3f:3a:4d:7a:31:7f:2a:1b:9d:08:4d:cf:b7:56:68:a8:0c:76:
        13:1a:6d:20:d7:59:1d:f9:db:20:f8:d6:12:a6:26:38:fb:84:
        57:2f:22:23:f3:d8:e5:57:4e:09:76:09:3c:d8:42:59:0e:61:
        3e:49:6d:6b:4e:3c:7e:5a:95:26:bc:22:f6:23:44:2d:c5:40:
        8d:a4:15:c3:48:15:34:b6:b3:7e:67:2c:2a:25:30:c8:34:b8:
        ff:a6:64:e0:fa:6b:06:97:06:6d:5c:7c:84:ff:5d:aa:31:fa:
        0f:5b:71:ae:62:94:43:88:40:f9:43:ac:71:55:f0:df:e4:6c:
        69:07:70:ad:c2:45:9a:35:a1:d5:ad:09:32:e1:00:02:c2:3f:
        ef:f5:9e:96:80:fa:05:d2:6f:08:5a:04:0c:55:5d:23:9c:be:
        44:b8:05:a1
-----BEGIN CERTIFICATE-----
MIIGRTCCBS2gAwIBAgIIMjAwMDAwNTgwDQYJKoZIhvcNAQELBQAwZzELMAkGA1UE
BhMCSlAxHDAaBgNVBAoME0phcGFuZXNlIEdvdmVybm1lbnQxHzAdBgNVBAsMFk5h
dGlvbmFsIFBvbGljZSBBZ2VuY3kxGTAXBgNVBAsMEE5QQSBJQ0RMIFJvb3QgQ0Ew
HhcNMjMwMjA2MDIyNDI2WhcNMjgwMjA1MTQ1OTU5WjCBmTELMAkGA1UEBhMCSlAx
HDAaBgNVBAoME0phcGFuZXNlIEdvdmVybm1lbnQxHzAdBgNVBAsMFk5hdGlvbmFs
IFBvbGljZSBBZ2VuY3kxNzA1BgNVBAsMLlByZWZlY3R1cmFsIFB1YmxpYyBTYWZl
dHkgQ29tbWlzc2lvbnMgZm9yIElDREwxEjAQBgNVBAMMCUdpZnUgUFBTQzCCASIw
DQYJKoZIhvcNAQEBBQADggEPADCCAQoCggEBAJwN4yLlqNaqGvo0FxKSDFJoyjqs
OjnDjWyJBKurWvRzGn/ZkZbdNuxbCW5ZXQMeyLfQ+UGg62xOUJIN0UovWV70pwlp
FXVzUTXJeluR+OSsSoqDVI/GTu69/8gW1UBtmfwyk+csJ7gTBSryKJ9eUI3Df1H4
i7mFI5oh77GSO6C0VkuKQ3ai9SOU/U4sC+BdqcjxYz/L6ZqgQJmosxmg3RGO8O/I
sKFo0Uzsz+Eo5wJoDAECAL2QxeCkVJ3nyk0CTf8Y6o3ZYn3pE/ENLcl52UnLOTkO
9fCVvEc4Ox51ynAPvPEMzA6n7pHvXToVX2GlXKqOq5bZz2oYF9SM5hTzWFcCAwEA
AaOCAsAwggK8MIGYBgNVHSMEgZAwgY2AFBHNjmBER1dPT8vp58uhRt+6DlCLoWuk
aTBnMQswCQYDVQQGEwJKUDEcMBoGA1UECgwTSmFwYW5lc2UgR292ZXJubWVudDEf
MB0GA1UECwwWTmF0aW9uYWwgUG9saWNlIEFnZW5jeTEZMBcGA1UECwwQTlBBIElD
REwgUm9vdCBDQYIIMjAwMDAwMTYwHQYDVR0OBBYEFIsrriBB4UL6Ro9BSRLv/EPe
Vz7DMA4GA1UdDwEB/wQEAwIGwDBABgNVHSABAf8ENjA0MDIGCyqDCIaOGAcFAQEK
MCMwIQYIKwYBBQUHAgEWFWh0dHA6Ly93d3cubnBhLmdvLmpwLzCBlQYDVR0RBIGN
MIGKpIGHMIGEMQswCQYDVQQGEwJKUDEYMBYGA1UECgwP5pel5pys5Zu95pS/5bqc
MRIwEAYDVQQLDAnorablr5/luoExJDAiBgNVBAsMG+mDvemBk+W6nOecjOWFrOWu
ieWnlOWToeS8mjEhMB8GA1UEAwwY5bKQ6Zic55yM5YWs5a6J5aeU5ZOh5LyaMHQG
A1UdEgRtMGukaTBnMQswCQYDVQQGEwJKUDEYMBYGA1UECgwP5pel5pys5Zu95pS/
5bqcMRIwEAYDVQQLDAnorablr5/luoExKjAoBgNVBAsMIeitpuWvn+W6gemBi+i7
ouWFjeioseiovOiqjeiovOWxgDCBnwYDVR0fBIGXMIGUMIGRoIGOoIGLpIGIMIGF
MQswCQYDVQQGEwJKUDEcMBoGA1UECgwTSmFwYW5lc2UgR292ZXJubWVudDEfMB0G
A1UECwwWTmF0aW9uYWwgUG9saWNlIEFnZW5jeTE3MDUGA1UECwwuUHJlZmVjdHVy
YWwgUHVibGljIFNhZmV0eSBDb21taXNzaW9ucyBmb3IgSUNETDANBgkqhkiG9w0B
AQsFAAOCAQEAF5jGD+Nv7FrTW4hArm7iMTp4lCpzpk7hWCDlLOglrm+WVWfMY/SJ
OVaSKbMnS1IOjCAH2gkCME10t9remJcji0sckdG46rpzaaAAMeKI6vZ5HeHA4TcJ
8By1PzpNejF/KhudCE3Pt1ZoqAx2ExptINdZHfnbIPjWEqYmOPuEVy8iI/PY5VdO
CXYJPNhCWQ5hPklta048flqVJrwi9iNELcVAjaQVw0gVNLazfmcsKiUwyDS4/6Zk
4PprBpcGbVx8hP9dqjH6D1txrmKUQ4hA+UOscVXw3+RsaQdwrcJFmjWh1a0JMuEA
AsI/7/WeloD6BdJvCFoEDFVdI5y+RLgFoQ==
-----END CERTIFICATE-----
