Certificate:
    Data:
        Version: 3 (0x2)
        Serial Number:
            32:30:30:30:30:30:33:31
        Signature Algorithm: sha256WithRSAEncryption
        Issuer: C=JP, O=Japanese Government, OU=National Police Agency, OU=NPA ICDL Root CA
        Validity
            Not Before: Dec 14 02:08:11 2022 GMT
            Not After : Dec 13 14:59:59 2027 GMT
        Subject: C=JP, O=Japanese Government, OU=National Police Agency, OU=Prefectural Public Safety Commissions for ICDL, CN=Gunma PPSC
        Subject Public Key Info:
            Public Key Algorithm: rsaEncryption
                Public-Key: (2048 bit)
                Modulus:
                    00:cd:c5:d7:37:4e:3f:99:2d:8f:55:bf:7c:23:58:
                    9d:ec:05:f9:5d:de:50:cb:8a:b4:31:42:3d:fe:f8:
                    82:31:c9:80:b4:aa:83:ea:68:3e:a3:0a:e1:b5:f6:
                    9b:19:ab:a7:29:69:7f:9f:57:25:86:de:06:54:85:
                    df:39:cc:43:c1:b9:2c:91:c9:03:04:b3:f4:53:f8:
                    44:8a:03:00:9b:99:a5:97:b2:39:48:66:cd:c2:5f:
                    e6:26:49:2b:40:c3:2e:2b:74:8e:a8:e8:81:67:0b:
                    3c:a6:06:d0:6f:54:13:cd:ae:55:29:37:2d:e2:3b:
                    98:77:50:36:82:b0:f4:1d:4c:b8:9d:7d:07:0d:f7:
                    46:c3:ad:bb:37:9e:2b:b6:e1:f4:48:93:b6:ad:a7:
                    ab:4c:68:36:8f:b5:dd:f5:88:f6:90:be:62:a4:d4:
                    15:9b:9e:32:fe:96:09:89:b6:0b:55:7e:a9:4d:e1:
                    63:b4:71:ad:2f:7c:f0:42:e7:e3:cb:8f:aa:5c:06:
                    79:a7:15:55:fb:fd:5b:30:3c:0a:da:01:eb:82:31:
                    8b:7e:17:61:23:b9:bc:4d:37:09:49:d2:07:99:a2:
                    ed:e0:72:7f:26:30:03:d2:f9:75:fe:be:0a:86:a8:
                    09:35:19:04:ef:8c:56:67:36:9b:1f:29:10:38:53:
                    d9:bf
                Exponent: 65537 (0x10001)
        X509v3 extensions:
            X509v3 Authority Key Identifier: 
                keyid:11:CD:8E:60:44:47:57:4F:4F:CB:E9:E7:CB:A1:46:DF:BA:0E:50:8B
                DirName:/C=JP/O=Japanese Government/OU=National Police Agency/OU=NPA ICDL Root CA
                serial:32:30:30:30:30:30:31:36
            X509v3 Subject Key Identifier: 
                90:4F:B1:11:E9:4F:B0:A8:C6:5B:1E:8E:3B:54:9A:E2:28:35:6E:6E
            X509v3 Key Usage: critical
                Digital Signature, Non Repudiation
            X509v3 Certificate Policies: critical
                Policy: 1.2.392.100120.7.5.1.1.10
                  CPS: http://www.npa.go.jp/
            X509v3 Subject Alternative Name: 
                DirName:/C=JP/O=\xE6\x97\xA5\xE6\x9C\xAC\xE5\x9B\xBD\xE6\x94\xBF\xE5\xBA\x9C/OU=\xE8\xAD\xA6\xE5\xAF\x9F\xE5\xBA\x81/OU=\xE9\x83\xBD\xE9\x81\x93\xE5\xBA\x9C\xE7\x9C\x8C\xE5\x85\xAC\xE5\xAE\x89\xE5\xA7\x94\xE5\x93\xA1\xE4\xBC\x9A
            X509v3 Issuer Alternative Name: 
                DirName:/C=JP/O=\xE6\x97\xA5\xE6\x9C\xAC\xE5\x9B\xBD\xE6\x94\xBF\xE5\xBA\x9C/OU=\xE8\xAD\xA6\xE5\xAF\x9F\xE5\xBA\x81/OU=\xE8\xAD\xA6\xE5\xAF\x9F\xE5\xBA\x81\xE9\x81\x8B\xE8\xBB\xA2\xE5\x85\x8D\xE8\xA8\xB1\xE8\xA8\xBC\xE8\xAA\x8D\xE8\xA8\xBC\xE5\xB1\x80
            X509v3 CRL Distribution Points: 
                Full Name:
                  DirName:C = JP, O = Japanese Government, OU = National Police Agency, OU = Prefectural Public Safety Commissions for ICDL
    Signature Algorithm: sha256WithRSAEncryption
    Signature Value:
        53:20:77:5b:64:32:0f:79:ef:6b:f6:3d:81:cb:b2:9d:90:9b:
        75:ba:f4:6c:2c:44:63:63:00:1c:ea:9a:08:6c:96:5a:af:12:
        fd:4d:1d:6e:8f:6b:39:b1:a4:4f:bc:56:2e:db:17:dc:de:e9:
        b3:f9:23:b6:d2:b7:28:a2:1c:2b:45:ef:cf:b9:05:f1:8f:c2:
        03:27:c1:27:1d:8c:89:65:e4:c6:20:48:b5:d9:87:c2:fa:6a:
        ca:24:02:81:e5:36:65:20:d4:c9:81:b0:85:da:3f:69:cd:6c:
        27:b5:df:e4:08:a6:ea:d8:53:42:5a:d6:0a:4e:7c:d0:27:42:
        c3:e7:28:ec:46:b6:f5:e3:42:78:41:c7:ad:68:50:4d:63:fe:
        d0:f2:90:c5:95:aa:cc:56:d6:af:bf:f3:96:c9:20:58:a7:42:
        a0:da:72:db:8a:aa:ed:65:19:7f:ec:48:df:41:98:99:ef:6c:
        6f:5d:cb:13:d6:1c:0e:2d:c9:43:a2:28:2e:5c:0c:db:00:a1:
        f0:fc:7e:56:01:b5:aa:86:5f:02:41:87:00:06:a8:3e:32:58:
        f2:ee:1f:34:1f:25:c4:59:2c:9c:19:ae:25:8d:b0:fc:ae:0c:
        19:b0:48:a9:9c:b5:b5:b5:41:66:eb:b7:07:18:6e:76:a1:0f:
        b0:c5:42:d0
-----BEGIN CERTIFICATE-----
MIIGRjCCBS6gAwIBAgIIMjAwMDAwMzEwDQYJKoZIhvcNAQELBQAwZzELMAkGA1UE
BhMCSlAxHDAaBgNVBAoME0phcGFuZXNlIEdvdmVybm1lbnQxHzAdBgNVBAsMFk5h
dGlvbmFsIFBvbGljZSBBZ2VuY3kxGTAXBgNVBAsMEE5QQSBJQ0RMIFJvb3QgQ0Ew
HhcNMjIxMjE0MDIwODExWhcNMjcxMjEzMTQ1OTU5WjCBmjELMAkGA1UEBhMCSlAx
HDAaBgNVBAoME0phcGFuZXNlIEdvdmVybm1lbnQxHzAdBgNVBAsMFk5hdGlvbmFs
IFBvbGljZSBBZ2VuY3kxNzA1BgNVBAsMLlByZWZlY3R1cmFsIFB1YmxpYyBTYWZl
dHkgQ29tbWlzc2lvbnMgZm9yIElDREwxEzARBgNVBAMMCkd1bm1hIFBQU0MwggEi
MA0GCSqGSIb3DQEBAQUAA4IBDwAwggEKAoIBAQDNxdc3Tj+ZLY9Vv3wjWJ3sBfld
3lDLirQxQj3++IIxyYC0qoPqaD6jCuG19psZq6cpaX+fVyWG3gZUhd85zEPBuSyR
yQMEs/RT+ESKAwCbmaWXsjlIZs3CX+YmSStAwy4rdI6o6IFnCzymBtBvVBPNrlUp
Ny3iO5h3UDaCsPQdTLidfQcN90bDrbs3niu24fRIk7atp6tMaDaPtd31iPaQvmKk
1BWbnjL+lgmJtgtVfqlN4WO0ca0vfPBC5+PLj6pcBnmnFVX7/VswPAraAeuCMYt+
F2EjubxNNwlJ0geZou3gcn8mMAPS+XX+vgqGqAk1GQTvjFZnNpsfKRA4U9m/AgMB
AAGjggLAMIICvDCBmAYDVR0jBIGQMIGNgBQRzY5gREdXT0/L6efLoUbfug5Qi6Fr
pGkwZzELMAkGA1UEBhMCSlAxHDAaBgNVBAoME0phcGFuZXNlIEdvdmVybm1lbnQx
HzAdBgNVBAsMFk5hdGlvbmFsIFBvbGljZSBBZ2VuY3kxGTAXBgNVBAsMEE5QQSBJ
Q0RMIFJvb3QgQ0GCCDIwMDAwMDE2MB0GA1UdDgQWBBSQT7ER6U+wqMZbHo47VJri
KDVubjAOBgNVHQ8BAf8EBAMCBsAwQAYDVR0gAQH/BDYwNDAyBgsqgwiGjhgHBQEB
CjAjMCEGCCsGAQUFBwIBFhVodHRwOi8vd3d3Lm5wYS5nby5qcC8wgZUGA1UdEQSB
jTCBiqSBhzCBhDELMAkGA1UEBhMCSlAxGDAWBgNVBAoMD+aXpeacrOWbveaUv+W6
nDESMBAGA1UECwwJ6K2m5a+f5bqBMSQwIgYDVQQLDBvpg73pgZPlupznnIzlhazl
ronlp5Tlk6HkvJoxITAfBgNVBAMMGOe+pOmmrOecjOWFrOWuieWnlOWToeS8mjB0
BgNVHRIEbTBrpGkwZzELMAkGA1UEBhMCSlAxGDAWBgNVBAoMD+aXpeacrOWbveaU
v+W6nDESMBAGA1UECwwJ6K2m5a+f5bqBMSowKAYDVQQLDCHorablr5/luoHpgYvo
u6LlhY3oqLHoqLzoqo3oqLzlsYAwgZ8GA1UdHwSBlzCBlDCBkaCBjqCBi6SBiDCB
hTELMAkGA1UEBhMCSlAxHDAaBgNVBAoME0phcGFuZXNlIEdvdmVybm1lbnQxHzAd
BgNVBAsMFk5hdGlvbmFsIFBvbGljZSBBZ2VuY3kxNzA1BgNVBAsMLlByZWZlY3R1
cmFsIFB1YmxpYyBTYWZldHkgQ29tbWlzc2lvbnMgZm9yIElDREwwDQYJKoZIhvcN
AQELBQADggEBAFMgd1tkMg9572v2PYHLsp2Qm3W69GwsRGNjABzqmghsllqvEv1N
HW6PazmxpE+8Vi7bF9ze6bP5I7bStyiiHCtF78+5BfGPwgMnwScdjIll5MYgSLXZ
h8L6asokAoHlNmUg1MmBsIXaP2nNbCe13+QIpurYU0Ja1gpOfNAnQsPnKOxGtvXj
QnhBx61oUE1j/tDykMWVqsxW1q+/85bJIFinQqDactuKqu1lGX/sSN9BmJnvbG9d
yxPWHA4tyUOiKC5cDNsAofD8flYBtaqGXwJBhwAGqD4yWPLuHzQfJcRZLJwZriWN
sPyuDBmwSKmctbW1QWbrtwcYbnahD7DFQtA=
-----END CERTIFICATE-----
