Certificate:
    Data:
        Version: 3 (0x2)
        Serial Number:
            33:30:30:30:30:30:32:30:27:dc:ab:f0:b8:f2:6a:31:d6:83
        Signature Algorithm: sha256WithRSAEncryption
        Issuer: C=JP, O=Japanese Government, OU=National Police Agency, OU=NPA ICDL Root CA
        Validity
            Not Before: Jun 19 05:36:34 2023 GMT
            Not After : Jun 18 14:59:59 2028 GMT
        Subject: C=JP, O=Japanese Government, OU=National Police Agency, OU=Prefectural Public Safety Commissions for ICDL, CN=Gunma AltPPSC
        Subject Public Key Info:
            Public Key Algorithm: rsaEncryption
                Public-Key: (2048 bit)
                Modulus:
                    00:80:ed:80:74:bd:6f:79:cf:c8:45:ff:8a:09:c9:
                    54:f8:52:13:09:d7:7d:a1:5e:da:fd:7e:8f:02:2e:
                    75:81:07:71:b6:d9:f8:eb:5d:e0:51:d5:e1:e8:33:
                    3a:2b:0c:21:45:b3:19:51:84:ed:05:6c:2d:fc:02:
                    98:f8:8a:11:fb:b0:9f:a8:85:90:2c:2e:f7:ff:4b:
                    d4:e0:e8:cc:e1:76:d5:14:36:55:2b:3e:38:c1:32:
                    ae:c8:fb:d1:05:85:76:42:2a:ee:a7:aa:36:e4:1d:
                    4a:1f:c6:80:64:00:90:ca:b5:a8:3c:83:02:32:a8:
                    6c:82:48:d9:58:f1:1a:51:6f:97:72:06:1c:c0:e0:
                    79:68:35:4d:aa:77:6b:de:17:68:f8:6d:e1:e8:3f:
                    1d:e7:25:f9:dc:73:46:4c:b7:08:6f:d5:f7:f4:ac:
                    e2:b3:9d:bb:e7:be:4f:16:40:a8:16:9b:30:7f:c3:
                    10:e7:ab:c9:59:ae:67:8a:2d:63:e2:39:e1:02:41:
                    f7:be:b7:6e:5b:f1:6b:ac:57:6a:79:b2:09:f5:0a:
                    c0:b0:b2:ba:48:16:a6:a3:02:f7:a8:08:b8:9f:4e:
                    95:4d:96:6a:8c:c6:00:81:4e:04:e3:86:35:e2:bc:
                    fd:11:57:35:c9:11:69:85:35:91:f9:12:b2:63:12:
                    01:67
                Exponent: 65537 (0x10001)
        X509v3 extensions:
            X509v3 Authority Key Identifier: 
                keyid:11:CD:8E:60:44:47:57:4F:4F:CB:E9:E7:CB:A1:46:DF:BA:0E:50:8B
                DirName:/C=JP/O=Japanese Government/OU=National Police Agency/OU=NPA ICDL Root CA
                serial:32:30:30:30:30:30:31:36
            X509v3 Subject Key Identifier: 
                3B:5B:B0:37:5C:1E:2C:5C:76:13:53:95:1E:25:9F:C5:1F:66:73:21
            X509v3 Key Usage: critical
                Digital Signature, Non Repudiation
            X509v3 Certificate Policies: critical
                Policy: 1.2.392.100120.7.5.1.1.10
                  CPS: http://www.npa.go.jp/
            X509v3 Issuer Alternative Name: 
                DirName:/C=JP/O=\xE6\x97\xA5\xE6\x9C\xAC\xE5\x9B\xBD\xE6\x94\xBF\xE5\xBA\x9C/OU=\xE8\xAD\xA6\xE5\xAF\x9F\xE5\xBA\x81/OU=\xE8\xAD\xA6\xE5\xAF\x9F\xE5\xBA\x81\xE9\x81\x8B\xE8\xBB\xA2\xE5\x85\x8D\xE8\xA8\xB1\xE8\xA8\xBC\xE8\xAA\x8D\xE8\xA8\xBC\xE5\xB1\x80
            X509v3 CRL Distribution Points: 
                Full Name:
                  DirName:C = JP, O = Japanese Government, OU = National Police Agency, OU = Prefectural Public Safety Commissions for ICDL
    Signature Algorithm: sha256WithRSAEncryption
    Signature Value:
        7a:7b:40:ef:3f:05:bb:34:f7:b4:d6:2e:2b:2d:76:d1:b4:d7:
        65:bc:08:0a:28:21:26:33:63:72:84:81:d9:6d:96:57:dc:3d:
        ee:ea:53:66:f4:72:8a:57:3d:cc:c7:79:2e:5e:b6:d0:10:aa:
        3f:c1:74:c3:73:7a:9b:4d:87:5e:32:25:e2:3f:34:26:6e:04:
        01:f9:be:ac:ae:47:c8:1b:17:36:37:1a:1b:7e:97:80:b9:26:
        e6:82:c8:6c:e2:23:22:72:33:47:6d:bd:8e:22:f3:db:55:c4:
        7a:9b:db:b9:f8:2b:c2:86:ad:59:d0:bb:a4:f0:0d:ea:8e:02:
        a0:8a:d7:c0:b1:d4:86:37:98:7d:e2:83:b5:b4:5e:c6:63:3b:
        f8:63:58:f5:db:cd:fb:09:01:b2:3f:71:e1:7f:73:a5:79:ee:
        ef:7f:ae:6a:22:83:de:49:b9:33:fc:d9:ea:12:2d:bb:7a:dc:
        d9:06:5b:5c:b9:40:31:93:b0:0a:e2:d9:4f:2d:f4:a7:99:bb:
        2b:02:55:90:d6:6e:a1:27:01:17:67:c1:f0:f2:59:a9:6f:45:
        17:f7:ac:1f:3e:b1:f5:c1:d6:8c:a9:ac:df:ed:10:11:2f:83:
        5f:a9:7e:dd:80:b9:34:1c:d9:85:29:ea:5c:e9:86:66:04:e0:
        a2:7c:59:3e
-----BEGIN CERTIFICATE-----
MIIFuzCCBKOgAwIBAgISMzAwMDAwMjAn3KvwuPJqMdaDMA0GCSqGSIb3DQEBCwUA
MGcxCzAJBgNVBAYTAkpQMRwwGgYDVQQKDBNKYXBhbmVzZSBHb3Zlcm5tZW50MR8w
HQYDVQQLDBZOYXRpb25hbCBQb2xpY2UgQWdlbmN5MRkwFwYDVQQLDBBOUEEgSUNE
TCBSb290IENBMB4XDTIzMDYxOTA1MzYzNFoXDTI4MDYxODE0NTk1OVowgZ0xCzAJ
BgNVBAYTAkpQMRwwGgYDVQQKDBNKYXBhbmVzZSBHb3Zlcm5tZW50MR8wHQYDVQQL
DBZOYXRpb25hbCBQb2xpY2UgQWdlbmN5MTcwNQYDVQQLDC5QcmVmZWN0dXJhbCBQ
dWJsaWMgU2FmZXR5IENvbW1pc3Npb25zIGZvciBJQ0RMMRYwFAYDVQQDDA1HdW5t
YSBBbHRQUFNDMIIBIjANBgkqhkiG9w0BAQEFAAOCAQ8AMIIBCgKCAQEAgO2AdL1v
ec/IRf+KCclU+FITCdd9oV7a/X6PAi51gQdxttn4613gUdXh6DM6KwwhRbMZUYTt
BWwt/AKY+IoR+7CfqIWQLC73/0vU4OjM4XbVFDZVKz44wTKuyPvRBYV2Qirup6o2
5B1KH8aAZACQyrWoPIMCMqhsgkjZWPEaUW+XcgYcwOB5aDVNqndr3hdo+G3h6D8d
5yX53HNGTLcIb9X39Kzis527575PFkCoFpswf8MQ56vJWa5nii1j4jnhAkH3vrdu
W/FrrFdqebIJ9QrAsLK6SBamowL3qAi4n06VTZZqjMYAgU4E44Y14rz9EVc1yRFp
hTWR+RKyYxIBZwIDAQABo4ICKDCCAiQwgZgGA1UdIwSBkDCBjYAUEc2OYERHV09P
y+nny6FG37oOUIuha6RpMGcxCzAJBgNVBAYTAkpQMRwwGgYDVQQKDBNKYXBhbmVz
ZSBHb3Zlcm5tZW50MR8wHQYDVQQLDBZOYXRpb25hbCBQb2xpY2UgQWdlbmN5MRkw
FwYDVQQLDBBOUEEgSUNETCBSb290IENBgggyMDAwMDAxNjAdBgNVHQ4EFgQUO1uw
N1weLFx2E1OVHiWfxR9mcyEwDgYDVR0PAQH/BAQDAgbAMEAGA1UdIAEB/wQ2MDQw
MgYLKoMIho4YBwUBAQowIzAhBggrBgEFBQcCARYVaHR0cDovL3d3dy5ucGEuZ28u
anAvMHQGA1UdEgRtMGukaTBnMQswCQYDVQQGEwJKUDEYMBYGA1UECgwP5pel5pys
5Zu95pS/5bqcMRIwEAYDVQQLDAnorablr5/luoExKjAoBgNVBAsMIeitpuWvn+W6
gemBi+i7ouWFjeioseiovOiqjeiovOWxgDCBnwYDVR0fBIGXMIGUMIGRoIGOoIGL
pIGIMIGFMQswCQYDVQQGEwJKUDEcMBoGA1UECgwTSmFwYW5lc2UgR292ZXJubWVu
dDEfMB0GA1UECwwWTmF0aW9uYWwgUG9saWNlIEFnZW5jeTE3MDUGA1UECwwuUHJl
ZmVjdHVyYWwgUHVibGljIFNhZmV0eSBDb21taXNzaW9ucyBmb3IgSUNETDANBgkq
hkiG9w0BAQsFAAOCAQEAentA7z8FuzT3tNYuKy120bTXZbwICighJjNjcoSB2W2W
V9w97upTZvRyilc9zMd5Ll620BCqP8F0w3N6m02HXjIl4j80Jm4EAfm+rK5HyBsX
NjcaG36XgLkm5oLIbOIjInIzR229jiLz21XEepvbufgrwoatWdC7pPAN6o4CoIrX
wLHUhjeYfeKDtbRexmM7+GNY9dvN+wkBsj9x4X9zpXnu73+uaiKD3km5M/zZ6hIt
u3rc2QZbXLlAMZOwCuLZTy30p5m7KwJVkNZuoScBF2fB8PJZqW9FF/esHz6x9cHW
jKms3+0QES+DX6l+3YC5NBzZhSnqXOmGZgTgonxZPg==
-----END CERTIFICATE-----
