Certificate:
    Data:
        Version: 3 (0x2)
        Serial Number:
            32:30:30:30:30:30:33:36
        Signature Algorithm: sha256WithRSAEncryption
        Issuer: C=JP, O=Japanese Government, OU=National Police Agency, OU=NPA ICDL Root CA
        Validity
            Not Before: Feb  6 01:18:59 2023 GMT
            Not After : Feb  5 14:59:59 2028 GMT
        Subject: C=JP, O=Japanese Government, OU=National Police Agency, OU=Prefectural Public Safety Commissions for ICDL, CN=Hakodate APSC
        Subject Public Key Info:
            Public Key Algorithm: rsaEncryption
                Public-Key: (2048 bit)
                Modulus:
                    00:ca:66:a7:83:71:55:14:ad:be:43:d9:32:38:66:
                    51:e3:90:b4:2d:68:6d:e2:0e:27:d3:28:bf:a4:bd:
                    79:90:b5:2b:6f:da:b6:2c:58:28:d1:4d:a0:69:a4:
                    5a:e3:52:11:71:1d:59:b2:51:78:13:fe:58:69:7b:
                    a3:c3:95:b1:be:35:4a:16:79:cf:78:1b:1e:71:c6:
                    d8:3d:ab:f8:08:e4:91:c1:74:1b:d9:85:b3:ca:d8:
                    1b:48:83:d7:ee:de:ef:5b:5a:a9:bf:b3:dd:93:25:
                    f0:e0:24:8f:6e:18:a6:b5:4b:73:20:4f:10:b5:6c:
                    18:67:35:ae:d4:c8:1c:36:de:85:90:b4:5c:2e:01:
                    fe:2b:61:7d:0b:32:0f:8e:bc:db:16:b9:73:f5:f8:
                    96:a4:5c:9a:fa:73:57:ae:0a:ff:59:1c:4f:b8:79:
                    20:19:ea:cf:b0:f8:cb:e8:c9:18:e8:a8:9c:7c:9c:
                    ec:f2:db:4d:f7:a7:e3:82:e2:92:97:bf:f1:93:2c:
                    f7:82:2c:94:6a:ee:6e:50:bc:62:15:f5:d3:03:30:
                    d6:52:50:56:9e:18:a3:21:1f:96:21:1d:ff:52:71:
                    d6:d7:b6:b8:a6:a3:fb:a8:75:b8:87:55:ef:fa:1c:
                    e2:92:ad:c3:5a:b2:95:8a:b1:36:1b:60:b3:d9:f9:
                    fe:e1
                Exponent: 65537 (0x10001)
        X509v3 extensions:
            X509v3 Authority Key Identifier: 
                keyid:11:CD:8E:60:44:47:57:4F:4F:CB:E9:E7:CB:A1:46:DF:BA:0E:50:8B
                DirName:/C=JP/O=Japanese Government/OU=National Police Agency/OU=NPA ICDL Root CA
                serial:32:30:30:30:30:30:31:36
            X509v3 Subject Key Identifier: 
                AC:14:45:8B:2B:CE:A4:36:AB:1F:4B:B0:1C:9F:15:2A:94:9F:77:9C
            X509v3 Key Usage: critical
                Digital Signature, Non Repudiation
            X509v3 Certificate Policies: critical
                Policy: 1.2.392.100120.7.5.1.1.10
                  CPS: http://www.npa.go.jp/
            X509v3 Subject Alternative Name: 
                DirName:/C=JP/O=\xE6\x97\xA5\xE6\x9C\xAC\xE5\x9B\xBD\xE6\x94\xBF\xE5\xBA\x9C/OU=\xE8\xAD\xA6\xE5\xAF\x9F\xE5\xBA\x81/OU=\xE9\x83\xBD\xE9\x81\x93\xE5\xBA\x9C\xE7\x9C\x8C\xE5\x85\xAC\xE5\xAE\x89\xE5\xA7\x94\xE5\x93\xA1\xE4\xBC\x9A
            X509v3 Issuer Alternative Name: 
                DirName:/C=JP/O=\xE6\x97\xA5\xE6\x9C\xAC\xE5\x9B\xBD\xE6\x94\xBF\xE5\xBA\x9C/OU=\xE8\xAD\xA6\xE5\xAF\x9F\xE5\xBA\x81/OU=\xE8\xAD\xA6\xE5\xAF\x9F\xE5\xBA\x81\xE9\x81\x8B\xE8\xBB\xA2\xE5\x85\x8D\xE8\xA8\xB1\xE8\xA8\xBC\xE8\xAA\x8D\xE8\xA8\xBC\xE5\xB1\x80
            X509v3 CRL Distribution Points: 
                Full Name:
                  DirName:C = JP, O = Japanese Government, OU = National Police Agency, OU = Prefectural Public Safety Commissions for ICDL
    Signature Algorithm: sha256WithRSAEncryption
    Signature Value:
        92:45:03:21:cd:bf:e7:e0:0b:63:65:a2:4e:dc:a3:4d:f5:aa:
        b7:8c:3e:fc:0b:98:0b:d4:54:35:c7:bf:c5:80:a1:21:ec:62:
        ed:89:a8:a5:c2:b1:e9:79:ba:50:d7:ec:a6:a4:74:a0:86:e3:
        fc:d6:7f:87:ee:eb:0c:5b:33:2c:77:73:f4:a9:69:9e:df:b5:
        6b:36:d0:46:f4:d3:f8:06:07:47:2f:36:13:88:59:6d:81:d9:
        70:f2:7b:94:e7:2b:00:5d:61:a2:d9:6e:3a:e4:25:22:45:9b:
        ae:73:0f:51:13:d3:27:ce:6e:5e:9b:1e:47:de:4a:6c:5c:7c:
        36:61:5f:4c:2c:0a:ab:b5:91:b2:b5:de:de:ea:37:92:7c:a7:
        a9:81:ac:03:29:44:ce:78:7b:53:c1:b2:29:21:0b:5f:bd:dd:
        cd:05:ea:32:19:11:11:71:19:f1:87:88:46:33:5c:a0:b9:a8:
        b3:7e:2a:e5:c6:03:ec:8b:03:38:c0:d9:f8:e4:77:18:b2:b1:
        d8:c2:dd:6e:ad:f6:0f:f0:08:7c:1f:9f:e6:bc:50:42:44:6b:
        51:35:41:27:12:f7:46:23:81:3f:29:b3:88:11:8a:f6:06:7d:
        c2:de:ea:5d:7a:70:53:fa:41:bc:73:b8:94:aa:64:f1:e3:a7:
        11:05:3a:d3
-----BEGIN CERTIFICATE-----
MIIGTDCCBTSgAwIBAgIIMjAwMDAwMzYwDQYJKoZIhvcNAQELBQAwZzELMAkGA1UE
BhMCSlAxHDAaBgNVBAoME0phcGFuZXNlIEdvdmVybm1lbnQxHzAdBgNVBAsMFk5h
dGlvbmFsIFBvbGljZSBBZ2VuY3kxGTAXBgNVBAsMEE5QQSBJQ0RMIFJvb3QgQ0Ew
HhcNMjMwMjA2MDExODU5WhcNMjgwMjA1MTQ1OTU5WjCBnTELMAkGA1UEBhMCSlAx
HDAaBgNVBAoME0phcGFuZXNlIEdvdmVybm1lbnQxHzAdBgNVBAsMFk5hdGlvbmFs
IFBvbGljZSBBZ2VuY3kxNzA1BgNVBAsMLlByZWZlY3R1cmFsIFB1YmxpYyBTYWZl
dHkgQ29tbWlzc2lvbnMgZm9yIElDREwxFjAUBgNVBAMMDUhha29kYXRlIEFQU0Mw
ggEiMA0GCSqGSIb3DQEBAQUAA4IBDwAwggEKAoIBAQDKZqeDcVUUrb5D2TI4ZlHj
kLQtaG3iDifTKL+kvXmQtStv2rYsWCjRTaBppFrjUhFxHVmyUXgT/lhpe6PDlbG+
NUoWec94Gx5xxtg9q/gI5JHBdBvZhbPK2BtIg9fu3u9bWqm/s92TJfDgJI9uGKa1
S3MgTxC1bBhnNa7UyBw23oWQtFwuAf4rYX0LMg+OvNsWuXP1+JakXJr6c1euCv9Z
HE+4eSAZ6s+w+MvoyRjoqJx8nOzy2033p+OC4pKXv/GTLPeCLJRq7m5QvGIV9dMD
MNZSUFaeGKMhH5YhHf9ScdbXtrimo/uodbiHVe/6HOKSrcNaspWKsTYbYLPZ+f7h
AgMBAAGjggLDMIICvzCBmAYDVR0jBIGQMIGNgBQRzY5gREdXT0/L6efLoUbfug5Q
i6FrpGkwZzELMAkGA1UEBhMCSlAxHDAaBgNVBAoME0phcGFuZXNlIEdvdmVybm1l
bnQxHzAdBgNVBAsMFk5hdGlvbmFsIFBvbGljZSBBZ2VuY3kxGTAXBgNVBAsMEE5Q
QSBJQ0RMIFJvb3QgQ0GCCDIwMDAwMDE2MB0GA1UdDgQWBBSsFEWLK86kNqsfS7Ac
nxUqlJ93nDAOBgNVHQ8BAf8EBAMCBsAwQAYDVR0gAQH/BDYwNDAyBgsqgwiGjhgH
BQEBCjAjMCEGCCsGAQUFBwIBFhVodHRwOi8vd3d3Lm5wYS5nby5qcC8wgZgGA1Ud
EQSBkDCBjaSBijCBhzELMAkGA1UEBhMCSlAxGDAWBgNVBAoMD+aXpeacrOWbveaU
v+W6nDESMBAGA1UECwwJ6K2m5a+f5bqBMSQwIgYDVQQLDBvpg73pgZPlupznnIzl
hazlronlp5Tlk6HkvJoxJDAiBgNVBAMMG+WHvemkqOaWuemdouWFrOWuieWnlOWT
oeS8mjB0BgNVHRIEbTBrpGkwZzELMAkGA1UEBhMCSlAxGDAWBgNVBAoMD+aXpeac
rOWbveaUv+W6nDESMBAGA1UECwwJ6K2m5a+f5bqBMSowKAYDVQQLDCHorablr5/l
uoHpgYvou6LlhY3oqLHoqLzoqo3oqLzlsYAwgZ8GA1UdHwSBlzCBlDCBkaCBjqCB
i6SBiDCBhTELMAkGA1UEBhMCSlAxHDAaBgNVBAoME0phcGFuZXNlIEdvdmVybm1l
bnQxHzAdBgNVBAsMFk5hdGlvbmFsIFBvbGljZSBBZ2VuY3kxNzA1BgNVBAsMLlBy
ZWZlY3R1cmFsIFB1YmxpYyBTYWZldHkgQ29tbWlzc2lvbnMgZm9yIElDREwwDQYJ
KoZIhvcNAQELBQADggEBAJJFAyHNv+fgC2Nlok7co031qreMPvwLmAvUVDXHv8WA
oSHsYu2JqKXCsel5ulDX7KakdKCG4/zWf4fu6wxbMyx3c/SpaZ7ftWs20Eb00/gG
B0cvNhOIWW2B2XDye5TnKwBdYaLZbjrkJSJFm65zD1ET0yfObl6bHkfeSmxcfDZh
X0wsCqu1kbK13t7qN5J8p6mBrAMpRM54e1PBsikhC1+93c0F6jIZERFxGfGHiEYz
XKC5qLN+KuXGA+yLAzjA2fjkdxiysdjC3W6t9g/wCHwfn+a8UEJEa1E1QScS90Yj
gT8ps4gRivYGfcLe6l16cFP6QbxzuJSqZPHjpxEFOtM=
-----END CERTIFICATE-----
