Certificate:
    Data:
        Version: 3 (0x2)
        Serial Number:
            33:30:30:30:30:30:39:33
        Signature Algorithm: sha256WithRSAEncryption
        Issuer: C=JP, O=Japanese Government, OU=National Police Agency, OU=NPA ICDL Root CA
        Validity
            Not Before: Sep 17 07:01:31 2024 GMT
            Not After : Sep 16 14:59:59 2029 GMT
        Subject: C=JP, O=Japanese Government, OU=National Police Agency, OU=Prefectural Public Safety Commissions for ICDL, CN=Hakodate APSC
        Subject Public Key Info:
            Public Key Algorithm: rsaEncryption
                Public-Key: (2048 bit)
                Modulus:
                    00:d1:10:84:ac:d5:4a:7c:46:7f:74:25:7a:28:2b:
                    49:cd:89:4d:00:47:69:c1:2b:19:d9:32:3e:ed:a9:
                    2f:d6:e9:6f:d6:14:da:a3:86:27:51:c3:8a:2c:94:
                    58:d2:29:bc:ea:f7:8f:e5:e5:90:ae:8a:cd:f4:90:
                    b8:c7:e2:2b:7a:88:7d:26:2f:e0:34:c0:29:0d:15:
                    19:5d:68:29:53:c9:3a:fa:f6:fa:7a:99:fb:a7:ca:
                    2b:bf:d6:6f:f2:03:4c:ce:7c:e3:14:12:0f:8c:f6:
                    40:74:57:88:7c:6d:cc:da:85:dc:82:87:a9:35:6f:
                    26:06:e9:68:a1:e2:61:11:a6:b2:55:ea:6f:9a:27:
                    1f:6e:f7:38:bb:25:6d:64:f2:d5:52:ae:07:3a:2f:
                    31:cd:37:b6:d8:ba:7b:80:42:03:5e:19:18:28:27:
                    f8:41:98:b3:00:f4:d0:4f:26:b3:fc:18:9f:7f:32:
                    7f:ca:84:49:5c:49:54:cb:4e:54:e4:eb:20:a8:e1:
                    94:b3:fb:44:d4:dc:34:7a:90:0a:33:e2:f0:12:5d:
                    ea:da:7a:37:84:b5:30:ce:ca:84:10:6b:7a:4a:b9:
                    cd:a3:83:45:b4:6c:35:d5:cd:59:1d:ea:3b:a8:32:
                    47:1c:b3:a1:db:47:cf:96:8c:8c:d2:08:f3:87:66:
                    1d:f5
                Exponent: 65537 (0x10001)
        X509v3 extensions:
            X509v3 Authority Key Identifier: 
                keyid:11:CD:8E:60:44:47:57:4F:4F:CB:E9:E7:CB:A1:46:DF:BA:0E:50:8B
                DirName:/C=JP/O=Japanese Government/OU=National Police Agency/OU=NPA ICDL Root CA
                serial:32:30:30:30:30:30:31:36
            X509v3 Subject Key Identifier: 
                AB:1C:D6:57:B4:D3:83:EF:04:CF:6B:E6:CB:8B:19:41:A0:29:9D:AC
            X509v3 Key Usage: critical
                Digital Signature, Non Repudiation
            X509v3 Certificate Policies: critical
                Policy: 1.2.392.100120.7.5.1.1.10
                  CPS: http://www.npa.go.jp/
            X509v3 Subject Alternative Name: 
                DirName:/C=JP/O=\xE6\x97\xA5\xE6\x9C\xAC\xE5\x9B\xBD\xE6\x94\xBF\xE5\xBA\x9C/OU=\xE8\xAD\xA6\xE5\xAF\x9F\xE5\xBA\x81/OU=\xE9\x83\xBD\xE9\x81\x93\xE5\xBA\x9C\xE7\x9C\x8C\xE5\x85\xAC\xE5\xAE\x89\xE5\xA7\x94\xE5\x93\xA1\xE4\xBC\x9A
            X509v3 Issuer Alternative Name: 
                DirName:/C=JP/O=\xE6\x97\xA5\xE6\x9C\xAC\xE5\x9B\xBD\xE6\x94\xBF\xE5\xBA\x9C/OU=\xE8\xAD\xA6\xE5\xAF\x9F\xE5\xBA\x81/OU=\xE8\xAD\xA6\xE5\xAF\x9F\xE5\xBA\x81\xE9\x81\x8B\xE8\xBB\xA2\xE5\x85\x8D\xE8\xA8\xB1\xE8\xA8\xBC\xE8\xAA\x8D\xE8\xA8\xBC\xE5\xB1\x80
            X509v3 CRL Distribution Points: 
                Full Name:
                  DirName:C = JP, O = Japanese Government, OU = National Police Agency, OU = Prefectural Public Safety Commissions for ICDL
    Signature Algorithm: sha256WithRSAEncryption
    Signature Value:
        3b:91:87:1b:76:58:dc:e1:4b:8c:63:18:b1:a9:1d:3c:07:b0:
        ac:e0:0e:5e:b3:51:b4:f9:b1:3a:50:a6:02:8f:52:a6:97:b4:
        53:ae:06:a8:83:6e:68:6a:df:a7:ad:12:eb:e8:da:4c:7c:89:
        84:cf:f3:3e:ee:84:de:9c:ef:d3:9b:05:22:69:e8:d9:06:8c:
        06:c7:4b:bd:ec:05:aa:67:e2:2d:5a:32:eb:a3:2a:98:da:a2:
        81:cc:bc:ec:1d:d9:89:0b:d5:23:fe:6a:f1:aa:35:46:5f:f2:
        c2:44:fa:18:42:1c:3e:29:8a:93:79:3e:80:9f:3a:d0:46:b5:
        33:e4:51:8e:b6:91:c0:22:0e:77:b3:6d:8a:bb:26:32:55:66:
        90:b0:81:6a:78:cd:b5:bb:00:f4:13:10:b3:c8:2a:24:22:19:
        0c:9a:33:28:54:2e:b3:56:88:f5:54:05:e8:95:ce:64:df:86:
        80:63:eb:f4:bb:66:04:cd:ea:fb:52:ee:73:cf:f4:41:43:16:
        29:9e:a0:c8:e1:71:29:2e:a7:36:37:ac:bd:0a:29:8e:de:63:
        28:37:28:a1:36:a0:57:b2:f2:7f:9c:0d:13:98:45:f6:a5:49:
        16:9d:79:d4:5e:58:3c:8a:1d:8c:f8:28:0f:ff:0c:46:9b:ee:
        b1:72:45:a0
-----BEGIN CERTIFICATE-----
MIIGTDCCBTSgAwIBAgIIMzAwMDAwOTMwDQYJKoZIhvcNAQELBQAwZzELMAkGA1UE
BhMCSlAxHDAaBgNVBAoME0phcGFuZXNlIEdvdmVybm1lbnQxHzAdBgNVBAsMFk5h
dGlvbmFsIFBvbGljZSBBZ2VuY3kxGTAXBgNVBAsMEE5QQSBJQ0RMIFJvb3QgQ0Ew
HhcNMjQwOTE3MDcwMTMxWhcNMjkwOTE2MTQ1OTU5WjCBnTELMAkGA1UEBhMCSlAx
HDAaBgNVBAoME0phcGFuZXNlIEdvdmVybm1lbnQxHzAdBgNVBAsMFk5hdGlvbmFs
IFBvbGljZSBBZ2VuY3kxNzA1BgNVBAsMLlByZWZlY3R1cmFsIFB1YmxpYyBTYWZl
dHkgQ29tbWlzc2lvbnMgZm9yIElDREwxFjAUBgNVBAMMDUhha29kYXRlIEFQU0Mw
ggEiMA0GCSqGSIb3DQEBAQUAA4IBDwAwggEKAoIBAQDREISs1Up8Rn90JXooK0nN
iU0AR2nBKxnZMj7tqS/W6W/WFNqjhidRw4oslFjSKbzq94/l5ZCuis30kLjH4it6
iH0mL+A0wCkNFRldaClTyTr69vp6mfunyiu/1m/yA0zOfOMUEg+M9kB0V4h8bcza
hdyCh6k1byYG6Wih4mERprJV6m+aJx9u9zi7JW1k8tVSrgc6LzHNN7bYunuAQgNe
GRgoJ/hBmLMA9NBPJrP8GJ9/Mn/KhElcSVTLTlTk6yCo4ZSz+0TU3DR6kAoz4vAS
XeraejeEtTDOyoQQa3pKuc2jg0W0bDXVzVkd6juoMkccs6HbR8+WjIzSCPOHZh31
AgMBAAGjggLDMIICvzCBmAYDVR0jBIGQMIGNgBQRzY5gREdXT0/L6efLoUbfug5Q
i6FrpGkwZzELMAkGA1UEBhMCSlAxHDAaBgNVBAoME0phcGFuZXNlIEdvdmVybm1l
bnQxHzAdBgNVBAsMFk5hdGlvbmFsIFBvbGljZSBBZ2VuY3kxGTAXBgNVBAsMEE5Q
QSBJQ0RMIFJvb3QgQ0GCCDIwMDAwMDE2MB0GA1UdDgQWBBSrHNZXtNOD7wTPa+bL
ixlBoCmdrDAOBgNVHQ8BAf8EBAMCBsAwQAYDVR0gAQH/BDYwNDAyBgsqgwiGjhgH
BQEBCjAjMCEGCCsGAQUFBwIBFhVodHRwOi8vd3d3Lm5wYS5nby5qcC8wgZgGA1Ud
EQSBkDCBjaSBijCBhzELMAkGA1UEBhMCSlAxGDAWBgNVBAoMD+aXpeacrOWbveaU
v+W6nDESMBAGA1UECwwJ6K2m5a+f5bqBMSQwIgYDVQQLDBvpg73pgZPlupznnIzl
hazlronlp5Tlk6HkvJoxJDAiBgNVBAMMG+WHvemkqOaWuemdouWFrOWuieWnlOWT
oeS8mjB0BgNVHRIEbTBrpGkwZzELMAkGA1UEBhMCSlAxGDAWBgNVBAoMD+aXpeac
rOWbveaUv+W6nDESMBAGA1UECwwJ6K2m5a+f5bqBMSowKAYDVQQLDCHorablr5/l
uoHpgYvou6LlhY3oqLHoqLzoqo3oqLzlsYAwgZ8GA1UdHwSBlzCBlDCBkaCBjqCB
i6SBiDCBhTELMAkGA1UEBhMCSlAxHDAaBgNVBAoME0phcGFuZXNlIEdvdmVybm1l
bnQxHzAdBgNVBAsMFk5hdGlvbmFsIFBvbGljZSBBZ2VuY3kxNzA1BgNVBAsMLlBy
ZWZlY3R1cmFsIFB1YmxpYyBTYWZldHkgQ29tbWlzc2lvbnMgZm9yIElDREwwDQYJ
KoZIhvcNAQELBQADggEBADuRhxt2WNzhS4xjGLGpHTwHsKzgDl6zUbT5sTpQpgKP
UqaXtFOuBqiDbmhq36etEuvo2kx8iYTP8z7uhN6c79ObBSJp6NkGjAbHS73sBapn
4i1aMuujKpjaooHMvOwd2YkL1SP+avGqNUZf8sJE+hhCHD4pipN5PoCfOtBGtTPk
UY62kcAiDnezbYq7JjJVZpCwgWp4zbW7APQTELPIKiQiGQyaMyhULrNWiPVUBeiV
zmTfhoBj6/S7ZgTN6vtS7nPP9EFDFimeoMjhcSkupzY3rL0KKY7eYyg3KKE2oFey
8n+cDROYRfalSRadedReWDyKHYz4KA//DEab7rFyRaA=
-----END CERTIFICATE-----
