Certificate:
    Data:
        Version: 3 (0x2)
        Serial Number:
            33:30:30:30:30:30:37:33
        Signature Algorithm: sha256WithRSAEncryption
        Issuer: C=JP, O=Japanese Government, OU=National Police Agency, OU=NPA ICDL Root CA
        Validity
            Not Before: Feb  2 12:05:39 2024 GMT
            Not After : Feb  1 14:59:59 2029 GMT
        Subject: C=JP, O=Japanese Government, OU=National Police Agency, OU=Prefectural Public Safety Commissions for ICDL, CN=Hakodate AltAPSC
        Subject Public Key Info:
            Public Key Algorithm: rsaEncryption
                Public-Key: (2048 bit)
                Modulus:
                    00:a6:90:b0:d8:8f:ad:77:f6:fa:e7:1b:a4:30:4c:
                    b2:28:43:94:9c:77:04:a2:ec:d9:8d:fa:08:a0:02:
                    9c:8d:b7:34:b2:5f:12:92:91:3c:15:33:34:1e:91:
                    49:be:40:27:1b:da:d7:9d:9a:d9:26:89:b8:66:9c:
                    d2:b1:95:c9:be:b1:86:88:d9:81:60:97:7f:14:32:
                    28:19:fc:90:1f:2f:45:45:ee:ce:92:8e:d6:32:8c:
                    e1:ec:62:55:b2:f7:a0:1d:82:02:7a:d3:3c:9d:30:
                    18:f5:26:e5:8f:66:4c:20:f2:35:60:8b:93:44:0e:
                    fa:2b:3c:0f:ab:cb:40:76:0b:9d:56:c2:35:97:92:
                    67:c2:8b:53:ff:ed:66:51:3f:d3:54:07:7e:9a:f2:
                    5c:bd:02:a9:e7:b6:31:c7:e7:1f:21:57:02:5b:45:
                    2e:c7:14:46:aa:f3:e1:a9:80:9b:e6:77:e3:5e:ff:
                    4b:92:51:36:66:75:36:39:3c:21:9e:1b:8c:c2:38:
                    fb:89:7d:10:1c:af:61:0e:17:77:4e:0e:27:4e:15:
                    98:f8:58:32:3c:8a:b4:e8:ea:30:80:10:47:7c:15:
                    69:cc:85:57:f8:ed:d1:92:1f:4a:a3:27:af:c9:51:
                    d9:9b:9f:a8:4c:b7:30:1a:88:59:cb:69:f5:f1:25:
                    f5:a5
                Exponent: 65537 (0x10001)
        X509v3 extensions:
            X509v3 Authority Key Identifier: 
                keyid:11:CD:8E:60:44:47:57:4F:4F:CB:E9:E7:CB:A1:46:DF:BA:0E:50:8B
                DirName:/C=JP/O=Japanese Government/OU=National Police Agency/OU=NPA ICDL Root CA
                serial:32:30:30:30:30:30:31:36
            X509v3 Subject Key Identifier: 
                5D:93:E3:0A:A3:6D:BB:FC:B5:2E:4A:2F:F4:38:CC:41:26:84:6E:C2
            X509v3 Key Usage: critical
                Digital Signature, Non Repudiation
            X509v3 Certificate Policies: critical
                Policy: 1.2.392.100120.7.5.1.1.10
                  CPS: http://www.npa.go.jp/
            X509v3 Issuer Alternative Name: 
                DirName:/C=JP/O=\xE6\x97\xA5\xE6\x9C\xAC\xE5\x9B\xBD\xE6\x94\xBF\xE5\xBA\x9C/OU=\xE8\xAD\xA6\xE5\xAF\x9F\xE5\xBA\x81/OU=\xE8\xAD\xA6\xE5\xAF\x9F\xE5\xBA\x81\xE9\x81\x8B\xE8\xBB\xA2\xE5\x85\x8D\xE8\xA8\xB1\xE8\xA8\xBC\xE8\xAA\x8D\xE8\xA8\xBC\xE5\xB1\x80
            X509v3 CRL Distribution Points: 
                Full Name:
                  DirName:C = JP, O = Japanese Government, OU = National Police Agency, OU = Prefectural Public Safety Commissions for ICDL
    Signature Algorithm: sha256WithRSAEncryption
    Signature Value:
        1e:72:ae:01:3b:f5:92:b9:ee:c8:17:19:0c:fb:21:31:5d:85:
        73:01:07:d4:ed:c4:d0:b1:42:6a:bc:e4:ec:51:73:b8:87:ce:
        cf:2a:b2:02:eb:59:85:10:68:a9:c1:ed:64:fb:dd:7f:40:e9:
        2a:6c:6f:59:0f:45:14:ca:03:f4:2e:68:50:6e:5a:04:c4:3d:
        5c:d1:a8:ae:ca:02:39:96:44:f9:cd:03:4f:f3:ee:67:22:63:
        32:c9:59:65:3a:4e:ed:73:d5:b2:96:4e:63:44:b0:7c:91:28:
        8c:0d:16:be:ff:22:1d:02:a4:0e:6a:4b:e7:7e:a4:9a:53:67:
        23:73:9e:c3:00:03:2d:09:a6:01:a2:a7:d3:1e:66:aa:92:83:
        98:af:02:80:59:18:1f:b2:d6:09:0e:d9:41:c7:da:55:ab:91:
        7a:6a:ad:5c:f9:c5:2f:c1:88:d0:f7:eb:12:f5:56:23:d2:c1:
        eb:d3:b8:6d:ff:cd:9f:a6:78:97:2e:3c:0a:ab:23:c6:1f:54:
        b5:b8:c7:9c:ae:51:1d:e0:6d:0f:32:0e:2f:43:b8:ef:f3:bf:
        5b:28:dc:b0:a8:b2:6c:42:61:2d:70:34:e9:1b:78:73:18:6b:
        e5:a2:c3:b4:c8:d3:05:8e:aa:9d:ba:f4:af:c8:13:c5:c4:1e:
        39:98:1e:4c
-----BEGIN CERTIFICATE-----
MIIFtDCCBJygAwIBAgIIMzAwMDAwNzMwDQYJKoZIhvcNAQELBQAwZzELMAkGA1UE
BhMCSlAxHDAaBgNVBAoME0phcGFuZXNlIEdvdmVybm1lbnQxHzAdBgNVBAsMFk5h
dGlvbmFsIFBvbGljZSBBZ2VuY3kxGTAXBgNVBAsMEE5QQSBJQ0RMIFJvb3QgQ0Ew
HhcNMjQwMjAyMTIwNTM5WhcNMjkwMjAxMTQ1OTU5WjCBoDELMAkGA1UEBhMCSlAx
HDAaBgNVBAoME0phcGFuZXNlIEdvdmVybm1lbnQxHzAdBgNVBAsMFk5hdGlvbmFs
IFBvbGljZSBBZ2VuY3kxNzA1BgNVBAsMLlByZWZlY3R1cmFsIFB1YmxpYyBTYWZl
dHkgQ29tbWlzc2lvbnMgZm9yIElDREwxGTAXBgNVBAMMEEhha29kYXRlIEFsdEFQ
U0MwggEiMA0GCSqGSIb3DQEBAQUAA4IBDwAwggEKAoIBAQCmkLDYj6139vrnG6Qw
TLIoQ5ScdwSi7NmN+gigApyNtzSyXxKSkTwVMzQekUm+QCcb2tedmtkmibhmnNKx
lcm+sYaI2YFgl38UMigZ/JAfL0VF7s6SjtYyjOHsYlWy96AdggJ60zydMBj1JuWP
Zkwg8jVgi5NEDvorPA+ry0B2C51WwjWXkmfCi1P/7WZRP9NUB36a8ly9AqnntjHH
5x8hVwJbRS7HFEaq8+GpgJvmd+Ne/0uSUTZmdTY5PCGeG4zCOPuJfRAcr2EOF3dO
DidOFZj4WDI8irTo6jCAEEd8FWnMhVf47dGSH0qjJ6/JUdmbn6hMtzAaiFnLafXx
JfWlAgMBAAGjggIoMIICJDCBmAYDVR0jBIGQMIGNgBQRzY5gREdXT0/L6efLoUbf
ug5Qi6FrpGkwZzELMAkGA1UEBhMCSlAxHDAaBgNVBAoME0phcGFuZXNlIEdvdmVy
bm1lbnQxHzAdBgNVBAsMFk5hdGlvbmFsIFBvbGljZSBBZ2VuY3kxGTAXBgNVBAsM
EE5QQSBJQ0RMIFJvb3QgQ0GCCDIwMDAwMDE2MB0GA1UdDgQWBBRdk+MKo227/LUu
Si/0OMxBJoRuwjAOBgNVHQ8BAf8EBAMCBsAwQAYDVR0gAQH/BDYwNDAyBgsqgwiG
jhgHBQEBCjAjMCEGCCsGAQUFBwIBFhVodHRwOi8vd3d3Lm5wYS5nby5qcC8wdAYD
VR0SBG0wa6RpMGcxCzAJBgNVBAYTAkpQMRgwFgYDVQQKDA/ml6XmnKzlm73mlL/l
upwxEjAQBgNVBAsMCeitpuWvn+W6gTEqMCgGA1UECwwh6K2m5a+f5bqB6YGL6Lui
5YWN6Kix6Ki86KqN6Ki85bGAMIGfBgNVHR8EgZcwgZQwgZGggY6ggYukgYgwgYUx
CzAJBgNVBAYTAkpQMRwwGgYDVQQKDBNKYXBhbmVzZSBHb3Zlcm5tZW50MR8wHQYD
VQQLDBZOYXRpb25hbCBQb2xpY2UgQWdlbmN5MTcwNQYDVQQLDC5QcmVmZWN0dXJh
bCBQdWJsaWMgU2FmZXR5IENvbW1pc3Npb25zIGZvciBJQ0RMMA0GCSqGSIb3DQEB
CwUAA4IBAQAecq4BO/WSue7IFxkM+yExXYVzAQfU7cTQsUJqvOTsUXO4h87PKrIC
61mFEGipwe1k+91/QOkqbG9ZD0UUygP0LmhQbloExD1c0aiuygI5lkT5zQNP8+5n
ImMyyVllOk7tc9Wylk5jRLB8kSiMDRa+/yIdAqQOakvnfqSaU2cjc57DAAMtCaYB
oqfTHmaqkoOYrwKAWRgfstYJDtlBx9pVq5F6aq1c+cUvwYjQ9+sS9VYj0sHr07ht
/82fpniXLjwKqyPGH1S1uMecrlEd4G0PMg4vQ7jv879bKNywqLJsQmEtcDTpG3hz
GGvlosO0yNMFjqqduvSvyBPFxB45mB5M
-----END CERTIFICATE-----
