Certificate:
    Data:
        Version: 3 (0x2)
        Serial Number:
            33:30:30:30:30:30:34:33:ee:12:3c:91:eb:af:6d:c5:3f:45
        Signature Algorithm: sha256WithRSAEncryption
        Issuer: C=JP, O=Japanese Government, OU=National Police Agency, OU=NPA ICDL Root CA
        Validity
            Not Before: Jun 19 06:08:57 2023 GMT
            Not After : Jun 18 14:59:59 2028 GMT
        Subject: C=JP, O=Japanese Government, OU=National Police Agency, OU=Prefectural Public Safety Commissions for ICDL, CN=Hiroshima AltPPSC
        Subject Public Key Info:
            Public Key Algorithm: rsaEncryption
                Public-Key: (2048 bit)
                Modulus:
                    00:a0:55:84:2e:81:0b:71:65:7a:d9:da:b6:e4:69:
                    9b:7f:a6:5c:9c:df:d4:ec:c7:9e:bc:ba:78:92:4c:
                    3e:4a:06:e9:c5:aa:a2:dc:fb:ad:c1:fa:34:44:16:
                    ad:e1:f9:f2:17:69:c0:f3:0b:dc:bb:72:4a:31:40:
                    d5:97:0a:88:81:dd:00:ea:16:da:9a:78:b4:4e:7e:
                    11:39:0f:78:59:97:45:6f:b4:8b:97:ea:42:17:43:
                    94:f8:4c:8e:a3:bf:ca:92:f7:9d:a4:7d:59:5d:92:
                    e8:b8:bd:fb:e1:e5:9b:70:99:dc:fb:ec:a3:69:3d:
                    15:e2:36:da:17:c4:05:2c:8c:91:f1:7b:60:f2:c5:
                    d5:96:2c:f8:15:da:93:49:ce:25:34:ea:06:1d:c8:
                    27:9c:e1:b7:9b:ca:ba:d3:9a:9b:49:6b:66:fa:35:
                    7d:50:c2:e2:d0:bb:d9:63:bf:12:93:51:44:69:bd:
                    ba:7a:68:d2:7f:fb:07:af:2d:39:03:11:3b:cd:bb:
                    b1:88:67:62:6b:c5:69:1a:b3:4f:be:ba:8f:ec:27:
                    da:89:70:2a:56:61:a5:e5:44:23:8c:ad:52:a9:84:
                    a8:41:d0:c9:7d:ee:b5:6a:54:df:d9:75:6e:0e:3a:
                    1d:de:4f:d2:19:19:33:d1:a6:e8:02:bc:b0:fc:c5:
                    e7:ab
                Exponent: 65537 (0x10001)
        X509v3 extensions:
            X509v3 Authority Key Identifier: 
                keyid:11:CD:8E:60:44:47:57:4F:4F:CB:E9:E7:CB:A1:46:DF:BA:0E:50:8B
                DirName:/C=JP/O=Japanese Government/OU=National Police Agency/OU=NPA ICDL Root CA
                serial:32:30:30:30:30:30:31:36
            X509v3 Subject Key Identifier: 
                BB:40:46:E7:2C:F3:62:58:C7:45:CF:39:9C:1A:83:E1:67:BE:6B:AC
            X509v3 Key Usage: critical
                Digital Signature, Non Repudiation
            X509v3 Certificate Policies: critical
                Policy: 1.2.392.100120.7.5.1.1.10
                  CPS: http://www.npa.go.jp/
            X509v3 Issuer Alternative Name: 
                DirName:/C=JP/O=\xE6\x97\xA5\xE6\x9C\xAC\xE5\x9B\xBD\xE6\x94\xBF\xE5\xBA\x9C/OU=\xE8\xAD\xA6\xE5\xAF\x9F\xE5\xBA\x81/OU=\xE8\xAD\xA6\xE5\xAF\x9F\xE5\xBA\x81\xE9\x81\x8B\xE8\xBB\xA2\xE5\x85\x8D\xE8\xA8\xB1\xE8\xA8\xBC\xE8\xAA\x8D\xE8\xA8\xBC\xE5\xB1\x80
            X509v3 CRL Distribution Points: 
                Full Name:
                  DirName:C = JP, O = Japanese Government, OU = National Police Agency, OU = Prefectural Public Safety Commissions for ICDL
    Signature Algorithm: sha256WithRSAEncryption
    Signature Value:
        77:31:a6:2f:0f:4d:bf:78:6f:ee:99:02:98:a8:49:64:db:f7:
        4a:d2:34:e6:97:13:08:6a:2c:87:f0:99:c2:71:63:5b:6a:26:
        c6:0f:b8:93:c9:4a:5e:09:29:6d:6c:ff:28:f8:7a:43:84:9b:
        d1:c8:40:62:86:79:7f:bd:2d:70:c4:cf:ca:f1:d9:cd:ad:51:
        52:4d:59:ec:56:0c:05:6c:58:b4:d7:f4:0c:7b:1c:07:fe:6f:
        a5:dc:6a:92:24:61:7f:35:b0:39:8e:fc:e8:3b:fc:c4:76:76:
        92:29:64:d5:ee:fa:d9:20:b3:b6:d0:2d:0f:d3:67:d3:a3:bd:
        ed:bc:ff:89:c7:d2:f1:89:d2:4e:07:ad:37:aa:c3:54:4f:26:
        e4:93:d5:08:ad:7d:66:a6:8c:bb:67:af:11:01:46:99:04:7e:
        7b:04:6c:73:47:9d:f1:58:10:69:1c:0e:25:ec:05:6a:3a:92:
        0f:6a:79:5d:fd:50:91:c0:1f:3d:1d:37:f6:12:60:70:c0:48:
        e3:3d:ed:a6:e6:f6:07:34:59:6c:1f:06:0f:09:f8:0e:57:92:
        a1:c5:e8:8b:70:32:a1:35:ed:42:ad:3a:78:b2:1f:69:fe:67:
        fd:d4:d8:b8:fe:e7:13:d0:ef:0b:be:e9:c9:11:1b:64:ae:d9:
        22:77:f0:d6
-----BEGIN CERTIFICATE-----
MIIFvzCCBKegAwIBAgISMzAwMDAwNDPuEjyR669txT9FMA0GCSqGSIb3DQEBCwUA
MGcxCzAJBgNVBAYTAkpQMRwwGgYDVQQKDBNKYXBhbmVzZSBHb3Zlcm5tZW50MR8w
HQYDVQQLDBZOYXRpb25hbCBQb2xpY2UgQWdlbmN5MRkwFwYDVQQLDBBOUEEgSUNE
TCBSb290IENBMB4XDTIzMDYxOTA2MDg1N1oXDTI4MDYxODE0NTk1OVowgaExCzAJ
BgNVBAYTAkpQMRwwGgYDVQQKDBNKYXBhbmVzZSBHb3Zlcm5tZW50MR8wHQYDVQQL
DBZOYXRpb25hbCBQb2xpY2UgQWdlbmN5MTcwNQYDVQQLDC5QcmVmZWN0dXJhbCBQ
dWJsaWMgU2FmZXR5IENvbW1pc3Npb25zIGZvciBJQ0RMMRowGAYDVQQDDBFIaXJv
c2hpbWEgQWx0UFBTQzCCASIwDQYJKoZIhvcNAQEBBQADggEPADCCAQoCggEBAKBV
hC6BC3FletnatuRpm3+mXJzf1OzHnry6eJJMPkoG6cWqotz7rcH6NEQWreH58hdp
wPML3LtySjFA1ZcKiIHdAOoW2pp4tE5+ETkPeFmXRW+0i5fqQhdDlPhMjqO/ypL3
naR9WV2S6Li9++Hlm3CZ3Pvso2k9FeI22hfEBSyMkfF7YPLF1ZYs+BXak0nOJTTq
Bh3IJ5zht5vKutOam0lrZvo1fVDC4tC72WO/EpNRRGm9unpo0n/7B68tOQMRO827
sYhnYmvFaRqzT766j+wn2olwKlZhpeVEI4ytUqmEqEHQyX3utWpU39l1bg46Hd5P
0hkZM9Gm6AK8sPzF56sCAwEAAaOCAigwggIkMIGYBgNVHSMEgZAwgY2AFBHNjmBE
R1dPT8vp58uhRt+6DlCLoWukaTBnMQswCQYDVQQGEwJKUDEcMBoGA1UECgwTSmFw
YW5lc2UgR292ZXJubWVudDEfMB0GA1UECwwWTmF0aW9uYWwgUG9saWNlIEFnZW5j
eTEZMBcGA1UECwwQTlBBIElDREwgUm9vdCBDQYIIMjAwMDAwMTYwHQYDVR0OBBYE
FLtARucs82JYx0XPOZwag+FnvmusMA4GA1UdDwEB/wQEAwIGwDBABgNVHSABAf8E
NjA0MDIGCyqDCIaOGAcFAQEKMCMwIQYIKwYBBQUHAgEWFWh0dHA6Ly93d3cubnBh
LmdvLmpwLzB0BgNVHRIEbTBrpGkwZzELMAkGA1UEBhMCSlAxGDAWBgNVBAoMD+aX
peacrOWbveaUv+W6nDESMBAGA1UECwwJ6K2m5a+f5bqBMSowKAYDVQQLDCHorabl
r5/luoHpgYvou6LlhY3oqLHoqLzoqo3oqLzlsYAwgZ8GA1UdHwSBlzCBlDCBkaCB
jqCBi6SBiDCBhTELMAkGA1UEBhMCSlAxHDAaBgNVBAoME0phcGFuZXNlIEdvdmVy
bm1lbnQxHzAdBgNVBAsMFk5hdGlvbmFsIFBvbGljZSBBZ2VuY3kxNzA1BgNVBAsM
LlByZWZlY3R1cmFsIFB1YmxpYyBTYWZldHkgQ29tbWlzc2lvbnMgZm9yIElDREww
DQYJKoZIhvcNAQELBQADggEBAHcxpi8PTb94b+6ZApioSWTb90rSNOaXEwhqLIfw
mcJxY1tqJsYPuJPJSl4JKW1s/yj4ekOEm9HIQGKGeX+9LXDEz8rx2c2tUVJNWexW
DAVsWLTX9Ax7HAf+b6XcapIkYX81sDmO/Og7/MR2dpIpZNXu+tkgs7bQLQ/TZ9Oj
ve28/4nH0vGJ0k4HrTeqw1RPJuST1QitfWamjLtnrxEBRpkEfnsEbHNHnfFYEGkc
DiXsBWo6kg9qeV39UJHAHz0dN/YSYHDASOM97abm9gc0WWwfBg8J+A5XkqHF6Itw
MqE17UKtOniyH2n+Z/3U2Lj+5xPQ7wu+6ckRG2Su2SJ38NY=
-----END CERTIFICATE-----
