Certificate:
    Data:
        Version: 3 (0x2)
        Serial Number:
            33:30:30:30:30:31:31:34
        Signature Algorithm: sha256WithRSAEncryption
        Issuer: C=JP, O=Japanese Government, OU=National Police Agency, OU=NPA ICDL Root CA
        Validity
            Not Before: Sep 17 07:38:02 2024 GMT
            Not After : Sep 16 14:59:59 2029 GMT
        Subject: C=JP, O=Japanese Government, OU=National Police Agency, OU=Prefectural Public Safety Commissions for ICDL, CN=Hiroshima PPSC
        Subject Public Key Info:
            Public Key Algorithm: rsaEncryption
                Public-Key: (2048 bit)
                Modulus:
                    00:b8:ed:6a:c0:75:e8:91:bc:3d:69:56:67:10:07:
                    7e:42:d8:54:42:e4:f7:ca:e6:e1:70:8b:40:c3:a8:
                    96:1f:6b:10:33:43:cd:d1:b4:d2:b7:58:77:28:19:
                    39:75:d4:30:49:e2:d4:95:87:a8:c9:f6:f1:c3:5f:
                    4c:93:06:92:e9:72:25:f9:99:75:21:c5:11:5d:f8:
                    0e:7b:c9:2c:02:0f:68:b5:ad:6f:28:81:c2:cc:a3:
                    2f:ee:cf:e3:d4:53:21:f3:e6:ad:e4:cf:1b:59:ba:
                    64:b8:36:8b:88:6c:4d:3a:ac:4f:9c:9a:23:4c:2d:
                    55:11:33:d6:0f:95:7d:e5:dd:19:98:ca:85:20:53:
                    30:aa:9e:4b:4f:ff:54:8c:68:cc:9b:62:90:ac:00:
                    0d:20:34:bd:7d:22:df:72:34:5a:72:5b:43:44:6c:
                    1f:07:87:5a:9f:9d:9f:75:8a:8c:b0:02:6d:51:35:
                    40:5e:61:dd:35:35:6b:cb:ed:2a:93:27:04:35:1a:
                    87:b0:ed:f2:ec:c6:be:a5:ba:16:2d:c1:64:08:5c:
                    ec:44:60:55:1f:67:7c:3e:bb:b9:3f:65:bd:06:bf:
                    ec:bb:86:80:19:57:53:95:30:eb:92:a2:b9:f8:ec:
                    78:28:59:6e:0e:b1:db:f5:e1:9a:08:f8:34:d4:84:
                    93:b5
                Exponent: 65537 (0x10001)
        X509v3 extensions:
            X509v3 Authority Key Identifier: 
                keyid:11:CD:8E:60:44:47:57:4F:4F:CB:E9:E7:CB:A1:46:DF:BA:0E:50:8B
                DirName:/C=JP/O=Japanese Government/OU=National Police Agency/OU=NPA ICDL Root CA
                serial:32:30:30:30:30:30:31:36
            X509v3 Subject Key Identifier: 
                E7:F5:C8:70:6F:EB:E6:DB:72:E3:3B:1C:B3:70:BA:98:1D:FA:AD:95
            X509v3 Key Usage: critical
                Digital Signature, Non Repudiation
            X509v3 Certificate Policies: critical
                Policy: 1.2.392.100120.7.5.1.1.10
                  CPS: http://www.npa.go.jp/
            X509v3 Subject Alternative Name: 
                DirName:/C=JP/O=\xE6\x97\xA5\xE6\x9C\xAC\xE5\x9B\xBD\xE6\x94\xBF\xE5\xBA\x9C/OU=\xE8\xAD\xA6\xE5\xAF\x9F\xE5\xBA\x81/OU=\xE9\x83\xBD\xE9\x81\x93\xE5\xBA\x9C\xE7\x9C\x8C\xE5\x85\xAC\xE5\xAE\x89\xE5\xA7\x94\xE5\x93\xA1\xE4\xBC\x9A
            X509v3 Issuer Alternative Name: 
                DirName:/C=JP/O=\xE6\x97\xA5\xE6\x9C\xAC\xE5\x9B\xBD\xE6\x94\xBF\xE5\xBA\x9C/OU=\xE8\xAD\xA6\xE5\xAF\x9F\xE5\xBA\x81/OU=\xE8\xAD\xA6\xE5\xAF\x9F\xE5\xBA\x81\xE9\x81\x8B\xE8\xBB\xA2\xE5\x85\x8D\xE8\xA8\xB1\xE8\xA8\xBC\xE8\xAA\x8D\xE8\xA8\xBC\xE5\xB1\x80
            X509v3 CRL Distribution Points: 
                Full Name:
                  DirName:C = JP, O = Japanese Government, OU = National Police Agency, OU = Prefectural Public Safety Commissions for ICDL
    Signature Algorithm: sha256WithRSAEncryption
    Signature Value:
        82:cc:df:f3:90:70:79:90:dc:a2:d9:66:01:da:28:93:76:c2:
        bd:47:6c:df:76:76:5f:83:76:30:3a:f8:08:57:8b:28:bf:dd:
        53:fb:7e:6f:c3:6c:3c:e8:71:57:8c:f8:ce:32:e0:49:d3:33:
        77:fe:b8:11:3a:05:78:e2:93:a3:e4:c9:62:44:bc:40:dd:7a:
        34:0d:df:f6:a6:4d:22:93:15:99:48:eb:32:a2:c7:6b:97:3c:
        b6:f6:0e:33:a4:4f:12:69:fd:0f:f0:76:05:7c:0d:68:b8:dc:
        7b:23:73:8b:4e:96:3b:a1:99:ba:ae:77:57:16:a5:75:99:89:
        c5:d0:5e:b5:26:55:4f:92:38:e0:40:07:b3:1f:0e:9d:bf:a7:
        a7:66:cb:33:1b:27:dc:d6:23:7f:f9:6d:0b:61:6c:f4:60:68:
        7d:06:15:2c:14:9a:7d:25:17:70:49:4b:38:3f:f4:32:b0:58:
        1e:42:24:69:e6:cb:37:32:34:77:d6:fb:a9:f0:58:bc:7d:71:
        1e:df:01:92:9e:d8:b0:81:52:99:d8:c3:4f:de:68:40:8c:82:
        53:e9:39:70:06:b4:b2:b3:0b:e5:cb:4d:01:4b:2f:d0:6c:45:
        ec:c8:4f:16:d7:de:50:c6:36:da:d8:df:f6:a0:84:64:a4:9a:
        c3:68:7b:54
-----BEGIN CERTIFICATE-----
MIIGSjCCBTKgAwIBAgIIMzAwMDAxMTQwDQYJKoZIhvcNAQELBQAwZzELMAkGA1UE
BhMCSlAxHDAaBgNVBAoME0phcGFuZXNlIEdvdmVybm1lbnQxHzAdBgNVBAsMFk5h
dGlvbmFsIFBvbGljZSBBZ2VuY3kxGTAXBgNVBAsMEE5QQSBJQ0RMIFJvb3QgQ0Ew
HhcNMjQwOTE3MDczODAyWhcNMjkwOTE2MTQ1OTU5WjCBnjELMAkGA1UEBhMCSlAx
HDAaBgNVBAoME0phcGFuZXNlIEdvdmVybm1lbnQxHzAdBgNVBAsMFk5hdGlvbmFs
IFBvbGljZSBBZ2VuY3kxNzA1BgNVBAsMLlByZWZlY3R1cmFsIFB1YmxpYyBTYWZl
dHkgQ29tbWlzc2lvbnMgZm9yIElDREwxFzAVBgNVBAMMDkhpcm9zaGltYSBQUFND
MIIBIjANBgkqhkiG9w0BAQEFAAOCAQ8AMIIBCgKCAQEAuO1qwHXokbw9aVZnEAd+
QthUQuT3yubhcItAw6iWH2sQM0PN0bTSt1h3KBk5ddQwSeLUlYeoyfbxw19MkwaS
6XIl+Zl1IcURXfgOe8ksAg9ota1vKIHCzKMv7s/j1FMh8+at5M8bWbpkuDaLiGxN
OqxPnJojTC1VETPWD5V95d0ZmMqFIFMwqp5LT/9UjGjMm2KQrAANIDS9fSLfcjRa
cltDRGwfB4dan52fdYqMsAJtUTVAXmHdNTVry+0qkycENRqHsO3y7Ma+pboWLcFk
CFzsRGBVH2d8Pru5P2W9Br/su4aAGVdTlTDrkqK5+Ox4KFluDrHb9eGaCPg01IST
tQIDAQABo4ICwDCCArwwgZgGA1UdIwSBkDCBjYAUEc2OYERHV09Py+nny6FG37oO
UIuha6RpMGcxCzAJBgNVBAYTAkpQMRwwGgYDVQQKDBNKYXBhbmVzZSBHb3Zlcm5t
ZW50MR8wHQYDVQQLDBZOYXRpb25hbCBQb2xpY2UgQWdlbmN5MRkwFwYDVQQLDBBO
UEEgSUNETCBSb290IENBgggyMDAwMDAxNjAdBgNVHQ4EFgQU5/XIcG/r5tty4zsc
s3C6mB36rZUwDgYDVR0PAQH/BAQDAgbAMEAGA1UdIAEB/wQ2MDQwMgYLKoMIho4Y
BwUBAQowIzAhBggrBgEFBQcCARYVaHR0cDovL3d3dy5ucGEuZ28uanAvMIGVBgNV
HREEgY0wgYqkgYcwgYQxCzAJBgNVBAYTAkpQMRgwFgYDVQQKDA/ml6XmnKzlm73m
lL/lupwxEjAQBgNVBAsMCeitpuWvn+W6gTEkMCIGA1UECwwb6YO96YGT5bqc55yM
5YWs5a6J5aeU5ZOh5LyaMSEwHwYDVQQDDBjluoPls7bnnIzlhazlronlp5Tlk6Hk
vJowdAYDVR0SBG0wa6RpMGcxCzAJBgNVBAYTAkpQMRgwFgYDVQQKDA/ml6XmnKzl
m73mlL/lupwxEjAQBgNVBAsMCeitpuWvn+W6gTEqMCgGA1UECwwh6K2m5a+f5bqB
6YGL6Lui5YWN6Kix6Ki86KqN6Ki85bGAMIGfBgNVHR8EgZcwgZQwgZGggY6ggYuk
gYgwgYUxCzAJBgNVBAYTAkpQMRwwGgYDVQQKDBNKYXBhbmVzZSBHb3Zlcm5tZW50
MR8wHQYDVQQLDBZOYXRpb25hbCBQb2xpY2UgQWdlbmN5MTcwNQYDVQQLDC5QcmVm
ZWN0dXJhbCBQdWJsaWMgU2FmZXR5IENvbW1pc3Npb25zIGZvciBJQ0RMMA0GCSqG
SIb3DQEBCwUAA4IBAQCCzN/zkHB5kNyi2WYB2iiTdsK9R2zfdnZfg3YwOvgIV4so
v91T+35vw2w86HFXjPjOMuBJ0zN3/rgROgV44pOj5MliRLxA3Xo0Dd/2pk0ikxWZ
SOsyosdrlzy29g4zpE8Saf0P8HYFfA1ouNx7I3OLTpY7oZm6rndXFqV1mYnF0F61
JlVPkjjgQAezHw6dv6enZsszGyfc1iN/+W0LYWz0YGh9BhUsFJp9JRdwSUs4P/Qy
sFgeQiRp5ss3MjR31vup8Fi8fXEe3wGSntiwgVKZ2MNP3mhAjIJT6TlwBrSyswvl
y00BSy/QbEXsyE8W195Qxjba2N/2oIRkpJrDaHtU
-----END CERTIFICATE-----
