Certificate:
    Data:
        Version: 3 (0x2)
        Serial Number:
            32:30:30:30:30:30:36:38
        Signature Algorithm: sha256WithRSAEncryption
        Issuer: C=JP, O=Japanese Government, OU=National Police Agency, OU=NPA ICDL Root CA
        Validity
            Not Before: Feb  6 02:47:54 2023 GMT
            Not After : Feb  5 14:59:59 2028 GMT
        Subject: C=JP, O=Japanese Government, OU=National Police Agency, OU=Prefectural Public Safety Commissions for ICDL, CN=Hiroshima PPSC
        Subject Public Key Info:
            Public Key Algorithm: rsaEncryption
                Public-Key: (2048 bit)
                Modulus:
                    00:a7:c7:d9:1c:2d:1f:fd:f0:55:aa:5f:ee:99:de:
                    b6:0f:c5:57:70:88:0f:dc:7c:c6:14:3d:38:95:82:
                    09:73:a7:83:bd:c1:3d:3b:ba:f5:83:33:1a:1c:04:
                    1e:50:d7:d2:5e:aa:d5:3e:a2:be:1c:5a:65:73:0d:
                    f0:2d:f2:66:51:ca:53:da:c0:9c:db:32:e0:b8:4d:
                    ab:91:ba:eb:6b:c6:20:56:0f:fa:8c:ed:7d:76:bb:
                    14:d6:80:c7:d3:95:e0:2e:ca:d5:97:64:20:28:84:
                    af:05:d7:e9:8c:e1:bb:50:31:5d:68:6d:fd:1d:c0:
                    d0:27:b8:5c:4b:00:18:5a:b9:9b:cf:db:f0:00:2b:
                    5b:c8:a1:8e:3b:10:47:b1:ee:18:d0:7e:09:26:57:
                    30:37:18:86:b2:20:42:2f:66:96:78:e9:57:7b:84:
                    61:3c:17:64:14:78:e6:a4:c3:4c:41:27:01:8f:a2:
                    6e:dc:34:93:1e:5b:2a:33:e4:27:6f:e9:da:af:9c:
                    12:cb:04:b1:dd:28:42:a3:6b:c4:f4:a6:f8:1e:f6:
                    15:dc:83:9d:47:64:74:96:40:7e:ce:87:80:73:a7:
                    4f:9d:4f:53:cc:01:34:ac:a1:8f:03:56:d1:70:c9:
                    fd:28:40:c4:1a:67:2c:5c:8b:74:73:cf:f9:09:2b:
                    79:e3
                Exponent: 65537 (0x10001)
        X509v3 extensions:
            X509v3 Authority Key Identifier: 
                keyid:11:CD:8E:60:44:47:57:4F:4F:CB:E9:E7:CB:A1:46:DF:BA:0E:50:8B
                DirName:/C=JP/O=Japanese Government/OU=National Police Agency/OU=NPA ICDL Root CA
                serial:32:30:30:30:30:30:31:36
            X509v3 Subject Key Identifier: 
                9B:9F:5F:23:67:F2:96:92:8A:67:B2:78:A2:90:45:AE:C8:41:88:E5
            X509v3 Key Usage: critical
                Digital Signature, Non Repudiation
            X509v3 Certificate Policies: critical
                Policy: 1.2.392.100120.7.5.1.1.10
                  CPS: http://www.npa.go.jp/
            X509v3 Subject Alternative Name: 
                DirName:/C=JP/O=\xE6\x97\xA5\xE6\x9C\xAC\xE5\x9B\xBD\xE6\x94\xBF\xE5\xBA\x9C/OU=\xE8\xAD\xA6\xE5\xAF\x9F\xE5\xBA\x81/OU=\xE9\x83\xBD\xE9\x81\x93\xE5\xBA\x9C\xE7\x9C\x8C\xE5\x85\xAC\xE5\xAE\x89\xE5\xA7\x94\xE5\x93\xA1\xE4\xBC\x9A
            X509v3 Issuer Alternative Name: 
                DirName:/C=JP/O=\xE6\x97\xA5\xE6\x9C\xAC\xE5\x9B\xBD\xE6\x94\xBF\xE5\xBA\x9C/OU=\xE8\xAD\xA6\xE5\xAF\x9F\xE5\xBA\x81/OU=\xE8\xAD\xA6\xE5\xAF\x9F\xE5\xBA\x81\xE9\x81\x8B\xE8\xBB\xA2\xE5\x85\x8D\xE8\xA8\xB1\xE8\xA8\xBC\xE8\xAA\x8D\xE8\xA8\xBC\xE5\xB1\x80
            X509v3 CRL Distribution Points: 
                Full Name:
                  DirName:C = JP, O = Japanese Government, OU = National Police Agency, OU = Prefectural Public Safety Commissions for ICDL
    Signature Algorithm: sha256WithRSAEncryption
    Signature Value:
        44:fd:74:65:89:b5:ae:7c:b4:69:13:b8:a7:eb:98:8f:76:56:
        d2:9c:6a:c6:4a:f3:86:80:83:c8:5d:2d:35:ba:4c:23:81:ba:
        d7:6d:c6:14:0c:e8:71:3b:28:d2:10:93:6b:4d:c1:89:15:c2:
        c0:3f:22:ec:d6:53:a7:0a:bc:ce:bd:bd:0e:76:5e:2d:74:0e:
        2a:b6:3f:6b:02:53:6c:65:7a:73:3d:c3:d6:1f:2d:ea:0e:91:
        90:cf:b5:b9:a2:8c:c4:14:5c:a0:7d:45:8f:ca:07:58:13:0d:
        42:82:16:5f:47:da:e8:0d:07:e5:bb:d0:3c:f2:57:6a:31:c8:
        e1:55:ee:2d:9f:c8:3d:15:e5:82:b3:d4:26:06:6a:41:aa:23:
        2f:ce:92:38:f2:1d:f8:eb:f6:04:3e:ae:eb:ef:38:83:72:0a:
        11:f4:8b:ea:52:44:f1:a3:6f:8b:1e:62:ae:7d:69:1d:04:d4:
        5e:65:c8:04:29:f9:71:d6:1b:b3:16:05:c6:92:2e:37:68:54:
        f2:51:26:89:36:72:72:35:34:f9:0c:2b:c3:ca:5f:d6:76:cf:
        e1:c8:0a:1f:7f:f5:2b:fd:7c:58:c3:dc:27:cd:e0:82:19:6c:
        d3:de:33:ad:ea:79:2e:b8:1f:3d:8d:67:89:24:6f:75:a0:e5:
        a8:dc:6d:4b
-----BEGIN CERTIFICATE-----
MIIGSjCCBTKgAwIBAgIIMjAwMDAwNjgwDQYJKoZIhvcNAQELBQAwZzELMAkGA1UE
BhMCSlAxHDAaBgNVBAoME0phcGFuZXNlIEdvdmVybm1lbnQxHzAdBgNVBAsMFk5h
dGlvbmFsIFBvbGljZSBBZ2VuY3kxGTAXBgNVBAsMEE5QQSBJQ0RMIFJvb3QgQ0Ew
HhcNMjMwMjA2MDI0NzU0WhcNMjgwMjA1MTQ1OTU5WjCBnjELMAkGA1UEBhMCSlAx
HDAaBgNVBAoME0phcGFuZXNlIEdvdmVybm1lbnQxHzAdBgNVBAsMFk5hdGlvbmFs
IFBvbGljZSBBZ2VuY3kxNzA1BgNVBAsMLlByZWZlY3R1cmFsIFB1YmxpYyBTYWZl
dHkgQ29tbWlzc2lvbnMgZm9yIElDREwxFzAVBgNVBAMMDkhpcm9zaGltYSBQUFND
MIIBIjANBgkqhkiG9w0BAQEFAAOCAQ8AMIIBCgKCAQEAp8fZHC0f/fBVql/umd62
D8VXcIgP3HzGFD04lYIJc6eDvcE9O7r1gzMaHAQeUNfSXqrVPqK+HFplcw3wLfJm
UcpT2sCc2zLguE2rkbrra8YgVg/6jO19drsU1oDH05XgLsrVl2QgKISvBdfpjOG7
UDFdaG39HcDQJ7hcSwAYWrmbz9vwACtbyKGOOxBHse4Y0H4JJlcwNxiGsiBCL2aW
eOlXe4RhPBdkFHjmpMNMQScBj6Ju3DSTHlsqM+Qnb+nar5wSywSx3ShCo2vE9Kb4
HvYV3IOdR2R0lkB+zoeAc6dPnU9TzAE0rKGPA1bRcMn9KEDEGmcsXIt0c8/5CSt5
4wIDAQABo4ICwDCCArwwgZgGA1UdIwSBkDCBjYAUEc2OYERHV09Py+nny6FG37oO
UIuha6RpMGcxCzAJBgNVBAYTAkpQMRwwGgYDVQQKDBNKYXBhbmVzZSBHb3Zlcm5t
ZW50MR8wHQYDVQQLDBZOYXRpb25hbCBQb2xpY2UgQWdlbmN5MRkwFwYDVQQLDBBO
UEEgSUNETCBSb290IENBgggyMDAwMDAxNjAdBgNVHQ4EFgQUm59fI2fylpKKZ7J4
opBFrshBiOUwDgYDVR0PAQH/BAQDAgbAMEAGA1UdIAEB/wQ2MDQwMgYLKoMIho4Y
BwUBAQowIzAhBggrBgEFBQcCARYVaHR0cDovL3d3dy5ucGEuZ28uanAvMIGVBgNV
HREEgY0wgYqkgYcwgYQxCzAJBgNVBAYTAkpQMRgwFgYDVQQKDA/ml6XmnKzlm73m
lL/lupwxEjAQBgNVBAsMCeitpuWvn+W6gTEkMCIGA1UECwwb6YO96YGT5bqc55yM
5YWs5a6J5aeU5ZOh5LyaMSEwHwYDVQQDDBjluoPls7bnnIzlhazlronlp5Tlk6Hk
vJowdAYDVR0SBG0wa6RpMGcxCzAJBgNVBAYTAkpQMRgwFgYDVQQKDA/ml6XmnKzl
m73mlL/lupwxEjAQBgNVBAsMCeitpuWvn+W6gTEqMCgGA1UECwwh6K2m5a+f5bqB
6YGL6Lui5YWN6Kix6Ki86KqN6Ki85bGAMIGfBgNVHR8EgZcwgZQwgZGggY6ggYuk
gYgwgYUxCzAJBgNVBAYTAkpQMRwwGgYDVQQKDBNKYXBhbmVzZSBHb3Zlcm5tZW50
MR8wHQYDVQQLDBZOYXRpb25hbCBQb2xpY2UgQWdlbmN5MTcwNQYDVQQLDC5QcmVm
ZWN0dXJhbCBQdWJsaWMgU2FmZXR5IENvbW1pc3Npb25zIGZvciBJQ0RMMA0GCSqG
SIb3DQEBCwUAA4IBAQBE/XRlibWufLRpE7in65iPdlbSnGrGSvOGgIPIXS01ukwj
gbrXbcYUDOhxOyjSEJNrTcGJFcLAPyLs1lOnCrzOvb0Odl4tdA4qtj9rAlNsZXpz
PcPWHy3qDpGQz7W5oozEFFygfUWPygdYEw1CghZfR9roDQflu9A88ldqMcjhVe4t
n8g9FeWCs9QmBmpBqiMvzpI48h346/YEPq7r7ziDcgoR9IvqUkTxo2+LHmKufWkd
BNReZcgEKflx1huzFgXGki43aFTyUSaJNnJyNTT5DCvDyl/Wds/hyAoff/Ur/XxY
w9wnzeCCGWzT3jOt6nkuuB89jWeJJG91oOWo3G1L
-----END CERTIFICATE-----
