Certificate:
    Data:
        Version: 3 (0x2)
        Serial Number:
            32:30:30:30:30:30:33:35
        Signature Algorithm: sha256WithRSAEncryption
        Issuer: C=JP, O=Japanese Government, OU=National Police Agency, OU=NPA ICDL Root CA
        Validity
            Not Before: Feb  6 01:13:57 2023 GMT
            Not After : Feb  5 14:59:59 2028 GMT
        Subject: C=JP, O=Japanese Government, OU=National Police Agency, OU=Prefectural Public Safety Commissions for ICDL, CN=Hokkaido PSC
        Subject Public Key Info:
            Public Key Algorithm: rsaEncryption
                Public-Key: (2048 bit)
                Modulus:
                    00:80:de:96:f4:8d:87:5a:ff:15:ae:a2:69:ab:5f:
                    33:50:dc:a1:ec:58:dd:95:96:a5:6a:dc:e9:c4:1a:
                    df:31:0b:dc:5c:86:0a:37:77:48:6c:c0:c7:4e:14:
                    f2:71:7f:48:39:3b:c7:8a:a7:cf:0a:79:a9:94:41:
                    ba:cb:1e:d4:17:2d:2d:27:3e:ec:bb:d0:c8:db:3c:
                    ea:f1:76:42:49:af:76:92:77:ae:ed:4a:e5:01:89:
                    28:5b:af:84:9d:24:84:c6:a8:78:54:6b:36:75:da:
                    23:2a:47:72:0d:82:4f:da:56:94:8b:7f:9b:10:39:
                    21:c0:11:0b:a6:b1:22:a7:c4:b3:60:98:1b:ed:15:
                    6a:44:d4:cb:6b:30:82:2c:dc:3f:a1:c3:cd:15:81:
                    81:69:71:1f:60:f9:d0:7b:b3:0d:29:e1:47:05:ce:
                    21:cd:f5:72:41:ce:f2:25:ff:f5:be:ba:1a:cf:16:
                    43:77:e8:25:7e:79:5c:ab:03:d3:9d:3f:a5:5f:dc:
                    1c:18:cd:00:e8:98:23:11:2f:2d:9a:1a:86:d6:9c:
                    ab:3e:b1:57:1b:e9:ee:44:e7:65:44:11:1b:84:92:
                    9e:75:bd:8c:0e:43:14:83:1c:30:70:eb:e5:5c:56:
                    c9:5d:e6:be:fa:ef:e4:ec:b7:f8:58:fb:93:f4:a1:
                    30:01
                Exponent: 65537 (0x10001)
        X509v3 extensions:
            X509v3 Authority Key Identifier: 
                keyid:11:CD:8E:60:44:47:57:4F:4F:CB:E9:E7:CB:A1:46:DF:BA:0E:50:8B
                DirName:/C=JP/O=Japanese Government/OU=National Police Agency/OU=NPA ICDL Root CA
                serial:32:30:30:30:30:30:31:36
            X509v3 Subject Key Identifier: 
                0A:7B:9F:4C:9F:FE:D4:F9:CE:1F:4F:70:1C:7B:79:0B:9B:1E:6A:69
            X509v3 Key Usage: critical
                Digital Signature, Non Repudiation
            X509v3 Certificate Policies: critical
                Policy: 1.2.392.100120.7.5.1.1.10
                  CPS: http://www.npa.go.jp/
            X509v3 Subject Alternative Name: 
                DirName:/C=JP/O=\xE6\x97\xA5\xE6\x9C\xAC\xE5\x9B\xBD\xE6\x94\xBF\xE5\xBA\x9C/OU=\xE8\xAD\xA6\xE5\xAF\x9F\xE5\xBA\x81/OU=\xE9\x83\xBD\xE9\x81\x93\xE5\xBA\x9C\xE7\x9C\x8C\xE5\x85\xAC\xE5\xAE\x89\xE5\xA7\x94\xE5\x93\xA1\xE4\xBC\x9A
            X509v3 Issuer Alternative Name: 
                DirName:/C=JP/O=\xE6\x97\xA5\xE6\x9C\xAC\xE5\x9B\xBD\xE6\x94\xBF\xE5\xBA\x9C/OU=\xE8\xAD\xA6\xE5\xAF\x9F\xE5\xBA\x81/OU=\xE8\xAD\xA6\xE5\xAF\x9F\xE5\xBA\x81\xE9\x81\x8B\xE8\xBB\xA2\xE5\x85\x8D\xE8\xA8\xB1\xE8\xA8\xBC\xE8\xAA\x8D\xE8\xA8\xBC\xE5\xB1\x80
            X509v3 CRL Distribution Points: 
                Full Name:
                  DirName:C = JP, O = Japanese Government, OU = National Police Agency, OU = Prefectural Public Safety Commissions for ICDL
    Signature Algorithm: sha256WithRSAEncryption
    Signature Value:
        85:3e:e2:7f:04:b7:d0:e4:05:45:a3:80:d5:ec:8e:9d:9a:08:
        77:54:69:bd:71:65:92:cb:4c:bb:77:c8:82:99:86:24:49:e4:
        0b:96:19:34:07:45:b9:f4:da:be:e7:56:c8:de:cb:34:64:27:
        55:9f:7f:ac:f1:fb:83:ef:7f:69:1e:42:cc:9f:19:66:41:6f:
        61:02:8c:62:65:c5:59:2f:6c:a3:74:89:eb:ce:2e:89:81:54:
        c1:c6:b9:9c:45:27:4d:41:c7:1c:66:5e:e4:2a:43:ed:03:c6:
        f6:4d:f2:ef:5c:5a:0f:6b:64:d8:1c:47:c5:72:1e:33:bd:c9:
        e2:bf:1f:3a:e8:96:ec:24:17:67:ea:5c:c3:7c:4f:d0:4e:93:
        05:c5:0e:f0:8b:6b:b7:d7:82:6f:41:94:c1:ba:b1:f0:a9:70:
        fa:d0:35:e0:2c:f8:ee:0a:db:18:63:e7:7e:c5:72:98:8a:3f:
        de:4e:54:c1:34:24:6a:c8:28:70:94:67:6b:b7:c8:ca:a6:8a:
        de:47:ee:5c:1c:f8:b8:55:7d:ab:3a:c6:30:ed:3a:d6:63:9c:
        1a:aa:40:81:d4:63:c6:8a:bd:b3:66:8a:49:d4:8e:66:5c:c6:
        ca:dd:27:4c:c6:94:bf:1a:3f:1d:7e:d8:fb:85:d8:ba:b5:ce:
        4f:23:27:79
-----BEGIN CERTIFICATE-----
MIIGSDCCBTCgAwIBAgIIMjAwMDAwMzUwDQYJKoZIhvcNAQELBQAwZzELMAkGA1UE
BhMCSlAxHDAaBgNVBAoME0phcGFuZXNlIEdvdmVybm1lbnQxHzAdBgNVBAsMFk5h
dGlvbmFsIFBvbGljZSBBZ2VuY3kxGTAXBgNVBAsMEE5QQSBJQ0RMIFJvb3QgQ0Ew
HhcNMjMwMjA2MDExMzU3WhcNMjgwMjA1MTQ1OTU5WjCBnDELMAkGA1UEBhMCSlAx
HDAaBgNVBAoME0phcGFuZXNlIEdvdmVybm1lbnQxHzAdBgNVBAsMFk5hdGlvbmFs
IFBvbGljZSBBZ2VuY3kxNzA1BgNVBAsMLlByZWZlY3R1cmFsIFB1YmxpYyBTYWZl
dHkgQ29tbWlzc2lvbnMgZm9yIElDREwxFTATBgNVBAMMDEhva2thaWRvIFBTQzCC
ASIwDQYJKoZIhvcNAQEBBQADggEPADCCAQoCggEBAIDelvSNh1r/Fa6iaatfM1Dc
oexY3ZWWpWrc6cQa3zEL3FyGCjd3SGzAx04U8nF/SDk7x4qnzwp5qZRBusse1Bct
LSc+7LvQyNs86vF2QkmvdpJ3ru1K5QGJKFuvhJ0khMaoeFRrNnXaIypHcg2CT9pW
lIt/mxA5IcARC6axIqfEs2CYG+0VakTUy2swgizcP6HDzRWBgWlxH2D50HuzDSnh
RwXOIc31ckHO8iX/9b66Gs8WQ3foJX55XKsD050/pV/cHBjNAOiYIxEvLZoahtac
qz6xVxvp7kTnZUQRG4SSnnW9jA5DFIMcMHDr5VxWyV3mvvrv5Oy3+Fj7k/ShMAEC
AwEAAaOCAsAwggK8MIGYBgNVHSMEgZAwgY2AFBHNjmBER1dPT8vp58uhRt+6DlCL
oWukaTBnMQswCQYDVQQGEwJKUDEcMBoGA1UECgwTSmFwYW5lc2UgR292ZXJubWVu
dDEfMB0GA1UECwwWTmF0aW9uYWwgUG9saWNlIEFnZW5jeTEZMBcGA1UECwwQTlBB
IElDREwgUm9vdCBDQYIIMjAwMDAwMTYwHQYDVR0OBBYEFAp7n0yf/tT5zh9PcBx7
eQubHmppMA4GA1UdDwEB/wQEAwIGwDBABgNVHSABAf8ENjA0MDIGCyqDCIaOGAcF
AQEKMCMwIQYIKwYBBQUHAgEWFWh0dHA6Ly93d3cubnBhLmdvLmpwLzCBlQYDVR0R
BIGNMIGKpIGHMIGEMQswCQYDVQQGEwJKUDEYMBYGA1UECgwP5pel5pys5Zu95pS/
5bqcMRIwEAYDVQQLDAnorablr5/luoExJDAiBgNVBAsMG+mDvemBk+W6nOecjOWF
rOWuieWnlOWToeS8mjEhMB8GA1UEAwwY5YyX5rW36YGT5YWs5a6J5aeU5ZOh5Lya
MHQGA1UdEgRtMGukaTBnMQswCQYDVQQGEwJKUDEYMBYGA1UECgwP5pel5pys5Zu9
5pS/5bqcMRIwEAYDVQQLDAnorablr5/luoExKjAoBgNVBAsMIeitpuWvn+W6gemB
i+i7ouWFjeioseiovOiqjeiovOWxgDCBnwYDVR0fBIGXMIGUMIGRoIGOoIGLpIGI
MIGFMQswCQYDVQQGEwJKUDEcMBoGA1UECgwTSmFwYW5lc2UgR292ZXJubWVudDEf
MB0GA1UECwwWTmF0aW9uYWwgUG9saWNlIEFnZW5jeTE3MDUGA1UECwwuUHJlZmVj
dHVyYWwgUHVibGljIFNhZmV0eSBDb21taXNzaW9ucyBmb3IgSUNETDANBgkqhkiG
9w0BAQsFAAOCAQEAhT7ifwS30OQFRaOA1eyOnZoId1RpvXFlkstMu3fIgpmGJEnk
C5YZNAdFufTavudWyN7LNGQnVZ9/rPH7g+9/aR5CzJ8ZZkFvYQKMYmXFWS9so3SJ
684uiYFUwca5nEUnTUHHHGZe5CpD7QPG9k3y71xaD2tk2BxHxXIeM73J4r8fOuiW
7CQXZ+pcw3xP0E6TBcUO8Itrt9eCb0GUwbqx8Klw+tA14Cz47grbGGPnfsVymIo/
3k5UwTQkasgocJRna7fIyqaK3kfuXBz4uFV9qzrGMO061mOcGqpAgdRjxoq9s2aK
SdSOZlzGyt0nTMaUvxo/HX7Y+4XYurXOTyMneQ==
-----END CERTIFICATE-----
