Certificate:
    Data:
        Version: 3 (0x2)
        Serial Number:
            33:30:30:30:30:30:39:32
        Signature Algorithm: sha256WithRSAEncryption
        Issuer: C=JP, O=Japanese Government, OU=National Police Agency, OU=NPA ICDL Root CA
        Validity
            Not Before: Sep 17 06:58:13 2024 GMT
            Not After : Sep 16 14:59:59 2029 GMT
        Subject: C=JP, O=Japanese Government, OU=National Police Agency, OU=Prefectural Public Safety Commissions for ICDL, CN=Hokkaido PSC
        Subject Public Key Info:
            Public Key Algorithm: rsaEncryption
                Public-Key: (2048 bit)
                Modulus:
                    00:dd:ee:0d:bb:7b:8a:56:dd:ff:60:d5:b6:2e:c1:
                    ca:41:0b:2f:c3:9f:cf:80:a9:7f:53:9f:94:72:6a:
                    3a:54:52:b1:76:74:6c:43:0b:10:99:67:79:e2:cf:
                    39:6d:0c:4d:02:dd:04:72:bb:92:06:84:97:71:30:
                    7f:ff:22:aa:e0:3f:de:75:09:2b:ef:3b:b7:42:25:
                    32:ef:61:ed:20:55:1c:b9:58:1a:4e:6f:ac:ed:60:
                    d7:42:13:fa:ce:9f:c3:2a:1c:7f:1d:e0:36:f4:f8:
                    f2:fd:b5:fa:6f:84:c8:98:91:8b:ab:0d:4d:b6:48:
                    c5:d5:0e:81:b4:f6:3c:65:6e:96:a7:d1:4a:d1:1f:
                    06:75:1f:50:68:ea:98:cd:1e:db:61:95:e9:89:49:
                    c0:b2:33:2e:af:01:93:96:44:ea:04:0a:29:7b:1d:
                    b2:b0:a6:59:da:f9:f5:e9:06:d4:8c:eb:9a:5a:4a:
                    26:0d:53:48:21:6c:41:cd:3c:7d:90:07:5a:76:a9:
                    00:1c:06:78:e3:11:07:85:90:93:e2:74:7e:41:d0:
                    e5:36:e6:43:5b:a7:d8:c2:f8:54:bc:36:f0:cb:05:
                    54:21:af:b4:a7:62:3d:cf:77:23:b1:33:13:23:48:
                    0e:82:79:78:2c:7c:f8:72:9e:b7:71:15:7b:a7:0b:
                    0c:c7
                Exponent: 65537 (0x10001)
        X509v3 extensions:
            X509v3 Authority Key Identifier: 
                keyid:11:CD:8E:60:44:47:57:4F:4F:CB:E9:E7:CB:A1:46:DF:BA:0E:50:8B
                DirName:/C=JP/O=Japanese Government/OU=National Police Agency/OU=NPA ICDL Root CA
                serial:32:30:30:30:30:30:31:36
            X509v3 Subject Key Identifier: 
                72:FC:D3:B1:67:C3:1A:44:26:FA:4A:BC:9B:F8:2B:89:17:88:B7:D3
            X509v3 Key Usage: critical
                Digital Signature, Non Repudiation
            X509v3 Certificate Policies: critical
                Policy: 1.2.392.100120.7.5.1.1.10
                  CPS: http://www.npa.go.jp/
            X509v3 Subject Alternative Name: 
                DirName:/C=JP/O=\xE6\x97\xA5\xE6\x9C\xAC\xE5\x9B\xBD\xE6\x94\xBF\xE5\xBA\x9C/OU=\xE8\xAD\xA6\xE5\xAF\x9F\xE5\xBA\x81/OU=\xE9\x83\xBD\xE9\x81\x93\xE5\xBA\x9C\xE7\x9C\x8C\xE5\x85\xAC\xE5\xAE\x89\xE5\xA7\x94\xE5\x93\xA1\xE4\xBC\x9A
            X509v3 Issuer Alternative Name: 
                DirName:/C=JP/O=\xE6\x97\xA5\xE6\x9C\xAC\xE5\x9B\xBD\xE6\x94\xBF\xE5\xBA\x9C/OU=\xE8\xAD\xA6\xE5\xAF\x9F\xE5\xBA\x81/OU=\xE8\xAD\xA6\xE5\xAF\x9F\xE5\xBA\x81\xE9\x81\x8B\xE8\xBB\xA2\xE5\x85\x8D\xE8\xA8\xB1\xE8\xA8\xBC\xE8\xAA\x8D\xE8\xA8\xBC\xE5\xB1\x80
            X509v3 CRL Distribution Points: 
                Full Name:
                  DirName:C = JP, O = Japanese Government, OU = National Police Agency, OU = Prefectural Public Safety Commissions for ICDL
    Signature Algorithm: sha256WithRSAEncryption
    Signature Value:
        24:57:92:9e:13:31:18:27:7c:50:b1:69:f8:af:c9:08:89:98:
        04:cf:38:b2:02:e9:80:63:d3:71:7d:f4:f3:69:e2:27:ba:d8:
        c4:1e:97:40:b7:e4:42:34:ae:2c:47:22:94:c5:fd:a8:b5:89:
        2f:92:cc:9d:77:9d:41:51:a0:98:c6:4e:fb:8c:5a:fe:33:e7:
        91:41:53:91:32:c1:b2:5c:1f:4b:e1:d6:89:cf:7e:03:77:e7:
        d8:fe:81:be:e6:eb:60:b4:07:13:cf:1c:c0:85:4c:3d:fc:07:
        db:42:5a:91:19:d9:91:d2:e1:92:fd:cc:bd:d8:b9:4e:d2:71:
        0b:17:96:22:06:74:69:bb:f0:18:99:73:a5:8c:65:89:26:8e:
        96:5a:dd:6c:07:77:39:21:27:fb:fa:6a:d9:df:0d:92:f2:a1:
        22:b1:66:ca:9f:c5:96:6c:2a:11:88:f5:04:a8:14:08:69:68:
        c5:60:27:5e:d2:33:cd:3b:f2:38:6f:e7:4c:cc:89:05:b0:4c:
        e5:e5:df:16:7c:fc:6d:cc:0b:68:02:51:9b:c1:bb:30:f2:db:
        f2:dc:b7:b7:4f:85:61:9e:24:bd:74:5f:ab:c8:42:76:c2:2f:
        32:99:bf:6b:6e:81:0f:ab:95:15:ed:eb:2e:9e:78:2d:76:c2:
        8e:94:25:1e
-----BEGIN CERTIFICATE-----
MIIGSDCCBTCgAwIBAgIIMzAwMDAwOTIwDQYJKoZIhvcNAQELBQAwZzELMAkGA1UE
BhMCSlAxHDAaBgNVBAoME0phcGFuZXNlIEdvdmVybm1lbnQxHzAdBgNVBAsMFk5h
dGlvbmFsIFBvbGljZSBBZ2VuY3kxGTAXBgNVBAsMEE5QQSBJQ0RMIFJvb3QgQ0Ew
HhcNMjQwOTE3MDY1ODEzWhcNMjkwOTE2MTQ1OTU5WjCBnDELMAkGA1UEBhMCSlAx
HDAaBgNVBAoME0phcGFuZXNlIEdvdmVybm1lbnQxHzAdBgNVBAsMFk5hdGlvbmFs
IFBvbGljZSBBZ2VuY3kxNzA1BgNVBAsMLlByZWZlY3R1cmFsIFB1YmxpYyBTYWZl
dHkgQ29tbWlzc2lvbnMgZm9yIElDREwxFTATBgNVBAMMDEhva2thaWRvIFBTQzCC
ASIwDQYJKoZIhvcNAQEBBQADggEPADCCAQoCggEBAN3uDbt7ilbd/2DVti7BykEL
L8Ofz4Cpf1OflHJqOlRSsXZ0bEMLEJlneeLPOW0MTQLdBHK7kgaEl3Ewf/8iquA/
3nUJK+87t0IlMu9h7SBVHLlYGk5vrO1g10IT+s6fwyocfx3gNvT48v21+m+EyJiR
i6sNTbZIxdUOgbT2PGVulqfRStEfBnUfUGjqmM0e22GV6YlJwLIzLq8Bk5ZE6gQK
KXsdsrCmWdr59ekG1IzrmlpKJg1TSCFsQc08fZAHWnapABwGeOMRB4WQk+J0fkHQ
5TbmQ1un2ML4VLw28MsFVCGvtKdiPc93I7EzEyNIDoJ5eCx8+HKet3EVe6cLDMcC
AwEAAaOCAsAwggK8MIGYBgNVHSMEgZAwgY2AFBHNjmBER1dPT8vp58uhRt+6DlCL
oWukaTBnMQswCQYDVQQGEwJKUDEcMBoGA1UECgwTSmFwYW5lc2UgR292ZXJubWVu
dDEfMB0GA1UECwwWTmF0aW9uYWwgUG9saWNlIEFnZW5jeTEZMBcGA1UECwwQTlBB
IElDREwgUm9vdCBDQYIIMjAwMDAwMTYwHQYDVR0OBBYEFHL807FnwxpEJvpKvJv4
K4kXiLfTMA4GA1UdDwEB/wQEAwIGwDBABgNVHSABAf8ENjA0MDIGCyqDCIaOGAcF
AQEKMCMwIQYIKwYBBQUHAgEWFWh0dHA6Ly93d3cubnBhLmdvLmpwLzCBlQYDVR0R
BIGNMIGKpIGHMIGEMQswCQYDVQQGEwJKUDEYMBYGA1UECgwP5pel5pys5Zu95pS/
5bqcMRIwEAYDVQQLDAnorablr5/luoExJDAiBgNVBAsMG+mDvemBk+W6nOecjOWF
rOWuieWnlOWToeS8mjEhMB8GA1UEAwwY5YyX5rW36YGT5YWs5a6J5aeU5ZOh5Lya
MHQGA1UdEgRtMGukaTBnMQswCQYDVQQGEwJKUDEYMBYGA1UECgwP5pel5pys5Zu9
5pS/5bqcMRIwEAYDVQQLDAnorablr5/luoExKjAoBgNVBAsMIeitpuWvn+W6gemB
i+i7ouWFjeioseiovOiqjeiovOWxgDCBnwYDVR0fBIGXMIGUMIGRoIGOoIGLpIGI
MIGFMQswCQYDVQQGEwJKUDEcMBoGA1UECgwTSmFwYW5lc2UgR292ZXJubWVudDEf
MB0GA1UECwwWTmF0aW9uYWwgUG9saWNlIEFnZW5jeTE3MDUGA1UECwwuUHJlZmVj
dHVyYWwgUHVibGljIFNhZmV0eSBDb21taXNzaW9ucyBmb3IgSUNETDANBgkqhkiG
9w0BAQsFAAOCAQEAJFeSnhMxGCd8ULFp+K/JCImYBM84sgLpgGPTcX3082niJ7rY
xB6XQLfkQjSuLEcilMX9qLWJL5LMnXedQVGgmMZO+4xa/jPnkUFTkTLBslwfS+HW
ic9+A3fn2P6BvubrYLQHE88cwIVMPfwH20JakRnZkdLhkv3Mvdi5TtJxCxeWIgZ0
abvwGJlzpYxliSaOllrdbAd3OSEn+/pq2d8NkvKhIrFmyp/FlmwqEYj1BKgUCGlo
xWAnXtIzzTvyOG/nTMyJBbBM5eXfFnz8bcwLaAJRm8G7MPLb8ty3t0+FYZ4kvXRf
q8hCdsIvMpm/a26BD6uVFe3rLp54LXbCjpQlHg==
-----END CERTIFICATE-----
