Certificate:
    Data:
        Version: 3 (0x2)
        Serial Number:
            33:30:30:30:30:30:37:32
        Signature Algorithm: sha256WithRSAEncryption
        Issuer: C=JP, O=Japanese Government, OU=National Police Agency, OU=NPA ICDL Root CA
        Validity
            Not Before: Feb  2 12:00:43 2024 GMT
            Not After : Feb  1 14:59:59 2029 GMT
        Subject: C=JP, O=Japanese Government, OU=National Police Agency, OU=Prefectural Public Safety Commissions for ICDL, CN=Hokkaido AltPSC
        Subject Public Key Info:
            Public Key Algorithm: rsaEncryption
                Public-Key: (2048 bit)
                Modulus:
                    00:ac:ec:21:d6:ed:67:0e:a8:22:54:15:7f:45:9a:
                    1e:cd:36:27:5f:5c:0a:ac:10:ce:c6:2d:42:8a:4f:
                    61:f1:8a:7f:2e:e8:0b:c5:0c:29:6f:da:b3:c2:fa:
                    41:62:cb:03:af:93:37:56:20:e0:b1:83:5d:6a:bb:
                    2f:06:5e:16:fc:9a:e0:e1:dc:4d:3b:42:55:01:0e:
                    be:04:ec:09:d5:b9:a5:aa:9c:7c:81:15:b1:1e:fb:
                    e0:54:99:f1:b5:19:27:01:5c:97:83:1f:b8:a2:ed:
                    19:c8:d3:a2:38:3b:ef:0e:38:55:cf:70:0a:39:96:
                    58:ad:78:a6:84:ea:fc:f2:f0:33:01:f3:48:eb:06:
                    41:f2:79:78:85:db:e9:e5:53:90:9a:3d:c2:89:4f:
                    dc:f3:97:c2:c6:a1:4f:5d:16:d6:40:6e:01:02:bd:
                    58:7b:49:0a:68:c6:c7:9f:f1:e6:2c:1d:23:82:ed:
                    ae:6a:14:5d:6a:4d:77:0d:19:89:12:f9:cb:50:d4:
                    9a:bb:ef:45:f4:c5:6b:e1:2e:44:eb:77:94:5b:b3:
                    88:b2:cc:bc:5b:62:ed:64:94:6e:df:d9:e1:4d:35:
                    be:9d:f2:cf:25:54:5c:e3:0c:36:b4:e3:4c:f2:84:
                    b7:ac:51:60:ff:82:58:f9:33:75:0d:56:69:20:76:
                    40:11
                Exponent: 65537 (0x10001)
        X509v3 extensions:
            X509v3 Authority Key Identifier: 
                keyid:11:CD:8E:60:44:47:57:4F:4F:CB:E9:E7:CB:A1:46:DF:BA:0E:50:8B
                DirName:/C=JP/O=Japanese Government/OU=National Police Agency/OU=NPA ICDL Root CA
                serial:32:30:30:30:30:30:31:36
            X509v3 Subject Key Identifier: 
                E8:DB:AE:F8:71:BA:F8:81:4A:D9:56:93:30:8C:4B:09:C3:68:85:87
            X509v3 Key Usage: critical
                Digital Signature, Non Repudiation
            X509v3 Certificate Policies: critical
                Policy: 1.2.392.100120.7.5.1.1.10
                  CPS: http://www.npa.go.jp/
            X509v3 Issuer Alternative Name: 
                DirName:/C=JP/O=\xE6\x97\xA5\xE6\x9C\xAC\xE5\x9B\xBD\xE6\x94\xBF\xE5\xBA\x9C/OU=\xE8\xAD\xA6\xE5\xAF\x9F\xE5\xBA\x81/OU=\xE8\xAD\xA6\xE5\xAF\x9F\xE5\xBA\x81\xE9\x81\x8B\xE8\xBB\xA2\xE5\x85\x8D\xE8\xA8\xB1\xE8\xA8\xBC\xE8\xAA\x8D\xE8\xA8\xBC\xE5\xB1\x80
            X509v3 CRL Distribution Points: 
                Full Name:
                  DirName:C = JP, O = Japanese Government, OU = National Police Agency, OU = Prefectural Public Safety Commissions for ICDL
    Signature Algorithm: sha256WithRSAEncryption
    Signature Value:
        8d:79:10:b7:f7:dd:c2:63:63:13:bd:a5:3f:97:19:60:cb:ec:
        62:07:fe:ad:67:5f:81:fe:0c:7e:2d:a5:b5:24:f9:e4:62:14:
        5d:70:57:1e:5e:69:7a:84:f0:5c:ab:7c:fb:33:90:e8:73:86:
        2b:ae:2a:11:f9:df:f2:e5:7f:99:ca:af:70:56:b3:9f:ad:5c:
        89:b9:6f:8f:02:43:db:51:c1:fd:9b:43:f8:01:ad:4e:cb:cf:
        ab:d8:f3:70:f6:3e:17:9e:35:fd:2b:8b:79:5f:21:d1:b4:50:
        6a:7e:e4:b5:d3:90:b0:fe:f8:73:17:91:e4:5d:f3:8e:ba:e1:
        a7:32:75:bd:9e:b5:cb:a2:29:99:cf:cc:9d:7a:ea:03:34:6c:
        80:34:20:10:49:90:21:9e:95:fe:51:9c:82:9c:b9:05:b7:90:
        e6:ab:dc:17:09:55:d5:6e:86:31:89:8e:fe:76:1a:94:91:76:
        a3:fe:d1:c9:1d:b0:d7:8c:6a:3f:fe:5e:8c:b7:9e:3d:3f:0d:
        81:43:d1:0a:02:57:f2:98:08:c9:77:2f:19:7b:8f:e7:c4:6c:
        d8:65:3f:8e:9a:65:8a:00:82:a2:cb:41:e5:b0:59:80:9b:5b:
        b4:cb:44:37:82:6f:9f:d7:2c:25:3c:9b:07:7f:fc:4d:3f:7f:
        3b:d7:48:88
-----BEGIN CERTIFICATE-----
MIIFszCCBJugAwIBAgIIMzAwMDAwNzIwDQYJKoZIhvcNAQELBQAwZzELMAkGA1UE
BhMCSlAxHDAaBgNVBAoME0phcGFuZXNlIEdvdmVybm1lbnQxHzAdBgNVBAsMFk5h
dGlvbmFsIFBvbGljZSBBZ2VuY3kxGTAXBgNVBAsMEE5QQSBJQ0RMIFJvb3QgQ0Ew
HhcNMjQwMjAyMTIwMDQzWhcNMjkwMjAxMTQ1OTU5WjCBnzELMAkGA1UEBhMCSlAx
HDAaBgNVBAoME0phcGFuZXNlIEdvdmVybm1lbnQxHzAdBgNVBAsMFk5hdGlvbmFs
IFBvbGljZSBBZ2VuY3kxNzA1BgNVBAsMLlByZWZlY3R1cmFsIFB1YmxpYyBTYWZl
dHkgQ29tbWlzc2lvbnMgZm9yIElDREwxGDAWBgNVBAMMD0hva2thaWRvIEFsdFBT
QzCCASIwDQYJKoZIhvcNAQEBBQADggEPADCCAQoCggEBAKzsIdbtZw6oIlQVf0Wa
Hs02J19cCqwQzsYtQopPYfGKfy7oC8UMKW/as8L6QWLLA6+TN1Yg4LGDXWq7LwZe
Fvya4OHcTTtCVQEOvgTsCdW5paqcfIEVsR774FSZ8bUZJwFcl4MfuKLtGcjTojg7
7w44Vc9wCjmWWK14poTq/PLwMwHzSOsGQfJ5eIXb6eVTkJo9wolP3POXwsahT10W
1kBuAQK9WHtJCmjGx5/x5iwdI4LtrmoUXWpNdw0ZiRL5y1DUmrvvRfTFa+EuROt3
lFuziLLMvFti7WSUbt/Z4U01vp3yzyVUXOMMNrTjTPKEt6xRYP+CWPkzdQ1WaSB2
QBECAwEAAaOCAigwggIkMIGYBgNVHSMEgZAwgY2AFBHNjmBER1dPT8vp58uhRt+6
DlCLoWukaTBnMQswCQYDVQQGEwJKUDEcMBoGA1UECgwTSmFwYW5lc2UgR292ZXJu
bWVudDEfMB0GA1UECwwWTmF0aW9uYWwgUG9saWNlIEFnZW5jeTEZMBcGA1UECwwQ
TlBBIElDREwgUm9vdCBDQYIIMjAwMDAwMTYwHQYDVR0OBBYEFOjbrvhxuviBStlW
kzCMSwnDaIWHMA4GA1UdDwEB/wQEAwIGwDBABgNVHSABAf8ENjA0MDIGCyqDCIaO
GAcFAQEKMCMwIQYIKwYBBQUHAgEWFWh0dHA6Ly93d3cubnBhLmdvLmpwLzB0BgNV
HRIEbTBrpGkwZzELMAkGA1UEBhMCSlAxGDAWBgNVBAoMD+aXpeacrOWbveaUv+W6
nDESMBAGA1UECwwJ6K2m5a+f5bqBMSowKAYDVQQLDCHorablr5/luoHpgYvou6Ll
hY3oqLHoqLzoqo3oqLzlsYAwgZ8GA1UdHwSBlzCBlDCBkaCBjqCBi6SBiDCBhTEL
MAkGA1UEBhMCSlAxHDAaBgNVBAoME0phcGFuZXNlIEdvdmVybm1lbnQxHzAdBgNV
BAsMFk5hdGlvbmFsIFBvbGljZSBBZ2VuY3kxNzA1BgNVBAsMLlByZWZlY3R1cmFs
IFB1YmxpYyBTYWZldHkgQ29tbWlzc2lvbnMgZm9yIElDREwwDQYJKoZIhvcNAQEL
BQADggEBAI15ELf33cJjYxO9pT+XGWDL7GIH/q1nX4H+DH4tpbUk+eRiFF1wVx5e
aXqE8FyrfPszkOhzhiuuKhH53/Llf5nKr3BWs5+tXIm5b48CQ9tRwf2bQ/gBrU7L
z6vY83D2PheeNf0ri3lfIdG0UGp+5LXTkLD++HMXkeRd84664acydb2etcuiKZnP
zJ166gM0bIA0IBBJkCGelf5RnIKcuQW3kOar3BcJVdVuhjGJjv52GpSRdqP+0ckd
sNeMaj/+Xoy3nj0/DYFD0QoCV/KYCMl3Lxl7j+fEbNhlP46aZYoAgqLLQeWwWYCb
W7TLRDeCb5/XLCU8mwd//E0/fzvXSIg=
-----END CERTIFICATE-----
