Certificate:
    Data:
        Version: 3 (0x2)
        Serial Number:
            33:30:30:30:30:30:33:37:f0:49:bb:5f:d8:b1:9e:1b:e3:b8
        Signature Algorithm: sha256WithRSAEncryption
        Issuer: C=JP, O=Japanese Government, OU=National Police Agency, OU=NPA ICDL Root CA
        Validity
            Not Before: Jun 19 06:01:27 2023 GMT
            Not After : Jun 18 14:59:59 2028 GMT
        Subject: C=JP, O=Japanese Government, OU=National Police Agency, OU=Prefectural Public Safety Commissions for ICDL, CN=Hyogo AltPPSC
        Subject Public Key Info:
            Public Key Algorithm: rsaEncryption
                Public-Key: (2048 bit)
                Modulus:
                    00:e7:ed:f9:24:03:4c:b3:08:af:94:ef:a6:af:27:
                    79:e6:3d:7d:60:07:cf:99:07:75:fe:a7:52:72:52:
                    45:23:63:9f:51:f9:41:50:55:a0:84:f2:90:a4:10:
                    72:79:c6:5e:38:79:60:4b:9a:e0:2c:49:8c:10:a3:
                    f8:e6:6a:ad:8b:ea:b8:3d:36:9e:34:c0:b3:e3:0a:
                    c9:d6:f3:de:50:62:f5:5d:39:9b:8a:f0:fe:ef:49:
                    3d:6a:bb:e3:2e:14:ea:8a:16:31:ea:44:0b:72:01:
                    3f:40:df:c9:2a:e2:89:7a:61:c9:87:bb:53:b0:74:
                    38:9e:28:8a:ef:cb:e7:b3:f5:bc:e3:61:89:17:dc:
                    2b:7d:87:8b:02:3c:da:56:06:73:24:ee:3a:b9:c9:
                    2f:c7:e4:c7:d3:04:9c:20:08:4f:84:ba:da:a5:1e:
                    4f:cd:c4:36:fd:cb:94:94:63:e0:81:d3:42:2e:03:
                    4f:b5:73:b6:19:ce:0e:ac:fe:ad:2f:0b:22:ba:41:
                    f5:aa:e8:44:41:87:b1:72:98:e6:e6:7d:87:96:0a:
                    fb:3e:14:bd:e5:95:44:f9:6f:01:2a:d4:52:3c:77:
                    53:eb:be:43:86:be:45:12:95:b7:bf:c7:54:43:dd:
                    65:34:95:74:02:17:d1:80:e5:11:5c:0a:d5:1d:2d:
                    44:e9
                Exponent: 65537 (0x10001)
        X509v3 extensions:
            X509v3 Authority Key Identifier: 
                keyid:11:CD:8E:60:44:47:57:4F:4F:CB:E9:E7:CB:A1:46:DF:BA:0E:50:8B
                DirName:/C=JP/O=Japanese Government/OU=National Police Agency/OU=NPA ICDL Root CA
                serial:32:30:30:30:30:30:31:36
            X509v3 Subject Key Identifier: 
                4E:BF:9C:69:E9:E3:47:57:04:6B:16:58:89:77:56:B8:AF:4F:DE:91
            X509v3 Key Usage: critical
                Digital Signature, Non Repudiation
            X509v3 Certificate Policies: critical
                Policy: 1.2.392.100120.7.5.1.1.10
                  CPS: http://www.npa.go.jp/
            X509v3 Issuer Alternative Name: 
                DirName:/C=JP/O=\xE6\x97\xA5\xE6\x9C\xAC\xE5\x9B\xBD\xE6\x94\xBF\xE5\xBA\x9C/OU=\xE8\xAD\xA6\xE5\xAF\x9F\xE5\xBA\x81/OU=\xE8\xAD\xA6\xE5\xAF\x9F\xE5\xBA\x81\xE9\x81\x8B\xE8\xBB\xA2\xE5\x85\x8D\xE8\xA8\xB1\xE8\xA8\xBC\xE8\xAA\x8D\xE8\xA8\xBC\xE5\xB1\x80
            X509v3 CRL Distribution Points: 
                Full Name:
                  DirName:C = JP, O = Japanese Government, OU = National Police Agency, OU = Prefectural Public Safety Commissions for ICDL
    Signature Algorithm: sha256WithRSAEncryption
    Signature Value:
        1f:77:55:f7:20:2d:cf:12:ee:3c:80:d5:46:3f:8a:2b:36:ac:
        5d:b6:96:25:dc:f0:6e:e1:ac:e6:70:92:1b:9e:3d:04:fe:be:
        75:65:3c:29:4d:f9:c3:02:b1:4e:b5:02:e5:90:01:1b:04:17:
        3b:a1:a1:b4:80:48:74:69:f5:47:57:3c:bb:c6:6e:a1:5d:01:
        49:09:3d:53:ab:41:6a:79:75:21:ac:98:f8:f2:ca:53:7a:76:
        51:76:62:54:14:8b:4e:c1:22:93:fc:a7:e8:81:96:e9:02:94:
        04:0d:42:b6:21:60:a5:29:46:bd:b8:02:e7:2c:f6:61:b0:57:
        6c:a0:e4:ed:79:09:2f:d2:bf:d0:85:8f:e1:69:b1:04:44:e3:
        7c:0e:89:97:dd:ce:b0:80:06:e7:a6:bb:7e:9d:ec:0d:9f:f8:
        c2:2e:bc:fa:8d:3e:b7:36:9a:76:ed:b3:c0:dd:c4:8a:29:b1:
        e3:38:65:30:99:fd:8e:02:db:10:65:2d:b5:5c:e0:2b:1d:37:
        6c:bc:f0:80:21:28:aa:0c:69:21:fa:68:5e:85:02:56:9d:7e:
        76:83:ff:49:ae:54:2f:31:33:8f:da:4b:95:93:33:6e:6e:ca:
        3e:f9:60:f2:fa:57:cd:04:20:b4:ee:e8:34:c8:a7:4a:41:87:
        a0:ba:3e:e1
-----BEGIN CERTIFICATE-----
MIIFuzCCBKOgAwIBAgISMzAwMDAwMzfwSbtf2LGeG+O4MA0GCSqGSIb3DQEBCwUA
MGcxCzAJBgNVBAYTAkpQMRwwGgYDVQQKDBNKYXBhbmVzZSBHb3Zlcm5tZW50MR8w
HQYDVQQLDBZOYXRpb25hbCBQb2xpY2UgQWdlbmN5MRkwFwYDVQQLDBBOUEEgSUNE
TCBSb290IENBMB4XDTIzMDYxOTA2MDEyN1oXDTI4MDYxODE0NTk1OVowgZ0xCzAJ
BgNVBAYTAkpQMRwwGgYDVQQKDBNKYXBhbmVzZSBHb3Zlcm5tZW50MR8wHQYDVQQL
DBZOYXRpb25hbCBQb2xpY2UgQWdlbmN5MTcwNQYDVQQLDC5QcmVmZWN0dXJhbCBQ
dWJsaWMgU2FmZXR5IENvbW1pc3Npb25zIGZvciBJQ0RMMRYwFAYDVQQDDA1IeW9n
byBBbHRQUFNDMIIBIjANBgkqhkiG9w0BAQEFAAOCAQ8AMIIBCgKCAQEA5+35JANM
swivlO+mryd55j19YAfPmQd1/qdSclJFI2OfUflBUFWghPKQpBByecZeOHlgS5rg
LEmMEKP45mqti+q4PTaeNMCz4wrJ1vPeUGL1XTmbivD+70k9arvjLhTqihYx6kQL
cgE/QN/JKuKJemHJh7tTsHQ4niiK78vns/W842GJF9wrfYeLAjzaVgZzJO46uckv
x+TH0wScIAhPhLrapR5PzcQ2/cuUlGPggdNCLgNPtXO2Gc4OrP6tLwsiukH1quhE
QYexcpjm5n2Hlgr7PhS95ZVE+W8BKtRSPHdT675Dhr5FEpW3v8dUQ91lNJV0AhfR
gOURXArVHS1E6QIDAQABo4ICKDCCAiQwgZgGA1UdIwSBkDCBjYAUEc2OYERHV09P
y+nny6FG37oOUIuha6RpMGcxCzAJBgNVBAYTAkpQMRwwGgYDVQQKDBNKYXBhbmVz
ZSBHb3Zlcm5tZW50MR8wHQYDVQQLDBZOYXRpb25hbCBQb2xpY2UgQWdlbmN5MRkw
FwYDVQQLDBBOUEEgSUNETCBSb290IENBgggyMDAwMDAxNjAdBgNVHQ4EFgQUTr+c
aenjR1cEaxZYiXdWuK9P3pEwDgYDVR0PAQH/BAQDAgbAMEAGA1UdIAEB/wQ2MDQw
MgYLKoMIho4YBwUBAQowIzAhBggrBgEFBQcCARYVaHR0cDovL3d3dy5ucGEuZ28u
anAvMHQGA1UdEgRtMGukaTBnMQswCQYDVQQGEwJKUDEYMBYGA1UECgwP5pel5pys
5Zu95pS/5bqcMRIwEAYDVQQLDAnorablr5/luoExKjAoBgNVBAsMIeitpuWvn+W6
gemBi+i7ouWFjeioseiovOiqjeiovOWxgDCBnwYDVR0fBIGXMIGUMIGRoIGOoIGL
pIGIMIGFMQswCQYDVQQGEwJKUDEcMBoGA1UECgwTSmFwYW5lc2UgR292ZXJubWVu
dDEfMB0GA1UECwwWTmF0aW9uYWwgUG9saWNlIEFnZW5jeTE3MDUGA1UECwwuUHJl
ZmVjdHVyYWwgUHVibGljIFNhZmV0eSBDb21taXNzaW9ucyBmb3IgSUNETDANBgkq
hkiG9w0BAQsFAAOCAQEAH3dV9yAtzxLuPIDVRj+KKzasXbaWJdzwbuGs5nCSG549
BP6+dWU8KU35wwKxTrUC5ZABGwQXO6GhtIBIdGn1R1c8u8ZuoV0BSQk9U6tBanl1
IayY+PLKU3p2UXZiVBSLTsEik/yn6IGW6QKUBA1CtiFgpSlGvbgC5yz2YbBXbKDk
7XkJL9K/0IWP4WmxBETjfA6Jl93OsIAG56a7fp3sDZ/4wi68+o0+tzaadu2zwN3E
iimx4zhlMJn9jgLbEGUttVzgKx03bLzwgCEoqgxpIfpoXoUCVp1+doP/Sa5ULzEz
j9pLlZMzbm7KPvlg8vpXzQQgtO7oNMinSkGHoLo+4Q==
-----END CERTIFICATE-----
