Certificate:
    Data:
        Version: 3 (0x2)
        Serial Number:
            33:30:30:30:30:31:31:31
        Signature Algorithm: sha256WithRSAEncryption
        Issuer: C=JP, O=Japanese Government, OU=National Police Agency, OU=NPA ICDL Root CA
        Validity
            Not Before: Sep 17 07:32:27 2024 GMT
            Not After : Sep 16 14:59:59 2029 GMT
        Subject: C=JP, O=Japanese Government, OU=National Police Agency, OU=Prefectural Public Safety Commissions for ICDL, CN=Hyogo PPSC
        Subject Public Key Info:
            Public Key Algorithm: rsaEncryption
                Public-Key: (2048 bit)
                Modulus:
                    00:d7:bd:df:41:9a:ca:a8:02:07:6f:6e:76:bb:89:
                    c6:95:8e:d0:29:45:fc:89:be:56:fe:6c:11:8c:3e:
                    76:60:d6:58:33:62:fa:ce:79:df:c6:a7:d1:28:51:
                    da:0a:d1:89:c1:77:23:5a:39:af:de:aa:e5:be:f1:
                    4c:7b:8f:c8:6d:62:41:25:e8:94:af:6f:50:54:f4:
                    c6:5f:59:7d:e1:11:d2:e0:fb:b5:4f:76:96:07:93:
                    a2:52:38:d9:85:8c:fe:e2:ec:8b:cc:8f:9d:37:b7:
                    43:ce:b0:f7:61:6e:5e:74:82:64:23:c1:ba:df:36:
                    0f:94:ec:12:25:b9:e4:77:4f:07:77:b6:d0:bb:ae:
                    cb:ef:d6:e6:cc:5c:12:ce:b6:af:d8:49:d6:34:c7:
                    7a:a0:40:db:7c:d1:a2:ce:26:2c:b5:15:64:53:e9:
                    71:3a:c9:85:ad:7d:0a:3e:3c:1c:bf:a8:e4:12:56:
                    8a:b8:9a:9a:30:77:10:d8:e0:db:e4:97:e3:f9:3a:
                    8b:30:03:06:2c:3a:ec:05:9f:04:21:28:88:06:53:
                    73:9f:1f:68:f5:76:e3:96:01:df:bd:2b:b1:6d:7f:
                    56:ff:e3:16:5d:2c:6c:f8:42:46:77:ba:bc:b0:33:
                    4e:fb:35:7d:0d:9f:14:92:58:f2:62:44:b7:d0:61:
                    24:7f
                Exponent: 65537 (0x10001)
        X509v3 extensions:
            X509v3 Authority Key Identifier: 
                keyid:11:CD:8E:60:44:47:57:4F:4F:CB:E9:E7:CB:A1:46:DF:BA:0E:50:8B
                DirName:/C=JP/O=Japanese Government/OU=National Police Agency/OU=NPA ICDL Root CA
                serial:32:30:30:30:30:30:31:36
            X509v3 Subject Key Identifier: 
                64:52:CC:A7:0A:F3:05:3F:EE:2F:81:CF:91:2F:58:83:7D:44:79:DB
            X509v3 Key Usage: critical
                Digital Signature, Non Repudiation
            X509v3 Certificate Policies: critical
                Policy: 1.2.392.100120.7.5.1.1.10
                  CPS: http://www.npa.go.jp/
            X509v3 Subject Alternative Name: 
                DirName:/C=JP/O=\xE6\x97\xA5\xE6\x9C\xAC\xE5\x9B\xBD\xE6\x94\xBF\xE5\xBA\x9C/OU=\xE8\xAD\xA6\xE5\xAF\x9F\xE5\xBA\x81/OU=\xE9\x83\xBD\xE9\x81\x93\xE5\xBA\x9C\xE7\x9C\x8C\xE5\x85\xAC\xE5\xAE\x89\xE5\xA7\x94\xE5\x93\xA1\xE4\xBC\x9A
            X509v3 Issuer Alternative Name: 
                DirName:/C=JP/O=\xE6\x97\xA5\xE6\x9C\xAC\xE5\x9B\xBD\xE6\x94\xBF\xE5\xBA\x9C/OU=\xE8\xAD\xA6\xE5\xAF\x9F\xE5\xBA\x81/OU=\xE8\xAD\xA6\xE5\xAF\x9F\xE5\xBA\x81\xE9\x81\x8B\xE8\xBB\xA2\xE5\x85\x8D\xE8\xA8\xB1\xE8\xA8\xBC\xE8\xAA\x8D\xE8\xA8\xBC\xE5\xB1\x80
            X509v3 CRL Distribution Points: 
                Full Name:
                  DirName:C = JP, O = Japanese Government, OU = National Police Agency, OU = Prefectural Public Safety Commissions for ICDL
    Signature Algorithm: sha256WithRSAEncryption
    Signature Value:
        82:36:4f:b4:73:96:eb:ef:06:ef:8e:e2:66:b4:5b:65:49:c6:
        03:ef:0a:36:8e:62:b3:07:0d:77:c2:1a:dd:ae:b7:e3:b2:90:
        7a:d2:dc:33:29:b9:47:05:6d:77:55:c4:cc:e1:18:ab:dd:82:
        86:7e:ea:99:59:28:f5:1e:6c:fe:03:4e:29:f6:9e:1a:72:c8:
        2c:51:e4:a5:f2:ef:02:3e:3f:c3:85:1c:9d:bf:74:58:00:05:
        e6:eb:25:a1:63:a2:2c:c2:aa:50:95:d6:20:ca:f9:58:d5:8a:
        e7:81:30:5d:0d:f2:84:7f:6a:72:3b:5d:d8:94:e5:33:96:eb:
        9c:eb:d0:0b:ac:72:86:97:22:8b:d1:90:70:53:c6:ee:27:e3:
        79:81:59:61:3d:8b:96:c8:6e:88:58:7e:ec:20:59:5d:4c:ae:
        4b:03:98:1b:61:e4:84:69:6b:25:a7:66:11:36:cb:af:90:54:
        a8:b3:7c:51:5c:d7:55:a5:f3:e4:78:21:83:72:61:79:49:d2:
        02:b4:78:1e:99:65:c0:cd:d9:95:d9:10:63:a3:71:55:40:dc:
        f7:16:c2:5a:af:cd:64:68:be:b8:e0:40:d0:90:23:c4:fc:f4:
        f4:b0:3a:cb:92:6a:10:b3:ad:5b:ac:45:c5:fe:54:dd:49:4e:
        b1:0e:9f:9a
-----BEGIN CERTIFICATE-----
MIIGRjCCBS6gAwIBAgIIMzAwMDAxMTEwDQYJKoZIhvcNAQELBQAwZzELMAkGA1UE
BhMCSlAxHDAaBgNVBAoME0phcGFuZXNlIEdvdmVybm1lbnQxHzAdBgNVBAsMFk5h
dGlvbmFsIFBvbGljZSBBZ2VuY3kxGTAXBgNVBAsMEE5QQSBJQ0RMIFJvb3QgQ0Ew
HhcNMjQwOTE3MDczMjI3WhcNMjkwOTE2MTQ1OTU5WjCBmjELMAkGA1UEBhMCSlAx
HDAaBgNVBAoME0phcGFuZXNlIEdvdmVybm1lbnQxHzAdBgNVBAsMFk5hdGlvbmFs
IFBvbGljZSBBZ2VuY3kxNzA1BgNVBAsMLlByZWZlY3R1cmFsIFB1YmxpYyBTYWZl
dHkgQ29tbWlzc2lvbnMgZm9yIElDREwxEzARBgNVBAMMCkh5b2dvIFBQU0MwggEi
MA0GCSqGSIb3DQEBAQUAA4IBDwAwggEKAoIBAQDXvd9BmsqoAgdvbna7icaVjtAp
RfyJvlb+bBGMPnZg1lgzYvrOed/Gp9EoUdoK0YnBdyNaOa/equW+8Ux7j8htYkEl
6JSvb1BU9MZfWX3hEdLg+7VPdpYHk6JSONmFjP7i7IvMj503t0POsPdhbl50gmQj
wbrfNg+U7BIlueR3Twd3ttC7rsvv1ubMXBLOtq/YSdY0x3qgQNt80aLOJiy1FWRT
6XE6yYWtfQo+PBy/qOQSVoq4mpowdxDY4Nvkl+P5OoswAwYsOuwFnwQhKIgGU3Of
H2j1duOWAd+9K7Ftf1b/4xZdLGz4QkZ3urywM077NX0NnxSSWPJiRLfQYSR/AgMB
AAGjggLAMIICvDCBmAYDVR0jBIGQMIGNgBQRzY5gREdXT0/L6efLoUbfug5Qi6Fr
pGkwZzELMAkGA1UEBhMCSlAxHDAaBgNVBAoME0phcGFuZXNlIEdvdmVybm1lbnQx
HzAdBgNVBAsMFk5hdGlvbmFsIFBvbGljZSBBZ2VuY3kxGTAXBgNVBAsMEE5QQSBJ
Q0RMIFJvb3QgQ0GCCDIwMDAwMDE2MB0GA1UdDgQWBBRkUsynCvMFP+4vgc+RL1iD
fUR52zAOBgNVHQ8BAf8EBAMCBsAwQAYDVR0gAQH/BDYwNDAyBgsqgwiGjhgHBQEB
CjAjMCEGCCsGAQUFBwIBFhVodHRwOi8vd3d3Lm5wYS5nby5qcC8wgZUGA1UdEQSB
jTCBiqSBhzCBhDELMAkGA1UEBhMCSlAxGDAWBgNVBAoMD+aXpeacrOWbveaUv+W6
nDESMBAGA1UECwwJ6K2m5a+f5bqBMSQwIgYDVQQLDBvpg73pgZPlupznnIzlhazl
ronlp5Tlk6HkvJoxITAfBgNVBAMMGOWFteW6q+ecjOWFrOWuieWnlOWToeS8mjB0
BgNVHRIEbTBrpGkwZzELMAkGA1UEBhMCSlAxGDAWBgNVBAoMD+aXpeacrOWbveaU
v+W6nDESMBAGA1UECwwJ6K2m5a+f5bqBMSowKAYDVQQLDCHorablr5/luoHpgYvo
u6LlhY3oqLHoqLzoqo3oqLzlsYAwgZ8GA1UdHwSBlzCBlDCBkaCBjqCBi6SBiDCB
hTELMAkGA1UEBhMCSlAxHDAaBgNVBAoME0phcGFuZXNlIEdvdmVybm1lbnQxHzAd
BgNVBAsMFk5hdGlvbmFsIFBvbGljZSBBZ2VuY3kxNzA1BgNVBAsMLlByZWZlY3R1
cmFsIFB1YmxpYyBTYWZldHkgQ29tbWlzc2lvbnMgZm9yIElDREwwDQYJKoZIhvcN
AQELBQADggEBAII2T7RzluvvBu+O4ma0W2VJxgPvCjaOYrMHDXfCGt2ut+OykHrS
3DMpuUcFbXdVxMzhGKvdgoZ+6plZKPUebP4DTin2nhpyyCxR5KXy7wI+P8OFHJ2/
dFgABebrJaFjoizCqlCV1iDK+VjViueBMF0N8oR/anI7XdiU5TOW65zr0AuscoaX
IovRkHBTxu4n43mBWWE9i5bIbohYfuwgWV1MrksDmBth5IRpayWnZhE2y6+QVKiz
fFFc11Wl8+R4IYNyYXlJ0gK0eB6ZZcDN2ZXZEGOjcVVA3PcWwlqvzWRovrjgQNCQ
I8T89PSwOsuSahCzrVusRcX+VN1JTrEOn5o=
-----END CERTIFICATE-----
