Certificate:
    Data:
        Version: 3 (0x2)
        Serial Number:
            32:30:30:30:30:30:36:33
        Signature Algorithm: sha256WithRSAEncryption
        Issuer: C=JP, O=Japanese Government, OU=National Police Agency, OU=NPA ICDL Root CA
        Validity
            Not Before: Feb  6 02:36:15 2023 GMT
            Not After : Feb  5 14:59:59 2028 GMT
        Subject: C=JP, O=Japanese Government, OU=National Police Agency, OU=Prefectural Public Safety Commissions for ICDL, CN=Hyogo PPSC
        Subject Public Key Info:
            Public Key Algorithm: rsaEncryption
                Public-Key: (2048 bit)
                Modulus:
                    00:ae:e5:23:16:94:82:ce:22:4d:41:77:58:6a:46:
                    64:98:e3:09:06:1d:e4:b9:97:be:63:41:ff:ed:3f:
                    f5:60:2b:94:43:06:cd:27:db:9d:5b:94:eb:77:08:
                    fe:7b:a7:d1:8a:ba:63:e8:2a:29:d0:9c:8d:6d:06:
                    89:ce:04:24:df:06:4f:86:c8:07:91:d7:20:10:ed:
                    2e:d2:ba:77:c2:7f:4a:b2:36:aa:50:56:1e:1b:60:
                    f5:17:f8:d8:fb:2d:85:94:24:b4:7a:72:b8:53:6c:
                    47:5b:58:bd:7c:64:6c:fc:90:9d:de:b6:61:64:d8:
                    dd:44:c7:2b:46:55:e7:76:56:22:df:87:0c:14:81:
                    cb:e8:47:8e:64:39:c5:d6:dd:80:35:18:e8:fd:7d:
                    c4:23:f5:35:b9:da:27:33:9a:10:ef:d3:69:61:fe:
                    ac:42:03:8b:98:ba:72:c0:2f:71:53:c4:a8:66:91:
                    85:7b:df:f9:81:62:b8:43:e5:8c:67:be:c2:5d:2c:
                    4f:76:46:01:0d:3a:05:5d:de:7e:07:ad:c3:87:fd:
                    dc:69:80:20:88:2d:0d:5b:1b:9e:91:ed:78:51:08:
                    f1:3b:76:f5:aa:82:0a:da:ee:4b:a2:bc:36:fa:b7:
                    c4:bf:09:8b:06:c7:6d:72:67:17:20:32:a4:44:73:
                    83:ef
                Exponent: 65537 (0x10001)
        X509v3 extensions:
            X509v3 Authority Key Identifier: 
                keyid:11:CD:8E:60:44:47:57:4F:4F:CB:E9:E7:CB:A1:46:DF:BA:0E:50:8B
                DirName:/C=JP/O=Japanese Government/OU=National Police Agency/OU=NPA ICDL Root CA
                serial:32:30:30:30:30:30:31:36
            X509v3 Subject Key Identifier: 
                CA:7D:B4:FE:BC:71:65:62:DA:5C:73:33:65:45:0A:A5:67:1F:02:F4
            X509v3 Key Usage: critical
                Digital Signature, Non Repudiation
            X509v3 Certificate Policies: critical
                Policy: 1.2.392.100120.7.5.1.1.10
                  CPS: http://www.npa.go.jp/
            X509v3 Subject Alternative Name: 
                DirName:/C=JP/O=\xE6\x97\xA5\xE6\x9C\xAC\xE5\x9B\xBD\xE6\x94\xBF\xE5\xBA\x9C/OU=\xE8\xAD\xA6\xE5\xAF\x9F\xE5\xBA\x81/OU=\xE9\x83\xBD\xE9\x81\x93\xE5\xBA\x9C\xE7\x9C\x8C\xE5\x85\xAC\xE5\xAE\x89\xE5\xA7\x94\xE5\x93\xA1\xE4\xBC\x9A
            X509v3 Issuer Alternative Name: 
                DirName:/C=JP/O=\xE6\x97\xA5\xE6\x9C\xAC\xE5\x9B\xBD\xE6\x94\xBF\xE5\xBA\x9C/OU=\xE8\xAD\xA6\xE5\xAF\x9F\xE5\xBA\x81/OU=\xE8\xAD\xA6\xE5\xAF\x9F\xE5\xBA\x81\xE9\x81\x8B\xE8\xBB\xA2\xE5\x85\x8D\xE8\xA8\xB1\xE8\xA8\xBC\xE8\xAA\x8D\xE8\xA8\xBC\xE5\xB1\x80
            X509v3 CRL Distribution Points: 
                Full Name:
                  DirName:C = JP, O = Japanese Government, OU = National Police Agency, OU = Prefectural Public Safety Commissions for ICDL
    Signature Algorithm: sha256WithRSAEncryption
    Signature Value:
        a3:73:88:2c:35:1a:e7:0b:57:ab:29:d3:ff:b5:02:96:35:05:
        4a:5b:40:fa:23:18:9d:b9:fc:24:bf:77:ec:56:0a:14:1b:81:
        2b:f8:92:89:6b:ca:74:a4:94:7f:28:74:43:08:30:d0:ab:54:
        2c:2c:63:0d:47:96:d6:46:fe:05:f3:64:9f:a1:f6:c1:0b:c2:
        63:1e:f4:00:9f:ea:10:4d:f0:42:2f:2f:c1:c4:45:90:a1:a1:
        b2:7a:4c:32:5b:5e:e9:5d:84:b7:4a:db:fd:61:e6:60:bd:24:
        f1:ba:55:42:b6:20:ee:5e:bf:51:07:78:16:ad:65:8f:94:54:
        8a:4f:81:76:d2:b5:88:50:01:f5:7f:fb:41:0b:7c:44:25:10:
        c1:0d:ab:07:76:2b:45:e4:bc:7a:34:fa:1c:b0:43:e9:f4:13:
        13:7d:68:6d:9e:d1:50:2a:e3:40:6a:4a:94:3f:f4:5f:af:7f:
        c1:9a:a9:df:dc:33:65:5c:0a:d8:a8:da:a4:26:71:86:2e:f8:
        a4:8b:08:da:1f:38:32:72:c1:68:d5:15:f8:46:95:8b:c1:13:
        72:d2:ee:d3:05:d6:fa:a9:f4:32:dc:c5:66:31:24:d3:cb:31:
        34:bf:e0:04:86:fd:de:51:25:38:23:34:03:78:6f:75:67:19:
        e9:77:66:31
-----BEGIN CERTIFICATE-----
MIIGRjCCBS6gAwIBAgIIMjAwMDAwNjMwDQYJKoZIhvcNAQELBQAwZzELMAkGA1UE
BhMCSlAxHDAaBgNVBAoME0phcGFuZXNlIEdvdmVybm1lbnQxHzAdBgNVBAsMFk5h
dGlvbmFsIFBvbGljZSBBZ2VuY3kxGTAXBgNVBAsMEE5QQSBJQ0RMIFJvb3QgQ0Ew
HhcNMjMwMjA2MDIzNjE1WhcNMjgwMjA1MTQ1OTU5WjCBmjELMAkGA1UEBhMCSlAx
HDAaBgNVBAoME0phcGFuZXNlIEdvdmVybm1lbnQxHzAdBgNVBAsMFk5hdGlvbmFs
IFBvbGljZSBBZ2VuY3kxNzA1BgNVBAsMLlByZWZlY3R1cmFsIFB1YmxpYyBTYWZl
dHkgQ29tbWlzc2lvbnMgZm9yIElDREwxEzARBgNVBAMMCkh5b2dvIFBQU0MwggEi
MA0GCSqGSIb3DQEBAQUAA4IBDwAwggEKAoIBAQCu5SMWlILOIk1Bd1hqRmSY4wkG
HeS5l75jQf/tP/VgK5RDBs0n251blOt3CP57p9GKumPoKinQnI1tBonOBCTfBk+G
yAeR1yAQ7S7SunfCf0qyNqpQVh4bYPUX+Nj7LYWUJLR6crhTbEdbWL18ZGz8kJ3e
tmFk2N1ExytGVed2ViLfhwwUgcvoR45kOcXW3YA1GOj9fcQj9TW52iczmhDv02lh
/qxCA4uYunLAL3FTxKhmkYV73/mBYrhD5YxnvsJdLE92RgENOgVd3n4HrcOH/dxp
gCCILQ1bG56R7XhRCPE7dvWqggra7kuivDb6t8S/CYsGx21yZxcgMqREc4PvAgMB
AAGjggLAMIICvDCBmAYDVR0jBIGQMIGNgBQRzY5gREdXT0/L6efLoUbfug5Qi6Fr
pGkwZzELMAkGA1UEBhMCSlAxHDAaBgNVBAoME0phcGFuZXNlIEdvdmVybm1lbnQx
HzAdBgNVBAsMFk5hdGlvbmFsIFBvbGljZSBBZ2VuY3kxGTAXBgNVBAsMEE5QQSBJ
Q0RMIFJvb3QgQ0GCCDIwMDAwMDE2MB0GA1UdDgQWBBTKfbT+vHFlYtpcczNlRQql
Zx8C9DAOBgNVHQ8BAf8EBAMCBsAwQAYDVR0gAQH/BDYwNDAyBgsqgwiGjhgHBQEB
CjAjMCEGCCsGAQUFBwIBFhVodHRwOi8vd3d3Lm5wYS5nby5qcC8wgZUGA1UdEQSB
jTCBiqSBhzCBhDELMAkGA1UEBhMCSlAxGDAWBgNVBAoMD+aXpeacrOWbveaUv+W6
nDESMBAGA1UECwwJ6K2m5a+f5bqBMSQwIgYDVQQLDBvpg73pgZPlupznnIzlhazl
ronlp5Tlk6HkvJoxITAfBgNVBAMMGOWFteW6q+ecjOWFrOWuieWnlOWToeS8mjB0
BgNVHRIEbTBrpGkwZzELMAkGA1UEBhMCSlAxGDAWBgNVBAoMD+aXpeacrOWbveaU
v+W6nDESMBAGA1UECwwJ6K2m5a+f5bqBMSowKAYDVQQLDCHorablr5/luoHpgYvo
u6LlhY3oqLHoqLzoqo3oqLzlsYAwgZ8GA1UdHwSBlzCBlDCBkaCBjqCBi6SBiDCB
hTELMAkGA1UEBhMCSlAxHDAaBgNVBAoME0phcGFuZXNlIEdvdmVybm1lbnQxHzAd
BgNVBAsMFk5hdGlvbmFsIFBvbGljZSBBZ2VuY3kxNzA1BgNVBAsMLlByZWZlY3R1
cmFsIFB1YmxpYyBTYWZldHkgQ29tbWlzc2lvbnMgZm9yIElDREwwDQYJKoZIhvcN
AQELBQADggEBAKNziCw1GucLV6sp0/+1ApY1BUpbQPojGJ25/CS/d+xWChQbgSv4
kolrynSklH8odEMIMNCrVCwsYw1HltZG/gXzZJ+h9sELwmMe9ACf6hBN8EIvL8HE
RZChobJ6TDJbXuldhLdK2/1h5mC9JPG6VUK2IO5ev1EHeBatZY+UVIpPgXbStYhQ
AfV/+0ELfEQlEMENqwd2K0XkvHo0+hywQ+n0ExN9aG2e0VAq40BqSpQ/9F+vf8Ga
qd/cM2VcCtio2qQmcYYu+KSLCNofODJywWjVFfhGlYvBE3LS7tMF1vqp9DLcxWYx
JNPLMTS/4ASG/d5RJTgjNAN4b3VnGel3ZjE=
-----END CERTIFICATE-----
