Certificate:
    Data:
        Version: 3 (0x2)
        Serial Number:
            32:30:30:30:30:30:34:37
        Signature Algorithm: sha256WithRSAEncryption
        Issuer: C=JP, O=Japanese Government, OU=National Police Agency, OU=NPA ICDL Root CA
        Validity
            Not Before: Feb  6 01:49:42 2023 GMT
            Not After : Feb  5 14:59:59 2028 GMT
        Subject: C=JP, O=Japanese Government, OU=National Police Agency, OU=Prefectural Public Safety Commissions for ICDL, CN=Ibaraki PPSC
        Subject Public Key Info:
            Public Key Algorithm: rsaEncryption
                Public-Key: (2048 bit)
                Modulus:
                    00:8a:2b:08:51:ca:98:77:87:90:fb:84:1e:00:60:
                    c3:b9:26:0b:a5:29:24:c8:e7:b2:c6:f6:ea:a0:c4:
                    85:aa:04:55:f8:27:d4:db:2f:c8:0a:b5:df:a9:a9:
                    85:82:22:ba:cc:79:1f:94:b1:e4:83:84:91:e8:51:
                    ba:da:e1:7a:76:a2:22:e6:93:e5:31:5e:6f:52:40:
                    44:bc:d4:29:fb:eb:05:e5:1d:cf:3d:02:c1:54:6a:
                    84:08:9c:22:eb:e8:66:e1:01:89:98:ab:87:a6:00:
                    f5:92:b5:8f:7f:4c:02:41:3e:99:16:39:2a:1d:f9:
                    2e:9a:5f:0f:da:89:42:4b:0c:b4:6b:a0:33:a2:af:
                    f2:fa:2a:6d:82:b7:a6:89:ff:25:4c:24:49:d9:f7:
                    76:e2:c5:71:07:bb:26:27:d1:bb:91:9f:7a:d7:39:
                    77:ec:08:73:e1:2d:83:a7:50:1f:a0:f9:a6:b9:fa:
                    ce:8e:d8:5d:ac:c6:15:7f:5c:60:10:9d:de:46:9c:
                    00:c9:c7:85:0b:18:ba:4e:f4:2c:67:14:ec:0e:a1:
                    02:a8:d9:dd:15:43:e8:ef:ad:16:29:d3:49:d7:f8:
                    0b:da:88:bc:ba:2e:65:06:d5:2b:7a:24:cf:99:a3:
                    9c:5c:df:34:77:29:f3:df:8d:1c:97:67:40:49:2b:
                    aa:4b
                Exponent: 65537 (0x10001)
        X509v3 extensions:
            X509v3 Authority Key Identifier: 
                keyid:11:CD:8E:60:44:47:57:4F:4F:CB:E9:E7:CB:A1:46:DF:BA:0E:50:8B
                DirName:/C=JP/O=Japanese Government/OU=National Police Agency/OU=NPA ICDL Root CA
                serial:32:30:30:30:30:30:31:36
            X509v3 Subject Key Identifier: 
                ED:F6:60:5F:8D:FF:FB:6C:58:91:C9:B3:69:F0:AB:9E:1C:D9:09:6A
            X509v3 Key Usage: critical
                Digital Signature, Non Repudiation
            X509v3 Certificate Policies: critical
                Policy: 1.2.392.100120.7.5.1.1.10
                  CPS: http://www.npa.go.jp/
            X509v3 Subject Alternative Name: 
                DirName:/C=JP/O=\xE6\x97\xA5\xE6\x9C\xAC\xE5\x9B\xBD\xE6\x94\xBF\xE5\xBA\x9C/OU=\xE8\xAD\xA6\xE5\xAF\x9F\xE5\xBA\x81/OU=\xE9\x83\xBD\xE9\x81\x93\xE5\xBA\x9C\xE7\x9C\x8C\xE5\x85\xAC\xE5\xAE\x89\xE5\xA7\x94\xE5\x93\xA1\xE4\xBC\x9A
            X509v3 Issuer Alternative Name: 
                DirName:/C=JP/O=\xE6\x97\xA5\xE6\x9C\xAC\xE5\x9B\xBD\xE6\x94\xBF\xE5\xBA\x9C/OU=\xE8\xAD\xA6\xE5\xAF\x9F\xE5\xBA\x81/OU=\xE8\xAD\xA6\xE5\xAF\x9F\xE5\xBA\x81\xE9\x81\x8B\xE8\xBB\xA2\xE5\x85\x8D\xE8\xA8\xB1\xE8\xA8\xBC\xE8\xAA\x8D\xE8\xA8\xBC\xE5\xB1\x80
            X509v3 CRL Distribution Points: 
                Full Name:
                  DirName:C = JP, O = Japanese Government, OU = National Police Agency, OU = Prefectural Public Safety Commissions for ICDL
    Signature Algorithm: sha256WithRSAEncryption
    Signature Value:
        a9:bb:94:06:6b:0e:50:88:d0:99:93:b7:d6:d2:c9:71:4a:c0:
        7c:ce:9b:bf:0e:e7:06:37:63:31:7d:89:4e:f3:d3:f4:27:4c:
        ac:e3:66:57:78:c9:b1:a7:9f:b1:ab:fe:a8:6c:fc:a6:cd:f9:
        86:77:2d:b4:57:ae:1f:a4:4e:38:c4:c3:bd:6b:bc:c3:3f:9d:
        63:63:35:0d:58:c8:54:80:f9:a6:6e:3d:24:7e:d9:ce:e3:f0:
        1a:f2:b2:00:82:a5:6a:7e:1d:67:0f:fe:bd:19:15:9b:5d:e8:
        f1:d2:35:88:8f:53:87:65:aa:85:d7:3f:f2:bf:41:1d:90:0d:
        66:6f:d5:97:5c:f7:ab:e0:88:57:65:72:b2:2a:b2:96:2d:ed:
        34:20:21:5b:52:34:91:df:40:dc:8a:f7:52:d0:a7:7f:f8:79:
        b4:00:13:f5:f2:10:82:d3:d4:31:01:ff:ba:39:b8:83:e5:54:
        7c:e7:3f:24:29:5f:a8:55:8f:fa:f0:98:45:8d:64:4a:91:ce:
        fe:e1:b8:21:8e:21:38:19:53:18:b4:28:98:e4:b4:fe:e6:40:
        de:c4:27:0a:2d:03:fc:ad:23:41:21:e7:49:45:5e:cd:45:46:
        f9:56:51:9a:b9:4c:6e:ff:93:8b:bf:68:64:72:6e:db:12:7f:
        0f:44:7d:82
-----BEGIN CERTIFICATE-----
MIIGSDCCBTCgAwIBAgIIMjAwMDAwNDcwDQYJKoZIhvcNAQELBQAwZzELMAkGA1UE
BhMCSlAxHDAaBgNVBAoME0phcGFuZXNlIEdvdmVybm1lbnQxHzAdBgNVBAsMFk5h
dGlvbmFsIFBvbGljZSBBZ2VuY3kxGTAXBgNVBAsMEE5QQSBJQ0RMIFJvb3QgQ0Ew
HhcNMjMwMjA2MDE0OTQyWhcNMjgwMjA1MTQ1OTU5WjCBnDELMAkGA1UEBhMCSlAx
HDAaBgNVBAoME0phcGFuZXNlIEdvdmVybm1lbnQxHzAdBgNVBAsMFk5hdGlvbmFs
IFBvbGljZSBBZ2VuY3kxNzA1BgNVBAsMLlByZWZlY3R1cmFsIFB1YmxpYyBTYWZl
dHkgQ29tbWlzc2lvbnMgZm9yIElDREwxFTATBgNVBAMMDEliYXJha2kgUFBTQzCC
ASIwDQYJKoZIhvcNAQEBBQADggEPADCCAQoCggEBAIorCFHKmHeHkPuEHgBgw7km
C6UpJMjnssb26qDEhaoEVfgn1NsvyAq136mphYIiusx5H5Sx5IOEkehRutrhenai
IuaT5TFeb1JARLzUKfvrBeUdzz0CwVRqhAicIuvoZuEBiZirh6YA9ZK1j39MAkE+
mRY5Kh35LppfD9qJQksMtGugM6Kv8voqbYK3pon/JUwkSdn3duLFcQe7JifRu5Gf
etc5d+wIc+Etg6dQH6D5prn6zo7YXazGFX9cYBCd3kacAMnHhQsYuk70LGcU7A6h
AqjZ3RVD6O+tFinTSdf4C9qIvLouZQbVK3okz5mjnFzfNHcp89+NHJdnQEkrqksC
AwEAAaOCAsAwggK8MIGYBgNVHSMEgZAwgY2AFBHNjmBER1dPT8vp58uhRt+6DlCL
oWukaTBnMQswCQYDVQQGEwJKUDEcMBoGA1UECgwTSmFwYW5lc2UgR292ZXJubWVu
dDEfMB0GA1UECwwWTmF0aW9uYWwgUG9saWNlIEFnZW5jeTEZMBcGA1UECwwQTlBB
IElDREwgUm9vdCBDQYIIMjAwMDAwMTYwHQYDVR0OBBYEFO32YF+N//tsWJHJs2nw
q54c2QlqMA4GA1UdDwEB/wQEAwIGwDBABgNVHSABAf8ENjA0MDIGCyqDCIaOGAcF
AQEKMCMwIQYIKwYBBQUHAgEWFWh0dHA6Ly93d3cubnBhLmdvLmpwLzCBlQYDVR0R
BIGNMIGKpIGHMIGEMQswCQYDVQQGEwJKUDEYMBYGA1UECgwP5pel5pys5Zu95pS/
5bqcMRIwEAYDVQQLDAnorablr5/luoExJDAiBgNVBAsMG+mDvemBk+W6nOecjOWF
rOWuieWnlOWToeS8mjEhMB8GA1UEAwwY6Iyo5Z+O55yM5YWs5a6J5aeU5ZOh5Lya
MHQGA1UdEgRtMGukaTBnMQswCQYDVQQGEwJKUDEYMBYGA1UECgwP5pel5pys5Zu9
5pS/5bqcMRIwEAYDVQQLDAnorablr5/luoExKjAoBgNVBAsMIeitpuWvn+W6gemB
i+i7ouWFjeioseiovOiqjeiovOWxgDCBnwYDVR0fBIGXMIGUMIGRoIGOoIGLpIGI
MIGFMQswCQYDVQQGEwJKUDEcMBoGA1UECgwTSmFwYW5lc2UgR292ZXJubWVudDEf
MB0GA1UECwwWTmF0aW9uYWwgUG9saWNlIEFnZW5jeTE3MDUGA1UECwwuUHJlZmVj
dHVyYWwgUHVibGljIFNhZmV0eSBDb21taXNzaW9ucyBmb3IgSUNETDANBgkqhkiG
9w0BAQsFAAOCAQEAqbuUBmsOUIjQmZO31tLJcUrAfM6bvw7nBjdjMX2JTvPT9CdM
rONmV3jJsaefsav+qGz8ps35hncttFeuH6ROOMTDvWu8wz+dY2M1DVjIVID5pm49
JH7ZzuPwGvKyAIKlan4dZw/+vRkVm13o8dI1iI9Th2Wqhdc/8r9BHZANZm/Vl1z3
q+CIV2Vysiqyli3tNCAhW1I0kd9A3Ir3UtCnf/h5tAAT9fIQgtPUMQH/ujm4g+VU
fOc/JClfqFWP+vCYRY1kSpHO/uG4IY4hOBlTGLQomOS0/uZA3sQnCi0D/K0jQSHn
SUVezUVG+VZRmrlMbv+Ti79oZHJu2xJ/D0R9gg==
-----END CERTIFICATE-----
