Certificate:
    Data:
        Version: 3 (0x2)
        Serial Number:
            33:30:30:30:30:30:36:31
        Signature Algorithm: sha256WithRSAEncryption
        Issuer: C=JP, O=Japanese Government, OU=National Police Agency, OU=NPA ICDL Root CA
        Validity
            Not Before: Nov  1 04:26:09 2023 GMT
            Not After : Oct 31 14:59:59 2028 GMT
        Subject: C=JP, O=Japanese Government, OU=National Police Agency, OU=Prefectural Public Safety Commissions for ICDL, CN=Ibaraki PPSC
        Subject Public Key Info:
            Public Key Algorithm: rsaEncryption
                Public-Key: (2048 bit)
                Modulus:
                    00:ca:ce:91:3a:ca:f6:94:3d:c5:eb:b5:ad:ef:97:
                    74:88:a6:bb:54:51:d0:f2:de:fe:ab:f2:73:6a:fd:
                    ef:5d:e7:7b:b7:11:e4:71:ab:56:82:21:17:66:87:
                    08:f1:08:c0:10:26:6f:ed:15:6b:43:5c:32:70:eb:
                    94:30:24:65:f2:45:c5:41:cd:42:eb:dc:7b:2b:24:
                    37:04:97:bf:dd:b6:c6:35:aa:20:54:4e:e4:b4:61:
                    22:95:e2:ef:cd:0d:aa:f4:81:86:b8:d3:69:b9:3a:
                    32:9a:8c:e6:ac:a7:2e:1b:77:9a:f6:28:65:00:a6:
                    68:18:89:14:6c:b8:cb:a5:5b:4d:4d:0a:40:38:bc:
                    94:06:eb:c0:df:46:67:21:cf:a9:48:e2:a2:30:7f:
                    14:23:ac:f9:40:26:1e:75:56:f1:8e:94:97:2f:37:
                    80:3e:96:1e:e0:e7:da:bf:83:a5:94:b8:8a:a0:a0:
                    d0:40:6d:00:69:c3:7e:87:15:dc:fc:d9:41:4e:d9:
                    e6:7d:3a:f4:e9:3d:e0:49:d1:98:24:5f:75:4e:13:
                    b2:0a:23:40:08:64:ee:ad:fc:2e:ea:be:af:7e:ed:
                    f9:a7:e7:53:a3:32:ea:f9:78:17:1e:6d:6f:4b:b2:
                    5b:d8:8e:eb:ae:5d:ec:12:5e:27:1a:75:e3:ba:bb:
                    c5:23
                Exponent: 65537 (0x10001)
        X509v3 extensions:
            X509v3 Authority Key Identifier: 
                keyid:11:CD:8E:60:44:47:57:4F:4F:CB:E9:E7:CB:A1:46:DF:BA:0E:50:8B
                DirName:/C=JP/O=Japanese Government/OU=National Police Agency/OU=NPA ICDL Root CA
                serial:32:30:30:30:30:30:31:36
            X509v3 Subject Key Identifier: 
                33:C2:C0:9C:97:24:80:F0:E4:09:FD:E3:7A:8A:F8:2D:6F:AB:76:8C
            X509v3 Key Usage: critical
                Digital Signature, Non Repudiation
            X509v3 Certificate Policies: critical
                Policy: 1.2.392.100120.7.5.1.1.10
                  CPS: http://www.npa.go.jp/
            X509v3 Subject Alternative Name: 
                DirName:/C=JP/O=\xE6\x97\xA5\xE6\x9C\xAC\xE5\x9B\xBD\xE6\x94\xBF\xE5\xBA\x9C/OU=\xE8\xAD\xA6\xE5\xAF\x9F\xE5\xBA\x81/OU=\xE9\x83\xBD\xE9\x81\x93\xE5\xBA\x9C\xE7\x9C\x8C\xE5\x85\xAC\xE5\xAE\x89\xE5\xA7\x94\xE5\x93\xA1\xE4\xBC\x9A
            X509v3 Issuer Alternative Name: 
                DirName:/C=JP/O=\xE6\x97\xA5\xE6\x9C\xAC\xE5\x9B\xBD\xE6\x94\xBF\xE5\xBA\x9C/OU=\xE8\xAD\xA6\xE5\xAF\x9F\xE5\xBA\x81/OU=\xE8\xAD\xA6\xE5\xAF\x9F\xE5\xBA\x81\xE9\x81\x8B\xE8\xBB\xA2\xE5\x85\x8D\xE8\xA8\xB1\xE8\xA8\xBC\xE8\xAA\x8D\xE8\xA8\xBC\xE5\xB1\x80
            X509v3 CRL Distribution Points: 
                Full Name:
                  DirName:C = JP, O = Japanese Government, OU = National Police Agency, OU = Prefectural Public Safety Commissions for ICDL
    Signature Algorithm: sha256WithRSAEncryption
    Signature Value:
        11:47:9e:8d:0a:f8:e2:cf:8e:5d:2f:10:56:55:0c:8a:6c:8f:
        3c:da:42:1b:53:49:b1:68:f8:30:c0:2e:66:31:4b:fb:6e:01:
        b0:9d:50:80:9e:bb:4c:50:db:e5:cc:3e:45:1c:07:8d:fb:0b:
        29:5f:74:cb:31:76:c4:76:e6:c2:34:fe:94:4b:ec:01:2e:4d:
        68:b7:c3:a8:17:0d:e8:ac:63:db:87:cb:81:ae:9b:76:62:72:
        6d:c1:30:50:85:83:c2:27:ec:23:81:84:f1:72:f7:5f:2a:28:
        71:25:30:33:3b:8e:11:d1:fd:fd:39:4f:da:97:eb:dc:5b:f0:
        a4:20:24:46:1f:a3:32:6d:2a:76:79:63:0d:bc:68:1e:73:ef:
        bf:fc:14:79:c1:ad:91:0b:85:5c:4a:4d:0e:05:ca:0d:27:21:
        55:9b:48:5d:c0:59:c5:01:98:d0:c3:a6:b9:6c:31:4e:52:5b:
        e4:fd:6e:59:be:f4:95:69:c1:a9:31:cb:e2:00:eb:15:a1:86:
        c9:bf:59:40:87:17:22:ef:9a:75:26:8b:89:52:86:c4:36:fc:
        82:0a:8a:92:d8:f6:5d:74:87:bb:87:00:e1:bd:07:2b:2d:c1:
        5e:3a:2e:c3:d4:e4:19:4b:7a:40:22:c1:e8:b2:9f:40:0d:15:
        8e:99:66:55
-----BEGIN CERTIFICATE-----
MIIGSDCCBTCgAwIBAgIIMzAwMDAwNjEwDQYJKoZIhvcNAQELBQAwZzELMAkGA1UE
BhMCSlAxHDAaBgNVBAoME0phcGFuZXNlIEdvdmVybm1lbnQxHzAdBgNVBAsMFk5h
dGlvbmFsIFBvbGljZSBBZ2VuY3kxGTAXBgNVBAsMEE5QQSBJQ0RMIFJvb3QgQ0Ew
HhcNMjMxMTAxMDQyNjA5WhcNMjgxMDMxMTQ1OTU5WjCBnDELMAkGA1UEBhMCSlAx
HDAaBgNVBAoME0phcGFuZXNlIEdvdmVybm1lbnQxHzAdBgNVBAsMFk5hdGlvbmFs
IFBvbGljZSBBZ2VuY3kxNzA1BgNVBAsMLlByZWZlY3R1cmFsIFB1YmxpYyBTYWZl
dHkgQ29tbWlzc2lvbnMgZm9yIElDREwxFTATBgNVBAMMDEliYXJha2kgUFBTQzCC
ASIwDQYJKoZIhvcNAQEBBQADggEPADCCAQoCggEBAMrOkTrK9pQ9xeu1re+XdIim
u1RR0PLe/qvyc2r9713ne7cR5HGrVoIhF2aHCPEIwBAmb+0Va0NcMnDrlDAkZfJF
xUHNQuvceyskNwSXv922xjWqIFRO5LRhIpXi780NqvSBhrjTabk6MpqM5qynLht3
mvYoZQCmaBiJFGy4y6VbTU0KQDi8lAbrwN9GZyHPqUjiojB/FCOs+UAmHnVW8Y6U
ly83gD6WHuDn2r+DpZS4iqCg0EBtAGnDfocV3PzZQU7Z5n069Ok94EnRmCRfdU4T
sgojQAhk7q38Luq+r37t+afnU6My6vl4Fx5tb0uyW9iO665d7BJeJxp147q7xSMC
AwEAAaOCAsAwggK8MIGYBgNVHSMEgZAwgY2AFBHNjmBER1dPT8vp58uhRt+6DlCL
oWukaTBnMQswCQYDVQQGEwJKUDEcMBoGA1UECgwTSmFwYW5lc2UgR292ZXJubWVu
dDEfMB0GA1UECwwWTmF0aW9uYWwgUG9saWNlIEFnZW5jeTEZMBcGA1UECwwQTlBB
IElDREwgUm9vdCBDQYIIMjAwMDAwMTYwHQYDVR0OBBYEFDPCwJyXJIDw5An943qK
+C1vq3aMMA4GA1UdDwEB/wQEAwIGwDBABgNVHSABAf8ENjA0MDIGCyqDCIaOGAcF
AQEKMCMwIQYIKwYBBQUHAgEWFWh0dHA6Ly93d3cubnBhLmdvLmpwLzCBlQYDVR0R
BIGNMIGKpIGHMIGEMQswCQYDVQQGEwJKUDEYMBYGA1UECgwP5pel5pys5Zu95pS/
5bqcMRIwEAYDVQQLDAnorablr5/luoExJDAiBgNVBAsMG+mDvemBk+W6nOecjOWF
rOWuieWnlOWToeS8mjEhMB8GA1UEAwwY6Iyo5Z+O55yM5YWs5a6J5aeU5ZOh5Lya
MHQGA1UdEgRtMGukaTBnMQswCQYDVQQGEwJKUDEYMBYGA1UECgwP5pel5pys5Zu9
5pS/5bqcMRIwEAYDVQQLDAnorablr5/luoExKjAoBgNVBAsMIeitpuWvn+W6gemB
i+i7ouWFjeioseiovOiqjeiovOWxgDCBnwYDVR0fBIGXMIGUMIGRoIGOoIGLpIGI
MIGFMQswCQYDVQQGEwJKUDEcMBoGA1UECgwTSmFwYW5lc2UgR292ZXJubWVudDEf
MB0GA1UECwwWTmF0aW9uYWwgUG9saWNlIEFnZW5jeTE3MDUGA1UECwwuUHJlZmVj
dHVyYWwgUHVibGljIFNhZmV0eSBDb21taXNzaW9ucyBmb3IgSUNETDANBgkqhkiG
9w0BAQsFAAOCAQEAEUeejQr44s+OXS8QVlUMimyPPNpCG1NJsWj4MMAuZjFL+24B
sJ1QgJ67TFDb5cw+RRwHjfsLKV90yzF2xHbmwjT+lEvsAS5NaLfDqBcN6Kxj24fL
ga6bdmJybcEwUIWDwifsI4GE8XL3XyoocSUwMzuOEdH9/TlP2pfr3FvwpCAkRh+j
Mm0qdnljDbxoHnPvv/wUecGtkQuFXEpNDgXKDSchVZtIXcBZxQGY0MOmuWwxTlJb
5P1uWb70lWnBqTHL4gDrFaGGyb9ZQIcXIu+adSaLiVKGxDb8ggqKktj2XXSHu4cA
4b0HKy3BXjouw9TkGUt6QCLB6LKfQA0VjplmVQ==
-----END CERTIFICATE-----
