Certificate:
    Data:
        Version: 3 (0x2)
        Serial Number:
            33:30:30:30:30:30:38:31
        Signature Algorithm: sha256WithRSAEncryption
        Issuer: C=JP, O=Japanese Government, OU=National Police Agency, OU=NPA ICDL Root CA
        Validity
            Not Before: Mar 18 05:17:06 2024 GMT
            Not After : Mar 17 14:59:59 2029 GMT
        Subject: C=JP, O=Japanese Government, OU=National Police Agency, OU=Prefectural Public Safety Commissions for ICDL, CN=Ibaraki AltPPSC
        Subject Public Key Info:
            Public Key Algorithm: rsaEncryption
                Public-Key: (2048 bit)
                Modulus:
                    00:8a:2b:08:51:ca:98:77:87:90:fb:84:1e:00:60:
                    c3:b9:26:0b:a5:29:24:c8:e7:b2:c6:f6:ea:a0:c4:
                    85:aa:04:55:f8:27:d4:db:2f:c8:0a:b5:df:a9:a9:
                    85:82:22:ba:cc:79:1f:94:b1:e4:83:84:91:e8:51:
                    ba:da:e1:7a:76:a2:22:e6:93:e5:31:5e:6f:52:40:
                    44:bc:d4:29:fb:eb:05:e5:1d:cf:3d:02:c1:54:6a:
                    84:08:9c:22:eb:e8:66:e1:01:89:98:ab:87:a6:00:
                    f5:92:b5:8f:7f:4c:02:41:3e:99:16:39:2a:1d:f9:
                    2e:9a:5f:0f:da:89:42:4b:0c:b4:6b:a0:33:a2:af:
                    f2:fa:2a:6d:82:b7:a6:89:ff:25:4c:24:49:d9:f7:
                    76:e2:c5:71:07:bb:26:27:d1:bb:91:9f:7a:d7:39:
                    77:ec:08:73:e1:2d:83:a7:50:1f:a0:f9:a6:b9:fa:
                    ce:8e:d8:5d:ac:c6:15:7f:5c:60:10:9d:de:46:9c:
                    00:c9:c7:85:0b:18:ba:4e:f4:2c:67:14:ec:0e:a1:
                    02:a8:d9:dd:15:43:e8:ef:ad:16:29:d3:49:d7:f8:
                    0b:da:88:bc:ba:2e:65:06:d5:2b:7a:24:cf:99:a3:
                    9c:5c:df:34:77:29:f3:df:8d:1c:97:67:40:49:2b:
                    aa:4b
                Exponent: 65537 (0x10001)
        X509v3 extensions:
            X509v3 Authority Key Identifier: 
                keyid:11:CD:8E:60:44:47:57:4F:4F:CB:E9:E7:CB:A1:46:DF:BA:0E:50:8B
                DirName:/C=JP/O=Japanese Government/OU=National Police Agency/OU=NPA ICDL Root CA
                serial:32:30:30:30:30:30:31:36
            X509v3 Subject Key Identifier: 
                ED:F6:60:5F:8D:FF:FB:6C:58:91:C9:B3:69:F0:AB:9E:1C:D9:09:6A
            X509v3 Key Usage: critical
                Digital Signature, Non Repudiation
            X509v3 Certificate Policies: critical
                Policy: 1.2.392.100120.7.5.1.1.10
                  CPS: http://www.npa.go.jp/
            X509v3 Issuer Alternative Name: 
                DirName:/C=JP/O=\xE6\x97\xA5\xE6\x9C\xAC\xE5\x9B\xBD\xE6\x94\xBF\xE5\xBA\x9C/OU=\xE8\xAD\xA6\xE5\xAF\x9F\xE5\xBA\x81/OU=\xE8\xAD\xA6\xE5\xAF\x9F\xE5\xBA\x81\xE9\x81\x8B\xE8\xBB\xA2\xE5\x85\x8D\xE8\xA8\xB1\xE8\xA8\xBC\xE8\xAA\x8D\xE8\xA8\xBC\xE5\xB1\x80
            X509v3 CRL Distribution Points: 
                Full Name:
                  DirName:C = JP, O = Japanese Government, OU = National Police Agency, OU = Prefectural Public Safety Commissions for ICDL
    Signature Algorithm: sha256WithRSAEncryption
    Signature Value:
        66:a7:22:c7:21:f6:96:2b:ad:77:a7:bb:4d:18:9d:cf:ae:cf:
        d8:fb:b7:98:d3:52:cc:4f:41:e2:67:6f:46:a7:e2:e1:21:70:
        9a:3b:b4:34:c2:18:7e:e3:65:26:c0:d0:49:71:18:3f:a1:8d:
        e3:c2:66:ff:28:33:c1:7d:d7:e6:8b:c4:fd:4e:14:df:48:d7:
        90:e9:b5:06:9e:74:ae:26:60:32:f2:e2:d7:2d:2b:de:fc:72:
        36:c5:aa:ca:2d:a7:df:7c:aa:72:e6:4f:e5:2f:87:14:60:83:
        a5:fb:1d:91:d9:4a:51:0e:7a:04:68:44:1f:58:95:3d:ec:6c:
        62:42:d9:77:44:79:3d:1f:c4:9f:7f:b6:cb:d5:ab:4e:28:68:
        1a:c4:09:5c:20:6a:e6:07:7d:c6:df:ef:18:ab:7c:c4:d7:1e:
        33:fe:7a:9d:84:ed:da:1c:f4:bd:5e:28:25:fd:8d:7c:fc:dc:
        43:51:c3:ba:1c:bc:1e:f0:d9:d8:1e:ce:52:3b:31:6a:9f:70:
        36:1f:f3:64:5e:92:c0:5d:05:45:dc:38:01:13:0c:d9:88:e1:
        43:6b:ab:69:0b:9e:ed:3c:33:40:63:2f:14:30:e5:82:f7:f8:
        a0:e9:0e:fd:39:a0:20:1b:7e:44:28:01:00:24:0b:64:ac:75:
        1b:0a:76:45
-----BEGIN CERTIFICATE-----
MIIFszCCBJugAwIBAgIIMzAwMDAwODEwDQYJKoZIhvcNAQELBQAwZzELMAkGA1UE
BhMCSlAxHDAaBgNVBAoME0phcGFuZXNlIEdvdmVybm1lbnQxHzAdBgNVBAsMFk5h
dGlvbmFsIFBvbGljZSBBZ2VuY3kxGTAXBgNVBAsMEE5QQSBJQ0RMIFJvb3QgQ0Ew
HhcNMjQwMzE4MDUxNzA2WhcNMjkwMzE3MTQ1OTU5WjCBnzELMAkGA1UEBhMCSlAx
HDAaBgNVBAoME0phcGFuZXNlIEdvdmVybm1lbnQxHzAdBgNVBAsMFk5hdGlvbmFs
IFBvbGljZSBBZ2VuY3kxNzA1BgNVBAsMLlByZWZlY3R1cmFsIFB1YmxpYyBTYWZl
dHkgQ29tbWlzc2lvbnMgZm9yIElDREwxGDAWBgNVBAMMD0liYXJha2kgQWx0UFBT
QzCCASIwDQYJKoZIhvcNAQEBBQADggEPADCCAQoCggEBAIorCFHKmHeHkPuEHgBg
w7kmC6UpJMjnssb26qDEhaoEVfgn1NsvyAq136mphYIiusx5H5Sx5IOEkehRutrh
enaiIuaT5TFeb1JARLzUKfvrBeUdzz0CwVRqhAicIuvoZuEBiZirh6YA9ZK1j39M
AkE+mRY5Kh35LppfD9qJQksMtGugM6Kv8voqbYK3pon/JUwkSdn3duLFcQe7JifR
u5Gfetc5d+wIc+Etg6dQH6D5prn6zo7YXazGFX9cYBCd3kacAMnHhQsYuk70LGcU
7A6hAqjZ3RVD6O+tFinTSdf4C9qIvLouZQbVK3okz5mjnFzfNHcp89+NHJdnQEkr
qksCAwEAAaOCAigwggIkMIGYBgNVHSMEgZAwgY2AFBHNjmBER1dPT8vp58uhRt+6
DlCLoWukaTBnMQswCQYDVQQGEwJKUDEcMBoGA1UECgwTSmFwYW5lc2UgR292ZXJu
bWVudDEfMB0GA1UECwwWTmF0aW9uYWwgUG9saWNlIEFnZW5jeTEZMBcGA1UECwwQ
TlBBIElDREwgUm9vdCBDQYIIMjAwMDAwMTYwHQYDVR0OBBYEFO32YF+N//tsWJHJ
s2nwq54c2QlqMA4GA1UdDwEB/wQEAwIGwDBABgNVHSABAf8ENjA0MDIGCyqDCIaO
GAcFAQEKMCMwIQYIKwYBBQUHAgEWFWh0dHA6Ly93d3cubnBhLmdvLmpwLzB0BgNV
HRIEbTBrpGkwZzELMAkGA1UEBhMCSlAxGDAWBgNVBAoMD+aXpeacrOWbveaUv+W6
nDESMBAGA1UECwwJ6K2m5a+f5bqBMSowKAYDVQQLDCHorablr5/luoHpgYvou6Ll
hY3oqLHoqLzoqo3oqLzlsYAwgZ8GA1UdHwSBlzCBlDCBkaCBjqCBi6SBiDCBhTEL
MAkGA1UEBhMCSlAxHDAaBgNVBAoME0phcGFuZXNlIEdvdmVybm1lbnQxHzAdBgNV
BAsMFk5hdGlvbmFsIFBvbGljZSBBZ2VuY3kxNzA1BgNVBAsMLlByZWZlY3R1cmFs
IFB1YmxpYyBTYWZldHkgQ29tbWlzc2lvbnMgZm9yIElDREwwDQYJKoZIhvcNAQEL
BQADggEBAGanIsch9pYrrXenu00Ync+uz9j7t5jTUsxPQeJnb0an4uEhcJo7tDTC
GH7jZSbA0ElxGD+hjePCZv8oM8F91+aLxP1OFN9I15DptQaedK4mYDLy4tctK978
cjbFqsotp998qnLmT+UvhxRgg6X7HZHZSlEOegRoRB9YlT3sbGJC2XdEeT0fxJ9/
tsvVq04oaBrECVwgauYHfcbf7xirfMTXHjP+ep2E7doc9L1eKCX9jXz83ENRw7oc
vB7w2dgezlI7MWqfcDYf82ReksBdBUXcOAETDNmI4UNrq2kLnu08M0BjLxQw5YL3
+KDpDv05oCAbfkQoAQAkC2SsdRsKdkU=
-----END CERTIFICATE-----
