Certificate:
    Data:
        Version: 3 (0x2)
        Serial Number:
            33:30:30:30:30:30:31:38:db:ce:cf:90:79:c6:e1:aa:f4:e4
        Signature Algorithm: sha256WithRSAEncryption
        Issuer: C=JP, O=Japanese Government, OU=National Police Agency, OU=NPA ICDL Root CA
        Validity
            Not Before: Jun 19 05:33:53 2023 GMT
            Not After : Jun 18 14:59:59 2028 GMT
        Subject: C=JP, O=Japanese Government, OU=National Police Agency, OU=Prefectural Public Safety Commissions for ICDL, CN=Ibaraki AltPPSC
        Subject Public Key Info:
            Public Key Algorithm: rsaEncryption
                Public-Key: (2048 bit)
                Modulus:
                    00:91:d3:25:c8:76:6c:94:26:65:3f:cc:ba:e1:2e:
                    c3:1d:ac:ba:25:53:6a:e7:38:57:d3:45:da:ec:45:
                    f1:c3:4a:cc:84:ae:0f:80:31:01:3f:de:ec:1c:75:
                    9b:4c:dd:06:ae:d5:c1:52:6a:a9:90:1f:92:fc:7e:
                    95:a9:06:7d:f3:5f:71:ad:eb:bb:a9:ab:a1:e3:41:
                    29:e3:8a:c2:41:fb:8d:12:cc:6e:69:ac:7e:dc:ba:
                    5d:42:92:74:fa:44:e6:91:71:47:ff:ee:11:9c:ac:
                    b7:2b:1e:f1:e9:a8:07:cb:71:57:ae:72:6e:37:58:
                    7c:34:e4:44:d4:96:52:52:29:21:cd:9f:2e:e9:64:
                    47:ac:fa:70:17:07:bc:b2:83:b2:0a:47:ef:c3:f4:
                    ee:64:f9:89:6d:18:19:c1:17:5a:16:c9:bc:97:04:
                    c7:e9:69:b4:d3:75:18:9a:dd:a1:7e:3c:26:f4:28:
                    92:aa:aa:4e:22:04:00:95:11:c3:e1:5e:e3:00:93:
                    8f:1a:c8:9a:31:28:b4:2e:6a:17:58:9f:41:39:8b:
                    29:a5:f5:ff:21:4f:c4:83:97:20:b9:13:28:99:1d:
                    26:aa:cc:ec:0e:f1:3f:f7:09:77:ab:4f:01:3b:f8:
                    b6:f6:2d:24:8f:11:1d:9b:b2:ac:65:a7:ba:b1:3c:
                    82:c3
                Exponent: 65537 (0x10001)
        X509v3 extensions:
            X509v3 Authority Key Identifier: 
                keyid:11:CD:8E:60:44:47:57:4F:4F:CB:E9:E7:CB:A1:46:DF:BA:0E:50:8B
                DirName:/C=JP/O=Japanese Government/OU=National Police Agency/OU=NPA ICDL Root CA
                serial:32:30:30:30:30:30:31:36
            X509v3 Subject Key Identifier: 
                FD:F1:03:D6:62:F4:57:7B:EC:2D:CE:E0:FA:5F:DF:29:B4:60:6E:D1
            X509v3 Key Usage: critical
                Digital Signature, Non Repudiation
            X509v3 Certificate Policies: critical
                Policy: 1.2.392.100120.7.5.1.1.10
                  CPS: http://www.npa.go.jp/
            X509v3 Issuer Alternative Name: 
                DirName:/C=JP/O=\xE6\x97\xA5\xE6\x9C\xAC\xE5\x9B\xBD\xE6\x94\xBF\xE5\xBA\x9C/OU=\xE8\xAD\xA6\xE5\xAF\x9F\xE5\xBA\x81/OU=\xE8\xAD\xA6\xE5\xAF\x9F\xE5\xBA\x81\xE9\x81\x8B\xE8\xBB\xA2\xE5\x85\x8D\xE8\xA8\xB1\xE8\xA8\xBC\xE8\xAA\x8D\xE8\xA8\xBC\xE5\xB1\x80
            X509v3 CRL Distribution Points: 
                Full Name:
                  DirName:C = JP, O = Japanese Government, OU = National Police Agency, OU = Prefectural Public Safety Commissions for ICDL
    Signature Algorithm: sha256WithRSAEncryption
    Signature Value:
        39:f0:fe:8c:86:44:b7:df:8e:71:c0:81:f4:93:bc:7d:77:54:
        27:9b:98:4d:b2:19:bd:a4:78:9c:d3:42:3c:a9:1e:97:ce:ad:
        ed:f0:93:84:d7:85:6d:8b:fe:e0:5e:e6:af:64:32:58:d1:ca:
        0e:c6:d0:38:1c:c8:4e:17:ac:89:5c:a6:41:f2:ae:4c:56:49:
        95:53:22:66:d3:77:80:06:11:c3:ff:84:67:35:75:52:b5:f6:
        e8:88:1a:80:19:eb:c6:22:94:6f:64:17:3e:d1:f3:52:72:70:
        f5:ac:3c:e2:71:11:fe:a6:93:ec:6c:34:4a:70:21:19:69:8c:
        b9:a5:22:1c:32:d4:b9:f1:17:ed:67:80:d2:7c:c7:68:cb:a1:
        37:55:87:ff:79:75:68:e7:ff:4a:c2:9d:d7:a6:79:da:a3:b8:
        3b:31:2b:c9:3a:35:21:74:e6:1c:6f:62:32:1b:7f:27:6b:85:
        13:ed:9c:b5:04:69:4c:46:e8:ed:5d:45:59:3d:84:49:7c:68:
        1f:06:12:03:2b:b8:78:aa:50:24:19:e9:ae:73:d7:80:7f:4a:
        43:dd:5a:a8:a3:68:bc:eb:5d:58:37:ed:34:63:50:ef:f5:be:
        21:32:e3:2f:60:8e:ad:38:fe:a5:ff:6a:7b:eb:ee:d1:6a:4d:
        61:bf:52:4e
-----BEGIN CERTIFICATE-----
MIIFvTCCBKWgAwIBAgISMzAwMDAwMTjbzs+QecbhqvTkMA0GCSqGSIb3DQEBCwUA
MGcxCzAJBgNVBAYTAkpQMRwwGgYDVQQKDBNKYXBhbmVzZSBHb3Zlcm5tZW50MR8w
HQYDVQQLDBZOYXRpb25hbCBQb2xpY2UgQWdlbmN5MRkwFwYDVQQLDBBOUEEgSUNE
TCBSb290IENBMB4XDTIzMDYxOTA1MzM1M1oXDTI4MDYxODE0NTk1OVowgZ8xCzAJ
BgNVBAYTAkpQMRwwGgYDVQQKDBNKYXBhbmVzZSBHb3Zlcm5tZW50MR8wHQYDVQQL
DBZOYXRpb25hbCBQb2xpY2UgQWdlbmN5MTcwNQYDVQQLDC5QcmVmZWN0dXJhbCBQ
dWJsaWMgU2FmZXR5IENvbW1pc3Npb25zIGZvciBJQ0RMMRgwFgYDVQQDDA9JYmFy
YWtpIEFsdFBQU0MwggEiMA0GCSqGSIb3DQEBAQUAA4IBDwAwggEKAoIBAQCR0yXI
dmyUJmU/zLrhLsMdrLolU2rnOFfTRdrsRfHDSsyErg+AMQE/3uwcdZtM3Qau1cFS
aqmQH5L8fpWpBn3zX3Gt67upq6HjQSnjisJB+40SzG5prH7cul1CknT6ROaRcUf/
7hGcrLcrHvHpqAfLcVeucm43WHw05ETUllJSKSHNny7pZEes+nAXB7yyg7IKR+/D
9O5k+YltGBnBF1oWybyXBMfpabTTdRia3aF+PCb0KJKqqk4iBACVEcPhXuMAk48a
yJoxKLQuahdYn0E5iyml9f8hT8SDlyC5EyiZHSaqzOwO8T/3CXerTwE7+Lb2LSSP
ER2bsqxlp7qxPILDAgMBAAGjggIoMIICJDCBmAYDVR0jBIGQMIGNgBQRzY5gREdX
T0/L6efLoUbfug5Qi6FrpGkwZzELMAkGA1UEBhMCSlAxHDAaBgNVBAoME0phcGFu
ZXNlIEdvdmVybm1lbnQxHzAdBgNVBAsMFk5hdGlvbmFsIFBvbGljZSBBZ2VuY3kx
GTAXBgNVBAsMEE5QQSBJQ0RMIFJvb3QgQ0GCCDIwMDAwMDE2MB0GA1UdDgQWBBT9
8QPWYvRXe+wtzuD6X98ptGBu0TAOBgNVHQ8BAf8EBAMCBsAwQAYDVR0gAQH/BDYw
NDAyBgsqgwiGjhgHBQEBCjAjMCEGCCsGAQUFBwIBFhVodHRwOi8vd3d3Lm5wYS5n
by5qcC8wdAYDVR0SBG0wa6RpMGcxCzAJBgNVBAYTAkpQMRgwFgYDVQQKDA/ml6Xm
nKzlm73mlL/lupwxEjAQBgNVBAsMCeitpuWvn+W6gTEqMCgGA1UECwwh6K2m5a+f
5bqB6YGL6Lui5YWN6Kix6Ki86KqN6Ki85bGAMIGfBgNVHR8EgZcwgZQwgZGggY6g
gYukgYgwgYUxCzAJBgNVBAYTAkpQMRwwGgYDVQQKDBNKYXBhbmVzZSBHb3Zlcm5t
ZW50MR8wHQYDVQQLDBZOYXRpb25hbCBQb2xpY2UgQWdlbmN5MTcwNQYDVQQLDC5Q
cmVmZWN0dXJhbCBQdWJsaWMgU2FmZXR5IENvbW1pc3Npb25zIGZvciBJQ0RMMA0G
CSqGSIb3DQEBCwUAA4IBAQA58P6MhkS3345xwIH0k7x9d1Qnm5hNshm9pHic00I8
qR6Xzq3t8JOE14Vti/7gXuavZDJY0coOxtA4HMhOF6yJXKZB8q5MVkmVUyJm03eA
BhHD/4RnNXVStfboiBqAGevGIpRvZBc+0fNScnD1rDzicRH+ppPsbDRKcCEZaYy5
pSIcMtS58RftZ4DSfMdoy6E3VYf/eXVo5/9Kwp3Xpnnao7g7MSvJOjUhdOYcb2Iy
G38na4UT7Zy1BGlMRujtXUVZPYRJfGgfBhIDK7h4qlAkGemuc9eAf0pD3Vqoo2i8
611YN+00Y1Dv9b4hMuMvYI6tOP6l/2p76+7Rak1hv1JO
-----END CERTIFICATE-----
