Certificate:
    Data:
        Version: 3 (0x2)
        Serial Number:
            32:30:30:30:30:30:35:36
        Signature Algorithm: sha256WithRSAEncryption
        Issuer: C=JP, O=Japanese Government, OU=National Police Agency, OU=NPA ICDL Root CA
        Validity
            Not Before: Feb  6 02:18:01 2023 GMT
            Not After : Feb  5 14:59:59 2028 GMT
        Subject: C=JP, O=Japanese Government, OU=National Police Agency, OU=Prefectural Public Safety Commissions for ICDL, CN=Ishikawa PPSC
        Subject Public Key Info:
            Public Key Algorithm: rsaEncryption
                Public-Key: (2048 bit)
                Modulus:
                    00:81:8c:0d:81:da:6a:0a:d6:ad:be:46:44:79:b3:
                    2d:cb:da:4c:79:a5:38:55:a6:53:28:41:52:a7:d2:
                    97:b4:0c:ff:c7:1d:89:fb:c4:20:b8:20:83:9b:0c:
                    fb:2d:60:10:25:6e:96:ee:89:04:b8:c9:a7:f5:ca:
                    cb:06:13:89:ac:22:17:0b:5a:1d:eb:c8:bf:c4:ba:
                    eb:56:af:39:b0:f4:3f:95:bf:eb:dc:d9:5e:c8:46:
                    0b:90:89:55:0a:00:cc:27:05:17:8e:61:53:7e:ae:
                    ac:c6:63:d1:5f:b7:28:bc:ab:18:cf:4e:58:ae:24:
                    d7:41:0b:09:c6:b2:c8:ac:d5:10:f0:d7:35:96:48:
                    e3:cb:fd:cb:8d:23:b0:c7:83:7d:d1:34:7d:2a:46:
                    94:31:38:0b:e9:70:5c:86:fd:b2:ce:31:0a:52:ea:
                    82:d6:5c:0b:f9:57:ed:4b:a7:c6:06:a5:97:c2:97:
                    e2:33:d6:a1:9f:8a:8d:30:56:df:c4:b1:7f:60:c2:
                    0f:da:f8:e5:e8:69:f6:67:ce:5e:ce:25:f1:05:01:
                    eb:28:13:17:a2:56:9b:03:4f:f7:8a:4d:1b:5e:7f:
                    10:f5:94:08:fb:79:49:32:c5:51:89:7b:58:34:0d:
                    0e:f9:66:9f:36:12:a1:32:09:db:de:83:d3:5e:68:
                    a9:19
                Exponent: 65537 (0x10001)
        X509v3 extensions:
            X509v3 Authority Key Identifier: 
                keyid:11:CD:8E:60:44:47:57:4F:4F:CB:E9:E7:CB:A1:46:DF:BA:0E:50:8B
                DirName:/C=JP/O=Japanese Government/OU=National Police Agency/OU=NPA ICDL Root CA
                serial:32:30:30:30:30:30:31:36
            X509v3 Subject Key Identifier: 
                8C:6B:CB:A9:5A:9C:30:D3:10:36:D4:6A:8D:26:03:22:9D:05:35:F2
            X509v3 Key Usage: critical
                Digital Signature, Non Repudiation
            X509v3 Certificate Policies: critical
                Policy: 1.2.392.100120.7.5.1.1.10
                  CPS: http://www.npa.go.jp/
            X509v3 Subject Alternative Name: 
                DirName:/C=JP/O=\xE6\x97\xA5\xE6\x9C\xAC\xE5\x9B\xBD\xE6\x94\xBF\xE5\xBA\x9C/OU=\xE8\xAD\xA6\xE5\xAF\x9F\xE5\xBA\x81/OU=\xE9\x83\xBD\xE9\x81\x93\xE5\xBA\x9C\xE7\x9C\x8C\xE5\x85\xAC\xE5\xAE\x89\xE5\xA7\x94\xE5\x93\xA1\xE4\xBC\x9A
            X509v3 Issuer Alternative Name: 
                DirName:/C=JP/O=\xE6\x97\xA5\xE6\x9C\xAC\xE5\x9B\xBD\xE6\x94\xBF\xE5\xBA\x9C/OU=\xE8\xAD\xA6\xE5\xAF\x9F\xE5\xBA\x81/OU=\xE8\xAD\xA6\xE5\xAF\x9F\xE5\xBA\x81\xE9\x81\x8B\xE8\xBB\xA2\xE5\x85\x8D\xE8\xA8\xB1\xE8\xA8\xBC\xE8\xAA\x8D\xE8\xA8\xBC\xE5\xB1\x80
            X509v3 CRL Distribution Points: 
                Full Name:
                  DirName:C = JP, O = Japanese Government, OU = National Police Agency, OU = Prefectural Public Safety Commissions for ICDL
    Signature Algorithm: sha256WithRSAEncryption
    Signature Value:
        7c:13:17:24:8f:9f:e6:a6:3d:f1:7a:0f:6e:26:67:49:48:95:
        57:22:d7:dc:65:cc:85:15:1b:cd:c4:ba:be:77:25:38:98:f2:
        4b:dc:7d:58:4a:0b:58:7f:13:4e:d5:68:d5:68:94:9d:41:c5:
        65:80:ee:a6:f6:53:54:8b:7a:a9:59:b6:4f:a4:dc:ce:ee:a2:
        1f:82:49:03:d0:e9:63:88:d2:fe:dc:b6:29:a0:81:98:fb:2f:
        39:71:92:b9:2e:55:89:3e:b4:5e:77:9f:31:87:02:73:08:fd:
        78:14:c7:e2:c8:e3:8d:d3:27:d6:79:84:77:bf:f5:0c:8c:da:
        59:ed:6e:23:96:e3:21:00:00:19:b3:b1:98:6d:23:e4:11:0f:
        f5:40:6e:80:7e:9b:d8:4a:bf:3d:bb:7a:1d:5f:17:6f:ec:76:
        68:dd:e5:06:43:d7:32:9f:50:3a:7f:d3:a0:dd:2f:e3:cb:aa:
        d4:28:e5:85:b2:18:f2:fb:f0:78:f9:0a:f0:cb:79:17:5d:0c:
        a3:cd:fa:98:c6:31:c5:4f:2a:84:13:81:45:4c:6c:27:b6:12:
        b3:92:0d:64:31:b0:6d:00:78:3a:f7:f5:d2:80:fb:75:22:9b:
        ea:14:99:dc:d7:16:e0:46:e5:4b:e1:6a:78:e9:60:b1:15:87:
        e3:69:0e:38
-----BEGIN CERTIFICATE-----
MIIGSTCCBTGgAwIBAgIIMjAwMDAwNTYwDQYJKoZIhvcNAQELBQAwZzELMAkGA1UE
BhMCSlAxHDAaBgNVBAoME0phcGFuZXNlIEdvdmVybm1lbnQxHzAdBgNVBAsMFk5h
dGlvbmFsIFBvbGljZSBBZ2VuY3kxGTAXBgNVBAsMEE5QQSBJQ0RMIFJvb3QgQ0Ew
HhcNMjMwMjA2MDIxODAxWhcNMjgwMjA1MTQ1OTU5WjCBnTELMAkGA1UEBhMCSlAx
HDAaBgNVBAoME0phcGFuZXNlIEdvdmVybm1lbnQxHzAdBgNVBAsMFk5hdGlvbmFs
IFBvbGljZSBBZ2VuY3kxNzA1BgNVBAsMLlByZWZlY3R1cmFsIFB1YmxpYyBTYWZl
dHkgQ29tbWlzc2lvbnMgZm9yIElDREwxFjAUBgNVBAMMDUlzaGlrYXdhIFBQU0Mw
ggEiMA0GCSqGSIb3DQEBAQUAA4IBDwAwggEKAoIBAQCBjA2B2moK1q2+RkR5sy3L
2kx5pThVplMoQVKn0pe0DP/HHYn7xCC4IIObDPstYBAlbpbuiQS4yaf1yssGE4ms
IhcLWh3ryL/EuutWrzmw9D+Vv+vc2V7IRguQiVUKAMwnBReOYVN+rqzGY9Fftyi8
qxjPTliuJNdBCwnGssis1RDw1zWWSOPL/cuNI7DHg33RNH0qRpQxOAvpcFyG/bLO
MQpS6oLWXAv5V+1Lp8YGpZfCl+Iz1qGfio0wVt/EsX9gwg/a+OXoafZnzl7OJfEF
AesoExeiVpsDT/eKTRtefxD1lAj7eUkyxVGJe1g0DQ75Zp82EqEyCdveg9NeaKkZ
AgMBAAGjggLAMIICvDCBmAYDVR0jBIGQMIGNgBQRzY5gREdXT0/L6efLoUbfug5Q
i6FrpGkwZzELMAkGA1UEBhMCSlAxHDAaBgNVBAoME0phcGFuZXNlIEdvdmVybm1l
bnQxHzAdBgNVBAsMFk5hdGlvbmFsIFBvbGljZSBBZ2VuY3kxGTAXBgNVBAsMEE5Q
QSBJQ0RMIFJvb3QgQ0GCCDIwMDAwMDE2MB0GA1UdDgQWBBSMa8upWpww0xA21GqN
JgMinQU18jAOBgNVHQ8BAf8EBAMCBsAwQAYDVR0gAQH/BDYwNDAyBgsqgwiGjhgH
BQEBCjAjMCEGCCsGAQUFBwIBFhVodHRwOi8vd3d3Lm5wYS5nby5qcC8wgZUGA1Ud
EQSBjTCBiqSBhzCBhDELMAkGA1UEBhMCSlAxGDAWBgNVBAoMD+aXpeacrOWbveaU
v+W6nDESMBAGA1UECwwJ6K2m5a+f5bqBMSQwIgYDVQQLDBvpg73pgZPlupznnIzl
hazlronlp5Tlk6HkvJoxITAfBgNVBAMMGOefs+W3neecjOWFrOWuieWnlOWToeS8
mjB0BgNVHRIEbTBrpGkwZzELMAkGA1UEBhMCSlAxGDAWBgNVBAoMD+aXpeacrOWb
veaUv+W6nDESMBAGA1UECwwJ6K2m5a+f5bqBMSowKAYDVQQLDCHorablr5/luoHp
gYvou6LlhY3oqLHoqLzoqo3oqLzlsYAwgZ8GA1UdHwSBlzCBlDCBkaCBjqCBi6SB
iDCBhTELMAkGA1UEBhMCSlAxHDAaBgNVBAoME0phcGFuZXNlIEdvdmVybm1lbnQx
HzAdBgNVBAsMFk5hdGlvbmFsIFBvbGljZSBBZ2VuY3kxNzA1BgNVBAsMLlByZWZl
Y3R1cmFsIFB1YmxpYyBTYWZldHkgQ29tbWlzc2lvbnMgZm9yIElDREwwDQYJKoZI
hvcNAQELBQADggEBAHwTFySPn+amPfF6D24mZ0lIlVci19xlzIUVG83Eur53JTiY
8kvcfVhKC1h/E07VaNVolJ1BxWWA7qb2U1SLeqlZtk+k3M7uoh+CSQPQ6WOI0v7c
timggZj7LzlxkrkuVYk+tF53nzGHAnMI/XgUx+LI443TJ9Z5hHe/9QyM2lntbiOW
4yEAABmzsZhtI+QRD/VAboB+m9hKvz27eh1fF2/sdmjd5QZD1zKfUDp/06DdL+PL
qtQo5YWyGPL78Hj5CvDLeRddDKPN+pjGMcVPKoQTgUVMbCe2ErOSDWQxsG0AeDr3
9dKA+3Uim+oUmdzXFuBG5UvhanjpYLEVh+NpDjg=
-----END CERTIFICATE-----
