Certificate:
    Data:
        Version: 3 (0x2)
        Serial Number:
            33:30:30:30:30:31:30:35
        Signature Algorithm: sha256WithRSAEncryption
        Issuer: C=JP, O=Japanese Government, OU=National Police Agency, OU=NPA ICDL Root CA
        Validity
            Not Before: Sep 17 07:22:47 2024 GMT
            Not After : Sep 16 14:59:59 2029 GMT
        Subject: C=JP, O=Japanese Government, OU=National Police Agency, OU=Prefectural Public Safety Commissions for ICDL, CN=Ishikawa PPSC
        Subject Public Key Info:
            Public Key Algorithm: rsaEncryption
                Public-Key: (2048 bit)
                Modulus:
                    00:c5:a2:e0:9a:f8:54:0c:10:8b:07:6d:fa:ea:67:
                    bc:cb:83:44:c5:a5:79:a7:de:5d:a0:08:98:be:09:
                    eb:c5:2c:cf:9f:93:80:60:3a:74:02:68:ec:77:3f:
                    bd:8b:0a:66:ac:d6:5f:bb:53:bc:ce:5f:b9:39:b8:
                    05:1d:eb:7a:59:ea:3f:00:50:89:04:fe:7c:e1:da:
                    69:1a:f2:76:df:e7:13:38:f6:89:6c:98:71:6e:b2:
                    e9:67:3b:15:e2:a9:99:48:71:e7:ff:30:6d:fa:27:
                    02:3f:08:37:21:45:d5:77:81:55:18:d2:9d:89:32:
                    33:33:93:de:18:11:74:05:32:43:6f:25:b7:cf:d3:
                    39:5a:f1:a9:35:62:9c:21:33:16:5d:af:99:0e:15:
                    70:22:f6:c0:e8:48:ac:3a:0d:de:2b:99:6a:48:88:
                    8b:c7:55:80:50:4f:6b:d7:8c:a0:a9:c8:7f:ce:35:
                    45:b9:57:41:99:cb:85:4c:8b:8b:ed:1d:e1:5b:6a:
                    8e:09:45:6a:d2:3d:20:f3:1b:a9:3f:ea:04:0a:2a:
                    35:28:fc:40:49:30:51:0d:79:bb:88:82:a6:44:34:
                    c4:7b:30:98:43:8b:09:88:fa:58:e6:15:bd:27:db:
                    df:16:95:59:59:d1:3c:83:22:cc:39:4b:e1:9c:2d:
                    e5:f3
                Exponent: 65537 (0x10001)
        X509v3 extensions:
            X509v3 Authority Key Identifier: 
                keyid:11:CD:8E:60:44:47:57:4F:4F:CB:E9:E7:CB:A1:46:DF:BA:0E:50:8B
                DirName:/C=JP/O=Japanese Government/OU=National Police Agency/OU=NPA ICDL Root CA
                serial:32:30:30:30:30:30:31:36
            X509v3 Subject Key Identifier: 
                B0:FA:39:86:9A:89:17:76:BA:B5:E3:47:03:60:D1:B1:53:5D:6A:34
            X509v3 Key Usage: critical
                Digital Signature, Non Repudiation
            X509v3 Certificate Policies: critical
                Policy: 1.2.392.100120.7.5.1.1.10
                  CPS: http://www.npa.go.jp/
            X509v3 Subject Alternative Name: 
                DirName:/C=JP/O=\xE6\x97\xA5\xE6\x9C\xAC\xE5\x9B\xBD\xE6\x94\xBF\xE5\xBA\x9C/OU=\xE8\xAD\xA6\xE5\xAF\x9F\xE5\xBA\x81/OU=\xE9\x83\xBD\xE9\x81\x93\xE5\xBA\x9C\xE7\x9C\x8C\xE5\x85\xAC\xE5\xAE\x89\xE5\xA7\x94\xE5\x93\xA1\xE4\xBC\x9A
            X509v3 Issuer Alternative Name: 
                DirName:/C=JP/O=\xE6\x97\xA5\xE6\x9C\xAC\xE5\x9B\xBD\xE6\x94\xBF\xE5\xBA\x9C/OU=\xE8\xAD\xA6\xE5\xAF\x9F\xE5\xBA\x81/OU=\xE8\xAD\xA6\xE5\xAF\x9F\xE5\xBA\x81\xE9\x81\x8B\xE8\xBB\xA2\xE5\x85\x8D\xE8\xA8\xB1\xE8\xA8\xBC\xE8\xAA\x8D\xE8\xA8\xBC\xE5\xB1\x80
            X509v3 CRL Distribution Points: 
                Full Name:
                  DirName:C = JP, O = Japanese Government, OU = National Police Agency, OU = Prefectural Public Safety Commissions for ICDL
    Signature Algorithm: sha256WithRSAEncryption
    Signature Value:
        90:a2:95:3e:e1:02:ed:52:a0:90:ac:df:ae:8f:b1:c5:93:d9:
        80:60:25:12:b3:3e:6c:d3:72:1f:5c:6e:c1:77:8a:b3:79:04:
        eb:1f:6a:3b:01:74:2b:16:c6:1e:0a:d9:1c:ad:dd:9c:6a:ba:
        61:6d:5c:58:0a:d0:a3:9e:dc:59:a6:8c:2f:6f:18:e1:a2:96:
        d8:33:19:e1:fb:3f:ee:9c:bc:07:9e:a7:dc:b3:de:59:db:29:
        af:65:c4:12:98:98:6c:95:92:0e:16:3e:7a:26:81:c5:c5:d5:
        26:31:f8:d9:14:3f:16:42:66:a5:6f:43:fd:4b:e9:25:24:c1:
        a9:54:58:df:99:36:47:a9:7e:9d:f0:ef:d1:c0:db:b1:2b:86:
        86:92:c4:0a:62:b6:09:41:8a:e3:35:64:a5:92:fb:50:a4:30:
        20:93:d8:94:71:af:ad:06:8c:c8:1a:45:13:e4:fe:8c:18:e3:
        f1:3f:c5:55:14:09:43:c8:b8:7e:5a:b9:0e:07:fa:3e:33:64:
        03:fd:5e:3d:b2:c5:39:cf:8f:7e:a4:94:f7:01:45:40:35:71:
        02:18:9b:c3:fa:d2:2f:48:73:e5:c7:35:6d:97:51:51:60:02:
        30:f1:c6:b0:11:65:43:57:28:48:47:28:64:b7:2e:d1:5c:63:
        d0:78:12:8d
-----BEGIN CERTIFICATE-----
MIIGSTCCBTGgAwIBAgIIMzAwMDAxMDUwDQYJKoZIhvcNAQELBQAwZzELMAkGA1UE
BhMCSlAxHDAaBgNVBAoME0phcGFuZXNlIEdvdmVybm1lbnQxHzAdBgNVBAsMFk5h
dGlvbmFsIFBvbGljZSBBZ2VuY3kxGTAXBgNVBAsMEE5QQSBJQ0RMIFJvb3QgQ0Ew
HhcNMjQwOTE3MDcyMjQ3WhcNMjkwOTE2MTQ1OTU5WjCBnTELMAkGA1UEBhMCSlAx
HDAaBgNVBAoME0phcGFuZXNlIEdvdmVybm1lbnQxHzAdBgNVBAsMFk5hdGlvbmFs
IFBvbGljZSBBZ2VuY3kxNzA1BgNVBAsMLlByZWZlY3R1cmFsIFB1YmxpYyBTYWZl
dHkgQ29tbWlzc2lvbnMgZm9yIElDREwxFjAUBgNVBAMMDUlzaGlrYXdhIFBQU0Mw
ggEiMA0GCSqGSIb3DQEBAQUAA4IBDwAwggEKAoIBAQDFouCa+FQMEIsHbfrqZ7zL
g0TFpXmn3l2gCJi+CevFLM+fk4BgOnQCaOx3P72LCmas1l+7U7zOX7k5uAUd63pZ
6j8AUIkE/nzh2mka8nbf5xM49olsmHFusulnOxXiqZlIcef/MG36JwI/CDchRdV3
gVUY0p2JMjMzk94YEXQFMkNvJbfP0zla8ak1YpwhMxZdr5kOFXAi9sDoSKw6Dd4r
mWpIiIvHVYBQT2vXjKCpyH/ONUW5V0GZy4VMi4vtHeFbao4JRWrSPSDzG6k/6gQK
KjUo/EBJMFENebuIgqZENMR7MJhDiwmI+ljmFb0n298WlVlZ0TyDIsw5S+GcLeXz
AgMBAAGjggLAMIICvDCBmAYDVR0jBIGQMIGNgBQRzY5gREdXT0/L6efLoUbfug5Q
i6FrpGkwZzELMAkGA1UEBhMCSlAxHDAaBgNVBAoME0phcGFuZXNlIEdvdmVybm1l
bnQxHzAdBgNVBAsMFk5hdGlvbmFsIFBvbGljZSBBZ2VuY3kxGTAXBgNVBAsMEE5Q
QSBJQ0RMIFJvb3QgQ0GCCDIwMDAwMDE2MB0GA1UdDgQWBBSw+jmGmokXdrq140cD
YNGxU11qNDAOBgNVHQ8BAf8EBAMCBsAwQAYDVR0gAQH/BDYwNDAyBgsqgwiGjhgH
BQEBCjAjMCEGCCsGAQUFBwIBFhVodHRwOi8vd3d3Lm5wYS5nby5qcC8wgZUGA1Ud
EQSBjTCBiqSBhzCBhDELMAkGA1UEBhMCSlAxGDAWBgNVBAoMD+aXpeacrOWbveaU
v+W6nDESMBAGA1UECwwJ6K2m5a+f5bqBMSQwIgYDVQQLDBvpg73pgZPlupznnIzl
hazlronlp5Tlk6HkvJoxITAfBgNVBAMMGOefs+W3neecjOWFrOWuieWnlOWToeS8
mjB0BgNVHRIEbTBrpGkwZzELMAkGA1UEBhMCSlAxGDAWBgNVBAoMD+aXpeacrOWb
veaUv+W6nDESMBAGA1UECwwJ6K2m5a+f5bqBMSowKAYDVQQLDCHorablr5/luoHp
gYvou6LlhY3oqLHoqLzoqo3oqLzlsYAwgZ8GA1UdHwSBlzCBlDCBkaCBjqCBi6SB
iDCBhTELMAkGA1UEBhMCSlAxHDAaBgNVBAoME0phcGFuZXNlIEdvdmVybm1lbnQx
HzAdBgNVBAsMFk5hdGlvbmFsIFBvbGljZSBBZ2VuY3kxNzA1BgNVBAsMLlByZWZl
Y3R1cmFsIFB1YmxpYyBTYWZldHkgQ29tbWlzc2lvbnMgZm9yIElDREwwDQYJKoZI
hvcNAQELBQADggEBAJCilT7hAu1SoJCs366PscWT2YBgJRKzPmzTch9cbsF3irN5
BOsfajsBdCsWxh4K2Ryt3ZxqumFtXFgK0KOe3FmmjC9vGOGiltgzGeH7P+6cvAee
p9yz3lnbKa9lxBKYmGyVkg4WPnomgcXF1SYx+NkUPxZCZqVvQ/1L6SUkwalUWN+Z
Nkepfp3w79HA27ErhoaSxApitglBiuM1ZKWS+1CkMCCT2JRxr60GjMgaRRPk/owY
4/E/xVUUCUPIuH5auQ4H+j4zZAP9Xj2yxTnPj36klPcBRUA1cQIYm8P60i9Ic+XH
NW2XUVFgAjDxxrARZUNXKEhHKGS3LtFcY9B4Eo0=
-----END CERTIFICATE-----
