Certificate:
    Data:
        Version: 3 (0x2)
        Serial Number:
            33:30:30:30:30:30:32:39:c0:e9:c7:ee:4b:74:44:33:a1:63
        Signature Algorithm: sha256WithRSAEncryption
        Issuer: C=JP, O=Japanese Government, OU=National Police Agency, OU=NPA ICDL Root CA
        Validity
            Not Before: Jun 19 05:51:37 2023 GMT
            Not After : Jun 18 14:59:59 2028 GMT
        Subject: C=JP, O=Japanese Government, OU=National Police Agency, OU=Prefectural Public Safety Commissions for ICDL, CN=Ishikawa AltPPSC
        Subject Public Key Info:
            Public Key Algorithm: rsaEncryption
                Public-Key: (2048 bit)
                Modulus:
                    00:8d:7a:39:d9:cd:80:be:fd:46:75:29:97:e3:9a:
                    6e:f9:90:13:97:71:fb:88:04:74:71:da:59:a8:4d:
                    05:54:6e:88:31:42:de:fe:b0:25:79:c2:87:a5:7a:
                    4b:3f:70:6c:33:6d:7a:bc:df:2b:e3:0a:d1:84:e0:
                    48:c3:10:6e:04:48:70:6d:c0:0f:4f:37:34:b7:36:
                    4c:75:2d:bc:51:59:5b:7b:54:11:d1:86:73:9c:26:
                    06:01:bb:2b:06:74:9e:77:da:00:b1:3c:ea:14:ad:
                    f7:48:ee:ee:16:8e:ce:c6:5d:e0:e9:77:84:f6:89:
                    30:14:a7:aa:ce:87:65:4d:17:a6:2a:80:81:b9:06:
                    84:b5:0e:0c:76:e9:f9:78:82:77:34:5d:1c:b4:51:
                    50:5d:cd:99:fc:f7:a3:5e:d4:78:e4:b1:d2:e3:07:
                    b4:cb:33:65:18:26:76:7f:e1:25:c8:24:f6:87:cf:
                    cd:c1:98:8d:a4:e3:ed:db:f0:42:60:35:df:a9:48:
                    3f:0c:97:aa:ca:43:93:41:ab:f8:b1:8e:27:75:22:
                    61:03:8c:42:38:71:df:25:db:15:d3:89:03:4c:1f:
                    b3:43:17:38:6a:c9:af:ed:9c:c4:e0:f1:6a:a0:2e:
                    0f:72:c2:93:4b:07:13:91:ef:ad:6e:0b:43:0a:02:
                    0e:ed
                Exponent: 65537 (0x10001)
        X509v3 extensions:
            X509v3 Authority Key Identifier: 
                keyid:11:CD:8E:60:44:47:57:4F:4F:CB:E9:E7:CB:A1:46:DF:BA:0E:50:8B
                DirName:/C=JP/O=Japanese Government/OU=National Police Agency/OU=NPA ICDL Root CA
                serial:32:30:30:30:30:30:31:36
            X509v3 Subject Key Identifier: 
                2D:92:18:DF:36:23:DC:93:D5:61:B5:F5:EE:2C:8B:DA:31:19:51:A9
            X509v3 Key Usage: critical
                Digital Signature, Non Repudiation
            X509v3 Certificate Policies: critical
                Policy: 1.2.392.100120.7.5.1.1.10
                  CPS: http://www.npa.go.jp/
            X509v3 Issuer Alternative Name: 
                DirName:/C=JP/O=\xE6\x97\xA5\xE6\x9C\xAC\xE5\x9B\xBD\xE6\x94\xBF\xE5\xBA\x9C/OU=\xE8\xAD\xA6\xE5\xAF\x9F\xE5\xBA\x81/OU=\xE8\xAD\xA6\xE5\xAF\x9F\xE5\xBA\x81\xE9\x81\x8B\xE8\xBB\xA2\xE5\x85\x8D\xE8\xA8\xB1\xE8\xA8\xBC\xE8\xAA\x8D\xE8\xA8\xBC\xE5\xB1\x80
            X509v3 CRL Distribution Points: 
                Full Name:
                  DirName:C = JP, O = Japanese Government, OU = National Police Agency, OU = Prefectural Public Safety Commissions for ICDL
    Signature Algorithm: sha256WithRSAEncryption
    Signature Value:
        83:7b:40:31:20:61:34:f1:fa:18:de:ec:4d:5b:3e:fd:69:92:
        9b:93:53:0c:66:8b:03:5f:14:b0:25:cf:df:b2:41:12:3c:84:
        5f:7c:33:d8:6c:44:66:fb:6d:2e:68:50:e3:c6:13:ed:23:af:
        a2:ef:88:69:b1:56:57:67:fb:7d:7a:c2:b1:90:bb:6c:73:5d:
        2e:12:91:cc:3d:01:be:46:85:67:bb:90:05:ae:a1:00:57:3c:
        3c:5a:93:05:b6:b6:91:0d:73:ff:b7:94:c7:43:e8:b0:4b:96:
        f0:5b:3b:98:6f:15:8e:1c:22:f7:f9:36:33:a0:6e:93:14:2c:
        43:34:9b:11:0c:52:95:ae:19:2d:74:b7:49:1e:6a:77:1e:7f:
        7b:7d:5b:a1:07:7c:b3:05:3f:11:38:44:75:c6:1c:d5:78:92:
        2b:b8:8a:8f:6b:69:58:f2:17:a2:f5:ba:df:de:08:ce:db:cb:
        ee:cf:3f:4f:cd:7f:e4:c2:da:d6:ae:1b:1d:94:6b:b5:2d:c5:
        c2:a2:be:45:1f:ec:3c:e7:8a:8c:5c:e8:5c:9d:50:59:4e:41:
        e0:1f:76:72:22:90:8a:3b:a8:54:1d:08:0e:32:e1:ad:64:7b:
        7b:2c:2b:2e:e0:b9:11:bc:57:df:90:43:22:a6:84:cb:b9:d4:
        1e:10:4f:9d
-----BEGIN CERTIFICATE-----
MIIFvjCCBKagAwIBAgISMzAwMDAwMjnA6cfuS3REM6FjMA0GCSqGSIb3DQEBCwUA
MGcxCzAJBgNVBAYTAkpQMRwwGgYDVQQKDBNKYXBhbmVzZSBHb3Zlcm5tZW50MR8w
HQYDVQQLDBZOYXRpb25hbCBQb2xpY2UgQWdlbmN5MRkwFwYDVQQLDBBOUEEgSUNE
TCBSb290IENBMB4XDTIzMDYxOTA1NTEzN1oXDTI4MDYxODE0NTk1OVowgaAxCzAJ
BgNVBAYTAkpQMRwwGgYDVQQKDBNKYXBhbmVzZSBHb3Zlcm5tZW50MR8wHQYDVQQL
DBZOYXRpb25hbCBQb2xpY2UgQWdlbmN5MTcwNQYDVQQLDC5QcmVmZWN0dXJhbCBQ
dWJsaWMgU2FmZXR5IENvbW1pc3Npb25zIGZvciBJQ0RMMRkwFwYDVQQDDBBJc2hp
a2F3YSBBbHRQUFNDMIIBIjANBgkqhkiG9w0BAQEFAAOCAQ8AMIIBCgKCAQEAjXo5
2c2Avv1GdSmX45pu+ZATl3H7iAR0cdpZqE0FVG6IMULe/rAlecKHpXpLP3BsM216
vN8r4wrRhOBIwxBuBEhwbcAPTzc0tzZMdS28UVlbe1QR0YZznCYGAbsrBnSed9oA
sTzqFK33SO7uFo7Oxl3g6XeE9okwFKeqzodlTRemKoCBuQaEtQ4Mdun5eIJ3NF0c
tFFQXc2Z/PejXtR45LHS4we0yzNlGCZ2f+ElyCT2h8/NwZiNpOPt2/BCYDXfqUg/
DJeqykOTQav4sY4ndSJhA4xCOHHfJdsV04kDTB+zQxc4asmv7ZzE4PFqoC4PcsKT
SwcTke+tbgtDCgIO7QIDAQABo4ICKDCCAiQwgZgGA1UdIwSBkDCBjYAUEc2OYERH
V09Py+nny6FG37oOUIuha6RpMGcxCzAJBgNVBAYTAkpQMRwwGgYDVQQKDBNKYXBh
bmVzZSBHb3Zlcm5tZW50MR8wHQYDVQQLDBZOYXRpb25hbCBQb2xpY2UgQWdlbmN5
MRkwFwYDVQQLDBBOUEEgSUNETCBSb290IENBgggyMDAwMDAxNjAdBgNVHQ4EFgQU
LZIY3zYj3JPVYbX17iyL2jEZUakwDgYDVR0PAQH/BAQDAgbAMEAGA1UdIAEB/wQ2
MDQwMgYLKoMIho4YBwUBAQowIzAhBggrBgEFBQcCARYVaHR0cDovL3d3dy5ucGEu
Z28uanAvMHQGA1UdEgRtMGukaTBnMQswCQYDVQQGEwJKUDEYMBYGA1UECgwP5pel
5pys5Zu95pS/5bqcMRIwEAYDVQQLDAnorablr5/luoExKjAoBgNVBAsMIeitpuWv
n+W6gemBi+i7ouWFjeioseiovOiqjeiovOWxgDCBnwYDVR0fBIGXMIGUMIGRoIGO
oIGLpIGIMIGFMQswCQYDVQQGEwJKUDEcMBoGA1UECgwTSmFwYW5lc2UgR292ZXJu
bWVudDEfMB0GA1UECwwWTmF0aW9uYWwgUG9saWNlIEFnZW5jeTE3MDUGA1UECwwu
UHJlZmVjdHVyYWwgUHVibGljIFNhZmV0eSBDb21taXNzaW9ucyBmb3IgSUNETDAN
BgkqhkiG9w0BAQsFAAOCAQEAg3tAMSBhNPH6GN7sTVs+/WmSm5NTDGaLA18UsCXP
37JBEjyEX3wz2GxEZvttLmhQ48YT7SOvou+IabFWV2f7fXrCsZC7bHNdLhKRzD0B
vkaFZ7uQBa6hAFc8PFqTBba2kQ1z/7eUx0PosEuW8Fs7mG8Vjhwi9/k2M6BukxQs
QzSbEQxSla4ZLXS3SR5qdx5/e31boQd8swU/EThEdcYc1XiSK7iKj2tpWPIXovW6
394IztvL7s8/T81/5MLa1q4bHZRrtS3FwqK+RR/sPOeKjFzoXJ1QWU5B4B92ciKQ
ijuoVB0IDjLhrWR7eywrLuC5EbxX35BDIqaEy7nUHhBPnQ==
-----END CERTIFICATE-----
