Certificate:
    Data:
        Version: 3 (0x2)
        Serial Number:
            32:30:30:30:30:30:34:31
        Signature Algorithm: sha256WithRSAEncryption
        Issuer: C=JP, O=Japanese Government, OU=National Police Agency, OU=NPA ICDL Root CA
        Validity
            Not Before: Feb  6 01:33:07 2023 GMT
            Not After : Feb  5 14:59:59 2028 GMT
        Subject: C=JP, O=Japanese Government, OU=National Police Agency, OU=Prefectural Public Safety Commissions for ICDL, CN=Iwate PPSC
        Subject Public Key Info:
            Public Key Algorithm: rsaEncryption
                Public-Key: (2048 bit)
                Modulus:
                    00:9e:a1:f5:6a:ff:f1:be:22:17:80:b3:ff:28:67:
                    17:11:81:37:1b:ee:f9:8f:48:c8:5b:f5:7b:fd:f1:
                    f5:c9:4a:80:f6:d2:0b:b5:d2:35:6b:72:b5:88:cd:
                    56:be:fb:2c:28:b3:2e:f6:60:37:96:8d:3a:03:b5:
                    82:50:fb:bd:0d:54:e4:22:c7:79:8e:91:c2:7f:fa:
                    95:a3:c3:69:fc:86:fb:80:00:6d:ee:4b:ea:29:52:
                    24:85:a4:56:41:94:5b:f0:1a:bb:f2:80:c0:ac:17:
                    7c:ee:f7:18:fb:41:50:ac:a8:d5:81:ba:14:a1:2b:
                    65:a5:67:28:e5:ff:9b:d6:b5:eb:a0:26:35:ca:0d:
                    c1:6d:f8:c1:05:9c:20:80:db:00:38:7a:17:05:80:
                    f2:37:31:52:14:f7:50:dd:5b:2d:68:fa:c6:8f:05:
                    6f:3c:87:c0:67:d0:3b:de:7b:31:f8:fd:98:7c:4d:
                    84:70:26:b2:54:10:2c:7e:bd:e2:60:65:57:53:5d:
                    55:85:82:8c:f9:20:1c:b7:96:6d:4d:4a:c2:dd:2d:
                    d0:8a:fd:4c:2d:bc:9c:68:7c:17:5c:66:93:d3:cd:
                    d4:6a:86:73:74:d0:1e:64:fe:af:68:88:f2:32:30:
                    e7:74:af:8a:75:da:fa:8c:2e:21:83:43:e4:79:78:
                    21:af
                Exponent: 65537 (0x10001)
        X509v3 extensions:
            X509v3 Authority Key Identifier: 
                keyid:11:CD:8E:60:44:47:57:4F:4F:CB:E9:E7:CB:A1:46:DF:BA:0E:50:8B
                DirName:/C=JP/O=Japanese Government/OU=National Police Agency/OU=NPA ICDL Root CA
                serial:32:30:30:30:30:30:31:36
            X509v3 Subject Key Identifier: 
                0B:A4:A6:D2:39:1D:6A:6B:6A:1C:64:B0:FF:8B:4B:60:6A:44:48:60
            X509v3 Key Usage: critical
                Digital Signature, Non Repudiation
            X509v3 Certificate Policies: critical
                Policy: 1.2.392.100120.7.5.1.1.10
                  CPS: http://www.npa.go.jp/
            X509v3 Subject Alternative Name: 
                DirName:/C=JP/O=\xE6\x97\xA5\xE6\x9C\xAC\xE5\x9B\xBD\xE6\x94\xBF\xE5\xBA\x9C/OU=\xE8\xAD\xA6\xE5\xAF\x9F\xE5\xBA\x81/OU=\xE9\x83\xBD\xE9\x81\x93\xE5\xBA\x9C\xE7\x9C\x8C\xE5\x85\xAC\xE5\xAE\x89\xE5\xA7\x94\xE5\x93\xA1\xE4\xBC\x9A
            X509v3 Issuer Alternative Name: 
                DirName:/C=JP/O=\xE6\x97\xA5\xE6\x9C\xAC\xE5\x9B\xBD\xE6\x94\xBF\xE5\xBA\x9C/OU=\xE8\xAD\xA6\xE5\xAF\x9F\xE5\xBA\x81/OU=\xE8\xAD\xA6\xE5\xAF\x9F\xE5\xBA\x81\xE9\x81\x8B\xE8\xBB\xA2\xE5\x85\x8D\xE8\xA8\xB1\xE8\xA8\xBC\xE8\xAA\x8D\xE8\xA8\xBC\xE5\xB1\x80
            X509v3 CRL Distribution Points: 
                Full Name:
                  DirName:C = JP, O = Japanese Government, OU = National Police Agency, OU = Prefectural Public Safety Commissions for ICDL
    Signature Algorithm: sha256WithRSAEncryption
    Signature Value:
        5c:40:37:00:35:fb:ca:42:1b:ef:b9:fb:b9:bc:2f:33:03:4f:
        d4:83:12:12:19:b7:0e:98:5e:38:eb:78:ca:cf:8b:2e:1d:ae:
        2d:f0:d8:2f:bc:48:c3:d7:07:f8:c1:b6:4b:03:23:af:b4:54:
        f8:bb:ee:5f:6f:46:b4:09:ae:59:40:cb:85:2e:2f:a4:18:9b:
        b0:f4:a5:30:cf:c9:9b:1d:8a:af:01:d7:e8:bb:df:12:96:61:
        26:df:ec:b9:f6:d4:83:b0:22:48:33:44:d9:17:02:f9:5e:16:
        1b:e5:f2:98:1b:23:82:09:7f:42:11:2d:08:88:06:bd:4f:69:
        0d:57:92:12:62:32:0d:3a:07:2d:32:45:0e:50:a6:aa:ac:35:
        ca:31:fd:ba:43:ac:10:96:f3:40:f8:e4:fa:2a:19:e9:5f:60:
        60:28:c9:37:f7:ef:58:7d:47:bc:35:d8:de:33:08:43:bb:30:
        19:68:69:2d:2c:e3:40:2c:06:70:91:d0:e4:3c:11:7e:0d:22:
        1c:be:ec:31:cf:d8:9d:69:b8:48:67:22:90:59:96:d2:fa:82:
        8d:cb:e8:16:d6:68:2e:8e:f4:73:c1:24:2c:0a:1d:6d:c0:af:
        9b:44:42:57:b6:21:42:95:02:30:66:eb:37:58:49:dc:2a:6c:
        64:ef:f0:f8
-----BEGIN CERTIFICATE-----
MIIGRjCCBS6gAwIBAgIIMjAwMDAwNDEwDQYJKoZIhvcNAQELBQAwZzELMAkGA1UE
BhMCSlAxHDAaBgNVBAoME0phcGFuZXNlIEdvdmVybm1lbnQxHzAdBgNVBAsMFk5h
dGlvbmFsIFBvbGljZSBBZ2VuY3kxGTAXBgNVBAsMEE5QQSBJQ0RMIFJvb3QgQ0Ew
HhcNMjMwMjA2MDEzMzA3WhcNMjgwMjA1MTQ1OTU5WjCBmjELMAkGA1UEBhMCSlAx
HDAaBgNVBAoME0phcGFuZXNlIEdvdmVybm1lbnQxHzAdBgNVBAsMFk5hdGlvbmFs
IFBvbGljZSBBZ2VuY3kxNzA1BgNVBAsMLlByZWZlY3R1cmFsIFB1YmxpYyBTYWZl
dHkgQ29tbWlzc2lvbnMgZm9yIElDREwxEzARBgNVBAMMCkl3YXRlIFBQU0MwggEi
MA0GCSqGSIb3DQEBAQUAA4IBDwAwggEKAoIBAQCeofVq//G+IheAs/8oZxcRgTcb
7vmPSMhb9Xv98fXJSoD20gu10jVrcrWIzVa++ywosy72YDeWjToDtYJQ+70NVOQi
x3mOkcJ/+pWjw2n8hvuAAG3uS+opUiSFpFZBlFvwGrvygMCsF3zu9xj7QVCsqNWB
uhShK2WlZyjl/5vWteugJjXKDcFt+MEFnCCA2wA4ehcFgPI3MVIU91DdWy1o+saP
BW88h8Bn0DveezH4/Zh8TYRwJrJUECx+veJgZVdTXVWFgoz5IBy3lm1NSsLdLdCK
/UwtvJxofBdcZpPTzdRqhnN00B5k/q9oiPIyMOd0r4p12vqMLiGDQ+R5eCGvAgMB
AAGjggLAMIICvDCBmAYDVR0jBIGQMIGNgBQRzY5gREdXT0/L6efLoUbfug5Qi6Fr
pGkwZzELMAkGA1UEBhMCSlAxHDAaBgNVBAoME0phcGFuZXNlIEdvdmVybm1lbnQx
HzAdBgNVBAsMFk5hdGlvbmFsIFBvbGljZSBBZ2VuY3kxGTAXBgNVBAsMEE5QQSBJ
Q0RMIFJvb3QgQ0GCCDIwMDAwMDE2MB0GA1UdDgQWBBQLpKbSOR1qa2ocZLD/i0tg
akRIYDAOBgNVHQ8BAf8EBAMCBsAwQAYDVR0gAQH/BDYwNDAyBgsqgwiGjhgHBQEB
CjAjMCEGCCsGAQUFBwIBFhVodHRwOi8vd3d3Lm5wYS5nby5qcC8wgZUGA1UdEQSB
jTCBiqSBhzCBhDELMAkGA1UEBhMCSlAxGDAWBgNVBAoMD+aXpeacrOWbveaUv+W6
nDESMBAGA1UECwwJ6K2m5a+f5bqBMSQwIgYDVQQLDBvpg73pgZPlupznnIzlhazl
ronlp5Tlk6HkvJoxITAfBgNVBAMMGOWyqeaJi+ecjOWFrOWuieWnlOWToeS8mjB0
BgNVHRIEbTBrpGkwZzELMAkGA1UEBhMCSlAxGDAWBgNVBAoMD+aXpeacrOWbveaU
v+W6nDESMBAGA1UECwwJ6K2m5a+f5bqBMSowKAYDVQQLDCHorablr5/luoHpgYvo
u6LlhY3oqLHoqLzoqo3oqLzlsYAwgZ8GA1UdHwSBlzCBlDCBkaCBjqCBi6SBiDCB
hTELMAkGA1UEBhMCSlAxHDAaBgNVBAoME0phcGFuZXNlIEdvdmVybm1lbnQxHzAd
BgNVBAsMFk5hdGlvbmFsIFBvbGljZSBBZ2VuY3kxNzA1BgNVBAsMLlByZWZlY3R1
cmFsIFB1YmxpYyBTYWZldHkgQ29tbWlzc2lvbnMgZm9yIElDREwwDQYJKoZIhvcN
AQELBQADggEBAFxANwA1+8pCG++5+7m8LzMDT9SDEhIZtw6YXjjreMrPiy4dri3w
2C+8SMPXB/jBtksDI6+0VPi77l9vRrQJrllAy4UuL6QYm7D0pTDPyZsdiq8B1+i7
3xKWYSbf7Ln21IOwIkgzRNkXAvleFhvl8pgbI4IJf0IRLQiIBr1PaQ1XkhJiMg06
By0yRQ5QpqqsNcox/bpDrBCW80D45PoqGelfYGAoyTf371h9R7w12N4zCEO7MBlo
aS0s40AsBnCR0OQ8EX4NIhy+7DHP2J1puEhnIpBZltL6go3L6BbWaC6O9HPBJCwK
HW3Ar5tEQle2IUKVAjBm6zdYSdwqbGTv8Pg=
-----END CERTIFICATE-----
