Certificate:
    Data:
        Version: 3 (0x2)
        Serial Number:
            33:30:30:30:30:30:31:32:b9:e6:a8:a5:7d:cc:2c:8d:39:e1
        Signature Algorithm: sha256WithRSAEncryption
        Issuer: C=JP, O=Japanese Government, OU=National Police Agency, OU=NPA ICDL Root CA
        Validity
            Not Before: Jun 19 05:26:49 2023 GMT
            Not After : Jun 18 14:59:59 2028 GMT
        Subject: C=JP, O=Japanese Government, OU=National Police Agency, OU=Prefectural Public Safety Commissions for ICDL, CN=Iwate AltPPSC
        Subject Public Key Info:
            Public Key Algorithm: rsaEncryption
                Public-Key: (2048 bit)
                Modulus:
                    00:80:fc:22:89:c5:d9:62:29:2d:c6:8f:29:83:36:
                    34:3e:22:c5:b4:b0:41:ca:99:82:e6:d7:2a:6a:31:
                    ac:c5:81:9d:b2:6a:83:b7:85:7f:df:d1:af:b5:90:
                    b0:67:5c:5d:19:65:11:3b:91:ec:e1:85:c1:45:c1:
                    08:f4:f5:81:c6:51:30:15:9c:ff:be:3a:be:1e:9c:
                    56:2a:93:80:02:e0:33:bc:6b:b7:1b:eb:5b:7d:c1:
                    fd:4a:9f:b7:3d:47:60:94:6a:6f:8f:a8:80:f2:ca:
                    0e:29:24:22:c8:f3:cd:d8:14:fa:9b:76:2f:55:9f:
                    ab:b3:71:3b:af:76:4d:58:94:21:61:b8:74:f8:52:
                    e3:60:59:a2:00:f5:89:59:c8:ec:ea:54:f9:30:a4:
                    de:79:c9:e2:8c:79:75:8c:05:2b:2c:72:fd:a0:e1:
                    05:25:f1:c9:b2:f1:8f:ed:a9:25:14:45:d1:8c:0f:
                    29:e7:d5:f6:5a:80:f8:88:aa:15:35:33:96:85:20:
                    28:80:46:ac:ef:d6:64:30:2d:4a:ab:05:f5:02:6b:
                    02:57:99:64:02:d1:a8:35:57:b9:88:54:56:33:56:
                    32:2b:6e:19:2e:34:13:8e:9b:7a:ff:5e:3e:5f:95:
                    a1:04:8d:ae:d1:18:fe:83:de:f0:ea:54:d6:61:86:
                    d3:ff
                Exponent: 65537 (0x10001)
        X509v3 extensions:
            X509v3 Authority Key Identifier: 
                keyid:11:CD:8E:60:44:47:57:4F:4F:CB:E9:E7:CB:A1:46:DF:BA:0E:50:8B
                DirName:/C=JP/O=Japanese Government/OU=National Police Agency/OU=NPA ICDL Root CA
                serial:32:30:30:30:30:30:31:36
            X509v3 Subject Key Identifier: 
                60:15:F4:36:A3:C3:0A:F5:65:07:04:FE:9A:43:45:57:BC:5C:80:00
            X509v3 Key Usage: critical
                Digital Signature, Non Repudiation
            X509v3 Certificate Policies: critical
                Policy: 1.2.392.100120.7.5.1.1.10
                  CPS: http://www.npa.go.jp/
            X509v3 Issuer Alternative Name: 
                DirName:/C=JP/O=\xE6\x97\xA5\xE6\x9C\xAC\xE5\x9B\xBD\xE6\x94\xBF\xE5\xBA\x9C/OU=\xE8\xAD\xA6\xE5\xAF\x9F\xE5\xBA\x81/OU=\xE8\xAD\xA6\xE5\xAF\x9F\xE5\xBA\x81\xE9\x81\x8B\xE8\xBB\xA2\xE5\x85\x8D\xE8\xA8\xB1\xE8\xA8\xBC\xE8\xAA\x8D\xE8\xA8\xBC\xE5\xB1\x80
            X509v3 CRL Distribution Points: 
                Full Name:
                  DirName:C = JP, O = Japanese Government, OU = National Police Agency, OU = Prefectural Public Safety Commissions for ICDL
    Signature Algorithm: sha256WithRSAEncryption
    Signature Value:
        82:92:f6:18:d5:85:60:83:91:d6:7d:89:0a:10:9a:13:3d:42:
        52:a7:f0:36:45:d7:4f:eb:0a:6c:bc:ce:fb:3e:40:27:0f:04:
        1d:b8:8f:4b:db:8f:95:93:d6:c2:2b:6c:9e:b0:83:f5:b0:83:
        1a:8d:f3:8c:6a:c9:12:89:a4:f7:e6:fe:8a:6b:d0:d7:e2:49:
        f2:26:d9:4b:7f:6a:f1:04:b1:cf:04:90:76:f4:1c:29:4d:5f:
        b6:db:b5:26:58:1d:a8:a3:c6:7e:69:81:bd:bd:95:86:bb:8f:
        49:ee:1f:82:9c:a7:66:10:be:0a:42:e8:25:60:c8:55:6f:5c:
        92:cf:06:5f:da:af:fc:ad:b0:ce:69:d1:cd:dd:8e:64:71:16:
        e1:e3:80:0d:ef:5b:bb:51:70:33:9c:c6:d1:4e:1e:2f:78:2e:
        36:60:ad:e1:12:42:a1:b0:41:9f:ca:23:5f:5e:cd:54:be:7c:
        de:bc:15:68:29:2f:55:7d:6b:60:df:c0:67:f4:82:51:95:ad:
        d6:83:fd:fc:3c:cc:de:a2:3c:1a:81:9c:33:de:2c:f5:22:40:
        4d:51:d1:38:79:2c:7d:e6:d2:5f:77:21:65:4d:4e:36:94:8a:
        9b:9f:94:9b:88:f6:e7:b1:83:a7:1d:e1:b3:1c:16:fc:5b:99:
        62:e3:a8:bd
-----BEGIN CERTIFICATE-----
MIIFuzCCBKOgAwIBAgISMzAwMDAwMTK55qilfcwsjTnhMA0GCSqGSIb3DQEBCwUA
MGcxCzAJBgNVBAYTAkpQMRwwGgYDVQQKDBNKYXBhbmVzZSBHb3Zlcm5tZW50MR8w
HQYDVQQLDBZOYXRpb25hbCBQb2xpY2UgQWdlbmN5MRkwFwYDVQQLDBBOUEEgSUNE
TCBSb290IENBMB4XDTIzMDYxOTA1MjY0OVoXDTI4MDYxODE0NTk1OVowgZ0xCzAJ
BgNVBAYTAkpQMRwwGgYDVQQKDBNKYXBhbmVzZSBHb3Zlcm5tZW50MR8wHQYDVQQL
DBZOYXRpb25hbCBQb2xpY2UgQWdlbmN5MTcwNQYDVQQLDC5QcmVmZWN0dXJhbCBQ
dWJsaWMgU2FmZXR5IENvbW1pc3Npb25zIGZvciBJQ0RMMRYwFAYDVQQDDA1Jd2F0
ZSBBbHRQUFNDMIIBIjANBgkqhkiG9w0BAQEFAAOCAQ8AMIIBCgKCAQEAgPwiicXZ
Yiktxo8pgzY0PiLFtLBBypmC5tcqajGsxYGdsmqDt4V/39GvtZCwZ1xdGWURO5Hs
4YXBRcEI9PWBxlEwFZz/vjq+HpxWKpOAAuAzvGu3G+tbfcH9Sp+3PUdglGpvj6iA
8soOKSQiyPPN2BT6m3YvVZ+rs3E7r3ZNWJQhYbh0+FLjYFmiAPWJWcjs6lT5MKTe
ecnijHl1jAUrLHL9oOEFJfHJsvGP7aklFEXRjA8p59X2WoD4iKoVNTOWhSAogEas
79ZkMC1KqwX1AmsCV5lkAtGoNVe5iFRWM1YyK24ZLjQTjpt6/14+X5WhBI2u0Rj+
g97w6lTWYYbT/wIDAQABo4ICKDCCAiQwgZgGA1UdIwSBkDCBjYAUEc2OYERHV09P
y+nny6FG37oOUIuha6RpMGcxCzAJBgNVBAYTAkpQMRwwGgYDVQQKDBNKYXBhbmVz
ZSBHb3Zlcm5tZW50MR8wHQYDVQQLDBZOYXRpb25hbCBQb2xpY2UgQWdlbmN5MRkw
FwYDVQQLDBBOUEEgSUNETCBSb290IENBgggyMDAwMDAxNjAdBgNVHQ4EFgQUYBX0
NqPDCvVlBwT+mkNFV7xcgAAwDgYDVR0PAQH/BAQDAgbAMEAGA1UdIAEB/wQ2MDQw
MgYLKoMIho4YBwUBAQowIzAhBggrBgEFBQcCARYVaHR0cDovL3d3dy5ucGEuZ28u
anAvMHQGA1UdEgRtMGukaTBnMQswCQYDVQQGEwJKUDEYMBYGA1UECgwP5pel5pys
5Zu95pS/5bqcMRIwEAYDVQQLDAnorablr5/luoExKjAoBgNVBAsMIeitpuWvn+W6
gemBi+i7ouWFjeioseiovOiqjeiovOWxgDCBnwYDVR0fBIGXMIGUMIGRoIGOoIGL
pIGIMIGFMQswCQYDVQQGEwJKUDEcMBoGA1UECgwTSmFwYW5lc2UgR292ZXJubWVu
dDEfMB0GA1UECwwWTmF0aW9uYWwgUG9saWNlIEFnZW5jeTE3MDUGA1UECwwuUHJl
ZmVjdHVyYWwgUHVibGljIFNhZmV0eSBDb21taXNzaW9ucyBmb3IgSUNETDANBgkq
hkiG9w0BAQsFAAOCAQEAgpL2GNWFYIOR1n2JChCaEz1CUqfwNkXXT+sKbLzO+z5A
Jw8EHbiPS9uPlZPWwitsnrCD9bCDGo3zjGrJEomk9+b+imvQ1+JJ8ibZS39q8QSx
zwSQdvQcKU1fttu1JlgdqKPGfmmBvb2VhruPSe4fgpynZhC+CkLoJWDIVW9cks8G
X9qv/K2wzmnRzd2OZHEW4eOADe9bu1FwM5zG0U4eL3guNmCt4RJCobBBn8ojX17N
VL583rwVaCkvVX1rYN/AZ/SCUZWt1oP9/DzM3qI8GoGcM94s9SJATVHROHksfebS
X3chZU1ONpSKm5+Um4j257GDpx3hsxwW/FuZYuOovQ==
-----END CERTIFICATE-----
