Certificate:
    Data:
        Version: 3 (0x2)
        Serial Number:
            33:30:30:30:30:30:39:38
        Signature Algorithm: sha256WithRSAEncryption
        Issuer: C=JP, O=Japanese Government, OU=National Police Agency, OU=NPA ICDL Root CA
        Validity
            Not Before: Sep 17 07:09:44 2024 GMT
            Not After : Sep 16 14:59:59 2029 GMT
        Subject: C=JP, O=Japanese Government, OU=National Police Agency, OU=Prefectural Public Safety Commissions for ICDL, CN=Iwate PPSC
        Subject Public Key Info:
            Public Key Algorithm: rsaEncryption
                Public-Key: (2048 bit)
                Modulus:
                    00:b7:a1:1e:a1:49:33:61:42:06:ad:f4:10:fe:62:
                    b7:9c:a8:49:0d:d4:8d:81:ef:63:6c:c9:6f:40:ea:
                    0e:ba:43:f7:bb:05:b2:e3:f1:a0:f8:aa:f0:1c:4b:
                    e5:f1:70:b0:78:02:12:a0:f5:9c:22:4b:38:9b:27:
                    39:55:e2:b3:60:3e:b0:27:94:1d:17:20:05:37:93:
                    8a:69:fe:88:79:39:63:6d:ad:ba:f1:c0:52:6e:ca:
                    70:f1:8f:f5:e8:06:e3:21:12:fd:80:83:8b:ff:30:
                    63:56:51:af:1e:c3:bb:d1:f0:69:de:e1:18:38:93:
                    0d:83:7d:1e:34:84:c7:af:46:21:0d:6d:55:c1:06:
                    ee:4c:35:f5:4f:09:f7:ca:b9:8a:a1:40:c8:94:b5:
                    2c:1b:8a:ff:b0:5e:86:db:77:0f:00:98:df:84:8f:
                    93:a1:69:5c:f3:26:e1:06:4f:2e:1d:59:7b:04:56:
                    d3:c5:e2:4f:92:dc:76:a3:68:be:ba:98:0c:a1:e6:
                    76:82:1b:c9:68:11:94:a6:c7:b0:9b:4f:6a:43:34:
                    1f:3d:bd:bf:ce:ea:ae:13:39:90:52:c8:22:2e:84:
                    02:b7:bf:28:1d:a1:0e:0e:b4:f4:59:ec:d5:6b:b5:
                    b0:cd:9d:8b:04:f2:15:ed:b5:b7:48:32:77:a2:36:
                    d5:2d
                Exponent: 65537 (0x10001)
        X509v3 extensions:
            X509v3 Authority Key Identifier: 
                keyid:11:CD:8E:60:44:47:57:4F:4F:CB:E9:E7:CB:A1:46:DF:BA:0E:50:8B
                DirName:/C=JP/O=Japanese Government/OU=National Police Agency/OU=NPA ICDL Root CA
                serial:32:30:30:30:30:30:31:36
            X509v3 Subject Key Identifier: 
                AF:37:69:D5:DD:0E:FE:D1:16:03:F8:CE:85:9D:AF:3B:EC:A9:B6:FF
            X509v3 Key Usage: critical
                Digital Signature, Non Repudiation
            X509v3 Certificate Policies: critical
                Policy: 1.2.392.100120.7.5.1.1.10
                  CPS: http://www.npa.go.jp/
            X509v3 Subject Alternative Name: 
                DirName:/C=JP/O=\xE6\x97\xA5\xE6\x9C\xAC\xE5\x9B\xBD\xE6\x94\xBF\xE5\xBA\x9C/OU=\xE8\xAD\xA6\xE5\xAF\x9F\xE5\xBA\x81/OU=\xE9\x83\xBD\xE9\x81\x93\xE5\xBA\x9C\xE7\x9C\x8C\xE5\x85\xAC\xE5\xAE\x89\xE5\xA7\x94\xE5\x93\xA1\xE4\xBC\x9A
            X509v3 Issuer Alternative Name: 
                DirName:/C=JP/O=\xE6\x97\xA5\xE6\x9C\xAC\xE5\x9B\xBD\xE6\x94\xBF\xE5\xBA\x9C/OU=\xE8\xAD\xA6\xE5\xAF\x9F\xE5\xBA\x81/OU=\xE8\xAD\xA6\xE5\xAF\x9F\xE5\xBA\x81\xE9\x81\x8B\xE8\xBB\xA2\xE5\x85\x8D\xE8\xA8\xB1\xE8\xA8\xBC\xE8\xAA\x8D\xE8\xA8\xBC\xE5\xB1\x80
            X509v3 CRL Distribution Points: 
                Full Name:
                  DirName:C = JP, O = Japanese Government, OU = National Police Agency, OU = Prefectural Public Safety Commissions for ICDL
    Signature Algorithm: sha256WithRSAEncryption
    Signature Value:
        78:84:30:66:03:4c:40:9f:5a:b3:8d:7b:67:1f:ff:c5:d9:91:
        69:c4:27:11:ab:87:5a:17:96:0a:f2:8d:a6:23:7d:c3:71:9b:
        fd:df:4b:e9:cb:88:62:58:80:1e:f6:0c:aa:87:01:97:06:ad:
        30:b6:6b:7f:fb:cb:82:74:ee:46:dd:e8:be:7d:a4:9a:6a:86:
        94:a2:ad:00:46:5f:33:c3:e2:7c:33:26:18:80:6a:82:2d:f1:
        24:fd:14:d1:5d:f3:20:d0:d4:c2:d6:7a:0c:28:49:c2:82:6e:
        29:02:86:5c:c0:8e:fc:0b:3d:98:09:89:ca:0f:37:ba:32:a4:
        03:9b:e4:41:1e:dc:30:72:3b:2d:a9:14:29:e5:08:83:b5:a7:
        0a:d6:61:fd:b6:fd:15:af:77:cc:03:44:98:af:5e:c4:61:5b:
        83:b7:1c:d9:95:51:26:a4:17:0c:c0:f6:c8:34:51:fb:53:eb:
        bf:f2:71:c3:30:4c:96:41:0a:92:5b:a9:fc:93:32:ae:db:e2:
        a5:e1:22:e0:87:3d:d6:f8:d1:fc:bb:dc:d4:1e:68:25:05:02:
        31:2e:65:62:e0:fa:48:4a:1f:fe:86:47:1a:36:78:09:31:a7:
        79:97:ef:f5:c9:5f:49:21:66:7d:3e:57:1e:91:28:11:6e:3b:
        85:44:ed:0d
-----BEGIN CERTIFICATE-----
MIIGRjCCBS6gAwIBAgIIMzAwMDAwOTgwDQYJKoZIhvcNAQELBQAwZzELMAkGA1UE
BhMCSlAxHDAaBgNVBAoME0phcGFuZXNlIEdvdmVybm1lbnQxHzAdBgNVBAsMFk5h
dGlvbmFsIFBvbGljZSBBZ2VuY3kxGTAXBgNVBAsMEE5QQSBJQ0RMIFJvb3QgQ0Ew
HhcNMjQwOTE3MDcwOTQ0WhcNMjkwOTE2MTQ1OTU5WjCBmjELMAkGA1UEBhMCSlAx
HDAaBgNVBAoME0phcGFuZXNlIEdvdmVybm1lbnQxHzAdBgNVBAsMFk5hdGlvbmFs
IFBvbGljZSBBZ2VuY3kxNzA1BgNVBAsMLlByZWZlY3R1cmFsIFB1YmxpYyBTYWZl
dHkgQ29tbWlzc2lvbnMgZm9yIElDREwxEzARBgNVBAMMCkl3YXRlIFBQU0MwggEi
MA0GCSqGSIb3DQEBAQUAA4IBDwAwggEKAoIBAQC3oR6hSTNhQgat9BD+YrecqEkN
1I2B72NsyW9A6g66Q/e7BbLj8aD4qvAcS+XxcLB4AhKg9ZwiSzibJzlV4rNgPrAn
lB0XIAU3k4pp/oh5OWNtrbrxwFJuynDxj/XoBuMhEv2Ag4v/MGNWUa8ew7vR8Gne
4Rg4kw2DfR40hMevRiENbVXBBu5MNfVPCffKuYqhQMiUtSwbiv+wXobbdw8AmN+E
j5OhaVzzJuEGTy4dWXsEVtPF4k+S3HajaL66mAyh5naCG8loEZSmx7CbT2pDNB89
vb/O6q4TOZBSyCIuhAK3vygdoQ4OtPRZ7NVrtbDNnYsE8hXttbdIMneiNtUtAgMB
AAGjggLAMIICvDCBmAYDVR0jBIGQMIGNgBQRzY5gREdXT0/L6efLoUbfug5Qi6Fr
pGkwZzELMAkGA1UEBhMCSlAxHDAaBgNVBAoME0phcGFuZXNlIEdvdmVybm1lbnQx
HzAdBgNVBAsMFk5hdGlvbmFsIFBvbGljZSBBZ2VuY3kxGTAXBgNVBAsMEE5QQSBJ
Q0RMIFJvb3QgQ0GCCDIwMDAwMDE2MB0GA1UdDgQWBBSvN2nV3Q7+0RYD+M6Fna87
7Km2/zAOBgNVHQ8BAf8EBAMCBsAwQAYDVR0gAQH/BDYwNDAyBgsqgwiGjhgHBQEB
CjAjMCEGCCsGAQUFBwIBFhVodHRwOi8vd3d3Lm5wYS5nby5qcC8wgZUGA1UdEQSB
jTCBiqSBhzCBhDELMAkGA1UEBhMCSlAxGDAWBgNVBAoMD+aXpeacrOWbveaUv+W6
nDESMBAGA1UECwwJ6K2m5a+f5bqBMSQwIgYDVQQLDBvpg73pgZPlupznnIzlhazl
ronlp5Tlk6HkvJoxITAfBgNVBAMMGOWyqeaJi+ecjOWFrOWuieWnlOWToeS8mjB0
BgNVHRIEbTBrpGkwZzELMAkGA1UEBhMCSlAxGDAWBgNVBAoMD+aXpeacrOWbveaU
v+W6nDESMBAGA1UECwwJ6K2m5a+f5bqBMSowKAYDVQQLDCHorablr5/luoHpgYvo
u6LlhY3oqLHoqLzoqo3oqLzlsYAwgZ8GA1UdHwSBlzCBlDCBkaCBjqCBi6SBiDCB
hTELMAkGA1UEBhMCSlAxHDAaBgNVBAoME0phcGFuZXNlIEdvdmVybm1lbnQxHzAd
BgNVBAsMFk5hdGlvbmFsIFBvbGljZSBBZ2VuY3kxNzA1BgNVBAsMLlByZWZlY3R1
cmFsIFB1YmxpYyBTYWZldHkgQ29tbWlzc2lvbnMgZm9yIElDREwwDQYJKoZIhvcN
AQELBQADggEBAHiEMGYDTECfWrONe2cf/8XZkWnEJxGrh1oXlgryjaYjfcNxm/3f
S+nLiGJYgB72DKqHAZcGrTC2a3/7y4J07kbd6L59pJpqhpSirQBGXzPD4nwzJhiA
aoIt8ST9FNFd8yDQ1MLWegwoScKCbikChlzAjvwLPZgJicoPN7oypAOb5EEe3DBy
Oy2pFCnlCIO1pwrWYf22/RWvd8wDRJivXsRhW4O3HNmVUSakFwzA9sg0UftT67/y
ccMwTJZBCpJbqfyTMq7b4qXhIuCHPdb40fy73NQeaCUFAjEuZWLg+khKH/6GRxo2
eAkxp3mX7/XJX0khZn0+Vx6RKBFuO4VE7Q0=
-----END CERTIFICATE-----
