Certificate:
    Data:
        Version: 3 (0x2)
        Serial Number:
            33:30:30:30:30:31:31:37
        Signature Algorithm: sha256WithRSAEncryption
        Issuer: C=JP, O=Japanese Government, OU=National Police Agency, OU=NPA ICDL Root CA
        Validity
            Not Before: Sep 17 07:42:54 2024 GMT
            Not After : Sep 16 14:59:59 2029 GMT
        Subject: C=JP, O=Japanese Government, OU=National Police Agency, OU=Prefectural Public Safety Commissions for ICDL, CN=Kagawa PPSC
        Subject Public Key Info:
            Public Key Algorithm: rsaEncryption
                Public-Key: (2048 bit)
                Modulus:
                    00:e0:de:2c:0e:58:3c:5c:f2:77:d4:c6:82:6c:66:
                    7b:f7:b6:69:70:52:c6:1e:c1:ec:1e:0d:c8:f3:f2:
                    c4:ac:e0:d6:94:aa:f1:52:2e:93:68:e3:24:5c:96:
                    12:a8:b1:aa:68:30:8b:1b:9b:8d:d6:d8:44:29:0c:
                    17:7a:8e:5f:9d:6c:ea:cc:c4:03:c2:87:3a:bf:b8:
                    a7:74:f4:7b:2e:ec:5b:16:db:d3:8d:65:06:1c:cd:
                    11:7a:52:d3:6d:d8:51:49:88:e7:f2:6e:8e:85:a0:
                    c2:4c:6c:e8:bd:6f:2d:ca:c1:12:40:3f:6e:3b:e6:
                    27:88:75:d8:fc:f6:81:44:2b:7c:fe:88:85:e4:19:
                    c3:d5:1c:26:99:2b:29:85:39:a9:5a:76:a5:28:ed:
                    2f:7e:4e:91:86:8d:59:d7:c6:02:cf:7f:06:b8:39:
                    ee:51:c0:c6:c6:0e:d0:e1:f3:68:4d:cf:59:c1:e8:
                    33:d3:ad:4e:c6:33:66:5a:9a:d7:c8:e1:5e:16:2d:
                    b1:d6:38:9d:f6:21:b0:5a:1f:20:dd:5b:60:72:dc:
                    0d:d8:0b:03:92:39:0f:34:a1:23:7a:2a:3d:43:f9:
                    7c:ca:d2:b5:ff:19:be:d7:08:8e:5a:b4:7b:6a:02:
                    b3:89:5e:4d:92:bf:f7:87:c2:29:7a:22:c8:94:3f:
                    ef:8f
                Exponent: 65537 (0x10001)
        X509v3 extensions:
            X509v3 Authority Key Identifier: 
                keyid:11:CD:8E:60:44:47:57:4F:4F:CB:E9:E7:CB:A1:46:DF:BA:0E:50:8B
                DirName:/C=JP/O=Japanese Government/OU=National Police Agency/OU=NPA ICDL Root CA
                serial:32:30:30:30:30:30:31:36
            X509v3 Subject Key Identifier: 
                12:AE:43:76:FA:FE:95:3B:A6:62:9E:75:D5:BF:65:93:11:79:AD:AF
            X509v3 Key Usage: critical
                Digital Signature, Non Repudiation
            X509v3 Certificate Policies: critical
                Policy: 1.2.392.100120.7.5.1.1.10
                  CPS: http://www.npa.go.jp/
            X509v3 Subject Alternative Name: 
                DirName:/C=JP/O=\xE6\x97\xA5\xE6\x9C\xAC\xE5\x9B\xBD\xE6\x94\xBF\xE5\xBA\x9C/OU=\xE8\xAD\xA6\xE5\xAF\x9F\xE5\xBA\x81/OU=\xE9\x83\xBD\xE9\x81\x93\xE5\xBA\x9C\xE7\x9C\x8C\xE5\x85\xAC\xE5\xAE\x89\xE5\xA7\x94\xE5\x93\xA1\xE4\xBC\x9A
            X509v3 Issuer Alternative Name: 
                DirName:/C=JP/O=\xE6\x97\xA5\xE6\x9C\xAC\xE5\x9B\xBD\xE6\x94\xBF\xE5\xBA\x9C/OU=\xE8\xAD\xA6\xE5\xAF\x9F\xE5\xBA\x81/OU=\xE8\xAD\xA6\xE5\xAF\x9F\xE5\xBA\x81\xE9\x81\x8B\xE8\xBB\xA2\xE5\x85\x8D\xE8\xA8\xB1\xE8\xA8\xBC\xE8\xAA\x8D\xE8\xA8\xBC\xE5\xB1\x80
            X509v3 CRL Distribution Points: 
                Full Name:
                  DirName:C = JP, O = Japanese Government, OU = National Police Agency, OU = Prefectural Public Safety Commissions for ICDL
    Signature Algorithm: sha256WithRSAEncryption
    Signature Value:
        71:25:83:91:32:91:61:99:2a:5c:1d:93:de:b6:a0:04:98:ec:
        fb:9e:b1:ee:43:c5:41:bb:ce:9f:ce:34:d5:88:ee:23:46:1f:
        f4:e8:4f:12:6d:3f:13:05:0c:40:58:ef:c1:db:87:5f:d0:00:
        12:a3:6e:86:cd:76:47:fa:1f:ef:41:5f:14:01:c8:21:59:1f:
        93:24:1b:82:53:b3:fa:c2:37:45:4a:2c:6f:60:87:94:14:4f:
        c5:8f:f9:0a:29:15:e2:71:a4:44:da:0b:b1:4e:3d:6a:7c:c8:
        27:40:bd:11:43:a7:9b:88:71:5e:a7:65:26:44:37:7e:93:c8:
        40:68:0a:7a:c5:1c:ca:5e:b6:22:0b:5c:05:98:4b:ea:a9:46:
        e1:ec:41:df:08:e5:34:ff:af:94:c2:23:44:8e:10:8f:4b:46:
        04:93:86:14:cc:43:58:d8:da:a2:8c:3e:79:5c:dc:90:43:c5:
        ad:2d:2a:d7:53:ba:d6:42:ae:3a:6c:c8:c2:1e:5d:be:88:9a:
        5d:d2:fe:46:24:f0:76:40:12:b9:0e:6e:74:49:96:0f:d7:b8:
        b3:28:a2:91:90:55:a7:4e:c9:1e:20:b1:5b:66:77:97:1d:b3:
        5e:49:8c:6b:fb:0b:65:98:c3:0a:2b:53:5b:16:86:7f:f1:f2:
        31:c3:d1:2e
-----BEGIN CERTIFICATE-----
MIIGRzCCBS+gAwIBAgIIMzAwMDAxMTcwDQYJKoZIhvcNAQELBQAwZzELMAkGA1UE
BhMCSlAxHDAaBgNVBAoME0phcGFuZXNlIEdvdmVybm1lbnQxHzAdBgNVBAsMFk5h
dGlvbmFsIFBvbGljZSBBZ2VuY3kxGTAXBgNVBAsMEE5QQSBJQ0RMIFJvb3QgQ0Ew
HhcNMjQwOTE3MDc0MjU0WhcNMjkwOTE2MTQ1OTU5WjCBmzELMAkGA1UEBhMCSlAx
HDAaBgNVBAoME0phcGFuZXNlIEdvdmVybm1lbnQxHzAdBgNVBAsMFk5hdGlvbmFs
IFBvbGljZSBBZ2VuY3kxNzA1BgNVBAsMLlByZWZlY3R1cmFsIFB1YmxpYyBTYWZl
dHkgQ29tbWlzc2lvbnMgZm9yIElDREwxFDASBgNVBAMMC0thZ2F3YSBQUFNDMIIB
IjANBgkqhkiG9w0BAQEFAAOCAQ8AMIIBCgKCAQEA4N4sDlg8XPJ31MaCbGZ797Zp
cFLGHsHsHg3I8/LErODWlKrxUi6TaOMkXJYSqLGqaDCLG5uN1thEKQwXeo5fnWzq
zMQDwoc6v7indPR7LuxbFtvTjWUGHM0RelLTbdhRSYjn8m6OhaDCTGzovW8tysES
QD9uO+YniHXY/PaBRCt8/oiF5BnD1RwmmSsphTmpWnalKO0vfk6Rho1Z18YCz38G
uDnuUcDGxg7Q4fNoTc9Zwegz061OxjNmWprXyOFeFi2x1jid9iGwWh8g3VtgctwN
2AsDkjkPNKEjeio9Q/l8ytK1/xm+1wiOWrR7agKziV5Nkr/3h8IpeiLIlD/vjwID
AQABo4ICwDCCArwwgZgGA1UdIwSBkDCBjYAUEc2OYERHV09Py+nny6FG37oOUIuh
a6RpMGcxCzAJBgNVBAYTAkpQMRwwGgYDVQQKDBNKYXBhbmVzZSBHb3Zlcm5tZW50
MR8wHQYDVQQLDBZOYXRpb25hbCBQb2xpY2UgQWdlbmN5MRkwFwYDVQQLDBBOUEEg
SUNETCBSb290IENBgggyMDAwMDAxNjAdBgNVHQ4EFgQUEq5Ddvr+lTumYp511b9l
kxF5ra8wDgYDVR0PAQH/BAQDAgbAMEAGA1UdIAEB/wQ2MDQwMgYLKoMIho4YBwUB
AQowIzAhBggrBgEFBQcCARYVaHR0cDovL3d3dy5ucGEuZ28uanAvMIGVBgNVHREE
gY0wgYqkgYcwgYQxCzAJBgNVBAYTAkpQMRgwFgYDVQQKDA/ml6XmnKzlm73mlL/l
upwxEjAQBgNVBAsMCeitpuWvn+W6gTEkMCIGA1UECwwb6YO96YGT5bqc55yM5YWs
5a6J5aeU5ZOh5LyaMSEwHwYDVQQDDBjpppnlt53nnIzlhazlronlp5Tlk6HkvJow
dAYDVR0SBG0wa6RpMGcxCzAJBgNVBAYTAkpQMRgwFgYDVQQKDA/ml6XmnKzlm73m
lL/lupwxEjAQBgNVBAsMCeitpuWvn+W6gTEqMCgGA1UECwwh6K2m5a+f5bqB6YGL
6Lui5YWN6Kix6Ki86KqN6Ki85bGAMIGfBgNVHR8EgZcwgZQwgZGggY6ggYukgYgw
gYUxCzAJBgNVBAYTAkpQMRwwGgYDVQQKDBNKYXBhbmVzZSBHb3Zlcm5tZW50MR8w
HQYDVQQLDBZOYXRpb25hbCBQb2xpY2UgQWdlbmN5MTcwNQYDVQQLDC5QcmVmZWN0
dXJhbCBQdWJsaWMgU2FmZXR5IENvbW1pc3Npb25zIGZvciBJQ0RMMA0GCSqGSIb3
DQEBCwUAA4IBAQBxJYORMpFhmSpcHZPetqAEmOz7nrHuQ8VBu86fzjTViO4jRh/0
6E8SbT8TBQxAWO/B24df0AASo26GzXZH+h/vQV8UAcghWR+TJBuCU7P6wjdFSixv
YIeUFE/Fj/kKKRXicaRE2guxTj1qfMgnQL0RQ6ebiHFep2UmRDd+k8hAaAp6xRzK
XrYiC1wFmEvqqUbh7EHfCOU0/6+UwiNEjhCPS0YEk4YUzENY2NqijD55XNyQQ8Wt
LSrXU7rWQq46bMjCHl2+iJpd0v5GJPB2QBK5Dm50SZYP17izKKKRkFWnTskeILFb
ZneXHbNeSYxr+wtlmMMKK1NbFoZ/8fIxw9Eu
-----END CERTIFICATE-----
