Certificate:
    Data:
        Version: 3 (0x2)
        Serial Number:
            32:30:30:30:30:30:37:31
        Signature Algorithm: sha256WithRSAEncryption
        Issuer: C=JP, O=Japanese Government, OU=National Police Agency, OU=NPA ICDL Root CA
        Validity
            Not Before: Feb  6 04:24:40 2023 GMT
            Not After : Feb  5 14:59:59 2028 GMT
        Subject: C=JP, O=Japanese Government, OU=National Police Agency, OU=Prefectural Public Safety Commissions for ICDL, CN=Kagawa PPSC
        Subject Public Key Info:
            Public Key Algorithm: rsaEncryption
                Public-Key: (2048 bit)
                Modulus:
                    00:92:87:eb:7c:fe:46:01:e3:db:44:08:e2:80:ca:
                    43:12:1d:ca:00:a7:3c:d9:00:0f:40:68:94:d1:bf:
                    37:7e:62:84:58:c3:77:93:01:c0:19:91:0d:10:f8:
                    29:d7:16:85:ba:50:e1:dc:99:d4:30:a6:3f:0a:c1:
                    0d:36:a1:48:94:5b:cd:ba:bf:2f:f3:2f:27:79:28:
                    e3:e7:ff:60:d6:cf:d2:09:3f:80:79:80:7b:8f:bc:
                    82:f5:fd:ec:93:f8:c7:e3:5b:eb:3f:35:31:08:8c:
                    9c:22:f7:41:2d:e8:f0:ac:c7:38:6b:0f:b2:3c:15:
                    61:80:76:05:da:53:4b:23:41:e3:74:6c:27:d5:fd:
                    78:2a:8e:77:16:9d:5b:81:95:5d:74:a6:9f:57:58:
                    94:70:ba:bc:c7:95:4b:e2:4e:cc:a4:a9:11:b1:22:
                    9d:08:c0:4b:83:e9:83:02:9b:90:cb:02:05:b4:3e:
                    dd:37:8a:c7:2f:9f:63:fd:04:25:26:7c:f6:1e:2a:
                    0b:f4:17:4c:3c:fd:be:11:c5:3e:d7:15:3f:4b:6b:
                    68:07:e7:4f:3d:ca:27:7f:69:7a:55:6f:3a:97:84:
                    21:e3:4a:87:80:19:39:78:89:20:74:d6:76:f2:f5:
                    9e:fe:5c:d4:61:f8:b8:71:62:8a:e5:a7:9e:5c:4d:
                    2a:eb
                Exponent: 65537 (0x10001)
        X509v3 extensions:
            X509v3 Authority Key Identifier: 
                keyid:11:CD:8E:60:44:47:57:4F:4F:CB:E9:E7:CB:A1:46:DF:BA:0E:50:8B
                DirName:/C=JP/O=Japanese Government/OU=National Police Agency/OU=NPA ICDL Root CA
                serial:32:30:30:30:30:30:31:36
            X509v3 Subject Key Identifier: 
                7A:58:48:80:38:0D:39:E6:D6:32:2D:04:50:EF:BF:B0:FE:C3:1C:76
            X509v3 Key Usage: critical
                Digital Signature, Non Repudiation
            X509v3 Certificate Policies: critical
                Policy: 1.2.392.100120.7.5.1.1.10
                  CPS: http://www.npa.go.jp/
            X509v3 Subject Alternative Name: 
                DirName:/C=JP/O=\xE6\x97\xA5\xE6\x9C\xAC\xE5\x9B\xBD\xE6\x94\xBF\xE5\xBA\x9C/OU=\xE8\xAD\xA6\xE5\xAF\x9F\xE5\xBA\x81/OU=\xE9\x83\xBD\xE9\x81\x93\xE5\xBA\x9C\xE7\x9C\x8C\xE5\x85\xAC\xE5\xAE\x89\xE5\xA7\x94\xE5\x93\xA1\xE4\xBC\x9A
            X509v3 Issuer Alternative Name: 
                DirName:/C=JP/O=\xE6\x97\xA5\xE6\x9C\xAC\xE5\x9B\xBD\xE6\x94\xBF\xE5\xBA\x9C/OU=\xE8\xAD\xA6\xE5\xAF\x9F\xE5\xBA\x81/OU=\xE8\xAD\xA6\xE5\xAF\x9F\xE5\xBA\x81\xE9\x81\x8B\xE8\xBB\xA2\xE5\x85\x8D\xE8\xA8\xB1\xE8\xA8\xBC\xE8\xAA\x8D\xE8\xA8\xBC\xE5\xB1\x80
            X509v3 CRL Distribution Points: 
                Full Name:
                  DirName:C = JP, O = Japanese Government, OU = National Police Agency, OU = Prefectural Public Safety Commissions for ICDL
    Signature Algorithm: sha256WithRSAEncryption
    Signature Value:
        13:d3:d9:1a:5b:ee:3f:46:ce:92:a9:2e:8f:13:9a:75:55:e7:
        c5:7f:9f:b8:ad:31:61:fb:92:f8:7a:af:cc:a5:0c:bc:34:0a:
        12:85:00:56:f7:d0:1e:7c:e6:f5:94:db:77:a8:99:30:49:24:
        f0:13:f8:c5:ab:b9:0b:14:ef:52:d6:be:2e:f6:fb:c5:70:1a:
        d2:e1:14:70:cb:f0:2a:ff:ca:3b:c5:a6:4c:8b:e5:8b:85:c9:
        7e:d0:f5:a2:da:89:25:30:0e:b0:4e:16:95:cd:ec:12:3e:81:
        47:ac:14:30:e2:f7:e9:2e:65:4b:ff:eb:89:5d:9b:6a:62:02:
        12:5f:82:94:a3:00:49:ed:54:78:be:6a:c4:bb:76:96:9d:a3:
        91:c9:e0:fb:a0:55:bf:9d:2e:d7:71:e0:09:44:d6:cf:0b:36:
        c3:66:50:e2:e0:c6:bc:f6:12:fe:25:fb:bd:16:c1:30:2b:8b:
        0f:16:16:75:27:7f:70:be:f9:51:28:17:87:49:a7:eb:7a:7d:
        89:94:bd:e0:aa:ef:22:af:dd:4f:bf:19:da:44:3f:3c:2a:8b:
        43:64:ae:dc:3c:60:0c:29:a0:c8:4d:4b:74:4d:db:21:a0:a3:
        3c:d6:e0:fe:c1:e8:b0:d3:94:37:e9:45:7e:96:53:6d:a9:77:
        74:71:f2:d9
-----BEGIN CERTIFICATE-----
MIIGRzCCBS+gAwIBAgIIMjAwMDAwNzEwDQYJKoZIhvcNAQELBQAwZzELMAkGA1UE
BhMCSlAxHDAaBgNVBAoME0phcGFuZXNlIEdvdmVybm1lbnQxHzAdBgNVBAsMFk5h
dGlvbmFsIFBvbGljZSBBZ2VuY3kxGTAXBgNVBAsMEE5QQSBJQ0RMIFJvb3QgQ0Ew
HhcNMjMwMjA2MDQyNDQwWhcNMjgwMjA1MTQ1OTU5WjCBmzELMAkGA1UEBhMCSlAx
HDAaBgNVBAoME0phcGFuZXNlIEdvdmVybm1lbnQxHzAdBgNVBAsMFk5hdGlvbmFs
IFBvbGljZSBBZ2VuY3kxNzA1BgNVBAsMLlByZWZlY3R1cmFsIFB1YmxpYyBTYWZl
dHkgQ29tbWlzc2lvbnMgZm9yIElDREwxFDASBgNVBAMMC0thZ2F3YSBQUFNDMIIB
IjANBgkqhkiG9w0BAQEFAAOCAQ8AMIIBCgKCAQEAkofrfP5GAePbRAjigMpDEh3K
AKc82QAPQGiU0b83fmKEWMN3kwHAGZENEPgp1xaFulDh3JnUMKY/CsENNqFIlFvN
ur8v8y8neSjj5/9g1s/SCT+AeYB7j7yC9f3sk/jH41vrPzUxCIycIvdBLejwrMc4
aw+yPBVhgHYF2lNLI0HjdGwn1f14Ko53Fp1bgZVddKafV1iUcLq8x5VL4k7MpKkR
sSKdCMBLg+mDApuQywIFtD7dN4rHL59j/QQlJnz2HioL9BdMPP2+EcU+1xU/S2to
B+dPPconf2l6VW86l4Qh40qHgBk5eIkgdNZ28vWe/lzUYfi4cWKK5aeeXE0q6wID
AQABo4ICwDCCArwwgZgGA1UdIwSBkDCBjYAUEc2OYERHV09Py+nny6FG37oOUIuh
a6RpMGcxCzAJBgNVBAYTAkpQMRwwGgYDVQQKDBNKYXBhbmVzZSBHb3Zlcm5tZW50
MR8wHQYDVQQLDBZOYXRpb25hbCBQb2xpY2UgQWdlbmN5MRkwFwYDVQQLDBBOUEEg
SUNETCBSb290IENBgggyMDAwMDAxNjAdBgNVHQ4EFgQUelhIgDgNOebWMi0EUO+/
sP7DHHYwDgYDVR0PAQH/BAQDAgbAMEAGA1UdIAEB/wQ2MDQwMgYLKoMIho4YBwUB
AQowIzAhBggrBgEFBQcCARYVaHR0cDovL3d3dy5ucGEuZ28uanAvMIGVBgNVHREE
gY0wgYqkgYcwgYQxCzAJBgNVBAYTAkpQMRgwFgYDVQQKDA/ml6XmnKzlm73mlL/l
upwxEjAQBgNVBAsMCeitpuWvn+W6gTEkMCIGA1UECwwb6YO96YGT5bqc55yM5YWs
5a6J5aeU5ZOh5LyaMSEwHwYDVQQDDBjpppnlt53nnIzlhazlronlp5Tlk6HkvJow
dAYDVR0SBG0wa6RpMGcxCzAJBgNVBAYTAkpQMRgwFgYDVQQKDA/ml6XmnKzlm73m
lL/lupwxEjAQBgNVBAsMCeitpuWvn+W6gTEqMCgGA1UECwwh6K2m5a+f5bqB6YGL
6Lui5YWN6Kix6Ki86KqN6Ki85bGAMIGfBgNVHR8EgZcwgZQwgZGggY6ggYukgYgw
gYUxCzAJBgNVBAYTAkpQMRwwGgYDVQQKDBNKYXBhbmVzZSBHb3Zlcm5tZW50MR8w
HQYDVQQLDBZOYXRpb25hbCBQb2xpY2UgQWdlbmN5MTcwNQYDVQQLDC5QcmVmZWN0
dXJhbCBQdWJsaWMgU2FmZXR5IENvbW1pc3Npb25zIGZvciBJQ0RMMA0GCSqGSIb3
DQEBCwUAA4IBAQAT09kaW+4/Rs6SqS6PE5p1VefFf5+4rTFh+5L4eq/MpQy8NAoS
hQBW99AefOb1lNt3qJkwSSTwE/jFq7kLFO9S1r4u9vvFcBrS4RRwy/Aq/8o7xaZM
i+WLhcl+0PWi2oklMA6wThaVzewSPoFHrBQw4vfpLmVL/+uJXZtqYgISX4KUowBJ
7VR4vmrEu3aWnaORyeD7oFW/nS7XceAJRNbPCzbDZlDi4Ma89hL+Jfu9FsEwK4sP
FhZ1J39wvvlRKBeHSafren2JlL3gqu8ir91PvxnaRD88KotDZK7cPGAMKaDITUt0
TdshoKM81uD+weiw05Q36UV+llNtqXd0cfLZ
-----END CERTIFICATE-----
