Certificate:
    Data:
        Version: 3 (0x2)
        Serial Number:
            33:30:30:30:30:30:34:36:cb:68:63:44:2b:d6:b5:35:71:c5
        Signature Algorithm: sha256WithRSAEncryption
        Issuer: C=JP, O=Japanese Government, OU=National Police Agency, OU=NPA ICDL Root CA
        Validity
            Not Before: Jun 19 06:13:06 2023 GMT
            Not After : Jun 18 14:59:59 2028 GMT
        Subject: C=JP, O=Japanese Government, OU=National Police Agency, OU=Prefectural Public Safety Commissions for ICDL, CN=Kagawa AltPPSC
        Subject Public Key Info:
            Public Key Algorithm: rsaEncryption
                Public-Key: (2048 bit)
                Modulus:
                    00:a5:a8:59:29:f9:eb:24:95:d5:80:fd:34:06:ae:
                    c7:07:3d:ec:9e:2e:18:26:97:fa:40:6d:dc:0b:cd:
                    e4:f2:fe:90:f0:f0:7e:cc:4f:48:d2:88:5d:39:d5:
                    81:c2:dc:60:e9:3d:12:27:b2:e4:74:86:6e:8c:b6:
                    4d:81:3f:0e:ab:b9:49:0f:2a:c9:14:ff:90:f2:98:
                    14:25:c7:46:87:a3:6f:f2:00:f0:e9:df:9c:5d:25:
                    4f:2f:5e:6e:53:d9:55:5b:d4:87:1b:8d:64:34:9e:
                    4a:68:35:fd:ad:7c:45:98:86:f6:02:bd:8f:d6:f3:
                    c2:99:f5:e2:e8:51:87:11:18:4c:15:99:20:3e:7d:
                    a1:ad:7f:61:c1:36:96:fb:c0:1b:48:f7:9f:53:72:
                    e5:bd:d5:6d:d4:ac:4b:75:25:9c:92:bb:f2:1b:ad:
                    71:13:4f:fe:71:68:ab:f6:c1:4c:17:77:5b:b9:55:
                    23:9e:3d:88:e2:b8:de:71:1f:be:2c:72:34:e8:02:
                    a8:50:4e:b8:f6:98:f3:01:14:e7:df:ea:85:ad:32:
                    b4:31:ab:47:59:fa:a9:2c:93:0f:b0:4e:84:5c:5f:
                    ef:64:ed:e1:4c:ee:b0:9a:87:ca:58:6c:bd:53:76:
                    fa:d2:c8:fe:77:23:7f:f9:54:22:39:f0:d4:cb:b1:
                    10:9d
                Exponent: 65537 (0x10001)
        X509v3 extensions:
            X509v3 Authority Key Identifier: 
                keyid:11:CD:8E:60:44:47:57:4F:4F:CB:E9:E7:CB:A1:46:DF:BA:0E:50:8B
                DirName:/C=JP/O=Japanese Government/OU=National Police Agency/OU=NPA ICDL Root CA
                serial:32:30:30:30:30:30:31:36
            X509v3 Subject Key Identifier: 
                AB:2C:21:88:40:21:6A:92:29:38:FD:DB:3B:AD:0D:86:9E:F8:27:20
            X509v3 Key Usage: critical
                Digital Signature, Non Repudiation
            X509v3 Certificate Policies: critical
                Policy: 1.2.392.100120.7.5.1.1.10
                  CPS: http://www.npa.go.jp/
            X509v3 Issuer Alternative Name: 
                DirName:/C=JP/O=\xE6\x97\xA5\xE6\x9C\xAC\xE5\x9B\xBD\xE6\x94\xBF\xE5\xBA\x9C/OU=\xE8\xAD\xA6\xE5\xAF\x9F\xE5\xBA\x81/OU=\xE8\xAD\xA6\xE5\xAF\x9F\xE5\xBA\x81\xE9\x81\x8B\xE8\xBB\xA2\xE5\x85\x8D\xE8\xA8\xB1\xE8\xA8\xBC\xE8\xAA\x8D\xE8\xA8\xBC\xE5\xB1\x80
            X509v3 CRL Distribution Points: 
                Full Name:
                  DirName:C = JP, O = Japanese Government, OU = National Police Agency, OU = Prefectural Public Safety Commissions for ICDL
    Signature Algorithm: sha256WithRSAEncryption
    Signature Value:
        a1:91:c4:e8:87:3b:92:28:61:b3:c9:3b:f6:2e:94:dd:80:3a:
        27:60:cf:b9:f3:3a:1d:fc:40:1d:21:77:79:c3:db:75:42:a0:
        d7:3f:e2:54:ba:ab:7b:99:81:11:e8:80:7a:1b:55:54:b5:94:
        cc:33:23:ad:81:b4:8b:09:d9:1b:08:1a:64:d3:74:b2:0c:93:
        86:d8:b3:72:55:24:9f:dc:aa:08:5c:64:56:99:05:a6:86:40:
        fb:d8:88:ae:56:ea:a0:8f:89:2f:15:ce:93:0d:4e:59:54:99:
        d9:21:07:0e:98:38:fa:75:d0:94:36:0a:0b:15:b9:5b:30:ce:
        a4:35:dd:2b:3f:2c:df:b2:29:3c:76:b0:3f:54:8c:72:60:f4:
        9c:66:1f:91:4c:67:51:ed:fd:9c:97:74:95:7c:05:1d:7c:3f:
        97:e8:c3:c9:a4:9e:3f:c4:91:c8:be:8f:7a:45:95:08:99:39:
        ff:bd:3b:1b:86:eb:2b:7f:c2:56:9c:41:d2:4a:c9:c1:15:d2:
        f7:46:3a:a8:08:66:0d:56:4a:a0:77:89:03:8c:9f:31:33:85:
        13:ab:ce:28:8b:f2:9d:77:a0:43:4b:01:d3:c6:ac:d6:b9:86:
        cd:35:eb:23:b8:04:b5:1e:35:43:44:cb:56:d3:cc:42:16:da:
        44:3b:8b:91
-----BEGIN CERTIFICATE-----
MIIFvDCCBKSgAwIBAgISMzAwMDAwNDbLaGNEK9a1NXHFMA0GCSqGSIb3DQEBCwUA
MGcxCzAJBgNVBAYTAkpQMRwwGgYDVQQKDBNKYXBhbmVzZSBHb3Zlcm5tZW50MR8w
HQYDVQQLDBZOYXRpb25hbCBQb2xpY2UgQWdlbmN5MRkwFwYDVQQLDBBOUEEgSUNE
TCBSb290IENBMB4XDTIzMDYxOTA2MTMwNloXDTI4MDYxODE0NTk1OVowgZ4xCzAJ
BgNVBAYTAkpQMRwwGgYDVQQKDBNKYXBhbmVzZSBHb3Zlcm5tZW50MR8wHQYDVQQL
DBZOYXRpb25hbCBQb2xpY2UgQWdlbmN5MTcwNQYDVQQLDC5QcmVmZWN0dXJhbCBQ
dWJsaWMgU2FmZXR5IENvbW1pc3Npb25zIGZvciBJQ0RMMRcwFQYDVQQDDA5LYWdh
d2EgQWx0UFBTQzCCASIwDQYJKoZIhvcNAQEBBQADggEPADCCAQoCggEBAKWoWSn5
6ySV1YD9NAauxwc97J4uGCaX+kBt3AvN5PL+kPDwfsxPSNKIXTnVgcLcYOk9Eiey
5HSGboy2TYE/Dqu5SQ8qyRT/kPKYFCXHRoejb/IA8OnfnF0lTy9eblPZVVvUhxuN
ZDSeSmg1/a18RZiG9gK9j9bzwpn14uhRhxEYTBWZID59oa1/YcE2lvvAG0j3n1Ny
5b3VbdSsS3UlnJK78hutcRNP/nFoq/bBTBd3W7lVI549iOK43nEfvixyNOgCqFBO
uPaY8wEU59/qha0ytDGrR1n6qSyTD7BOhFxf72Tt4UzusJqHylhsvVN2+tLI/ncj
f/lUIjnw1MuxEJ0CAwEAAaOCAigwggIkMIGYBgNVHSMEgZAwgY2AFBHNjmBER1dP
T8vp58uhRt+6DlCLoWukaTBnMQswCQYDVQQGEwJKUDEcMBoGA1UECgwTSmFwYW5l
c2UgR292ZXJubWVudDEfMB0GA1UECwwWTmF0aW9uYWwgUG9saWNlIEFnZW5jeTEZ
MBcGA1UECwwQTlBBIElDREwgUm9vdCBDQYIIMjAwMDAwMTYwHQYDVR0OBBYEFKss
IYhAIWqSKTj92zutDYae+CcgMA4GA1UdDwEB/wQEAwIGwDBABgNVHSABAf8ENjA0
MDIGCyqDCIaOGAcFAQEKMCMwIQYIKwYBBQUHAgEWFWh0dHA6Ly93d3cubnBhLmdv
LmpwLzB0BgNVHRIEbTBrpGkwZzELMAkGA1UEBhMCSlAxGDAWBgNVBAoMD+aXpeac
rOWbveaUv+W6nDESMBAGA1UECwwJ6K2m5a+f5bqBMSowKAYDVQQLDCHorablr5/l
uoHpgYvou6LlhY3oqLHoqLzoqo3oqLzlsYAwgZ8GA1UdHwSBlzCBlDCBkaCBjqCB
i6SBiDCBhTELMAkGA1UEBhMCSlAxHDAaBgNVBAoME0phcGFuZXNlIEdvdmVybm1l
bnQxHzAdBgNVBAsMFk5hdGlvbmFsIFBvbGljZSBBZ2VuY3kxNzA1BgNVBAsMLlBy
ZWZlY3R1cmFsIFB1YmxpYyBTYWZldHkgQ29tbWlzc2lvbnMgZm9yIElDREwwDQYJ
KoZIhvcNAQELBQADggEBAKGRxOiHO5IoYbPJO/YulN2AOidgz7nzOh38QB0hd3nD
23VCoNc/4lS6q3uZgRHogHobVVS1lMwzI62BtIsJ2RsIGmTTdLIMk4bYs3JVJJ/c
qghcZFaZBaaGQPvYiK5W6qCPiS8VzpMNTllUmdkhBw6YOPp10JQ2CgsVuVswzqQ1
3Ss/LN+yKTx2sD9UjHJg9JxmH5FMZ1Ht/ZyXdJV8BR18P5fow8mknj/Ekci+j3pF
lQiZOf+9OxuG6yt/wlacQdJKycEV0vdGOqgIZg1WSqB3iQOMnzEzhROrziiL8p13
oENLAdPGrNa5hs016yO4BLUeNUNEy1bTzEIW2kQ7i5E=
-----END CERTIFICATE-----
