Certificate:
    Data:
        Version: 3 (0x2)
        Serial Number:
            33:30:30:30:30:31:32:33
        Signature Algorithm: sha256WithRSAEncryption
        Issuer: C=JP, O=Japanese Government, OU=National Police Agency, OU=NPA ICDL Root CA
        Validity
            Not Before: Sep 17 07:54:12 2024 GMT
            Not After : Sep 16 14:59:59 2029 GMT
        Subject: C=JP, O=Japanese Government, OU=National Police Agency, OU=Prefectural Public Safety Commissions for ICDL, CN=Kagoshima PPSC
        Subject Public Key Info:
            Public Key Algorithm: rsaEncryption
                Public-Key: (2048 bit)
                Modulus:
                    00:c3:b0:1a:d6:62:18:15:cd:07:23:34:cf:cb:90:
                    ee:c0:96:c5:89:56:16:39:8e:8b:e4:c8:41:52:fb:
                    9f:bb:3a:54:a3:40:a1:0a:ea:8a:60:6f:ae:14:3b:
                    8a:4e:fc:0d:38:f9:2c:8e:84:c1:80:82:88:35:5d:
                    2b:aa:11:b3:17:a2:ff:04:41:56:61:94:e7:4b:d3:
                    96:d8:31:6b:28:c2:06:af:be:8e:a5:f4:43:75:e5:
                    cf:49:51:31:5c:d8:64:67:93:d6:05:4f:60:95:0c:
                    fa:94:57:e8:31:46:33:d5:d7:a5:f2:6d:03:b4:99:
                    85:e9:f1:0a:27:94:c0:e6:57:8a:eb:cf:00:33:97:
                    74:5e:a7:8d:f6:22:e4:03:7f:bd:0e:f7:c2:64:17:
                    3a:b4:01:19:52:20:46:02:e0:31:68:a8:43:22:35:
                    78:5c:e4:5d:0e:f8:8e:7b:75:0d:7c:34:e7:00:8a:
                    ea:21:41:75:b2:b7:84:07:a4:01:f2:bc:82:43:23:
                    c5:ae:47:ae:8d:38:35:48:6b:1d:6f:4c:27:4d:aa:
                    dc:25:35:ca:77:23:0a:4f:9f:7a:98:75:50:c0:01:
                    ce:99:f6:da:57:85:c3:bc:1f:29:5a:12:ce:7a:66:
                    8b:47:9e:cb:61:da:69:00:7d:7e:46:65:88:16:92:
                    65:57
                Exponent: 65537 (0x10001)
        X509v3 extensions:
            X509v3 Authority Key Identifier: 
                keyid:11:CD:8E:60:44:47:57:4F:4F:CB:E9:E7:CB:A1:46:DF:BA:0E:50:8B
                DirName:/C=JP/O=Japanese Government/OU=National Police Agency/OU=NPA ICDL Root CA
                serial:32:30:30:30:30:30:31:36
            X509v3 Subject Key Identifier: 
                D7:6A:3C:F8:B6:C5:32:9B:10:44:69:E5:59:43:08:C4:44:18:79:B4
            X509v3 Key Usage: critical
                Digital Signature, Non Repudiation
            X509v3 Certificate Policies: critical
                Policy: 1.2.392.100120.7.5.1.1.10
                  CPS: http://www.npa.go.jp/
            X509v3 Subject Alternative Name: 
                DirName:/C=JP/O=\xE6\x97\xA5\xE6\x9C\xAC\xE5\x9B\xBD\xE6\x94\xBF\xE5\xBA\x9C/OU=\xE8\xAD\xA6\xE5\xAF\x9F\xE5\xBA\x81/OU=\xE9\x83\xBD\xE9\x81\x93\xE5\xBA\x9C\xE7\x9C\x8C\xE5\x85\xAC\xE5\xAE\x89\xE5\xA7\x94\xE5\x93\xA1\xE4\xBC\x9A
            X509v3 Issuer Alternative Name: 
                DirName:/C=JP/O=\xE6\x97\xA5\xE6\x9C\xAC\xE5\x9B\xBD\xE6\x94\xBF\xE5\xBA\x9C/OU=\xE8\xAD\xA6\xE5\xAF\x9F\xE5\xBA\x81/OU=\xE8\xAD\xA6\xE5\xAF\x9F\xE5\xBA\x81\xE9\x81\x8B\xE8\xBB\xA2\xE5\x85\x8D\xE8\xA8\xB1\xE8\xA8\xBC\xE8\xAA\x8D\xE8\xA8\xBC\xE5\xB1\x80
            X509v3 CRL Distribution Points: 
                Full Name:
                  DirName:C = JP, O = Japanese Government, OU = National Police Agency, OU = Prefectural Public Safety Commissions for ICDL
    Signature Algorithm: sha256WithRSAEncryption
    Signature Value:
        4e:a8:ad:1e:2a:ff:a1:b5:1d:48:92:5a:b9:4d:07:a3:01:c7:
        24:12:52:a0:65:79:02:da:f6:5f:96:40:d5:60:34:ca:35:6b:
        a4:a5:07:94:49:85:4a:7e:a0:eb:ac:50:97:29:e0:5c:7a:a4:
        08:02:15:21:ee:d5:5b:e4:62:cc:01:48:87:bc:b3:cc:20:94:
        22:73:bc:95:19:91:36:14:50:3b:d6:b0:e8:9f:da:28:76:e9:
        bc:c4:97:49:ec:0f:ef:fe:51:08:28:69:9a:95:27:64:a5:ff:
        53:40:a6:51:db:c1:5b:87:54:96:c2:68:e2:61:10:49:c5:61:
        03:c8:23:ec:ed:42:16:87:16:43:56:28:96:5b:c4:d7:a5:e9:
        53:8a:4d:ad:f6:c5:7b:06:e2:e7:50:71:5b:29:1e:8e:16:3e:
        d0:7e:44:da:d8:99:2f:e3:30:5a:b5:4e:80:2b:89:68:64:a0:
        8f:1e:c3:c3:d4:92:62:00:f5:7b:cf:ec:cd:06:a4:d6:ef:49:
        13:3c:21:81:0f:48:49:12:69:5c:6a:59:cf:a4:a6:17:b3:72:
        df:a5:af:e6:6c:de:2e:39:34:40:5f:a8:c2:d2:cd:7a:8f:46:
        17:98:56:ac:0f:5f:0b:36:37:38:79:d2:b4:30:8f:5f:ff:32:
        f8:9a:b2:34
-----BEGIN CERTIFICATE-----
MIIGTTCCBTWgAwIBAgIIMzAwMDAxMjMwDQYJKoZIhvcNAQELBQAwZzELMAkGA1UE
BhMCSlAxHDAaBgNVBAoME0phcGFuZXNlIEdvdmVybm1lbnQxHzAdBgNVBAsMFk5h
dGlvbmFsIFBvbGljZSBBZ2VuY3kxGTAXBgNVBAsMEE5QQSBJQ0RMIFJvb3QgQ0Ew
HhcNMjQwOTE3MDc1NDEyWhcNMjkwOTE2MTQ1OTU5WjCBnjELMAkGA1UEBhMCSlAx
HDAaBgNVBAoME0phcGFuZXNlIEdvdmVybm1lbnQxHzAdBgNVBAsMFk5hdGlvbmFs
IFBvbGljZSBBZ2VuY3kxNzA1BgNVBAsMLlByZWZlY3R1cmFsIFB1YmxpYyBTYWZl
dHkgQ29tbWlzc2lvbnMgZm9yIElDREwxFzAVBgNVBAMMDkthZ29zaGltYSBQUFND
MIIBIjANBgkqhkiG9w0BAQEFAAOCAQ8AMIIBCgKCAQEAw7Aa1mIYFc0HIzTPy5Du
wJbFiVYWOY6L5MhBUvufuzpUo0ChCuqKYG+uFDuKTvwNOPksjoTBgIKINV0rqhGz
F6L/BEFWYZTnS9OW2DFrKMIGr76OpfRDdeXPSVExXNhkZ5PWBU9glQz6lFfoMUYz
1del8m0DtJmF6fEKJ5TA5leK688AM5d0XqeN9iLkA3+9DvfCZBc6tAEZUiBGAuAx
aKhDIjV4XORdDviOe3UNfDTnAIrqIUF1sreEB6QB8ryCQyPFrkeujTg1SGsdb0wn
TarcJTXKdyMKT596mHVQwAHOmfbaV4XDvB8pWhLOemaLR57LYdppAH1+RmWIFpJl
VwIDAQABo4ICwzCCAr8wgZgGA1UdIwSBkDCBjYAUEc2OYERHV09Py+nny6FG37oO
UIuha6RpMGcxCzAJBgNVBAYTAkpQMRwwGgYDVQQKDBNKYXBhbmVzZSBHb3Zlcm5t
ZW50MR8wHQYDVQQLDBZOYXRpb25hbCBQb2xpY2UgQWdlbmN5MRkwFwYDVQQLDBBO
UEEgSUNETCBSb290IENBgggyMDAwMDAxNjAdBgNVHQ4EFgQU12o8+LbFMpsQRGnl
WUMIxEQYebQwDgYDVR0PAQH/BAQDAgbAMEAGA1UdIAEB/wQ2MDQwMgYLKoMIho4Y
BwUBAQowIzAhBggrBgEFBQcCARYVaHR0cDovL3d3dy5ucGEuZ28uanAvMIGYBgNV
HREEgZAwgY2kgYowgYcxCzAJBgNVBAYTAkpQMRgwFgYDVQQKDA/ml6XmnKzlm73m
lL/lupwxEjAQBgNVBAsMCeitpuWvn+W6gTEkMCIGA1UECwwb6YO96YGT5bqc55yM
5YWs5a6J5aeU5ZOh5LyaMSQwIgYDVQQDDBvpub/lhZDls7bnnIzlhazlronlp5Tl
k6HkvJowdAYDVR0SBG0wa6RpMGcxCzAJBgNVBAYTAkpQMRgwFgYDVQQKDA/ml6Xm
nKzlm73mlL/lupwxEjAQBgNVBAsMCeitpuWvn+W6gTEqMCgGA1UECwwh6K2m5a+f
5bqB6YGL6Lui5YWN6Kix6Ki86KqN6Ki85bGAMIGfBgNVHR8EgZcwgZQwgZGggY6g
gYukgYgwgYUxCzAJBgNVBAYTAkpQMRwwGgYDVQQKDBNKYXBhbmVzZSBHb3Zlcm5t
ZW50MR8wHQYDVQQLDBZOYXRpb25hbCBQb2xpY2UgQWdlbmN5MTcwNQYDVQQLDC5Q
cmVmZWN0dXJhbCBQdWJsaWMgU2FmZXR5IENvbW1pc3Npb25zIGZvciBJQ0RMMA0G
CSqGSIb3DQEBCwUAA4IBAQBOqK0eKv+htR1Iklq5TQejAcckElKgZXkC2vZflkDV
YDTKNWukpQeUSYVKfqDrrFCXKeBceqQIAhUh7tVb5GLMAUiHvLPMIJQic7yVGZE2
FFA71rDon9oodum8xJdJ7A/v/lEIKGmalSdkpf9TQKZR28Fbh1SWwmjiYRBJxWED
yCPs7UIWhxZDViiWW8TXpelTik2t9sV7BuLnUHFbKR6OFj7QfkTa2Jkv4zBatU6A
K4loZKCPHsPD1JJiAPV7z+zNBqTW70kTPCGBD0hJEmlcalnPpKYXs3Lfpa/mbN4u
OTRAX6jC0s16j0YXmFasD18LNjc4edK0MI9f/zL4mrI0
-----END CERTIFICATE-----
