Certificate:
    Data:
        Version: 3 (0x2)
        Serial Number:
            33:30:30:30:30:30:35:35:12:ad:bd:8d:57:76:5d:ef:2f:6c
        Signature Algorithm: sha256WithRSAEncryption
        Issuer: C=JP, O=Japanese Government, OU=National Police Agency, OU=NPA ICDL Root CA
        Validity
            Not Before: Jun 19 06:24:39 2023 GMT
            Not After : Jun 18 14:59:59 2028 GMT
        Subject: C=JP, O=Japanese Government, OU=National Police Agency, OU=Prefectural Public Safety Commissions for ICDL, CN=Kagoshima AltPPSC
        Subject Public Key Info:
            Public Key Algorithm: rsaEncryption
                Public-Key: (2048 bit)
                Modulus:
                    00:b1:d5:f7:e9:ae:ec:e0:bc:07:32:b8:84:27:c7:
                    2b:82:9e:16:1c:94:6a:64:6d:6d:66:57:e4:69:f4:
                    3c:5b:15:24:49:9f:4a:0c:7d:b2:21:2b:80:21:3a:
                    ad:1a:15:7a:9a:d7:7e:2b:ae:43:ff:5a:c9:c5:c3:
                    03:0d:00:47:6e:fc:47:ea:73:3d:b9:16:67:8f:d3:
                    f9:43:b7:04:9b:c8:29:d2:1d:4c:1c:e1:34:d9:95:
                    96:8f:c4:dd:cf:05:82:e8:fb:ec:b5:d4:ea:c3:a7:
                    22:17:00:79:47:ba:30:b6:14:c4:12:85:8d:30:e8:
                    07:0a:c1:dd:13:8b:3b:24:ad:d7:01:0c:e6:2f:0a:
                    1b:de:3f:3b:15:99:68:b0:29:f5:31:30:97:5d:77:
                    bf:a7:4f:ad:4d:46:e4:ac:51:bc:76:5b:17:b7:ba:
                    57:c3:11:84:ea:89:9f:53:cc:f9:b7:37:e7:67:82:
                    70:ec:70:33:4a:0c:ba:26:84:42:74:6d:81:66:ef:
                    38:29:b0:3f:f7:82:cc:af:58:b4:b6:1a:c6:18:7f:
                    0a:48:94:b7:05:8b:46:7b:ff:05:ce:42:29:7e:00:
                    52:12:cc:03:44:10:b5:5a:cf:1f:94:6b:2f:60:3b:
                    d4:f9:99:22:b4:4a:25:7e:e7:0c:2e:a0:58:68:e7:
                    4e:51
                Exponent: 65537 (0x10001)
        X509v3 extensions:
            X509v3 Authority Key Identifier: 
                keyid:11:CD:8E:60:44:47:57:4F:4F:CB:E9:E7:CB:A1:46:DF:BA:0E:50:8B
                DirName:/C=JP/O=Japanese Government/OU=National Police Agency/OU=NPA ICDL Root CA
                serial:32:30:30:30:30:30:31:36
            X509v3 Subject Key Identifier: 
                3E:32:C1:A4:8C:9B:DF:E1:2E:7A:D6:C6:C4:A5:6E:99:53:76:42:F7
            X509v3 Key Usage: critical
                Digital Signature, Non Repudiation
            X509v3 Certificate Policies: critical
                Policy: 1.2.392.100120.7.5.1.1.10
                  CPS: http://www.npa.go.jp/
            X509v3 Issuer Alternative Name: 
                DirName:/C=JP/O=\xE6\x97\xA5\xE6\x9C\xAC\xE5\x9B\xBD\xE6\x94\xBF\xE5\xBA\x9C/OU=\xE8\xAD\xA6\xE5\xAF\x9F\xE5\xBA\x81/OU=\xE8\xAD\xA6\xE5\xAF\x9F\xE5\xBA\x81\xE9\x81\x8B\xE8\xBB\xA2\xE5\x85\x8D\xE8\xA8\xB1\xE8\xA8\xBC\xE8\xAA\x8D\xE8\xA8\xBC\xE5\xB1\x80
            X509v3 CRL Distribution Points: 
                Full Name:
                  DirName:C = JP, O = Japanese Government, OU = National Police Agency, OU = Prefectural Public Safety Commissions for ICDL
    Signature Algorithm: sha256WithRSAEncryption
    Signature Value:
        4e:31:68:b1:4f:a3:88:14:ed:55:3a:9a:15:e2:63:4e:e1:9f:
        28:85:aa:6a:c9:44:2f:1d:59:d2:25:81:9f:a9:56:b6:c9:ec:
        25:3f:a7:40:16:9a:0e:22:ff:79:2a:16:b0:dc:09:0f:75:3d:
        df:e7:34:06:1d:2e:9a:14:b9:24:f4:fc:11:1a:59:4a:13:3e:
        8d:8b:45:cc:ab:d5:2f:6e:48:34:a2:60:0f:46:b5:ad:1d:a4:
        b6:78:bc:a1:15:b2:c6:9d:e8:d6:33:b3:3c:1b:69:30:dd:43:
        1b:90:03:a8:df:d8:5a:df:a1:8a:5a:a3:61:10:02:01:2d:27:
        df:89:44:fc:a3:24:ab:c4:07:03:66:64:79:68:98:14:44:db:
        71:63:74:03:cb:45:89:6b:85:a9:93:c1:8b:aa:ac:87:03:7d:
        69:1f:b1:1f:bb:4f:d4:bf:a4:b4:6d:f7:41:2c:70:a0:77:58:
        30:b4:31:58:2e:05:bd:53:ee:82:de:97:d8:53:cf:15:e7:81:
        e5:e1:34:11:65:4f:0e:c6:8f:70:51:78:6f:23:f0:1d:82:68:
        7c:ce:62:6a:37:ca:4a:ae:3d:06:70:b7:f0:83:60:57:e3:09:
        61:0c:d6:09:e3:5d:ea:e6:c5:cb:13:48:07:a5:ed:d3:04:a0:
        b2:a7:82:b4
-----BEGIN CERTIFICATE-----
MIIFvzCCBKegAwIBAgISMzAwMDAwNTUSrb2NV3Zd7y9sMA0GCSqGSIb3DQEBCwUA
MGcxCzAJBgNVBAYTAkpQMRwwGgYDVQQKDBNKYXBhbmVzZSBHb3Zlcm5tZW50MR8w
HQYDVQQLDBZOYXRpb25hbCBQb2xpY2UgQWdlbmN5MRkwFwYDVQQLDBBOUEEgSUNE
TCBSb290IENBMB4XDTIzMDYxOTA2MjQzOVoXDTI4MDYxODE0NTk1OVowgaExCzAJ
BgNVBAYTAkpQMRwwGgYDVQQKDBNKYXBhbmVzZSBHb3Zlcm5tZW50MR8wHQYDVQQL
DBZOYXRpb25hbCBQb2xpY2UgQWdlbmN5MTcwNQYDVQQLDC5QcmVmZWN0dXJhbCBQ
dWJsaWMgU2FmZXR5IENvbW1pc3Npb25zIGZvciBJQ0RMMRowGAYDVQQDDBFLYWdv
c2hpbWEgQWx0UFBTQzCCASIwDQYJKoZIhvcNAQEBBQADggEPADCCAQoCggEBALHV
9+mu7OC8BzK4hCfHK4KeFhyUamRtbWZX5Gn0PFsVJEmfSgx9siErgCE6rRoVeprX
fiuuQ/9aycXDAw0AR278R+pzPbkWZ4/T+UO3BJvIKdIdTBzhNNmVlo/E3c8Fguj7
7LXU6sOnIhcAeUe6MLYUxBKFjTDoBwrB3ROLOySt1wEM5i8KG94/OxWZaLAp9TEw
l113v6dPrU1G5KxRvHZbF7e6V8MRhOqJn1PM+bc352eCcOxwM0oMuiaEQnRtgWbv
OCmwP/eCzK9YtLYaxhh/CkiUtwWLRnv/Bc5CKX4AUhLMA0QQtVrPH5RrL2A71PmZ
IrRKJX7nDC6gWGjnTlECAwEAAaOCAigwggIkMIGYBgNVHSMEgZAwgY2AFBHNjmBE
R1dPT8vp58uhRt+6DlCLoWukaTBnMQswCQYDVQQGEwJKUDEcMBoGA1UECgwTSmFw
YW5lc2UgR292ZXJubWVudDEfMB0GA1UECwwWTmF0aW9uYWwgUG9saWNlIEFnZW5j
eTEZMBcGA1UECwwQTlBBIElDREwgUm9vdCBDQYIIMjAwMDAwMTYwHQYDVR0OBBYE
FD4ywaSMm9/hLnrWxsSlbplTdkL3MA4GA1UdDwEB/wQEAwIGwDBABgNVHSABAf8E
NjA0MDIGCyqDCIaOGAcFAQEKMCMwIQYIKwYBBQUHAgEWFWh0dHA6Ly93d3cubnBh
LmdvLmpwLzB0BgNVHRIEbTBrpGkwZzELMAkGA1UEBhMCSlAxGDAWBgNVBAoMD+aX
peacrOWbveaUv+W6nDESMBAGA1UECwwJ6K2m5a+f5bqBMSowKAYDVQQLDCHorabl
r5/luoHpgYvou6LlhY3oqLHoqLzoqo3oqLzlsYAwgZ8GA1UdHwSBlzCBlDCBkaCB
jqCBi6SBiDCBhTELMAkGA1UEBhMCSlAxHDAaBgNVBAoME0phcGFuZXNlIEdvdmVy
bm1lbnQxHzAdBgNVBAsMFk5hdGlvbmFsIFBvbGljZSBBZ2VuY3kxNzA1BgNVBAsM
LlByZWZlY3R1cmFsIFB1YmxpYyBTYWZldHkgQ29tbWlzc2lvbnMgZm9yIElDREww
DQYJKoZIhvcNAQELBQADggEBAE4xaLFPo4gU7VU6mhXiY07hnyiFqmrJRC8dWdIl
gZ+pVrbJ7CU/p0AWmg4i/3kqFrDcCQ91Pd/nNAYdLpoUuST0/BEaWUoTPo2LRcyr
1S9uSDSiYA9Gta0dpLZ4vKEVssad6NYzszwbaTDdQxuQA6jf2FrfoYpao2EQAgEt
J9+JRPyjJKvEBwNmZHlomBRE23FjdAPLRYlrhamTwYuqrIcDfWkfsR+7T9S/pLRt
90EscKB3WDC0MVguBb1T7oLel9hTzxXngeXhNBFlTw7Gj3BReG8j8B2CaHzOYmo3
ykquPQZwt/CDYFfjCWEM1gnjXermxcsTSAel7dMEoLKngrQ=
-----END CERTIFICATE-----
