Certificate:
    Data:
        Version: 3 (0x2)
        Serial Number:
            32:30:30:30:30:30:38:30
        Signature Algorithm: sha256WithRSAEncryption
        Issuer: C=JP, O=Japanese Government, OU=National Police Agency, OU=NPA ICDL Root CA
        Validity
            Not Before: Feb  6 04:51:35 2023 GMT
            Not After : Feb  5 14:59:59 2028 GMT
        Subject: C=JP, O=Japanese Government, OU=National Police Agency, OU=Prefectural Public Safety Commissions for ICDL, CN=Kagoshima PPSC
        Subject Public Key Info:
            Public Key Algorithm: rsaEncryption
                Public-Key: (2048 bit)
                Modulus:
                    00:b1:51:6b:a8:82:92:6b:9c:8f:0d:f0:76:14:44:
                    55:eb:90:6c:27:5b:25:e0:d9:9a:14:16:b0:a7:8b:
                    f8:2a:e2:e6:77:f8:e4:c5:94:f7:c6:6c:a0:f3:46:
                    3d:bc:83:eb:2b:c9:d4:ac:73:df:53:79:52:2d:75:
                    9e:2d:87:07:69:bb:70:c6:76:cd:e6:c4:2e:99:37:
                    8d:45:4c:f0:a4:4e:7b:c7:6f:54:48:ed:6e:b5:4a:
                    a8:10:4d:3c:4c:41:ac:39:14:35:19:05:69:58:b1:
                    02:ad:e4:b7:a3:4b:a9:0f:5a:e4:96:e9:4a:1e:04:
                    25:f3:d6:cb:05:12:89:e9:e2:84:3f:eb:04:59:a9:
                    e3:d6:a7:e9:65:d6:d1:d7:7d:dc:71:45:fe:1f:8c:
                    c6:dc:ea:9a:e5:bf:33:22:0b:48:33:59:1c:04:e1:
                    1c:8e:6a:28:a6:5a:9b:a3:75:a8:d5:cf:1f:38:2f:
                    85:51:9e:c7:dc:22:eb:e2:e5:1d:f4:bc:19:14:75:
                    85:c9:5f:94:6c:86:09:ac:6f:d0:6a:c9:a5:0f:59:
                    ea:17:9f:97:1b:bb:08:3e:2c:49:4e:4d:61:d3:38:
                    3a:74:68:7f:50:25:8f:98:49:d3:0a:7e:13:d4:ba:
                    ee:35:aa:17:46:e1:43:41:b1:d3:7c:98:1b:1e:02:
                    ed:9b
                Exponent: 65537 (0x10001)
        X509v3 extensions:
            X509v3 Authority Key Identifier: 
                keyid:11:CD:8E:60:44:47:57:4F:4F:CB:E9:E7:CB:A1:46:DF:BA:0E:50:8B
                DirName:/C=JP/O=Japanese Government/OU=National Police Agency/OU=NPA ICDL Root CA
                serial:32:30:30:30:30:30:31:36
            X509v3 Subject Key Identifier: 
                07:B3:4B:97:27:4C:87:AC:30:7E:9B:4C:59:25:C2:12:88:DD:CD:99
            X509v3 Key Usage: critical
                Digital Signature, Non Repudiation
            X509v3 Certificate Policies: critical
                Policy: 1.2.392.100120.7.5.1.1.10
                  CPS: http://www.npa.go.jp/
            X509v3 Subject Alternative Name: 
                DirName:/C=JP/O=\xE6\x97\xA5\xE6\x9C\xAC\xE5\x9B\xBD\xE6\x94\xBF\xE5\xBA\x9C/OU=\xE8\xAD\xA6\xE5\xAF\x9F\xE5\xBA\x81/OU=\xE9\x83\xBD\xE9\x81\x93\xE5\xBA\x9C\xE7\x9C\x8C\xE5\x85\xAC\xE5\xAE\x89\xE5\xA7\x94\xE5\x93\xA1\xE4\xBC\x9A
            X509v3 Issuer Alternative Name: 
                DirName:/C=JP/O=\xE6\x97\xA5\xE6\x9C\xAC\xE5\x9B\xBD\xE6\x94\xBF\xE5\xBA\x9C/OU=\xE8\xAD\xA6\xE5\xAF\x9F\xE5\xBA\x81/OU=\xE8\xAD\xA6\xE5\xAF\x9F\xE5\xBA\x81\xE9\x81\x8B\xE8\xBB\xA2\xE5\x85\x8D\xE8\xA8\xB1\xE8\xA8\xBC\xE8\xAA\x8D\xE8\xA8\xBC\xE5\xB1\x80
            X509v3 CRL Distribution Points: 
                Full Name:
                  DirName:C = JP, O = Japanese Government, OU = National Police Agency, OU = Prefectural Public Safety Commissions for ICDL
    Signature Algorithm: sha256WithRSAEncryption
    Signature Value:
        5b:34:6c:0a:6e:31:01:41:8d:be:a0:50:3a:17:58:41:68:9f:
        e2:b0:09:31:80:ad:44:1e:c6:d0:3c:7d:25:33:22:ed:56:ca:
        ef:dd:be:49:0b:a8:7a:19:90:e6:a4:2c:7e:35:fd:39:3b:d5:
        99:48:bb:14:14:43:25:d8:17:7a:ad:09:73:20:ff:f7:a3:df:
        74:ce:90:32:1d:1e:b5:51:78:ab:77:a7:19:79:70:80:89:a9:
        dd:dc:29:be:3c:fc:c3:89:d2:eb:3c:4c:d6:7d:e2:dc:b9:b5:
        50:1b:54:23:44:48:a8:d6:bb:fc:dd:3f:03:2e:95:ee:05:8d:
        e3:9f:b1:d1:26:bd:31:f9:3c:5c:a5:cb:02:c7:ee:2b:2d:dd:
        ab:49:3e:76:63:87:28:95:64:62:e2:38:60:1f:5d:fb:cf:e0:
        3a:28:0f:6b:64:d4:b9:de:e4:e8:e4:66:88:3f:2c:f0:e9:38:
        73:09:75:db:85:8b:91:a6:51:39:55:64:cf:f0:7e:a0:07:10:
        d2:ef:f5:5a:4f:fd:88:c2:d0:fd:40:d4:f9:90:a2:16:56:47:
        9b:ed:c3:5d:b4:2d:af:a6:01:17:48:55:c6:a4:ba:4c:2c:bb:
        d1:bd:24:fa:c3:19:cf:29:0f:ff:57:90:cd:7a:27:7c:1c:14:
        36:9d:5f:27
-----BEGIN CERTIFICATE-----
MIIGTTCCBTWgAwIBAgIIMjAwMDAwODAwDQYJKoZIhvcNAQELBQAwZzELMAkGA1UE
BhMCSlAxHDAaBgNVBAoME0phcGFuZXNlIEdvdmVybm1lbnQxHzAdBgNVBAsMFk5h
dGlvbmFsIFBvbGljZSBBZ2VuY3kxGTAXBgNVBAsMEE5QQSBJQ0RMIFJvb3QgQ0Ew
HhcNMjMwMjA2MDQ1MTM1WhcNMjgwMjA1MTQ1OTU5WjCBnjELMAkGA1UEBhMCSlAx
HDAaBgNVBAoME0phcGFuZXNlIEdvdmVybm1lbnQxHzAdBgNVBAsMFk5hdGlvbmFs
IFBvbGljZSBBZ2VuY3kxNzA1BgNVBAsMLlByZWZlY3R1cmFsIFB1YmxpYyBTYWZl
dHkgQ29tbWlzc2lvbnMgZm9yIElDREwxFzAVBgNVBAMMDkthZ29zaGltYSBQUFND
MIIBIjANBgkqhkiG9w0BAQEFAAOCAQ8AMIIBCgKCAQEAsVFrqIKSa5yPDfB2FERV
65BsJ1sl4NmaFBawp4v4KuLmd/jkxZT3xmyg80Y9vIPrK8nUrHPfU3lSLXWeLYcH
abtwxnbN5sQumTeNRUzwpE57x29USO1utUqoEE08TEGsORQ1GQVpWLECreS3o0up
D1rklulKHgQl89bLBRKJ6eKEP+sEWanj1qfpZdbR133ccUX+H4zG3Oqa5b8zIgtI
M1kcBOEcjmooplqbo3Wo1c8fOC+FUZ7H3CLr4uUd9LwZFHWFyV+UbIYJrG/Qasml
D1nqF5+XG7sIPixJTk1h0zg6dGh/UCWPmEnTCn4T1LruNaoXRuFDQbHTfJgbHgLt
mwIDAQABo4ICwzCCAr8wgZgGA1UdIwSBkDCBjYAUEc2OYERHV09Py+nny6FG37oO
UIuha6RpMGcxCzAJBgNVBAYTAkpQMRwwGgYDVQQKDBNKYXBhbmVzZSBHb3Zlcm5t
ZW50MR8wHQYDVQQLDBZOYXRpb25hbCBQb2xpY2UgQWdlbmN5MRkwFwYDVQQLDBBO
UEEgSUNETCBSb290IENBgggyMDAwMDAxNjAdBgNVHQ4EFgQUB7NLlydMh6wwfptM
WSXCEojdzZkwDgYDVR0PAQH/BAQDAgbAMEAGA1UdIAEB/wQ2MDQwMgYLKoMIho4Y
BwUBAQowIzAhBggrBgEFBQcCARYVaHR0cDovL3d3dy5ucGEuZ28uanAvMIGYBgNV
HREEgZAwgY2kgYowgYcxCzAJBgNVBAYTAkpQMRgwFgYDVQQKDA/ml6XmnKzlm73m
lL/lupwxEjAQBgNVBAsMCeitpuWvn+W6gTEkMCIGA1UECwwb6YO96YGT5bqc55yM
5YWs5a6J5aeU5ZOh5LyaMSQwIgYDVQQDDBvpub/lhZDls7bnnIzlhazlronlp5Tl
k6HkvJowdAYDVR0SBG0wa6RpMGcxCzAJBgNVBAYTAkpQMRgwFgYDVQQKDA/ml6Xm
nKzlm73mlL/lupwxEjAQBgNVBAsMCeitpuWvn+W6gTEqMCgGA1UECwwh6K2m5a+f
5bqB6YGL6Lui5YWN6Kix6Ki86KqN6Ki85bGAMIGfBgNVHR8EgZcwgZQwgZGggY6g
gYukgYgwgYUxCzAJBgNVBAYTAkpQMRwwGgYDVQQKDBNKYXBhbmVzZSBHb3Zlcm5t
ZW50MR8wHQYDVQQLDBZOYXRpb25hbCBQb2xpY2UgQWdlbmN5MTcwNQYDVQQLDC5Q
cmVmZWN0dXJhbCBQdWJsaWMgU2FmZXR5IENvbW1pc3Npb25zIGZvciBJQ0RMMA0G
CSqGSIb3DQEBCwUAA4IBAQBbNGwKbjEBQY2+oFA6F1hBaJ/isAkxgK1EHsbQPH0l
MyLtVsrv3b5JC6h6GZDmpCx+Nf05O9WZSLsUFEMl2Bd6rQlzIP/3o990zpAyHR61
UXird6cZeXCAiand3Cm+PPzDidLrPEzWfeLcubVQG1QjREio1rv83T8DLpXuBY3j
n7HRJr0x+TxcpcsCx+4rLd2rST52Y4colWRi4jhgH137z+A6KA9rZNS53uTo5GaI
Pyzw6ThzCXXbhYuRplE5VWTP8H6gBxDS7/VaT/2IwtD9QNT5kKIWVkeb7cNdtC2v
pgEXSFXGpLpMLLvRvST6wxnPKQ//V5DNeid8HBQ2nV8n
-----END CERTIFICATE-----
