Certificate:
    Data:
        Version: 3 (0x2)
        Serial Number:
            33:30:30:30:30:30:36:33
        Signature Algorithm: sha256WithRSAEncryption
        Issuer: C=JP, O=Japanese Government, OU=National Police Agency, OU=NPA ICDL Root CA
        Validity
            Not Before: Nov  1 04:33:37 2023 GMT
            Not After : Oct 31 14:59:59 2028 GMT
        Subject: C=JP, O=Japanese Government, OU=National Police Agency, OU=Prefectural Public Safety Commissions for ICDL, CN=Kanagawa PPSC
        Subject Public Key Info:
            Public Key Algorithm: rsaEncryption
                Public-Key: (2048 bit)
                Modulus:
                    00:da:67:f1:91:8d:a2:33:03:43:8f:86:48:98:9f:
                    36:17:79:58:f4:0c:37:ab:76:39:dd:f1:16:ec:e7:
                    2f:c3:dc:41:07:d9:93:c8:bd:d1:b1:fc:e8:33:37:
                    c1:59:e9:fb:1d:b8:1d:25:5e:1f:e9:5b:57:5b:cb:
                    10:a8:d5:12:ed:81:8f:bc:9a:03:fa:3c:00:b9:51:
                    17:37:7a:84:65:b8:34:33:ca:18:67:83:b9:f2:e3:
                    9c:5e:4d:23:58:a6:26:a6:f2:22:7a:e7:fa:17:f2:
                    17:e4:34:d2:85:b7:18:76:27:34:bb:36:d5:70:5e:
                    6f:c6:47:d2:cb:12:23:2e:b3:33:50:12:f3:b2:01:
                    8c:50:35:71:2c:25:1f:0a:0f:7b:3c:f1:2e:f4:93:
                    04:4c:54:79:d4:46:0c:ae:f5:e0:a6:40:4d:25:45:
                    d9:aa:6e:9f:1e:4d:a5:cc:f6:bc:ff:7a:50:e6:8b:
                    11:18:8c:1c:c2:26:e0:99:8d:cd:61:82:6a:6b:db:
                    43:98:af:76:f5:b1:5c:41:59:74:c1:0d:82:93:25:
                    8d:cd:82:ac:ef:c9:f6:18:2a:37:0f:06:68:2f:1f:
                    a7:aa:c2:7a:f1:c3:e4:c9:82:ec:14:fc:9c:e4:c7:
                    2c:fe:a3:ef:e9:d3:0e:ab:39:98:f5:87:0a:2f:ae:
                    30:35
                Exponent: 65537 (0x10001)
        X509v3 extensions:
            X509v3 Authority Key Identifier: 
                keyid:11:CD:8E:60:44:47:57:4F:4F:CB:E9:E7:CB:A1:46:DF:BA:0E:50:8B
                DirName:/C=JP/O=Japanese Government/OU=National Police Agency/OU=NPA ICDL Root CA
                serial:32:30:30:30:30:30:31:36
            X509v3 Subject Key Identifier: 
                F1:04:66:13:2D:B0:C9:9F:DB:E0:21:41:B7:65:1D:F3:B5:E2:E8:E6
            X509v3 Key Usage: critical
                Digital Signature, Non Repudiation
            X509v3 Certificate Policies: critical
                Policy: 1.2.392.100120.7.5.1.1.10
                  CPS: http://www.npa.go.jp/
            X509v3 Subject Alternative Name: 
                DirName:/C=JP/O=\xE6\x97\xA5\xE6\x9C\xAC\xE5\x9B\xBD\xE6\x94\xBF\xE5\xBA\x9C/OU=\xE8\xAD\xA6\xE5\xAF\x9F\xE5\xBA\x81/OU=\xE9\x83\xBD\xE9\x81\x93\xE5\xBA\x9C\xE7\x9C\x8C\xE5\x85\xAC\xE5\xAE\x89\xE5\xA7\x94\xE5\x93\xA1\xE4\xBC\x9A
            X509v3 Issuer Alternative Name: 
                DirName:/C=JP/O=\xE6\x97\xA5\xE6\x9C\xAC\xE5\x9B\xBD\xE6\x94\xBF\xE5\xBA\x9C/OU=\xE8\xAD\xA6\xE5\xAF\x9F\xE5\xBA\x81/OU=\xE8\xAD\xA6\xE5\xAF\x9F\xE5\xBA\x81\xE9\x81\x8B\xE8\xBB\xA2\xE5\x85\x8D\xE8\xA8\xB1\xE8\xA8\xBC\xE8\xAA\x8D\xE8\xA8\xBC\xE5\xB1\x80
            X509v3 CRL Distribution Points: 
                Full Name:
                  DirName:C = JP, O = Japanese Government, OU = National Police Agency, OU = Prefectural Public Safety Commissions for ICDL
    Signature Algorithm: sha256WithRSAEncryption
    Signature Value:
        25:b3:52:95:73:61:52:c1:73:62:04:04:a2:35:5b:47:a8:c0:
        d0:23:42:8e:af:bf:92:05:6a:35:34:26:cf:e9:b8:3d:5c:5d:
        c2:58:56:5e:eb:54:fb:13:20:ad:26:20:e0:13:9b:7e:c4:e6:
        0a:1d:fa:2b:ae:d4:7f:0f:74:f8:0f:36:be:5d:98:67:75:a7:
        44:e1:89:4e:c9:1f:2d:90:0b:4d:b0:a5:a9:fd:26:13:6a:c3:
        7b:b5:e1:fb:be:cf:f4:51:ac:92:19:1d:02:29:26:ab:3a:b0:
        34:0d:f2:b1:a8:df:18:2c:03:19:5b:eb:a7:2a:b6:41:3f:89:
        48:7c:82:f5:c5:80:8d:ff:e8:37:81:66:43:10:e0:6f:82:1e:
        81:c5:1e:56:0f:f3:1a:bf:b8:74:4c:b7:9e:90:e9:d2:f8:31:
        dc:45:f0:68:71:6e:63:17:06:3c:43:09:44:f4:12:c6:69:92:
        19:fa:a3:5b:10:39:74:a2:95:90:99:7d:68:d1:73:74:04:4a:
        7c:24:7e:bb:e6:57:86:bb:e6:1b:5f:4f:ad:ae:7e:f8:95:71:
        9a:a4:97:f8:9a:4a:7d:60:59:0c:be:9f:90:64:62:b7:21:32:
        2e:dd:fc:e3:27:59:72:e0:97:9f:06:26:91:2b:44:5a:35:4e:
        2f:7f:c0:ea
-----BEGIN CERTIFICATE-----
MIIGTDCCBTSgAwIBAgIIMzAwMDAwNjMwDQYJKoZIhvcNAQELBQAwZzELMAkGA1UE
BhMCSlAxHDAaBgNVBAoME0phcGFuZXNlIEdvdmVybm1lbnQxHzAdBgNVBAsMFk5h
dGlvbmFsIFBvbGljZSBBZ2VuY3kxGTAXBgNVBAsMEE5QQSBJQ0RMIFJvb3QgQ0Ew
HhcNMjMxMTAxMDQzMzM3WhcNMjgxMDMxMTQ1OTU5WjCBnTELMAkGA1UEBhMCSlAx
HDAaBgNVBAoME0phcGFuZXNlIEdvdmVybm1lbnQxHzAdBgNVBAsMFk5hdGlvbmFs
IFBvbGljZSBBZ2VuY3kxNzA1BgNVBAsMLlByZWZlY3R1cmFsIFB1YmxpYyBTYWZl
dHkgQ29tbWlzc2lvbnMgZm9yIElDREwxFjAUBgNVBAMMDUthbmFnYXdhIFBQU0Mw
ggEiMA0GCSqGSIb3DQEBAQUAA4IBDwAwggEKAoIBAQDaZ/GRjaIzA0OPhkiYnzYX
eVj0DDerdjnd8Rbs5y/D3EEH2ZPIvdGx/OgzN8FZ6fsduB0lXh/pW1dbyxCo1RLt
gY+8mgP6PAC5URc3eoRluDQzyhhng7ny45xeTSNYpiam8iJ65/oX8hfkNNKFtxh2
JzS7NtVwXm/GR9LLEiMuszNQEvOyAYxQNXEsJR8KD3s88S70kwRMVHnURgyu9eCm
QE0lRdmqbp8eTaXM9rz/elDmixEYjBzCJuCZjc1hgmpr20OYr3b1sVxBWXTBDYKT
JY3NgqzvyfYYKjcPBmgvH6eqwnrxw+TJguwU/Jzkxyz+o+/p0w6rOZj1hwovrjA1
AgMBAAGjggLDMIICvzCBmAYDVR0jBIGQMIGNgBQRzY5gREdXT0/L6efLoUbfug5Q
i6FrpGkwZzELMAkGA1UEBhMCSlAxHDAaBgNVBAoME0phcGFuZXNlIEdvdmVybm1l
bnQxHzAdBgNVBAsMFk5hdGlvbmFsIFBvbGljZSBBZ2VuY3kxGTAXBgNVBAsMEE5Q
QSBJQ0RMIFJvb3QgQ0GCCDIwMDAwMDE2MB0GA1UdDgQWBBTxBGYTLbDJn9vgIUG3
ZR3zteLo5jAOBgNVHQ8BAf8EBAMCBsAwQAYDVR0gAQH/BDYwNDAyBgsqgwiGjhgH
BQEBCjAjMCEGCCsGAQUFBwIBFhVodHRwOi8vd3d3Lm5wYS5nby5qcC8wgZgGA1Ud
EQSBkDCBjaSBijCBhzELMAkGA1UEBhMCSlAxGDAWBgNVBAoMD+aXpeacrOWbveaU
v+W6nDESMBAGA1UECwwJ6K2m5a+f5bqBMSQwIgYDVQQLDBvpg73pgZPlupznnIzl
hazlronlp5Tlk6HkvJoxJDAiBgNVBAMMG+elnuWliOW3neecjOWFrOWuieWnlOWT
oeS8mjB0BgNVHRIEbTBrpGkwZzELMAkGA1UEBhMCSlAxGDAWBgNVBAoMD+aXpeac
rOWbveaUv+W6nDESMBAGA1UECwwJ6K2m5a+f5bqBMSowKAYDVQQLDCHorablr5/l
uoHpgYvou6LlhY3oqLHoqLzoqo3oqLzlsYAwgZ8GA1UdHwSBlzCBlDCBkaCBjqCB
i6SBiDCBhTELMAkGA1UEBhMCSlAxHDAaBgNVBAoME0phcGFuZXNlIEdvdmVybm1l
bnQxHzAdBgNVBAsMFk5hdGlvbmFsIFBvbGljZSBBZ2VuY3kxNzA1BgNVBAsMLlBy
ZWZlY3R1cmFsIFB1YmxpYyBTYWZldHkgQ29tbWlzc2lvbnMgZm9yIElDREwwDQYJ
KoZIhvcNAQELBQADggEBACWzUpVzYVLBc2IEBKI1W0eowNAjQo6vv5IFajU0Js/p
uD1cXcJYVl7rVPsTIK0mIOATm37E5god+iuu1H8PdPgPNr5dmGd1p0ThiU7JHy2Q
C02wpan9JhNqw3u14fu+z/RRrJIZHQIpJqs6sDQN8rGo3xgsAxlb66cqtkE/iUh8
gvXFgI3/6DeBZkMQ4G+CHoHFHlYP8xq/uHRMt56Q6dL4MdxF8GhxbmMXBjxDCUT0
EsZpkhn6o1sQOXSilZCZfWjRc3QESnwkfrvmV4a75htfT62ufviVcZqkl/iaSn1g
WQy+n5BkYrchMi7d/OMnWXLgl58GJpErRFo1Ti9/wOo=
-----END CERTIFICATE-----
