Certificate:
    Data:
        Version: 3 (0x2)
        Serial Number:
            33:30:30:30:30:30:32:33:23:05:58:bb:f5:09:47:ba:9a:ea
        Signature Algorithm: sha256WithRSAEncryption
        Issuer: C=JP, O=Japanese Government, OU=National Police Agency, OU=NPA ICDL Root CA
        Validity
            Not Before: Jun 19 05:40:40 2023 GMT
            Not After : Jun 18 14:59:59 2028 GMT
        Subject: C=JP, O=Japanese Government, OU=National Police Agency, OU=Prefectural Public Safety Commissions for ICDL, CN=Kanagawa AltPPSC
        Subject Public Key Info:
            Public Key Algorithm: rsaEncryption
                Public-Key: (2048 bit)
                Modulus:
                    00:95:30:06:fb:70:34:55:c6:01:ba:af:dc:11:08:
                    fb:2c:68:bc:0d:06:04:d6:c3:3f:f1:c7:61:d5:94:
                    c7:57:6b:7c:b5:ba:a9:fe:ec:29:14:b1:e3:30:bf:
                    1c:f1:63:0d:76:66:f6:80:be:ec:03:d0:1d:4b:a3:
                    27:f1:50:6b:c6:62:32:7f:ea:7b:88:c7:91:75:55:
                    55:92:2d:09:7d:3f:1a:f6:6d:9e:09:52:0d:f0:1a:
                    a9:6c:cd:12:da:79:87:11:4b:81:02:e4:d8:ff:d5:
                    82:26:78:3e:15:ba:12:f5:77:fa:8f:f0:5a:08:4a:
                    e5:c3:91:bd:19:bd:c2:74:33:60:5a:ac:a7:25:d4:
                    39:8f:6f:1a:78:00:33:5d:d4:e8:cf:81:fd:67:57:
                    a2:ef:c6:65:b9:b4:51:36:07:33:ea:87:07:11:19:
                    71:ef:1c:d5:43:a2:46:70:2e:cc:a1:0c:aa:8e:9f:
                    b2:96:e6:ae:7b:a3:c1:7c:c7:27:3f:17:ac:b7:63:
                    66:68:0b:c9:38:a0:c1:f6:2b:91:96:40:14:a3:1b:
                    dd:72:78:d0:8f:aa:71:ff:91:7a:e1:8d:9c:f4:c6:
                    83:27:46:9c:80:9e:18:e8:83:c5:0b:21:b0:c0:c9:
                    76:90:9e:44:4d:15:8f:3e:85:8f:fc:ae:c8:61:32:
                    06:d5
                Exponent: 65537 (0x10001)
        X509v3 extensions:
            X509v3 Authority Key Identifier: 
                keyid:11:CD:8E:60:44:47:57:4F:4F:CB:E9:E7:CB:A1:46:DF:BA:0E:50:8B
                DirName:/C=JP/O=Japanese Government/OU=National Police Agency/OU=NPA ICDL Root CA
                serial:32:30:30:30:30:30:31:36
            X509v3 Subject Key Identifier: 
                2D:9C:D0:0E:C3:CE:2F:02:0E:A8:4D:91:58:31:0F:EA:99:E0:C1:A4
            X509v3 Key Usage: critical
                Digital Signature, Non Repudiation
            X509v3 Certificate Policies: critical
                Policy: 1.2.392.100120.7.5.1.1.10
                  CPS: http://www.npa.go.jp/
            X509v3 Issuer Alternative Name: 
                DirName:/C=JP/O=\xE6\x97\xA5\xE6\x9C\xAC\xE5\x9B\xBD\xE6\x94\xBF\xE5\xBA\x9C/OU=\xE8\xAD\xA6\xE5\xAF\x9F\xE5\xBA\x81/OU=\xE8\xAD\xA6\xE5\xAF\x9F\xE5\xBA\x81\xE9\x81\x8B\xE8\xBB\xA2\xE5\x85\x8D\xE8\xA8\xB1\xE8\xA8\xBC\xE8\xAA\x8D\xE8\xA8\xBC\xE5\xB1\x80
            X509v3 CRL Distribution Points: 
                Full Name:
                  DirName:C = JP, O = Japanese Government, OU = National Police Agency, OU = Prefectural Public Safety Commissions for ICDL
    Signature Algorithm: sha256WithRSAEncryption
    Signature Value:
        38:57:c1:d8:f6:4b:11:39:c5:11:67:60:8c:95:bd:c3:14:d2:
        4b:10:0d:a7:ea:95:1b:f7:2d:b2:04:4e:d5:fb:6e:38:c9:a2:
        a7:65:7d:ec:55:a7:fb:74:ef:34:16:15:bc:76:35:46:1c:3b:
        73:c3:ea:83:37:ea:9e:76:6d:d8:92:56:8d:b4:04:3d:a8:da:
        bc:31:b9:d8:ba:24:d8:a4:92:fd:39:53:47:88:cd:61:5d:16:
        eb:55:b8:35:06:c9:31:1b:66:b4:f1:73:b7:ed:e6:29:33:f3:
        94:26:0d:20:4e:21:49:31:13:b0:b6:a8:59:55:70:04:5f:fb:
        b1:fd:0f:0b:55:b1:0e:37:c7:61:c6:86:aa:4a:83:db:4b:5f:
        27:1d:f2:77:6d:9b:4f:bb:0d:79:13:43:48:80:9f:74:b3:95:
        85:e9:99:1f:b0:2c:9e:74:9e:be:c4:dd:39:67:59:96:92:4c:
        9d:d4:b3:99:39:7b:93:2c:ac:6f:95:c4:1c:1c:c4:93:ff:90:
        d0:b2:cf:85:f0:6e:90:4d:af:c1:3d:c8:f8:25:de:8d:14:b2:
        fa:1d:6a:71:e6:4a:b5:02:0f:df:a0:5f:17:cd:4b:e8:80:bd:
        ef:50:e7:58:c4:05:6b:08:37:f8:79:a4:26:17:58:ff:ff:dd:
        b1:f4:c0:d7
-----BEGIN CERTIFICATE-----
MIIFvjCCBKagAwIBAgISMzAwMDAwMjMjBVi79QlHuprqMA0GCSqGSIb3DQEBCwUA
MGcxCzAJBgNVBAYTAkpQMRwwGgYDVQQKDBNKYXBhbmVzZSBHb3Zlcm5tZW50MR8w
HQYDVQQLDBZOYXRpb25hbCBQb2xpY2UgQWdlbmN5MRkwFwYDVQQLDBBOUEEgSUNE
TCBSb290IENBMB4XDTIzMDYxOTA1NDA0MFoXDTI4MDYxODE0NTk1OVowgaAxCzAJ
BgNVBAYTAkpQMRwwGgYDVQQKDBNKYXBhbmVzZSBHb3Zlcm5tZW50MR8wHQYDVQQL
DBZOYXRpb25hbCBQb2xpY2UgQWdlbmN5MTcwNQYDVQQLDC5QcmVmZWN0dXJhbCBQ
dWJsaWMgU2FmZXR5IENvbW1pc3Npb25zIGZvciBJQ0RMMRkwFwYDVQQDDBBLYW5h
Z2F3YSBBbHRQUFNDMIIBIjANBgkqhkiG9w0BAQEFAAOCAQ8AMIIBCgKCAQEAlTAG
+3A0VcYBuq/cEQj7LGi8DQYE1sM/8cdh1ZTHV2t8tbqp/uwpFLHjML8c8WMNdmb2
gL7sA9AdS6Mn8VBrxmIyf+p7iMeRdVVVki0JfT8a9m2eCVIN8BqpbM0S2nmHEUuB
AuTY/9WCJng+FboS9Xf6j/BaCErlw5G9Gb3CdDNgWqynJdQ5j28aeAAzXdToz4H9
Z1ei78ZlubRRNgcz6ocHERlx7xzVQ6JGcC7MoQyqjp+yluaue6PBfMcnPxest2Nm
aAvJOKDB9iuRlkAUoxvdcnjQj6px/5F64Y2c9MaDJ0acgJ4Y6IPFCyGwwMl2kJ5E
TRWPPoWP/K7IYTIG1QIDAQABo4ICKDCCAiQwgZgGA1UdIwSBkDCBjYAUEc2OYERH
V09Py+nny6FG37oOUIuha6RpMGcxCzAJBgNVBAYTAkpQMRwwGgYDVQQKDBNKYXBh
bmVzZSBHb3Zlcm5tZW50MR8wHQYDVQQLDBZOYXRpb25hbCBQb2xpY2UgQWdlbmN5
MRkwFwYDVQQLDBBOUEEgSUNETCBSb290IENBgggyMDAwMDAxNjAdBgNVHQ4EFgQU
LZzQDsPOLwIOqE2RWDEP6pngwaQwDgYDVR0PAQH/BAQDAgbAMEAGA1UdIAEB/wQ2
MDQwMgYLKoMIho4YBwUBAQowIzAhBggrBgEFBQcCARYVaHR0cDovL3d3dy5ucGEu
Z28uanAvMHQGA1UdEgRtMGukaTBnMQswCQYDVQQGEwJKUDEYMBYGA1UECgwP5pel
5pys5Zu95pS/5bqcMRIwEAYDVQQLDAnorablr5/luoExKjAoBgNVBAsMIeitpuWv
n+W6gemBi+i7ouWFjeioseiovOiqjeiovOWxgDCBnwYDVR0fBIGXMIGUMIGRoIGO
oIGLpIGIMIGFMQswCQYDVQQGEwJKUDEcMBoGA1UECgwTSmFwYW5lc2UgR292ZXJu
bWVudDEfMB0GA1UECwwWTmF0aW9uYWwgUG9saWNlIEFnZW5jeTE3MDUGA1UECwwu
UHJlZmVjdHVyYWwgUHVibGljIFNhZmV0eSBDb21taXNzaW9ucyBmb3IgSUNETDAN
BgkqhkiG9w0BAQsFAAOCAQEAOFfB2PZLETnFEWdgjJW9wxTSSxANp+qVG/ctsgRO
1ftuOMmip2V97FWn+3TvNBYVvHY1Rhw7c8PqgzfqnnZt2JJWjbQEPajavDG52Lok
2KSS/TlTR4jNYV0W61W4NQbJMRtmtPFzt+3mKTPzlCYNIE4hSTETsLaoWVVwBF/7
sf0PC1WxDjfHYcaGqkqD20tfJx3yd22bT7sNeRNDSICfdLOVhemZH7AsnnSevsTd
OWdZlpJMndSzmTl7kyysb5XEHBzEk/+Q0LLPhfBukE2vwT3I+CXejRSy+h1qceZK
tQIP36BfF81L6IC971DnWMQFawg3+HmkJhdY///dsfTA1w==
-----END CERTIFICATE-----
