Certificate:
    Data:
        Version: 3 (0x2)
        Serial Number:
            32:30:30:30:30:30:35:31
        Signature Algorithm: sha256WithRSAEncryption
        Issuer: C=JP, O=Japanese Government, OU=National Police Agency, OU=NPA ICDL Root CA
        Validity
            Not Before: Feb  6 02:03:17 2023 GMT
            Not After : Feb  5 14:59:59 2028 GMT
        Subject: C=JP, O=Japanese Government, OU=National Police Agency, OU=Prefectural Public Safety Commissions for ICDL, CN=Kanagawa PPSC
        Subject Public Key Info:
            Public Key Algorithm: rsaEncryption
                Public-Key: (2048 bit)
                Modulus:
                    00:8d:28:8f:7a:cc:d6:f3:8f:b8:4f:31:1c:fb:1f:
                    a9:13:23:4b:fb:48:e5:3d:7e:13:21:c7:4c:9d:b2:
                    19:e8:49:ce:b2:4e:66:7f:f4:a3:96:8d:a3:8e:01:
                    d8:58:65:95:3b:4f:b5:c5:ec:3b:48:3a:b8:a4:cf:
                    a0:54:4d:fd:4c:ec:ff:cc:ec:6e:44:53:dd:04:87:
                    73:ed:c4:81:e6:84:10:92:da:f4:e5:fc:d1:02:0b:
                    f3:d4:2e:9c:19:99:8f:8c:d3:0d:17:9f:ec:b2:c6:
                    c5:f6:2c:45:4d:87:bb:dc:0b:40:28:4d:76:17:c7:
                    dc:e6:19:2a:e9:f7:e7:bc:b7:e2:05:c5:ea:d1:26:
                    8f:ec:1b:a3:25:67:9b:89:4e:a1:36:d2:25:40:6c:
                    aa:e9:c1:53:9e:af:5f:ac:e6:96:2d:5f:8e:f4:fd:
                    ce:94:c0:bc:b6:47:ab:13:9f:d0:1d:47:df:cb:55:
                    1c:a8:0e:00:7b:22:2d:90:b7:a9:03:c4:54:52:96:
                    f6:3f:bf:9a:19:71:a9:5a:88:0f:e0:c8:62:70:22:
                    98:6a:f4:c2:f1:fa:48:8b:1b:17:6b:f1:3a:6c:be:
                    f5:5c:8c:41:c6:b7:10:92:5a:28:f5:cc:98:86:98:
                    ac:de:ae:dc:d1:cb:22:e6:5d:2e:bb:66:fc:28:3c:
                    20:7d
                Exponent: 65537 (0x10001)
        X509v3 extensions:
            X509v3 Authority Key Identifier: 
                keyid:11:CD:8E:60:44:47:57:4F:4F:CB:E9:E7:CB:A1:46:DF:BA:0E:50:8B
                DirName:/C=JP/O=Japanese Government/OU=National Police Agency/OU=NPA ICDL Root CA
                serial:32:30:30:30:30:30:31:36
            X509v3 Subject Key Identifier: 
                FF:8A:ED:21:54:DC:18:19:87:88:46:DA:E0:B8:34:BD:BA:23:17:A3
            X509v3 Key Usage: critical
                Digital Signature, Non Repudiation
            X509v3 Certificate Policies: critical
                Policy: 1.2.392.100120.7.5.1.1.10
                  CPS: http://www.npa.go.jp/
            X509v3 Subject Alternative Name: 
                DirName:/C=JP/O=\xE6\x97\xA5\xE6\x9C\xAC\xE5\x9B\xBD\xE6\x94\xBF\xE5\xBA\x9C/OU=\xE8\xAD\xA6\xE5\xAF\x9F\xE5\xBA\x81/OU=\xE9\x83\xBD\xE9\x81\x93\xE5\xBA\x9C\xE7\x9C\x8C\xE5\x85\xAC\xE5\xAE\x89\xE5\xA7\x94\xE5\x93\xA1\xE4\xBC\x9A
            X509v3 Issuer Alternative Name: 
                DirName:/C=JP/O=\xE6\x97\xA5\xE6\x9C\xAC\xE5\x9B\xBD\xE6\x94\xBF\xE5\xBA\x9C/OU=\xE8\xAD\xA6\xE5\xAF\x9F\xE5\xBA\x81/OU=\xE8\xAD\xA6\xE5\xAF\x9F\xE5\xBA\x81\xE9\x81\x8B\xE8\xBB\xA2\xE5\x85\x8D\xE8\xA8\xB1\xE8\xA8\xBC\xE8\xAA\x8D\xE8\xA8\xBC\xE5\xB1\x80
            X509v3 CRL Distribution Points: 
                Full Name:
                  DirName:C = JP, O = Japanese Government, OU = National Police Agency, OU = Prefectural Public Safety Commissions for ICDL
    Signature Algorithm: sha256WithRSAEncryption
    Signature Value:
        9b:42:61:6c:db:00:21:80:8b:25:c7:d3:a1:ad:4a:25:91:5b:
        72:90:ff:da:22:74:a3:4f:60:07:dd:c9:f1:0a:33:64:25:ea:
        7b:dc:31:03:f3:56:ce:f1:e3:3f:ff:c2:86:45:2d:da:70:11:
        7f:82:d1:68:6d:65:28:b8:51:1c:b7:ef:38:da:df:52:3f:d1:
        e6:7d:5c:a4:1e:3c:01:a9:5c:80:62:48:4e:b1:41:19:20:91:
        6d:d5:79:a9:4c:bb:62:e0:df:f7:be:7f:f1:7c:1f:a2:a6:f5:
        3a:a0:e9:1f:e2:0e:07:15:02:f2:69:50:72:6b:be:53:52:28:
        37:b2:d5:a6:e3:75:e6:82:1b:6f:0f:16:6b:95:e1:5b:db:99:
        cb:b5:07:5a:82:1c:ff:ee:d6:8c:cf:c8:bc:5a:20:35:a1:73:
        94:bc:4d:28:81:92:78:a9:08:32:1d:3b:67:17:86:1f:9d:47:
        d3:0e:32:b8:dd:a0:a8:fd:cd:4a:50:7f:b8:a6:1e:a8:2f:df:
        cd:71:96:1d:e9:72:5a:12:2e:c8:45:af:aa:62:5d:1f:d1:65:
        f8:01:78:f8:e6:89:b9:15:37:3a:81:e5:d4:c4:70:86:19:13:
        0c:16:c1:22:2a:9b:38:22:75:d1:4c:b7:b0:03:30:ed:3b:79:
        b6:f4:4d:ee
-----BEGIN CERTIFICATE-----
MIIGTDCCBTSgAwIBAgIIMjAwMDAwNTEwDQYJKoZIhvcNAQELBQAwZzELMAkGA1UE
BhMCSlAxHDAaBgNVBAoME0phcGFuZXNlIEdvdmVybm1lbnQxHzAdBgNVBAsMFk5h
dGlvbmFsIFBvbGljZSBBZ2VuY3kxGTAXBgNVBAsMEE5QQSBJQ0RMIFJvb3QgQ0Ew
HhcNMjMwMjA2MDIwMzE3WhcNMjgwMjA1MTQ1OTU5WjCBnTELMAkGA1UEBhMCSlAx
HDAaBgNVBAoME0phcGFuZXNlIEdvdmVybm1lbnQxHzAdBgNVBAsMFk5hdGlvbmFs
IFBvbGljZSBBZ2VuY3kxNzA1BgNVBAsMLlByZWZlY3R1cmFsIFB1YmxpYyBTYWZl
dHkgQ29tbWlzc2lvbnMgZm9yIElDREwxFjAUBgNVBAMMDUthbmFnYXdhIFBQU0Mw
ggEiMA0GCSqGSIb3DQEBAQUAA4IBDwAwggEKAoIBAQCNKI96zNbzj7hPMRz7H6kT
I0v7SOU9fhMhx0ydshnoSc6yTmZ/9KOWjaOOAdhYZZU7T7XF7DtIOrikz6BUTf1M
7P/M7G5EU90Eh3PtxIHmhBCS2vTl/NECC/PULpwZmY+M0w0Xn+yyxsX2LEVNh7vc
C0AoTXYXx9zmGSrp9+e8t+IFxerRJo/sG6MlZ5uJTqE20iVAbKrpwVOer1+s5pYt
X470/c6UwLy2R6sTn9AdR9/LVRyoDgB7Ii2Qt6kDxFRSlvY/v5oZcalaiA/gyGJw
Iphq9MLx+kiLGxdr8TpsvvVcjEHGtxCSWij1zJiGmKzertzRyyLmXS67ZvwoPCB9
AgMBAAGjggLDMIICvzCBmAYDVR0jBIGQMIGNgBQRzY5gREdXT0/L6efLoUbfug5Q
i6FrpGkwZzELMAkGA1UEBhMCSlAxHDAaBgNVBAoME0phcGFuZXNlIEdvdmVybm1l
bnQxHzAdBgNVBAsMFk5hdGlvbmFsIFBvbGljZSBBZ2VuY3kxGTAXBgNVBAsMEE5Q
QSBJQ0RMIFJvb3QgQ0GCCDIwMDAwMDE2MB0GA1UdDgQWBBT/iu0hVNwYGYeIRtrg
uDS9uiMXozAOBgNVHQ8BAf8EBAMCBsAwQAYDVR0gAQH/BDYwNDAyBgsqgwiGjhgH
BQEBCjAjMCEGCCsGAQUFBwIBFhVodHRwOi8vd3d3Lm5wYS5nby5qcC8wgZgGA1Ud
EQSBkDCBjaSBijCBhzELMAkGA1UEBhMCSlAxGDAWBgNVBAoMD+aXpeacrOWbveaU
v+W6nDESMBAGA1UECwwJ6K2m5a+f5bqBMSQwIgYDVQQLDBvpg73pgZPlupznnIzl
hazlronlp5Tlk6HkvJoxJDAiBgNVBAMMG+elnuWliOW3neecjOWFrOWuieWnlOWT
oeS8mjB0BgNVHRIEbTBrpGkwZzELMAkGA1UEBhMCSlAxGDAWBgNVBAoMD+aXpeac
rOWbveaUv+W6nDESMBAGA1UECwwJ6K2m5a+f5bqBMSowKAYDVQQLDCHorablr5/l
uoHpgYvou6LlhY3oqLHoqLzoqo3oqLzlsYAwgZ8GA1UdHwSBlzCBlDCBkaCBjqCB
i6SBiDCBhTELMAkGA1UEBhMCSlAxHDAaBgNVBAoME0phcGFuZXNlIEdvdmVybm1l
bnQxHzAdBgNVBAsMFk5hdGlvbmFsIFBvbGljZSBBZ2VuY3kxNzA1BgNVBAsMLlBy
ZWZlY3R1cmFsIFB1YmxpYyBTYWZldHkgQ29tbWlzc2lvbnMgZm9yIElDREwwDQYJ
KoZIhvcNAQELBQADggEBAJtCYWzbACGAiyXH06GtSiWRW3KQ/9oidKNPYAfdyfEK
M2Ql6nvcMQPzVs7x4z//woZFLdpwEX+C0WhtZSi4URy37zja31I/0eZ9XKQePAGp
XIBiSE6xQRkgkW3VealMu2Lg3/e+f/F8H6Km9Tqg6R/iDgcVAvJpUHJrvlNSKDey
1abjdeaCG28PFmuV4Vvbmcu1B1qCHP/u1ozPyLxaIDWhc5S8TSiBknipCDIdO2cX
hh+dR9MOMrjdoKj9zUpQf7imHqgv381xlh3pcloSLshFr6piXR/RZfgBePjmibkV
NzqB5dTEcIYZEwwWwSIqmzgiddFMt7ADMO07ebb0Te4=
-----END CERTIFICATE-----
