Certificate:
    Data:
        Version: 3 (0x2)
        Serial Number:
            33:30:30:30:30:30:38:33
        Signature Algorithm: sha256WithRSAEncryption
        Issuer: C=JP, O=Japanese Government, OU=National Police Agency, OU=NPA ICDL Root CA
        Validity
            Not Before: Mar 18 05:19:50 2024 GMT
            Not After : Mar 17 14:59:59 2029 GMT
        Subject: C=JP, O=Japanese Government, OU=National Police Agency, OU=Prefectural Public Safety Commissions for ICDL, CN=Kanagawa AltPPSC
        Subject Public Key Info:
            Public Key Algorithm: rsaEncryption
                Public-Key: (2048 bit)
                Modulus:
                    00:8d:28:8f:7a:cc:d6:f3:8f:b8:4f:31:1c:fb:1f:
                    a9:13:23:4b:fb:48:e5:3d:7e:13:21:c7:4c:9d:b2:
                    19:e8:49:ce:b2:4e:66:7f:f4:a3:96:8d:a3:8e:01:
                    d8:58:65:95:3b:4f:b5:c5:ec:3b:48:3a:b8:a4:cf:
                    a0:54:4d:fd:4c:ec:ff:cc:ec:6e:44:53:dd:04:87:
                    73:ed:c4:81:e6:84:10:92:da:f4:e5:fc:d1:02:0b:
                    f3:d4:2e:9c:19:99:8f:8c:d3:0d:17:9f:ec:b2:c6:
                    c5:f6:2c:45:4d:87:bb:dc:0b:40:28:4d:76:17:c7:
                    dc:e6:19:2a:e9:f7:e7:bc:b7:e2:05:c5:ea:d1:26:
                    8f:ec:1b:a3:25:67:9b:89:4e:a1:36:d2:25:40:6c:
                    aa:e9:c1:53:9e:af:5f:ac:e6:96:2d:5f:8e:f4:fd:
                    ce:94:c0:bc:b6:47:ab:13:9f:d0:1d:47:df:cb:55:
                    1c:a8:0e:00:7b:22:2d:90:b7:a9:03:c4:54:52:96:
                    f6:3f:bf:9a:19:71:a9:5a:88:0f:e0:c8:62:70:22:
                    98:6a:f4:c2:f1:fa:48:8b:1b:17:6b:f1:3a:6c:be:
                    f5:5c:8c:41:c6:b7:10:92:5a:28:f5:cc:98:86:98:
                    ac:de:ae:dc:d1:cb:22:e6:5d:2e:bb:66:fc:28:3c:
                    20:7d
                Exponent: 65537 (0x10001)
        X509v3 extensions:
            X509v3 Authority Key Identifier: 
                keyid:11:CD:8E:60:44:47:57:4F:4F:CB:E9:E7:CB:A1:46:DF:BA:0E:50:8B
                DirName:/C=JP/O=Japanese Government/OU=National Police Agency/OU=NPA ICDL Root CA
                serial:32:30:30:30:30:30:31:36
            X509v3 Subject Key Identifier: 
                FF:8A:ED:21:54:DC:18:19:87:88:46:DA:E0:B8:34:BD:BA:23:17:A3
            X509v3 Key Usage: critical
                Digital Signature, Non Repudiation
            X509v3 Certificate Policies: critical
                Policy: 1.2.392.100120.7.5.1.1.10
                  CPS: http://www.npa.go.jp/
            X509v3 Issuer Alternative Name: 
                DirName:/C=JP/O=\xE6\x97\xA5\xE6\x9C\xAC\xE5\x9B\xBD\xE6\x94\xBF\xE5\xBA\x9C/OU=\xE8\xAD\xA6\xE5\xAF\x9F\xE5\xBA\x81/OU=\xE8\xAD\xA6\xE5\xAF\x9F\xE5\xBA\x81\xE9\x81\x8B\xE8\xBB\xA2\xE5\x85\x8D\xE8\xA8\xB1\xE8\xA8\xBC\xE8\xAA\x8D\xE8\xA8\xBC\xE5\xB1\x80
            X509v3 CRL Distribution Points: 
                Full Name:
                  DirName:C = JP, O = Japanese Government, OU = National Police Agency, OU = Prefectural Public Safety Commissions for ICDL
    Signature Algorithm: sha256WithRSAEncryption
    Signature Value:
        9a:3c:d0:01:e7:2b:ad:81:c9:82:b9:1a:bd:be:d4:5c:11:24:
        f8:d9:55:5b:53:33:97:0e:2f:41:1a:52:17:e3:01:9e:ca:74:
        cc:e7:e0:1c:2f:8b:96:d6:ab:de:a2:5c:1f:f2:b9:b9:b4:c7:
        6e:a8:ec:6d:0a:d8:49:2e:78:32:9d:6f:c2:2e:a7:c8:ff:cd:
        38:0b:20:ff:5f:76:33:03:15:9a:f0:13:a1:61:45:db:cb:d6:
        42:e9:c8:d4:25:bb:ed:27:85:df:a5:ac:46:08:45:c3:1d:0b:
        90:51:0c:bd:3f:6a:7f:7c:4f:89:d8:2f:52:04:ff:93:d9:d1:
        05:6b:37:bc:7b:79:87:44:72:89:d0:9f:c3:6c:6a:6e:76:6f:
        aa:ba:05:14:6c:1e:70:6d:e3:f1:95:09:25:90:5a:f9:fe:2b:
        43:5b:6f:d2:a0:21:7b:91:50:6d:3a:8b:88:01:36:3a:18:66:
        a4:11:9c:9a:f6:1b:de:52:51:b1:a3:3a:a8:e3:ec:e1:62:b9:
        a5:a6:20:32:aa:58:96:c0:34:d9:e9:b7:04:1e:02:7a:7a:f0:
        c0:6e:b4:bc:b8:4c:f9:38:4f:92:23:2c:3e:4d:c3:88:49:b3:
        3d:1f:e2:ca:bc:8a:a4:be:70:6c:28:42:01:a3:d4:ef:08:6a:
        5f:a4:72:b2
-----BEGIN CERTIFICATE-----
MIIFtDCCBJygAwIBAgIIMzAwMDAwODMwDQYJKoZIhvcNAQELBQAwZzELMAkGA1UE
BhMCSlAxHDAaBgNVBAoME0phcGFuZXNlIEdvdmVybm1lbnQxHzAdBgNVBAsMFk5h
dGlvbmFsIFBvbGljZSBBZ2VuY3kxGTAXBgNVBAsMEE5QQSBJQ0RMIFJvb3QgQ0Ew
HhcNMjQwMzE4MDUxOTUwWhcNMjkwMzE3MTQ1OTU5WjCBoDELMAkGA1UEBhMCSlAx
HDAaBgNVBAoME0phcGFuZXNlIEdvdmVybm1lbnQxHzAdBgNVBAsMFk5hdGlvbmFs
IFBvbGljZSBBZ2VuY3kxNzA1BgNVBAsMLlByZWZlY3R1cmFsIFB1YmxpYyBTYWZl
dHkgQ29tbWlzc2lvbnMgZm9yIElDREwxGTAXBgNVBAMMEEthbmFnYXdhIEFsdFBQ
U0MwggEiMA0GCSqGSIb3DQEBAQUAA4IBDwAwggEKAoIBAQCNKI96zNbzj7hPMRz7
H6kTI0v7SOU9fhMhx0ydshnoSc6yTmZ/9KOWjaOOAdhYZZU7T7XF7DtIOrikz6BU
Tf1M7P/M7G5EU90Eh3PtxIHmhBCS2vTl/NECC/PULpwZmY+M0w0Xn+yyxsX2LEVN
h7vcC0AoTXYXx9zmGSrp9+e8t+IFxerRJo/sG6MlZ5uJTqE20iVAbKrpwVOer1+s
5pYtX470/c6UwLy2R6sTn9AdR9/LVRyoDgB7Ii2Qt6kDxFRSlvY/v5oZcalaiA/g
yGJwIphq9MLx+kiLGxdr8TpsvvVcjEHGtxCSWij1zJiGmKzertzRyyLmXS67Zvwo
PCB9AgMBAAGjggIoMIICJDCBmAYDVR0jBIGQMIGNgBQRzY5gREdXT0/L6efLoUbf
ug5Qi6FrpGkwZzELMAkGA1UEBhMCSlAxHDAaBgNVBAoME0phcGFuZXNlIEdvdmVy
bm1lbnQxHzAdBgNVBAsMFk5hdGlvbmFsIFBvbGljZSBBZ2VuY3kxGTAXBgNVBAsM
EE5QQSBJQ0RMIFJvb3QgQ0GCCDIwMDAwMDE2MB0GA1UdDgQWBBT/iu0hVNwYGYeI
RtrguDS9uiMXozAOBgNVHQ8BAf8EBAMCBsAwQAYDVR0gAQH/BDYwNDAyBgsqgwiG
jhgHBQEBCjAjMCEGCCsGAQUFBwIBFhVodHRwOi8vd3d3Lm5wYS5nby5qcC8wdAYD
VR0SBG0wa6RpMGcxCzAJBgNVBAYTAkpQMRgwFgYDVQQKDA/ml6XmnKzlm73mlL/l
upwxEjAQBgNVBAsMCeitpuWvn+W6gTEqMCgGA1UECwwh6K2m5a+f5bqB6YGL6Lui
5YWN6Kix6Ki86KqN6Ki85bGAMIGfBgNVHR8EgZcwgZQwgZGggY6ggYukgYgwgYUx
CzAJBgNVBAYTAkpQMRwwGgYDVQQKDBNKYXBhbmVzZSBHb3Zlcm5tZW50MR8wHQYD
VQQLDBZOYXRpb25hbCBQb2xpY2UgQWdlbmN5MTcwNQYDVQQLDC5QcmVmZWN0dXJh
bCBQdWJsaWMgU2FmZXR5IENvbW1pc3Npb25zIGZvciBJQ0RMMA0GCSqGSIb3DQEB
CwUAA4IBAQCaPNAB5yutgcmCuRq9vtRcEST42VVbUzOXDi9BGlIX4wGeynTM5+Ac
L4uW1qveolwf8rm5tMduqOxtCthJLngynW/CLqfI/804CyD/X3YzAxWa8BOhYUXb
y9ZC6cjUJbvtJ4XfpaxGCEXDHQuQUQy9P2p/fE+J2C9SBP+T2dEFaze8e3mHRHKJ
0J/DbGpudm+qugUUbB5wbePxlQklkFr5/itDW2/SoCF7kVBtOouIATY6GGakEZya
9hveUlGxozqo4+zhYrmlpiAyqliWwDTZ6bcEHgJ6evDAbrS8uEz5OE+SIyw+TcOI
SbM9H+LKvIqkvnBsKEIBo9TvCGpfpHKy
-----END CERTIFICATE-----
