Certificate:
    Data:
        Version: 3 (0x2)
        Serial Number:
            33:30:30:30:30:30:39:36
        Signature Algorithm: sha256WithRSAEncryption
        Issuer: C=JP, O=Japanese Government, OU=National Police Agency, OU=NPA ICDL Root CA
        Validity
            Not Before: Sep 17 07:06:37 2024 GMT
            Not After : Sep 16 14:59:59 2029 GMT
        Subject: C=JP, O=Japanese Government, OU=National Police Agency, OU=Prefectural Public Safety Commissions for ICDL, CN=Kitami APSC
        Subject Public Key Info:
            Public Key Algorithm: rsaEncryption
                Public-Key: (2048 bit)
                Modulus:
                    00:bf:a8:91:83:a0:dd:4c:a4:28:a1:e6:ed:e7:86:
                    76:bf:37:67:f1:6c:e4:ae:9a:55:a4:11:76:06:f5:
                    1c:99:1c:9f:aa:59:94:9e:1a:30:59:4e:08:86:27:
                    f1:fd:14:18:a1:7b:68:a0:e8:4e:92:14:72:b3:00:
                    fe:84:86:55:78:a1:4b:98:c7:5d:fc:07:da:32:f5:
                    70:73:58:07:3a:87:20:4c:e5:2b:3f:6f:05:d3:14:
                    a3:14:98:aa:2c:71:57:62:bc:20:9d:81:69:42:db:
                    cc:d1:83:27:b9:84:ac:db:75:86:14:19:ec:e5:b5:
                    8b:d4:9f:f4:3b:6d:c9:cb:75:a8:e2:19:7a:79:86:
                    d3:41:48:8d:a1:69:6e:74:dd:7f:29:98:e2:a6:51:
                    ca:d4:d3:34:75:98:70:5c:78:8a:60:c5:f5:fb:1a:
                    fd:48:af:8c:fd:92:32:e7:72:ef:f6:ba:d0:20:12:
                    90:7e:61:34:f9:9f:d7:67:7d:84:b0:31:fa:82:29:
                    8a:1f:92:56:bf:6d:f1:49:a4:e6:14:05:c0:d3:52:
                    2e:ed:d5:5f:94:72:3c:27:68:55:8c:c9:8f:e8:81:
                    ff:c8:5f:ee:87:a7:94:72:68:ee:11:63:4a:84:14:
                    c8:c1:38:85:db:3d:56:42:9c:df:1a:34:1d:f1:cc:
                    7a:89
                Exponent: 65537 (0x10001)
        X509v3 extensions:
            X509v3 Authority Key Identifier: 
                keyid:11:CD:8E:60:44:47:57:4F:4F:CB:E9:E7:CB:A1:46:DF:BA:0E:50:8B
                DirName:/C=JP/O=Japanese Government/OU=National Police Agency/OU=NPA ICDL Root CA
                serial:32:30:30:30:30:30:31:36
            X509v3 Subject Key Identifier: 
                F5:F0:DD:49:8F:67:65:8F:73:C7:06:54:82:54:46:7F:D8:D6:5A:91
            X509v3 Key Usage: critical
                Digital Signature, Non Repudiation
            X509v3 Certificate Policies: critical
                Policy: 1.2.392.100120.7.5.1.1.10
                  CPS: http://www.npa.go.jp/
            X509v3 Subject Alternative Name: 
                DirName:/C=JP/O=\xE6\x97\xA5\xE6\x9C\xAC\xE5\x9B\xBD\xE6\x94\xBF\xE5\xBA\x9C/OU=\xE8\xAD\xA6\xE5\xAF\x9F\xE5\xBA\x81/OU=\xE9\x83\xBD\xE9\x81\x93\xE5\xBA\x9C\xE7\x9C\x8C\xE5\x85\xAC\xE5\xAE\x89\xE5\xA7\x94\xE5\x93\xA1\xE4\xBC\x9A
            X509v3 Issuer Alternative Name: 
                DirName:/C=JP/O=\xE6\x97\xA5\xE6\x9C\xAC\xE5\x9B\xBD\xE6\x94\xBF\xE5\xBA\x9C/OU=\xE8\xAD\xA6\xE5\xAF\x9F\xE5\xBA\x81/OU=\xE8\xAD\xA6\xE5\xAF\x9F\xE5\xBA\x81\xE9\x81\x8B\xE8\xBB\xA2\xE5\x85\x8D\xE8\xA8\xB1\xE8\xA8\xBC\xE8\xAA\x8D\xE8\xA8\xBC\xE5\xB1\x80
            X509v3 CRL Distribution Points: 
                Full Name:
                  DirName:C = JP, O = Japanese Government, OU = National Police Agency, OU = Prefectural Public Safety Commissions for ICDL
    Signature Algorithm: sha256WithRSAEncryption
    Signature Value:
        23:f3:28:35:5c:e5:f5:0e:80:bd:d1:71:37:4e:27:6a:68:e7:
        f2:ed:a8:c4:2b:ea:1d:c1:e8:ff:33:17:de:35:ff:58:54:63:
        ee:b2:83:16:4d:64:e0:c4:9e:cc:1f:5c:23:14:ff:69:bb:17:
        6b:6c:c6:bb:8b:20:d5:f3:d7:81:60:45:b6:2b:f6:73:67:7d:
        d6:6f:f2:5c:f0:35:fb:23:fb:67:05:ec:ec:bd:e1:68:51:6d:
        38:be:54:59:47:32:d3:f4:36:fa:83:fd:18:4f:63:44:e2:f6:
        58:28:51:79:94:dc:72:99:5b:9f:6b:c4:8e:ae:2d:b3:ea:56:
        25:e1:6a:3d:e3:7b:f1:84:50:90:bc:b0:ae:e1:31:f3:6d:20:
        4b:ed:d0:68:32:79:8f:13:5d:a3:4a:51:8a:9c:ea:66:6b:20:
        34:b7:32:d8:ce:9e:39:14:7b:bb:70:78:ed:11:8c:55:73:ff:
        4e:a4:99:ed:e5:00:25:e1:2a:5c:67:13:b3:51:99:aa:09:a4:
        f8:46:fe:e9:c6:d8:60:c5:7b:57:f7:51:75:ac:56:06:b9:6e:
        38:97:1b:5e:07:af:4c:fa:a9:63:36:16:77:d4:0e:c7:c7:65:
        d3:07:30:5b:a8:6c:b7:7e:69:d8:06:fc:42:05:a3:a8:cb:b3:
        78:c9:e4:12
-----BEGIN CERTIFICATE-----
MIIGSjCCBTKgAwIBAgIIMzAwMDAwOTYwDQYJKoZIhvcNAQELBQAwZzELMAkGA1UE
BhMCSlAxHDAaBgNVBAoME0phcGFuZXNlIEdvdmVybm1lbnQxHzAdBgNVBAsMFk5h
dGlvbmFsIFBvbGljZSBBZ2VuY3kxGTAXBgNVBAsMEE5QQSBJQ0RMIFJvb3QgQ0Ew
HhcNMjQwOTE3MDcwNjM3WhcNMjkwOTE2MTQ1OTU5WjCBmzELMAkGA1UEBhMCSlAx
HDAaBgNVBAoME0phcGFuZXNlIEdvdmVybm1lbnQxHzAdBgNVBAsMFk5hdGlvbmFs
IFBvbGljZSBBZ2VuY3kxNzA1BgNVBAsMLlByZWZlY3R1cmFsIFB1YmxpYyBTYWZl
dHkgQ29tbWlzc2lvbnMgZm9yIElDREwxFDASBgNVBAMMC0tpdGFtaSBBUFNDMIIB
IjANBgkqhkiG9w0BAQEFAAOCAQ8AMIIBCgKCAQEAv6iRg6DdTKQooebt54Z2vzdn
8WzkrppVpBF2BvUcmRyfqlmUnhowWU4Ihifx/RQYoXtooOhOkhRyswD+hIZVeKFL
mMdd/AfaMvVwc1gHOocgTOUrP28F0xSjFJiqLHFXYrwgnYFpQtvM0YMnuYSs23WG
FBns5bWL1J/0O23Jy3Wo4hl6eYbTQUiNoWludN1/KZjiplHK1NM0dZhwXHiKYMX1
+xr9SK+M/ZIy53Lv9rrQIBKQfmE0+Z/XZ32EsDH6gimKH5JWv23xSaTmFAXA01Iu
7dVflHI8J2hVjMmP6IH/yF/uh6eUcmjuEWNKhBTIwTiF2z1WQpzfGjQd8cx6iQID
AQABo4ICwzCCAr8wgZgGA1UdIwSBkDCBjYAUEc2OYERHV09Py+nny6FG37oOUIuh
a6RpMGcxCzAJBgNVBAYTAkpQMRwwGgYDVQQKDBNKYXBhbmVzZSBHb3Zlcm5tZW50
MR8wHQYDVQQLDBZOYXRpb25hbCBQb2xpY2UgQWdlbmN5MRkwFwYDVQQLDBBOUEEg
SUNETCBSb290IENBgggyMDAwMDAxNjAdBgNVHQ4EFgQU9fDdSY9nZY9zxwZUglRG
f9jWWpEwDgYDVR0PAQH/BAQDAgbAMEAGA1UdIAEB/wQ2MDQwMgYLKoMIho4YBwUB
AQowIzAhBggrBgEFBQcCARYVaHR0cDovL3d3dy5ucGEuZ28uanAvMIGYBgNVHREE
gZAwgY2kgYowgYcxCzAJBgNVBAYTAkpQMRgwFgYDVQQKDA/ml6XmnKzlm73mlL/l
upwxEjAQBgNVBAsMCeitpuWvn+W6gTEkMCIGA1UECwwb6YO96YGT5bqc55yM5YWs
5a6J5aeU5ZOh5LyaMSQwIgYDVQQDDBvljJfopovmlrnpnaLlhazlronlp5Tlk6Hk
vJowdAYDVR0SBG0wa6RpMGcxCzAJBgNVBAYTAkpQMRgwFgYDVQQKDA/ml6XmnKzl
m73mlL/lupwxEjAQBgNVBAsMCeitpuWvn+W6gTEqMCgGA1UECwwh6K2m5a+f5bqB
6YGL6Lui5YWN6Kix6Ki86KqN6Ki85bGAMIGfBgNVHR8EgZcwgZQwgZGggY6ggYuk
gYgwgYUxCzAJBgNVBAYTAkpQMRwwGgYDVQQKDBNKYXBhbmVzZSBHb3Zlcm5tZW50
MR8wHQYDVQQLDBZOYXRpb25hbCBQb2xpY2UgQWdlbmN5MTcwNQYDVQQLDC5QcmVm
ZWN0dXJhbCBQdWJsaWMgU2FmZXR5IENvbW1pc3Npb25zIGZvciBJQ0RMMA0GCSqG
SIb3DQEBCwUAA4IBAQAj8yg1XOX1DoC90XE3TidqaOfy7ajEK+odwej/MxfeNf9Y
VGPusoMWTWTgxJ7MH1wjFP9puxdrbMa7iyDV89eBYEW2K/ZzZ33Wb/Jc8DX7I/tn
BezsveFoUW04vlRZRzLT9Db6g/0YT2NE4vZYKFF5lNxymVufa8SOri2z6lYl4Wo9
43vxhFCQvLCu4THzbSBL7dBoMnmPE12jSlGKnOpmayA0tzLYzp45FHu7cHjtEYxV
c/9OpJnt5QAl4SpcZxOzUZmqCaT4Rv7pxthgxXtX91F1rFYGuW44lxteB69M+qlj
NhZ31A7Hx2XTBzBbqGy3fmnYBvxCBaOoy7N4yeQS
-----END CERTIFICATE-----
