Certificate:
    Data:
        Version: 3 (0x2)
        Serial Number:
            33:30:30:30:30:30:37:36
        Signature Algorithm: sha256WithRSAEncryption
        Issuer: C=JP, O=Japanese Government, OU=National Police Agency, OU=NPA ICDL Root CA
        Validity
            Not Before: Feb  2 12:12:31 2024 GMT
            Not After : Feb  1 14:59:59 2029 GMT
        Subject: C=JP, O=Japanese Government, OU=National Police Agency, OU=Prefectural Public Safety Commissions for ICDL, CN=Kitami AltAPSC
        Subject Public Key Info:
            Public Key Algorithm: rsaEncryption
                Public-Key: (2048 bit)
                Modulus:
                    00:8b:22:a8:55:c2:39:55:3d:35:e6:4a:b0:b3:6d:
                    cc:d4:c7:b3:27:4a:70:d9:08:d4:86:37:46:31:63:
                    ff:76:ed:c7:ce:72:4a:00:fb:4e:f4:cb:93:46:b2:
                    9f:bc:87:70:82:76:5b:6e:82:3c:6f:de:99:f3:7a:
                    72:a7:d5:b2:04:52:29:ff:8e:21:e8:a6:2d:16:29:
                    88:93:af:ad:1a:71:54:ac:48:32:a7:63:b5:35:e3:
                    6e:8f:76:97:e5:1a:36:6a:77:6a:35:9d:73:80:99:
                    3a:3a:15:f5:55:b1:e1:84:88:9d:29:a4:c1:0a:33:
                    58:11:6d:c4:78:1c:82:b1:74:c6:50:95:b8:94:8d:
                    7c:5f:ab:13:97:2d:71:7b:0f:ab:22:0b:a4:ab:f9:
                    e5:1b:66:3c:fe:86:b0:bb:e1:e4:ff:1a:52:d0:f3:
                    e7:12:3e:35:e1:eb:cf:d5:02:5c:1e:e8:a5:53:18:
                    95:45:f6:26:ad:18:df:b8:2e:18:2f:cd:1b:91:4d:
                    5d:f7:5b:56:49:a5:3c:6c:6d:54:07:e0:52:54:81:
                    c1:c3:85:b8:a0:99:1f:da:77:5f:8e:1e:10:b2:4a:
                    67:23:44:9a:e3:2c:6e:ce:67:61:99:fb:44:50:8f:
                    d7:cd:f7:b3:5d:ca:75:45:bb:8d:9d:d3:f2:a5:11:
                    8a:eb
                Exponent: 65537 (0x10001)
        X509v3 extensions:
            X509v3 Authority Key Identifier: 
                keyid:11:CD:8E:60:44:47:57:4F:4F:CB:E9:E7:CB:A1:46:DF:BA:0E:50:8B
                DirName:/C=JP/O=Japanese Government/OU=National Police Agency/OU=NPA ICDL Root CA
                serial:32:30:30:30:30:30:31:36
            X509v3 Subject Key Identifier: 
                3E:67:C9:7F:40:46:EB:8E:FA:12:8A:F3:F0:54:22:8B:BD:1F:8B:3C
            X509v3 Key Usage: critical
                Digital Signature, Non Repudiation
            X509v3 Certificate Policies: critical
                Policy: 1.2.392.100120.7.5.1.1.10
                  CPS: http://www.npa.go.jp/
            X509v3 Issuer Alternative Name: 
                DirName:/C=JP/O=\xE6\x97\xA5\xE6\x9C\xAC\xE5\x9B\xBD\xE6\x94\xBF\xE5\xBA\x9C/OU=\xE8\xAD\xA6\xE5\xAF\x9F\xE5\xBA\x81/OU=\xE8\xAD\xA6\xE5\xAF\x9F\xE5\xBA\x81\xE9\x81\x8B\xE8\xBB\xA2\xE5\x85\x8D\xE8\xA8\xB1\xE8\xA8\xBC\xE8\xAA\x8D\xE8\xA8\xBC\xE5\xB1\x80
            X509v3 CRL Distribution Points: 
                Full Name:
                  DirName:C = JP, O = Japanese Government, OU = National Police Agency, OU = Prefectural Public Safety Commissions for ICDL
    Signature Algorithm: sha256WithRSAEncryption
    Signature Value:
        81:e6:40:d4:fb:d0:2a:a3:ea:84:02:4d:80:e7:ad:b7:05:f4:
        98:95:fc:1d:4b:91:93:4a:89:5c:fa:3f:9d:d3:a7:39:e0:06:
        c2:ca:da:44:c6:c3:f6:ee:f1:78:ae:f7:fd:dd:4c:7f:1d:47:
        6c:5b:b6:bc:11:33:cc:ac:87:10:d5:6f:fe:ee:2d:14:3d:72:
        2c:35:04:ef:b7:fc:0f:d0:10:72:93:a3:a2:bd:5f:79:3e:48:
        72:2e:9b:b8:f0:d3:c2:b6:85:45:47:af:bd:0b:09:c0:f4:07:
        ce:60:c1:42:c2:9d:d6:1d:cc:73:e5:76:1f:62:5c:1e:13:0b:
        af:34:de:79:e8:1f:d5:12:42:23:07:83:b8:0d:b2:b8:02:5d:
        1c:31:38:64:e8:99:fa:36:3d:3f:56:f9:72:20:65:fb:2e:27:
        55:1d:65:34:74:4f:c4:85:fd:7a:52:f2:bb:8a:a1:9b:ba:3d:
        f3:f6:8c:43:c6:84:57:ae:9a:a7:75:fe:8e:3f:26:b3:10:48:
        31:df:52:7f:2c:d9:83:b9:28:2e:32:14:c2:d1:cb:76:3b:bb:
        0f:b6:f0:88:a9:7e:cf:07:7b:6a:5e:15:05:75:3d:72:92:6e:
        7a:62:1b:82:51:33:58:1e:da:ae:b7:4b:0d:f3:b4:43:a9:c8:
        0d:a1:03:e4
-----BEGIN CERTIFICATE-----
MIIFsjCCBJqgAwIBAgIIMzAwMDAwNzYwDQYJKoZIhvcNAQELBQAwZzELMAkGA1UE
BhMCSlAxHDAaBgNVBAoME0phcGFuZXNlIEdvdmVybm1lbnQxHzAdBgNVBAsMFk5h
dGlvbmFsIFBvbGljZSBBZ2VuY3kxGTAXBgNVBAsMEE5QQSBJQ0RMIFJvb3QgQ0Ew
HhcNMjQwMjAyMTIxMjMxWhcNMjkwMjAxMTQ1OTU5WjCBnjELMAkGA1UEBhMCSlAx
HDAaBgNVBAoME0phcGFuZXNlIEdvdmVybm1lbnQxHzAdBgNVBAsMFk5hdGlvbmFs
IFBvbGljZSBBZ2VuY3kxNzA1BgNVBAsMLlByZWZlY3R1cmFsIFB1YmxpYyBTYWZl
dHkgQ29tbWlzc2lvbnMgZm9yIElDREwxFzAVBgNVBAMMDktpdGFtaSBBbHRBUFND
MIIBIjANBgkqhkiG9w0BAQEFAAOCAQ8AMIIBCgKCAQEAiyKoVcI5VT015kqws23M
1MezJ0pw2QjUhjdGMWP/du3HznJKAPtO9MuTRrKfvIdwgnZbboI8b96Z83pyp9Wy
BFIp/44h6KYtFimIk6+tGnFUrEgyp2O1NeNuj3aX5Ro2andqNZ1zgJk6OhX1VbHh
hIidKaTBCjNYEW3EeByCsXTGUJW4lI18X6sTly1xew+rIgukq/nlG2Y8/oawu+Hk
/xpS0PPnEj414evP1QJcHuilUxiVRfYmrRjfuC4YL80bkU1d91tWSaU8bG1UB+BS
VIHBw4W4oJkf2ndfjh4QskpnI0Sa4yxuzmdhmftEUI/XzfezXcp1RbuNndPypRGK
6wIDAQABo4ICKDCCAiQwgZgGA1UdIwSBkDCBjYAUEc2OYERHV09Py+nny6FG37oO
UIuha6RpMGcxCzAJBgNVBAYTAkpQMRwwGgYDVQQKDBNKYXBhbmVzZSBHb3Zlcm5t
ZW50MR8wHQYDVQQLDBZOYXRpb25hbCBQb2xpY2UgQWdlbmN5MRkwFwYDVQQLDBBO
UEEgSUNETCBSb290IENBgggyMDAwMDAxNjAdBgNVHQ4EFgQUPmfJf0BG6476Eorz
8FQii70fizwwDgYDVR0PAQH/BAQDAgbAMEAGA1UdIAEB/wQ2MDQwMgYLKoMIho4Y
BwUBAQowIzAhBggrBgEFBQcCARYVaHR0cDovL3d3dy5ucGEuZ28uanAvMHQGA1Ud
EgRtMGukaTBnMQswCQYDVQQGEwJKUDEYMBYGA1UECgwP5pel5pys5Zu95pS/5bqc
MRIwEAYDVQQLDAnorablr5/luoExKjAoBgNVBAsMIeitpuWvn+W6gemBi+i7ouWF
jeioseiovOiqjeiovOWxgDCBnwYDVR0fBIGXMIGUMIGRoIGOoIGLpIGIMIGFMQsw
CQYDVQQGEwJKUDEcMBoGA1UECgwTSmFwYW5lc2UgR292ZXJubWVudDEfMB0GA1UE
CwwWTmF0aW9uYWwgUG9saWNlIEFnZW5jeTE3MDUGA1UECwwuUHJlZmVjdHVyYWwg
UHVibGljIFNhZmV0eSBDb21taXNzaW9ucyBmb3IgSUNETDANBgkqhkiG9w0BAQsF
AAOCAQEAgeZA1PvQKqPqhAJNgOettwX0mJX8HUuRk0qJXPo/ndOnOeAGwsraRMbD
9u7xeK73/d1Mfx1HbFu2vBEzzKyHENVv/u4tFD1yLDUE77f8D9AQcpOjor1feT5I
ci6buPDTwraFRUevvQsJwPQHzmDBQsKd1h3Mc+V2H2JcHhMLrzTeeegf1RJCIweD
uA2yuAJdHDE4ZOiZ+jY9P1b5ciBl+y4nVR1lNHRPxIX9elLyu4qhm7o98/aMQ8aE
V66ap3X+jj8msxBIMd9SfyzZg7koLjIUwtHLdju7D7bwiKl+zwd7al4VBXU9cpJu
emIbglEzWB7arrdLDfO0Q6nIDaED5A==
-----END CERTIFICATE-----
