Certificate:
    Data:
        Version: 3 (0x2)
        Serial Number:
            32:30:30:30:30:30:33:39
        Signature Algorithm: sha256WithRSAEncryption
        Issuer: C=JP, O=Japanese Government, OU=National Police Agency, OU=NPA ICDL Root CA
        Validity
            Not Before: Feb  6 01:28:35 2023 GMT
            Not After : Feb  5 14:59:59 2028 GMT
        Subject: C=JP, O=Japanese Government, OU=National Police Agency, OU=Prefectural Public Safety Commissions for ICDL, CN=Kitami APSC
        Subject Public Key Info:
            Public Key Algorithm: rsaEncryption
                Public-Key: (2048 bit)
                Modulus:
                    00:c0:28:20:c9:c5:a0:6c:2b:5a:71:b7:38:b3:12:
                    a1:e3:75:a3:e3:8f:1c:a8:7b:f5:4a:a1:9b:0a:51:
                    f9:e1:58:f5:e9:aa:06:60:2d:c4:26:59:73:a3:62:
                    ee:2b:5c:70:e5:9d:7c:59:32:6f:b3:88:1d:22:51:
                    05:11:f2:dc:92:30:de:14:ab:e8:4b:80:29:0e:07:
                    9b:10:96:bb:b1:f4:38:cc:da:44:24:e1:34:03:a3:
                    f9:67:a0:9e:df:2e:33:85:f9:8e:6b:f0:c5:c1:45:
                    9b:89:ab:f4:71:d8:1d:5e:ce:9f:90:f9:7a:d4:5c:
                    3f:09:10:47:8e:ce:f2:0e:2a:07:a4:1d:96:1d:f0:
                    d7:2f:87:a6:35:fc:6c:6d:98:1d:98:4d:ab:57:3b:
                    88:ab:2e:53:a0:3d:a6:ac:ea:dd:b9:3c:50:60:95:
                    0c:20:8a:5e:f3:e7:8b:53:f9:96:5a:d7:9f:a2:11:
                    d4:48:23:de:dc:f9:97:88:25:56:e0:29:64:6c:c7:
                    1f:1e:84:de:f8:7a:61:07:40:95:4b:a7:8b:6c:01:
                    e4:d8:14:22:b6:07:aa:5f:73:2b:5d:29:fe:c8:99:
                    9f:07:85:94:27:50:fe:ea:59:17:31:fb:c2:a3:d3:
                    83:56:71:00:db:71:ab:4d:9e:1d:6d:37:a7:d7:2a:
                    e3:57
                Exponent: 65537 (0x10001)
        X509v3 extensions:
            X509v3 Authority Key Identifier: 
                keyid:11:CD:8E:60:44:47:57:4F:4F:CB:E9:E7:CB:A1:46:DF:BA:0E:50:8B
                DirName:/C=JP/O=Japanese Government/OU=National Police Agency/OU=NPA ICDL Root CA
                serial:32:30:30:30:30:30:31:36
            X509v3 Subject Key Identifier: 
                48:7F:54:98:46:39:D5:09:FC:AA:4B:8C:5C:B3:7F:66:81:1A:97:E0
            X509v3 Key Usage: critical
                Digital Signature, Non Repudiation
            X509v3 Certificate Policies: critical
                Policy: 1.2.392.100120.7.5.1.1.10
                  CPS: http://www.npa.go.jp/
            X509v3 Subject Alternative Name: 
                DirName:/C=JP/O=\xE6\x97\xA5\xE6\x9C\xAC\xE5\x9B\xBD\xE6\x94\xBF\xE5\xBA\x9C/OU=\xE8\xAD\xA6\xE5\xAF\x9F\xE5\xBA\x81/OU=\xE9\x83\xBD\xE9\x81\x93\xE5\xBA\x9C\xE7\x9C\x8C\xE5\x85\xAC\xE5\xAE\x89\xE5\xA7\x94\xE5\x93\xA1\xE4\xBC\x9A
            X509v3 Issuer Alternative Name: 
                DirName:/C=JP/O=\xE6\x97\xA5\xE6\x9C\xAC\xE5\x9B\xBD\xE6\x94\xBF\xE5\xBA\x9C/OU=\xE8\xAD\xA6\xE5\xAF\x9F\xE5\xBA\x81/OU=\xE8\xAD\xA6\xE5\xAF\x9F\xE5\xBA\x81\xE9\x81\x8B\xE8\xBB\xA2\xE5\x85\x8D\xE8\xA8\xB1\xE8\xA8\xBC\xE8\xAA\x8D\xE8\xA8\xBC\xE5\xB1\x80
            X509v3 CRL Distribution Points: 
                Full Name:
                  DirName:C = JP, O = Japanese Government, OU = National Police Agency, OU = Prefectural Public Safety Commissions for ICDL
    Signature Algorithm: sha256WithRSAEncryption
    Signature Value:
        17:1f:14:ac:b8:0d:5b:34:6e:fd:6e:07:1a:a2:67:08:5c:0f:
        93:0b:30:d6:ed:5f:0c:1c:3c:a8:b2:fa:7f:4d:2d:02:f2:d6:
        11:6d:53:51:a3:71:41:1b:be:a5:c6:9e:71:c2:b2:10:0e:0e:
        f7:be:6e:5a:bc:b5:64:a5:50:82:d0:6d:fa:e7:e9:e8:cc:f2:
        51:41:03:df:26:c1:29:ca:9d:d2:4f:af:68:66:49:c1:b5:c2:
        72:59:0d:a1:ea:08:fb:ac:e0:a7:54:8c:4c:53:b4:b1:5a:01:
        9c:d8:57:a2:bb:8b:88:e0:af:68:32:7c:05:8f:3c:e0:3c:ea:
        d3:86:3e:34:f1:e4:d7:23:8a:02:b1:33:de:e8:06:9b:01:f3:
        55:03:03:0d:76:25:14:3d:b4:13:ff:8d:b0:4a:bb:f4:ba:b9:
        d4:7d:e4:13:32:83:04:de:1e:c4:c0:5a:70:de:89:ed:14:4b:
        8f:f8:09:35:9f:a8:4c:b6:81:33:c0:8d:83:bd:dc:74:a7:28:
        07:30:f0:ef:54:37:90:6d:59:46:1e:da:6e:21:1c:e1:13:d4:
        ca:de:f9:44:1e:e0:56:d7:c0:c9:2d:18:47:78:ea:42:54:29:
        a5:ab:d9:aa:d9:dd:24:bf:ef:d1:71:1b:ec:e6:64:d3:52:ee:
        7b:c9:a2:0d
-----BEGIN CERTIFICATE-----
MIIGSjCCBTKgAwIBAgIIMjAwMDAwMzkwDQYJKoZIhvcNAQELBQAwZzELMAkGA1UE
BhMCSlAxHDAaBgNVBAoME0phcGFuZXNlIEdvdmVybm1lbnQxHzAdBgNVBAsMFk5h
dGlvbmFsIFBvbGljZSBBZ2VuY3kxGTAXBgNVBAsMEE5QQSBJQ0RMIFJvb3QgQ0Ew
HhcNMjMwMjA2MDEyODM1WhcNMjgwMjA1MTQ1OTU5WjCBmzELMAkGA1UEBhMCSlAx
HDAaBgNVBAoME0phcGFuZXNlIEdvdmVybm1lbnQxHzAdBgNVBAsMFk5hdGlvbmFs
IFBvbGljZSBBZ2VuY3kxNzA1BgNVBAsMLlByZWZlY3R1cmFsIFB1YmxpYyBTYWZl
dHkgQ29tbWlzc2lvbnMgZm9yIElDREwxFDASBgNVBAMMC0tpdGFtaSBBUFNDMIIB
IjANBgkqhkiG9w0BAQEFAAOCAQ8AMIIBCgKCAQEAwCggycWgbCtacbc4sxKh43Wj
448cqHv1SqGbClH54Vj16aoGYC3EJllzo2LuK1xw5Z18WTJvs4gdIlEFEfLckjDe
FKvoS4ApDgebEJa7sfQ4zNpEJOE0A6P5Z6Ce3y4zhfmOa/DFwUWbiav0cdgdXs6f
kPl61Fw/CRBHjs7yDioHpB2WHfDXL4emNfxsbZgdmE2rVzuIqy5ToD2mrOrduTxQ
YJUMIIpe8+eLU/mWWtefohHUSCPe3PmXiCVW4ClkbMcfHoTe+HphB0CVS6eLbAHk
2BQitgeqX3MrXSn+yJmfB4WUJ1D+6lkXMfvCo9ODVnEA23GrTZ4dbTen1yrjVwID
AQABo4ICwzCCAr8wgZgGA1UdIwSBkDCBjYAUEc2OYERHV09Py+nny6FG37oOUIuh
a6RpMGcxCzAJBgNVBAYTAkpQMRwwGgYDVQQKDBNKYXBhbmVzZSBHb3Zlcm5tZW50
MR8wHQYDVQQLDBZOYXRpb25hbCBQb2xpY2UgQWdlbmN5MRkwFwYDVQQLDBBOUEEg
SUNETCBSb290IENBgggyMDAwMDAxNjAdBgNVHQ4EFgQUSH9UmEY51Qn8qkuMXLN/
ZoEal+AwDgYDVR0PAQH/BAQDAgbAMEAGA1UdIAEB/wQ2MDQwMgYLKoMIho4YBwUB
AQowIzAhBggrBgEFBQcCARYVaHR0cDovL3d3dy5ucGEuZ28uanAvMIGYBgNVHREE
gZAwgY2kgYowgYcxCzAJBgNVBAYTAkpQMRgwFgYDVQQKDA/ml6XmnKzlm73mlL/l
upwxEjAQBgNVBAsMCeitpuWvn+W6gTEkMCIGA1UECwwb6YO96YGT5bqc55yM5YWs
5a6J5aeU5ZOh5LyaMSQwIgYDVQQDDBvljJfopovmlrnpnaLlhazlronlp5Tlk6Hk
vJowdAYDVR0SBG0wa6RpMGcxCzAJBgNVBAYTAkpQMRgwFgYDVQQKDA/ml6XmnKzl
m73mlL/lupwxEjAQBgNVBAsMCeitpuWvn+W6gTEqMCgGA1UECwwh6K2m5a+f5bqB
6YGL6Lui5YWN6Kix6Ki86KqN6Ki85bGAMIGfBgNVHR8EgZcwgZQwgZGggY6ggYuk
gYgwgYUxCzAJBgNVBAYTAkpQMRwwGgYDVQQKDBNKYXBhbmVzZSBHb3Zlcm5tZW50
MR8wHQYDVQQLDBZOYXRpb25hbCBQb2xpY2UgQWdlbmN5MTcwNQYDVQQLDC5QcmVm
ZWN0dXJhbCBQdWJsaWMgU2FmZXR5IENvbW1pc3Npb25zIGZvciBJQ0RMMA0GCSqG
SIb3DQEBCwUAA4IBAQAXHxSsuA1bNG79bgcaomcIXA+TCzDW7V8MHDyosvp/TS0C
8tYRbVNRo3FBG76lxp5xwrIQDg73vm5avLVkpVCC0G365+nozPJRQQPfJsEpyp3S
T69oZknBtcJyWQ2h6gj7rOCnVIxMU7SxWgGc2Feiu4uI4K9oMnwFjzzgPOrThj40
8eTXI4oCsTPe6AabAfNVAwMNdiUUPbQT/42wSrv0urnUfeQTMoME3h7EwFpw3ont
FEuP+Ak1n6hMtoEzwI2Dvdx0pygHMPDvVDeQbVlGHtpuIRzhE9TK3vlEHuBW18DJ
LRhHeOpCVCmlq9mq2d0kv+/RcRvs5mTTUu57yaIN
-----END CERTIFICATE-----
