Certificate:
    Data:
        Version: 3 (0x2)
        Serial Number:
            32:30:30:30:30:30:37:33
        Signature Algorithm: sha256WithRSAEncryption
        Issuer: C=JP, O=Japanese Government, OU=National Police Agency, OU=NPA ICDL Root CA
        Validity
            Not Before: Feb  6 04:30:51 2023 GMT
            Not After : Feb  5 14:59:59 2028 GMT
        Subject: C=JP, O=Japanese Government, OU=National Police Agency, OU=Prefectural Public Safety Commissions for ICDL, CN=Kochi PPSC
        Subject Public Key Info:
            Public Key Algorithm: rsaEncryption
                Public-Key: (2048 bit)
                Modulus:
                    00:d2:bc:fb:cf:e1:bd:88:21:07:b1:df:9c:6f:ec:
                    30:23:e8:d7:a9:cb:61:72:18:e2:26:7c:cc:93:68:
                    dc:b4:90:c7:72:80:61:8d:29:3e:c6:a7:e6:3b:9d:
                    79:17:f7:09:11:61:b1:c7:ba:ea:0d:4a:eb:88:87:
                    cf:95:72:8f:be:ec:14:b4:92:7c:35:00:b8:58:72:
                    53:f5:af:61:81:a5:24:be:d5:4a:92:37:9a:ec:32:
                    e9:95:d2:7c:c0:d5:52:1b:18:6f:93:24:5f:9b:7b:
                    53:ae:f9:33:c9:cd:3f:98:2c:0f:3e:8f:42:e2:af:
                    55:20:f2:3d:d0:9f:43:24:37:70:e7:10:fd:20:02:
                    2c:04:99:2f:f1:62:2e:4b:35:16:6e:64:6a:e4:7a:
                    e7:7f:42:16:cf:51:ab:d3:42:19:7a:c8:92:22:82:
                    e9:56:4b:70:a2:20:d7:3e:85:d3:20:99:9f:d9:4b:
                    e2:5b:a3:90:9e:f6:d7:4b:fb:a0:1d:45:c6:86:5a:
                    f5:eb:b5:c6:21:92:a9:63:f9:c6:3c:d0:b4:e5:b8:
                    c4:b5:be:84:1f:d8:a4:48:1d:8a:f0:2f:f9:1d:bf:
                    28:ee:b1:3b:f6:42:2f:c7:8d:6b:e8:4b:e8:c0:72:
                    e9:61:b1:f4:7c:68:c5:d9:79:b5:ab:8f:27:b8:bd:
                    95:59
                Exponent: 65537 (0x10001)
        X509v3 extensions:
            X509v3 Authority Key Identifier: 
                keyid:11:CD:8E:60:44:47:57:4F:4F:CB:E9:E7:CB:A1:46:DF:BA:0E:50:8B
                DirName:/C=JP/O=Japanese Government/OU=National Police Agency/OU=NPA ICDL Root CA
                serial:32:30:30:30:30:30:31:36
            X509v3 Subject Key Identifier: 
                F2:9B:DC:1F:78:82:DD:13:00:87:6D:B1:5C:FC:51:61:BE:7F:C2:75
            X509v3 Key Usage: critical
                Digital Signature, Non Repudiation
            X509v3 Certificate Policies: critical
                Policy: 1.2.392.100120.7.5.1.1.10
                  CPS: http://www.npa.go.jp/
            X509v3 Subject Alternative Name: 
                DirName:/C=JP/O=\xE6\x97\xA5\xE6\x9C\xAC\xE5\x9B\xBD\xE6\x94\xBF\xE5\xBA\x9C/OU=\xE8\xAD\xA6\xE5\xAF\x9F\xE5\xBA\x81/OU=\xE9\x83\xBD\xE9\x81\x93\xE5\xBA\x9C\xE7\x9C\x8C\xE5\x85\xAC\xE5\xAE\x89\xE5\xA7\x94\xE5\x93\xA1\xE4\xBC\x9A
            X509v3 Issuer Alternative Name: 
                DirName:/C=JP/O=\xE6\x97\xA5\xE6\x9C\xAC\xE5\x9B\xBD\xE6\x94\xBF\xE5\xBA\x9C/OU=\xE8\xAD\xA6\xE5\xAF\x9F\xE5\xBA\x81/OU=\xE8\xAD\xA6\xE5\xAF\x9F\xE5\xBA\x81\xE9\x81\x8B\xE8\xBB\xA2\xE5\x85\x8D\xE8\xA8\xB1\xE8\xA8\xBC\xE8\xAA\x8D\xE8\xA8\xBC\xE5\xB1\x80
            X509v3 CRL Distribution Points: 
                Full Name:
                  DirName:C = JP, O = Japanese Government, OU = National Police Agency, OU = Prefectural Public Safety Commissions for ICDL
    Signature Algorithm: sha256WithRSAEncryption
    Signature Value:
        6f:05:05:05:3c:9e:2b:f0:41:db:d7:c8:ac:10:3c:73:69:0b:
        f4:e3:73:23:70:32:91:c3:9c:4f:76:e8:33:92:4a:23:2d:0f:
        23:fd:d3:3b:89:b5:2f:48:fa:cb:c3:af:3b:ff:a5:13:83:2f:
        88:14:ba:8f:f9:bf:96:ca:c1:50:3e:75:3e:22:89:71:65:d4:
        97:a0:28:db:09:50:84:2a:31:3c:eb:14:49:30:0a:ef:ca:7f:
        5d:90:b2:5d:82:e3:09:43:24:77:7a:ad:7a:66:72:6f:42:b0:
        42:f2:0b:05:21:60:a7:05:3e:dc:25:b6:99:fc:b0:72:75:e9:
        5a:0c:3f:e6:be:61:f2:af:81:fe:73:ff:cb:3b:eb:47:66:8e:
        d9:fd:04:43:aa:76:81:6e:6c:62:b3:5a:21:28:25:81:56:6a:
        d8:98:a9:ae:5b:f9:a1:b2:8c:a4:72:6b:fb:69:35:6b:d9:a7:
        63:01:18:f6:9f:65:ad:f7:73:74:00:4b:d5:b7:08:c9:29:d8:
        16:53:a4:d3:bb:36:be:52:a2:fe:9b:2d:5d:39:7d:34:e8:37:
        4a:2f:60:d4:b0:13:9a:bb:f6:e6:8e:5b:f7:69:a8:67:58:df:
        d8:14:bf:ff:77:77:a7:05:e7:c6:80:27:a8:77:7e:56:4d:68:
        95:81:d4:31
-----BEGIN CERTIFICATE-----
MIIGRjCCBS6gAwIBAgIIMjAwMDAwNzMwDQYJKoZIhvcNAQELBQAwZzELMAkGA1UE
BhMCSlAxHDAaBgNVBAoME0phcGFuZXNlIEdvdmVybm1lbnQxHzAdBgNVBAsMFk5h
dGlvbmFsIFBvbGljZSBBZ2VuY3kxGTAXBgNVBAsMEE5QQSBJQ0RMIFJvb3QgQ0Ew
HhcNMjMwMjA2MDQzMDUxWhcNMjgwMjA1MTQ1OTU5WjCBmjELMAkGA1UEBhMCSlAx
HDAaBgNVBAoME0phcGFuZXNlIEdvdmVybm1lbnQxHzAdBgNVBAsMFk5hdGlvbmFs
IFBvbGljZSBBZ2VuY3kxNzA1BgNVBAsMLlByZWZlY3R1cmFsIFB1YmxpYyBTYWZl
dHkgQ29tbWlzc2lvbnMgZm9yIElDREwxEzARBgNVBAMMCktvY2hpIFBQU0MwggEi
MA0GCSqGSIb3DQEBAQUAA4IBDwAwggEKAoIBAQDSvPvP4b2IIQex35xv7DAj6Nep
y2FyGOImfMyTaNy0kMdygGGNKT7Gp+Y7nXkX9wkRYbHHuuoNSuuIh8+Vco++7BS0
knw1ALhYclP1r2GBpSS+1UqSN5rsMumV0nzA1VIbGG+TJF+be1Ou+TPJzT+YLA8+
j0Lir1Ug8j3Qn0MkN3DnEP0gAiwEmS/xYi5LNRZuZGrkeud/QhbPUavTQhl6yJIi
gulWS3CiINc+hdMgmZ/ZS+Jbo5Ce9tdL+6AdRcaGWvXrtcYhkqlj+cY80LTluMS1
voQf2KRIHYrwL/kdvyjusTv2Qi/HjWvoS+jAculhsfR8aMXZebWrjye4vZVZAgMB
AAGjggLAMIICvDCBmAYDVR0jBIGQMIGNgBQRzY5gREdXT0/L6efLoUbfug5Qi6Fr
pGkwZzELMAkGA1UEBhMCSlAxHDAaBgNVBAoME0phcGFuZXNlIEdvdmVybm1lbnQx
HzAdBgNVBAsMFk5hdGlvbmFsIFBvbGljZSBBZ2VuY3kxGTAXBgNVBAsMEE5QQSBJ
Q0RMIFJvb3QgQ0GCCDIwMDAwMDE2MB0GA1UdDgQWBBTym9wfeILdEwCHbbFc/FFh
vn/CdTAOBgNVHQ8BAf8EBAMCBsAwQAYDVR0gAQH/BDYwNDAyBgsqgwiGjhgHBQEB
CjAjMCEGCCsGAQUFBwIBFhVodHRwOi8vd3d3Lm5wYS5nby5qcC8wgZUGA1UdEQSB
jTCBiqSBhzCBhDELMAkGA1UEBhMCSlAxGDAWBgNVBAoMD+aXpeacrOWbveaUv+W6
nDESMBAGA1UECwwJ6K2m5a+f5bqBMSQwIgYDVQQLDBvpg73pgZPlupznnIzlhazl
ronlp5Tlk6HkvJoxITAfBgNVBAMMGOmrmOefpeecjOWFrOWuieWnlOWToeS8mjB0
BgNVHRIEbTBrpGkwZzELMAkGA1UEBhMCSlAxGDAWBgNVBAoMD+aXpeacrOWbveaU
v+W6nDESMBAGA1UECwwJ6K2m5a+f5bqBMSowKAYDVQQLDCHorablr5/luoHpgYvo
u6LlhY3oqLHoqLzoqo3oqLzlsYAwgZ8GA1UdHwSBlzCBlDCBkaCBjqCBi6SBiDCB
hTELMAkGA1UEBhMCSlAxHDAaBgNVBAoME0phcGFuZXNlIEdvdmVybm1lbnQxHzAd
BgNVBAsMFk5hdGlvbmFsIFBvbGljZSBBZ2VuY3kxNzA1BgNVBAsMLlByZWZlY3R1
cmFsIFB1YmxpYyBTYWZldHkgQ29tbWlzc2lvbnMgZm9yIElDREwwDQYJKoZIhvcN
AQELBQADggEBAG8FBQU8nivwQdvXyKwQPHNpC/TjcyNwMpHDnE926DOSSiMtDyP9
0zuJtS9I+svDrzv/pRODL4gUuo/5v5bKwVA+dT4iiXFl1JegKNsJUIQqMTzrFEkw
Cu/Kf12Qsl2C4wlDJHd6rXpmcm9CsELyCwUhYKcFPtwltpn8sHJ16VoMP+a+YfKv
gf5z/8s760dmjtn9BEOqdoFubGKzWiEoJYFWatiYqa5b+aGyjKRya/tpNWvZp2MB
GPafZa33c3QAS9W3CMkp2BZTpNO7Nr5Sov6bLV05fTToN0ovYNSwE5q79uaOW/dp
qGdY39gUv/93d6cF58aAJ6h3flZNaJWB1DE=
-----END CERTIFICATE-----
