Certificate:
    Data:
        Version: 3 (0x2)
        Serial Number:
            33:30:30:30:30:30:34:38:97:1c:42:d4:9d:e9:a4:80:ff:52
        Signature Algorithm: sha256WithRSAEncryption
        Issuer: C=JP, O=Japanese Government, OU=National Police Agency, OU=NPA ICDL Root CA
        Validity
            Not Before: Jun 19 06:15:14 2023 GMT
            Not After : Jun 18 14:59:59 2028 GMT
        Subject: C=JP, O=Japanese Government, OU=National Police Agency, OU=Prefectural Public Safety Commissions for ICDL, CN=Kochi AltPPSC
        Subject Public Key Info:
            Public Key Algorithm: rsaEncryption
                Public-Key: (2048 bit)
                Modulus:
                    00:a2:6d:db:e0:e2:95:7d:23:eb:59:20:45:38:a4:
                    45:56:28:5a:bc:61:15:06:c9:84:1a:42:f3:be:6b:
                    93:cb:de:8e:35:e7:21:07:d5:36:f3:f1:76:76:d2:
                    49:d5:f7:1d:b1:94:4e:ec:7d:fc:8b:fc:99:1d:70:
                    09:04:8d:ad:92:34:7f:2f:fe:0f:2c:8b:e8:18:c8:
                    da:f5:9d:78:9d:27:eb:07:45:ac:4a:1f:22:d0:98:
                    1a:90:6f:99:ef:3c:86:28:a8:27:d7:c9:12:21:dd:
                    d9:6f:77:cd:de:3b:17:33:11:00:65:85:61:ea:b0:
                    02:18:2f:43:8e:31:36:0e:38:d3:d6:58:8f:62:ee:
                    8c:5f:42:41:17:9e:8a:28:23:c7:99:b4:ab:fd:d3:
                    67:d1:58:b8:b3:f3:9f:26:a2:36:7a:f6:8c:0b:83:
                    85:86:6a:d9:38:e3:f3:b3:46:c3:d2:b1:38:57:23:
                    be:ab:75:cc:da:09:44:a6:da:39:26:8d:d7:5e:10:
                    b4:96:c8:57:62:6b:38:f2:f9:cc:8f:b6:9c:90:2a:
                    61:6b:dc:3d:59:53:5b:b8:f2:5b:15:ab:23:90:2b:
                    4e:0f:48:b6:ed:06:bb:b2:34:ee:31:41:b1:95:2a:
                    32:c5:7a:bb:0f:95:bf:0d:90:a1:7e:54:e4:0e:34:
                    10:cf
                Exponent: 65537 (0x10001)
        X509v3 extensions:
            X509v3 Authority Key Identifier: 
                keyid:11:CD:8E:60:44:47:57:4F:4F:CB:E9:E7:CB:A1:46:DF:BA:0E:50:8B
                DirName:/C=JP/O=Japanese Government/OU=National Police Agency/OU=NPA ICDL Root CA
                serial:32:30:30:30:30:30:31:36
            X509v3 Subject Key Identifier: 
                8B:D7:DC:FF:34:8D:74:D4:11:77:39:47:7C:9D:87:DE:E5:A9:89:97
            X509v3 Key Usage: critical
                Digital Signature, Non Repudiation
            X509v3 Certificate Policies: critical
                Policy: 1.2.392.100120.7.5.1.1.10
                  CPS: http://www.npa.go.jp/
            X509v3 Issuer Alternative Name: 
                DirName:/C=JP/O=\xE6\x97\xA5\xE6\x9C\xAC\xE5\x9B\xBD\xE6\x94\xBF\xE5\xBA\x9C/OU=\xE8\xAD\xA6\xE5\xAF\x9F\xE5\xBA\x81/OU=\xE8\xAD\xA6\xE5\xAF\x9F\xE5\xBA\x81\xE9\x81\x8B\xE8\xBB\xA2\xE5\x85\x8D\xE8\xA8\xB1\xE8\xA8\xBC\xE8\xAA\x8D\xE8\xA8\xBC\xE5\xB1\x80
            X509v3 CRL Distribution Points: 
                Full Name:
                  DirName:C = JP, O = Japanese Government, OU = National Police Agency, OU = Prefectural Public Safety Commissions for ICDL
    Signature Algorithm: sha256WithRSAEncryption
    Signature Value:
        65:98:8f:08:e7:87:d7:fb:83:4a:c7:b9:ad:d1:88:68:b4:33:
        69:41:a3:7f:b6:15:94:8c:35:24:20:fa:28:4c:72:70:76:64:
        18:24:0c:20:28:09:54:10:f6:05:4f:81:64:77:6a:37:54:bb:
        c6:e8:1d:1b:d0:ce:11:1e:1a:50:6d:17:14:bc:2f:58:b5:06:
        70:ec:fa:c8:52:63:02:44:23:92:a0:29:dd:2b:22:4c:49:5c:
        32:c7:34:fc:44:ae:fe:d6:cd:70:fb:97:5e:dc:90:dd:db:59:
        2e:12:c2:c4:fd:7c:f0:3a:a5:eb:40:b6:83:8b:35:8a:9c:9a:
        83:58:ff:42:19:ef:1f:59:2e:55:5c:7e:c8:34:ab:15:98:8b:
        7c:74:39:3e:51:ad:bc:1d:1e:3f:4c:78:c4:ac:57:a3:c8:b2:
        fc:c3:15:a9:1a:12:13:bc:fe:40:af:c6:4f:b3:c6:31:7b:ec:
        b9:3c:bc:03:5f:06:31:90:83:db:9b:d2:27:98:42:66:2f:f8:
        55:d3:6a:aa:fb:67:a1:74:df:1c:d8:e1:d1:9d:54:5f:b9:26:
        19:28:ac:46:71:82:7e:0d:ab:70:3d:e5:ed:cf:ef:2f:1a:e5:
        c9:c4:6a:c5:44:49:26:b8:53:d7:e1:01:fd:81:0b:da:bf:e9:
        e1:34:84:04
-----BEGIN CERTIFICATE-----
MIIFuzCCBKOgAwIBAgISMzAwMDAwNDiXHELUnemkgP9SMA0GCSqGSIb3DQEBCwUA
MGcxCzAJBgNVBAYTAkpQMRwwGgYDVQQKDBNKYXBhbmVzZSBHb3Zlcm5tZW50MR8w
HQYDVQQLDBZOYXRpb25hbCBQb2xpY2UgQWdlbmN5MRkwFwYDVQQLDBBOUEEgSUNE
TCBSb290IENBMB4XDTIzMDYxOTA2MTUxNFoXDTI4MDYxODE0NTk1OVowgZ0xCzAJ
BgNVBAYTAkpQMRwwGgYDVQQKDBNKYXBhbmVzZSBHb3Zlcm5tZW50MR8wHQYDVQQL
DBZOYXRpb25hbCBQb2xpY2UgQWdlbmN5MTcwNQYDVQQLDC5QcmVmZWN0dXJhbCBQ
dWJsaWMgU2FmZXR5IENvbW1pc3Npb25zIGZvciBJQ0RMMRYwFAYDVQQDDA1Lb2No
aSBBbHRQUFNDMIIBIjANBgkqhkiG9w0BAQEFAAOCAQ8AMIIBCgKCAQEAom3b4OKV
fSPrWSBFOKRFVihavGEVBsmEGkLzvmuTy96ONechB9U28/F2dtJJ1fcdsZRO7H38
i/yZHXAJBI2tkjR/L/4PLIvoGMja9Z14nSfrB0WsSh8i0JgakG+Z7zyGKKgn18kS
Id3Zb3fN3jsXMxEAZYVh6rACGC9DjjE2DjjT1liPYu6MX0JBF56KKCPHmbSr/dNn
0Vi4s/OfJqI2evaMC4OFhmrZOOPzs0bD0rE4VyO+q3XM2glEpto5Jo3XXhC0lshX
Yms48vnMj7ackCpha9w9WVNbuPJbFasjkCtOD0i27Qa7sjTuMUGxlSoyxXq7D5W/
DZChflTkDjQQzwIDAQABo4ICKDCCAiQwgZgGA1UdIwSBkDCBjYAUEc2OYERHV09P
y+nny6FG37oOUIuha6RpMGcxCzAJBgNVBAYTAkpQMRwwGgYDVQQKDBNKYXBhbmVz
ZSBHb3Zlcm5tZW50MR8wHQYDVQQLDBZOYXRpb25hbCBQb2xpY2UgQWdlbmN5MRkw
FwYDVQQLDBBOUEEgSUNETCBSb290IENBgggyMDAwMDAxNjAdBgNVHQ4EFgQUi9fc
/zSNdNQRdzlHfJ2H3uWpiZcwDgYDVR0PAQH/BAQDAgbAMEAGA1UdIAEB/wQ2MDQw
MgYLKoMIho4YBwUBAQowIzAhBggrBgEFBQcCARYVaHR0cDovL3d3dy5ucGEuZ28u
anAvMHQGA1UdEgRtMGukaTBnMQswCQYDVQQGEwJKUDEYMBYGA1UECgwP5pel5pys
5Zu95pS/5bqcMRIwEAYDVQQLDAnorablr5/luoExKjAoBgNVBAsMIeitpuWvn+W6
gemBi+i7ouWFjeioseiovOiqjeiovOWxgDCBnwYDVR0fBIGXMIGUMIGRoIGOoIGL
pIGIMIGFMQswCQYDVQQGEwJKUDEcMBoGA1UECgwTSmFwYW5lc2UgR292ZXJubWVu
dDEfMB0GA1UECwwWTmF0aW9uYWwgUG9saWNlIEFnZW5jeTE3MDUGA1UECwwuUHJl
ZmVjdHVyYWwgUHVibGljIFNhZmV0eSBDb21taXNzaW9ucyBmb3IgSUNETDANBgkq
hkiG9w0BAQsFAAOCAQEAZZiPCOeH1/uDSse5rdGIaLQzaUGjf7YVlIw1JCD6KExy
cHZkGCQMICgJVBD2BU+BZHdqN1S7xugdG9DOER4aUG0XFLwvWLUGcOz6yFJjAkQj
kqAp3SsiTElcMsc0/ESu/tbNcPuXXtyQ3dtZLhLCxP188Dql60C2g4s1ipyag1j/
QhnvH1kuVVx+yDSrFZiLfHQ5PlGtvB0eP0x4xKxXo8iy/MMVqRoSE7z+QK/GT7PG
MXvsuTy8A18GMZCD25vSJ5hCZi/4VdNqqvtnoXTfHNjh0Z1UX7kmGSisRnGCfg2r
cD3l7c/vLxrlycRqxURJJrhT1+EB/YEL2r/p4TSEBA==
-----END CERTIFICATE-----
