Certificate:
    Data:
        Version: 3 (0x2)
        Serial Number:
            33:30:30:30:30:30:36:39
        Signature Algorithm: sha256WithRSAEncryption
        Issuer: C=JP, O=Japanese Government, OU=National Police Agency, OU=NPA ICDL Root CA
        Validity
            Not Before: Nov  1 04:55:03 2023 GMT
            Not After : Oct 31 14:59:59 2028 GMT
        Subject: C=JP, O=Japanese Government, OU=National Police Agency, OU=Prefectural Public Safety Commissions for ICDL, CN=Kochi PPSC
        Subject Public Key Info:
            Public Key Algorithm: rsaEncryption
                Public-Key: (2048 bit)
                Modulus:
                    00:d8:a3:c4:98:77:af:6b:e9:2f:b4:a9:97:3b:7e:
                    14:46:95:6e:1e:69:b1:49:13:f7:42:35:db:b1:ba:
                    75:c5:f7:dc:3b:2a:fc:f1:60:64:fa:fe:8a:7f:20:
                    f8:77:bf:31:78:1a:08:00:10:36:28:fc:ca:8f:89:
                    86:b9:97:62:71:6e:2e:94:55:11:3b:6b:4b:a9:a8:
                    6d:fe:ef:ab:61:59:6c:7f:82:55:14:f7:67:44:5e:
                    46:54:84:19:49:0c:8c:6e:d2:5b:81:cf:22:0c:6a:
                    2d:9f:84:89:8e:7f:cb:64:e7:17:10:e9:1b:22:b3:
                    72:f0:6e:bf:46:01:5e:ee:07:75:90:1f:aa:81:62:
                    67:c7:7a:45:30:dc:1e:6e:a9:46:da:27:4c:14:9e:
                    8a:05:3a:f6:26:65:4f:30:7e:89:3b:31:84:e4:11:
                    51:57:ba:97:fe:51:98:d1:86:2d:61:bf:13:28:79:
                    af:af:91:76:aa:02:41:81:26:25:69:22:fd:67:03:
                    6c:8c:14:7b:35:01:72:f7:1f:2a:87:ff:df:e1:17:
                    79:77:d7:3a:a7:d0:8a:f7:93:14:b0:7d:d6:ac:80:
                    56:7b:e3:c5:a8:55:2b:c5:6a:d2:71:fc:8f:e1:6d:
                    f5:f2:34:1f:3a:cf:93:15:83:42:22:aa:f8:1c:9b:
                    be:71
                Exponent: 65537 (0x10001)
        X509v3 extensions:
            X509v3 Authority Key Identifier: 
                keyid:11:CD:8E:60:44:47:57:4F:4F:CB:E9:E7:CB:A1:46:DF:BA:0E:50:8B
                DirName:/C=JP/O=Japanese Government/OU=National Police Agency/OU=NPA ICDL Root CA
                serial:32:30:30:30:30:30:31:36
            X509v3 Subject Key Identifier: 
                BD:98:3A:FB:2D:F5:3C:6B:36:9C:CD:6B:63:E9:EA:C7:10:90:30:9D
            X509v3 Key Usage: critical
                Digital Signature, Non Repudiation
            X509v3 Certificate Policies: critical
                Policy: 1.2.392.100120.7.5.1.1.10
                  CPS: http://www.npa.go.jp/
            X509v3 Subject Alternative Name: 
                DirName:/C=JP/O=\xE6\x97\xA5\xE6\x9C\xAC\xE5\x9B\xBD\xE6\x94\xBF\xE5\xBA\x9C/OU=\xE8\xAD\xA6\xE5\xAF\x9F\xE5\xBA\x81/OU=\xE9\x83\xBD\xE9\x81\x93\xE5\xBA\x9C\xE7\x9C\x8C\xE5\x85\xAC\xE5\xAE\x89\xE5\xA7\x94\xE5\x93\xA1\xE4\xBC\x9A
            X509v3 Issuer Alternative Name: 
                DirName:/C=JP/O=\xE6\x97\xA5\xE6\x9C\xAC\xE5\x9B\xBD\xE6\x94\xBF\xE5\xBA\x9C/OU=\xE8\xAD\xA6\xE5\xAF\x9F\xE5\xBA\x81/OU=\xE8\xAD\xA6\xE5\xAF\x9F\xE5\xBA\x81\xE9\x81\x8B\xE8\xBB\xA2\xE5\x85\x8D\xE8\xA8\xB1\xE8\xA8\xBC\xE8\xAA\x8D\xE8\xA8\xBC\xE5\xB1\x80
            X509v3 CRL Distribution Points: 
                Full Name:
                  DirName:C = JP, O = Japanese Government, OU = National Police Agency, OU = Prefectural Public Safety Commissions for ICDL
    Signature Algorithm: sha256WithRSAEncryption
    Signature Value:
        54:ad:9d:02:7a:9e:cb:c8:0f:5c:01:4f:f4:d1:20:29:d3:7f:
        2b:6a:3b:ae:90:ac:34:68:3c:a5:bb:71:40:37:e4:5d:a9:8a:
        a9:c5:4a:45:6e:ea:82:fa:30:a0:5a:3d:e3:a9:dc:40:b7:ad:
        2a:27:75:56:a5:2e:3c:58:ee:8e:f9:50:04:90:57:7a:ba:94:
        d8:a6:fc:6c:68:82:34:41:2f:c9:5d:ad:fc:bf:89:d1:49:e1:
        b9:9c:18:d9:40:4f:f6:62:87:9a:3f:f3:e2:a1:24:e7:e4:76:
        0f:7b:d4:be:fa:02:69:7f:97:ad:7e:00:a2:59:67:cc:8f:fb:
        42:a9:38:35:ea:4d:9a:fd:27:90:3b:7c:12:db:06:44:a2:ec:
        a5:ee:97:71:fc:a8:4a:bb:d7:9b:e1:bd:d6:6d:37:5d:ec:23:
        92:ab:46:62:88:ec:db:76:4a:d1:ea:f7:30:af:d8:b9:d9:d2:
        e2:f5:6b:fc:00:c8:6b:67:71:ef:e2:28:a2:31:b3:00:8c:27:
        fc:b7:c4:4f:d0:19:9d:43:a2:fd:92:c4:20:f7:bc:b9:27:75:
        cc:c5:cc:f7:51:8f:0a:7d:ba:5a:a7:5f:fd:bb:4b:16:a3:df:
        14:6e:3c:2d:ad:5a:6b:49:4a:04:ac:72:6b:9f:ce:cf:9d:ae:
        bc:85:19:3c
-----BEGIN CERTIFICATE-----
MIIGRjCCBS6gAwIBAgIIMzAwMDAwNjkwDQYJKoZIhvcNAQELBQAwZzELMAkGA1UE
BhMCSlAxHDAaBgNVBAoME0phcGFuZXNlIEdvdmVybm1lbnQxHzAdBgNVBAsMFk5h
dGlvbmFsIFBvbGljZSBBZ2VuY3kxGTAXBgNVBAsMEE5QQSBJQ0RMIFJvb3QgQ0Ew
HhcNMjMxMTAxMDQ1NTAzWhcNMjgxMDMxMTQ1OTU5WjCBmjELMAkGA1UEBhMCSlAx
HDAaBgNVBAoME0phcGFuZXNlIEdvdmVybm1lbnQxHzAdBgNVBAsMFk5hdGlvbmFs
IFBvbGljZSBBZ2VuY3kxNzA1BgNVBAsMLlByZWZlY3R1cmFsIFB1YmxpYyBTYWZl
dHkgQ29tbWlzc2lvbnMgZm9yIElDREwxEzARBgNVBAMMCktvY2hpIFBQU0MwggEi
MA0GCSqGSIb3DQEBAQUAA4IBDwAwggEKAoIBAQDYo8SYd69r6S+0qZc7fhRGlW4e
abFJE/dCNduxunXF99w7KvzxYGT6/op/IPh3vzF4GggAEDYo/MqPiYa5l2Jxbi6U
VRE7a0upqG3+76thWWx/glUU92dEXkZUhBlJDIxu0luBzyIMai2fhImOf8tk5xcQ
6Rsis3Lwbr9GAV7uB3WQH6qBYmfHekUw3B5uqUbaJ0wUnooFOvYmZU8wfok7MYTk
EVFXupf+UZjRhi1hvxMoea+vkXaqAkGBJiVpIv1nA2yMFHs1AXL3HyqH/9/hF3l3
1zqn0Ir3kxSwfdasgFZ748WoVSvFatJx/I/hbfXyNB86z5MVg0Iiqvgcm75xAgMB
AAGjggLAMIICvDCBmAYDVR0jBIGQMIGNgBQRzY5gREdXT0/L6efLoUbfug5Qi6Fr
pGkwZzELMAkGA1UEBhMCSlAxHDAaBgNVBAoME0phcGFuZXNlIEdvdmVybm1lbnQx
HzAdBgNVBAsMFk5hdGlvbmFsIFBvbGljZSBBZ2VuY3kxGTAXBgNVBAsMEE5QQSBJ
Q0RMIFJvb3QgQ0GCCDIwMDAwMDE2MB0GA1UdDgQWBBS9mDr7LfU8azaczWtj6erH
EJAwnTAOBgNVHQ8BAf8EBAMCBsAwQAYDVR0gAQH/BDYwNDAyBgsqgwiGjhgHBQEB
CjAjMCEGCCsGAQUFBwIBFhVodHRwOi8vd3d3Lm5wYS5nby5qcC8wgZUGA1UdEQSB
jTCBiqSBhzCBhDELMAkGA1UEBhMCSlAxGDAWBgNVBAoMD+aXpeacrOWbveaUv+W6
nDESMBAGA1UECwwJ6K2m5a+f5bqBMSQwIgYDVQQLDBvpg73pgZPlupznnIzlhazl
ronlp5Tlk6HkvJoxITAfBgNVBAMMGOmrmOefpeecjOWFrOWuieWnlOWToeS8mjB0
BgNVHRIEbTBrpGkwZzELMAkGA1UEBhMCSlAxGDAWBgNVBAoMD+aXpeacrOWbveaU
v+W6nDESMBAGA1UECwwJ6K2m5a+f5bqBMSowKAYDVQQLDCHorablr5/luoHpgYvo
u6LlhY3oqLHoqLzoqo3oqLzlsYAwgZ8GA1UdHwSBlzCBlDCBkaCBjqCBi6SBiDCB
hTELMAkGA1UEBhMCSlAxHDAaBgNVBAoME0phcGFuZXNlIEdvdmVybm1lbnQxHzAd
BgNVBAsMFk5hdGlvbmFsIFBvbGljZSBBZ2VuY3kxNzA1BgNVBAsMLlByZWZlY3R1
cmFsIFB1YmxpYyBTYWZldHkgQ29tbWlzc2lvbnMgZm9yIElDREwwDQYJKoZIhvcN
AQELBQADggEBAFStnQJ6nsvID1wBT/TRICnTfytqO66QrDRoPKW7cUA35F2piqnF
SkVu6oL6MKBaPeOp3EC3rSondValLjxY7o75UASQV3q6lNim/GxogjRBL8ldrfy/
idFJ4bmcGNlAT/Zih5o/8+KhJOfkdg971L76Aml/l61+AKJZZ8yP+0KpODXqTZr9
J5A7fBLbBkSi7KXul3H8qEq715vhvdZtN13sI5KrRmKI7Nt2StHq9zCv2LnZ0uL1
a/wAyGtnce/iKKIxswCMJ/y3xE/QGZ1Dov2SxCD3vLkndczFzPdRjwp9ulqnX/27
Sxaj3xRuPC2tWmtJSgSscmufzs+drryFGTw=
-----END CERTIFICATE-----
