Certificate:
    Data:
        Version: 3 (0x2)
        Serial Number:
            33:30:30:30:30:30:38:39
        Signature Algorithm: sha256WithRSAEncryption
        Issuer: C=JP, O=Japanese Government, OU=National Police Agency, OU=NPA ICDL Root CA
        Validity
            Not Before: Mar 18 05:31:26 2024 GMT
            Not After : Mar 17 14:59:59 2029 GMT
        Subject: C=JP, O=Japanese Government, OU=National Police Agency, OU=Prefectural Public Safety Commissions for ICDL, CN=Kochi AltPPSC
        Subject Public Key Info:
            Public Key Algorithm: rsaEncryption
                Public-Key: (2048 bit)
                Modulus:
                    00:d2:bc:fb:cf:e1:bd:88:21:07:b1:df:9c:6f:ec:
                    30:23:e8:d7:a9:cb:61:72:18:e2:26:7c:cc:93:68:
                    dc:b4:90:c7:72:80:61:8d:29:3e:c6:a7:e6:3b:9d:
                    79:17:f7:09:11:61:b1:c7:ba:ea:0d:4a:eb:88:87:
                    cf:95:72:8f:be:ec:14:b4:92:7c:35:00:b8:58:72:
                    53:f5:af:61:81:a5:24:be:d5:4a:92:37:9a:ec:32:
                    e9:95:d2:7c:c0:d5:52:1b:18:6f:93:24:5f:9b:7b:
                    53:ae:f9:33:c9:cd:3f:98:2c:0f:3e:8f:42:e2:af:
                    55:20:f2:3d:d0:9f:43:24:37:70:e7:10:fd:20:02:
                    2c:04:99:2f:f1:62:2e:4b:35:16:6e:64:6a:e4:7a:
                    e7:7f:42:16:cf:51:ab:d3:42:19:7a:c8:92:22:82:
                    e9:56:4b:70:a2:20:d7:3e:85:d3:20:99:9f:d9:4b:
                    e2:5b:a3:90:9e:f6:d7:4b:fb:a0:1d:45:c6:86:5a:
                    f5:eb:b5:c6:21:92:a9:63:f9:c6:3c:d0:b4:e5:b8:
                    c4:b5:be:84:1f:d8:a4:48:1d:8a:f0:2f:f9:1d:bf:
                    28:ee:b1:3b:f6:42:2f:c7:8d:6b:e8:4b:e8:c0:72:
                    e9:61:b1:f4:7c:68:c5:d9:79:b5:ab:8f:27:b8:bd:
                    95:59
                Exponent: 65537 (0x10001)
        X509v3 extensions:
            X509v3 Authority Key Identifier: 
                keyid:11:CD:8E:60:44:47:57:4F:4F:CB:E9:E7:CB:A1:46:DF:BA:0E:50:8B
                DirName:/C=JP/O=Japanese Government/OU=National Police Agency/OU=NPA ICDL Root CA
                serial:32:30:30:30:30:30:31:36
            X509v3 Subject Key Identifier: 
                F2:9B:DC:1F:78:82:DD:13:00:87:6D:B1:5C:FC:51:61:BE:7F:C2:75
            X509v3 Key Usage: critical
                Digital Signature, Non Repudiation
            X509v3 Certificate Policies: critical
                Policy: 1.2.392.100120.7.5.1.1.10
                  CPS: http://www.npa.go.jp/
            X509v3 Issuer Alternative Name: 
                DirName:/C=JP/O=\xE6\x97\xA5\xE6\x9C\xAC\xE5\x9B\xBD\xE6\x94\xBF\xE5\xBA\x9C/OU=\xE8\xAD\xA6\xE5\xAF\x9F\xE5\xBA\x81/OU=\xE8\xAD\xA6\xE5\xAF\x9F\xE5\xBA\x81\xE9\x81\x8B\xE8\xBB\xA2\xE5\x85\x8D\xE8\xA8\xB1\xE8\xA8\xBC\xE8\xAA\x8D\xE8\xA8\xBC\xE5\xB1\x80
            X509v3 CRL Distribution Points: 
                Full Name:
                  DirName:C = JP, O = Japanese Government, OU = National Police Agency, OU = Prefectural Public Safety Commissions for ICDL
    Signature Algorithm: sha256WithRSAEncryption
    Signature Value:
        15:cf:17:54:8c:cf:f0:97:c5:ca:a4:dc:75:09:ff:26:1c:60:
        37:e7:7f:83:5a:34:93:dc:fa:e4:60:fd:64:56:c3:82:7c:6c:
        12:a6:6f:4b:a3:85:56:72:ff:65:21:b9:87:8e:33:c6:f1:07:
        46:b1:a4:c3:6c:08:50:c5:d9:42:c0:b8:80:62:f6:3c:ba:60:
        86:3f:fa:c3:a4:a6:a6:be:54:2f:a4:89:c8:46:e5:22:08:38:
        72:8b:6e:f7:f1:cb:48:4b:b4:ff:c2:fb:16:db:39:ac:db:ac:
        6f:b5:1a:b7:34:d7:5a:a1:c2:90:3c:0c:0a:bb:5a:88:ab:01:
        82:95:de:38:19:b2:54:c7:e7:9d:26:8f:c6:3f:38:42:4b:b1:
        dc:ac:2d:b6:f9:65:bf:ae:bb:36:77:07:60:bd:8c:3f:0c:02:
        af:c4:3d:2e:7f:3e:88:1c:a1:2a:66:49:40:c3:a2:df:b7:11:
        57:3b:32:06:29:6e:eb:d3:47:ab:71:9d:29:c2:ef:e5:52:8d:
        89:87:61:e5:a7:93:c1:e7:54:83:26:5b:a4:25:ab:30:59:a9:
        a9:d3:06:6a:93:a0:d6:aa:33:ac:76:18:2d:36:e8:44:61:27:
        92:d3:4d:c2:fe:1e:3c:ac:98:5d:c4:f2:e6:15:c0:90:54:f1:
        c1:65:3a:44
-----BEGIN CERTIFICATE-----
MIIFsTCCBJmgAwIBAgIIMzAwMDAwODkwDQYJKoZIhvcNAQELBQAwZzELMAkGA1UE
BhMCSlAxHDAaBgNVBAoME0phcGFuZXNlIEdvdmVybm1lbnQxHzAdBgNVBAsMFk5h
dGlvbmFsIFBvbGljZSBBZ2VuY3kxGTAXBgNVBAsMEE5QQSBJQ0RMIFJvb3QgQ0Ew
HhcNMjQwMzE4MDUzMTI2WhcNMjkwMzE3MTQ1OTU5WjCBnTELMAkGA1UEBhMCSlAx
HDAaBgNVBAoME0phcGFuZXNlIEdvdmVybm1lbnQxHzAdBgNVBAsMFk5hdGlvbmFs
IFBvbGljZSBBZ2VuY3kxNzA1BgNVBAsMLlByZWZlY3R1cmFsIFB1YmxpYyBTYWZl
dHkgQ29tbWlzc2lvbnMgZm9yIElDREwxFjAUBgNVBAMMDUtvY2hpIEFsdFBQU0Mw
ggEiMA0GCSqGSIb3DQEBAQUAA4IBDwAwggEKAoIBAQDSvPvP4b2IIQex35xv7DAj
6Nepy2FyGOImfMyTaNy0kMdygGGNKT7Gp+Y7nXkX9wkRYbHHuuoNSuuIh8+Vco++
7BS0knw1ALhYclP1r2GBpSS+1UqSN5rsMumV0nzA1VIbGG+TJF+be1Ou+TPJzT+Y
LA8+j0Lir1Ug8j3Qn0MkN3DnEP0gAiwEmS/xYi5LNRZuZGrkeud/QhbPUavTQhl6
yJIigulWS3CiINc+hdMgmZ/ZS+Jbo5Ce9tdL+6AdRcaGWvXrtcYhkqlj+cY80LTl
uMS1voQf2KRIHYrwL/kdvyjusTv2Qi/HjWvoS+jAculhsfR8aMXZebWrjye4vZVZ
AgMBAAGjggIoMIICJDCBmAYDVR0jBIGQMIGNgBQRzY5gREdXT0/L6efLoUbfug5Q
i6FrpGkwZzELMAkGA1UEBhMCSlAxHDAaBgNVBAoME0phcGFuZXNlIEdvdmVybm1l
bnQxHzAdBgNVBAsMFk5hdGlvbmFsIFBvbGljZSBBZ2VuY3kxGTAXBgNVBAsMEE5Q
QSBJQ0RMIFJvb3QgQ0GCCDIwMDAwMDE2MB0GA1UdDgQWBBTym9wfeILdEwCHbbFc
/FFhvn/CdTAOBgNVHQ8BAf8EBAMCBsAwQAYDVR0gAQH/BDYwNDAyBgsqgwiGjhgH
BQEBCjAjMCEGCCsGAQUFBwIBFhVodHRwOi8vd3d3Lm5wYS5nby5qcC8wdAYDVR0S
BG0wa6RpMGcxCzAJBgNVBAYTAkpQMRgwFgYDVQQKDA/ml6XmnKzlm73mlL/lupwx
EjAQBgNVBAsMCeitpuWvn+W6gTEqMCgGA1UECwwh6K2m5a+f5bqB6YGL6Lui5YWN
6Kix6Ki86KqN6Ki85bGAMIGfBgNVHR8EgZcwgZQwgZGggY6ggYukgYgwgYUxCzAJ
BgNVBAYTAkpQMRwwGgYDVQQKDBNKYXBhbmVzZSBHb3Zlcm5tZW50MR8wHQYDVQQL
DBZOYXRpb25hbCBQb2xpY2UgQWdlbmN5MTcwNQYDVQQLDC5QcmVmZWN0dXJhbCBQ
dWJsaWMgU2FmZXR5IENvbW1pc3Npb25zIGZvciBJQ0RMMA0GCSqGSIb3DQEBCwUA
A4IBAQAVzxdUjM/wl8XKpNx1Cf8mHGA353+DWjST3PrkYP1kVsOCfGwSpm9Lo4VW
cv9lIbmHjjPG8QdGsaTDbAhQxdlCwLiAYvY8umCGP/rDpKamvlQvpInIRuUiCDhy
i2738ctIS7T/wvsW2zms26xvtRq3NNdaocKQPAwKu1qIqwGCld44GbJUx+edJo/G
PzhCS7HcrC22+WW/rrs2dwdgvYw/DAKvxD0ufz6IHKEqZklAw6LftxFXOzIGKW7r
00ercZ0pwu/lUo2Jh2Hlp5PB51SDJlukJaswWamp0wZqk6DWqjOsdhgtNuhEYSeS
003C/h48rJhdxPLmFcCQVPHBZTpE
-----END CERTIFICATE-----
