Certificate:
    Data:
        Version: 3 (0x2)
        Serial Number:
            33:30:30:30:30:31:32:30
        Signature Algorithm: sha256WithRSAEncryption
        Issuer: C=JP, O=Japanese Government, OU=National Police Agency, OU=NPA ICDL Root CA
        Validity
            Not Before: Sep 17 07:48:55 2024 GMT
            Not After : Sep 16 14:59:59 2029 GMT
        Subject: C=JP, O=Japanese Government, OU=National Police Agency, OU=Prefectural Public Safety Commissions for ICDL, CN=Kumamoto PPSC
        Subject Public Key Info:
            Public Key Algorithm: rsaEncryption
                Public-Key: (2048 bit)
                Modulus:
                    00:db:51:5d:73:89:dd:af:5b:95:1e:50:11:57:d9:
                    25:c9:a9:25:6d:f9:99:85:45:dc:97:f4:18:36:12:
                    39:e4:66:a2:98:4c:13:42:f2:46:a6:d0:d1:8a:80:
                    7f:c2:f6:69:69:c7:55:10:35:4f:01:51:5f:0d:a7:
                    a1:24:69:32:bb:4a:d7:c7:be:8d:26:63:e8:a0:b4:
                    ae:1b:a4:39:82:fb:aa:0e:e7:3b:d9:03:f6:f4:b7:
                    6c:97:f7:d6:23:af:9f:ae:80:6b:d7:22:be:b9:f3:
                    b6:b2:30:6a:6e:e6:07:e8:c5:8d:84:41:36:f4:9f:
                    a8:51:05:e0:05:fc:9f:4b:17:e2:9d:6e:1a:93:6c:
                    e7:b9:cf:d4:24:3d:dc:6c:11:20:67:c1:5f:31:ea:
                    0f:0f:a4:71:fe:d6:fe:63:09:dd:f0:2a:be:4c:3e:
                    cf:1b:7e:33:cf:4b:7b:08:a9:1b:08:d9:52:32:f3:
                    c2:b9:03:25:9a:b1:e5:6b:0e:b0:e7:48:2b:76:2c:
                    a8:cb:fa:7d:b7:2d:6e:76:fa:6d:65:c4:f6:14:0d:
                    a7:b0:fd:2e:bc:73:d7:71:26:d6:d0:21:db:9c:54:
                    e2:e2:75:26:b7:1b:bc:8a:82:a6:7c:3c:77:9f:26:
                    32:7e:03:06:e6:46:d1:dd:82:4a:67:5d:e9:6e:0c:
                    67:dd
                Exponent: 65537 (0x10001)
        X509v3 extensions:
            X509v3 Authority Key Identifier: 
                keyid:11:CD:8E:60:44:47:57:4F:4F:CB:E9:E7:CB:A1:46:DF:BA:0E:50:8B
                DirName:/C=JP/O=Japanese Government/OU=National Police Agency/OU=NPA ICDL Root CA
                serial:32:30:30:30:30:30:31:36
            X509v3 Subject Key Identifier: 
                68:BF:7F:B3:55:2E:02:A0:FE:ED:29:A5:1F:3C:10:D4:AF:21:D8:66
            X509v3 Key Usage: critical
                Digital Signature, Non Repudiation
            X509v3 Certificate Policies: critical
                Policy: 1.2.392.100120.7.5.1.1.10
                  CPS: http://www.npa.go.jp/
            X509v3 Subject Alternative Name: 
                DirName:/C=JP/O=\xE6\x97\xA5\xE6\x9C\xAC\xE5\x9B\xBD\xE6\x94\xBF\xE5\xBA\x9C/OU=\xE8\xAD\xA6\xE5\xAF\x9F\xE5\xBA\x81/OU=\xE9\x83\xBD\xE9\x81\x93\xE5\xBA\x9C\xE7\x9C\x8C\xE5\x85\xAC\xE5\xAE\x89\xE5\xA7\x94\xE5\x93\xA1\xE4\xBC\x9A
            X509v3 Issuer Alternative Name: 
                DirName:/C=JP/O=\xE6\x97\xA5\xE6\x9C\xAC\xE5\x9B\xBD\xE6\x94\xBF\xE5\xBA\x9C/OU=\xE8\xAD\xA6\xE5\xAF\x9F\xE5\xBA\x81/OU=\xE8\xAD\xA6\xE5\xAF\x9F\xE5\xBA\x81\xE9\x81\x8B\xE8\xBB\xA2\xE5\x85\x8D\xE8\xA8\xB1\xE8\xA8\xBC\xE8\xAA\x8D\xE8\xA8\xBC\xE5\xB1\x80
            X509v3 CRL Distribution Points: 
                Full Name:
                  DirName:C = JP, O = Japanese Government, OU = National Police Agency, OU = Prefectural Public Safety Commissions for ICDL
    Signature Algorithm: sha256WithRSAEncryption
    Signature Value:
        66:2a:14:f8:ce:06:43:08:79:e0:49:38:4f:16:68:6b:23:38:
        b3:91:dc:48:6f:0a:2e:14:7a:b3:60:c5:9c:97:75:0e:e5:60:
        d6:cd:65:12:cd:7c:53:5d:c3:69:fc:e0:8f:6d:49:1a:98:bd:
        d5:6d:83:38:89:4d:19:64:8f:92:00:c8:33:2a:f3:d7:5c:b0:
        c3:cc:e5:78:1b:ee:37:d3:4a:da:ba:d9:9c:19:17:06:44:de:
        79:06:be:bf:5f:2b:46:75:52:2e:d2:ec:94:e2:47:55:30:66:
        cb:79:69:65:97:4e:a4:ff:e3:b7:19:a5:48:03:bc:4b:79:d8:
        ac:ae:fd:c3:5e:12:d1:a5:69:12:c2:57:c7:b5:dd:09:f6:e3:
        db:db:b0:e1:59:d1:dc:b8:5d:83:ca:56:ce:b8:c6:9f:85:04:
        5b:59:24:b4:2f:f7:50:14:fd:84:16:4f:c7:0a:54:83:bc:cb:
        12:00:f9:04:ba:92:66:3f:35:2e:3d:91:4b:c0:cd:0f:ab:cc:
        62:b9:4a:b9:2d:a9:c4:c0:05:f4:e7:d9:a7:c6:12:8d:1e:3f:
        c7:ee:af:c1:c9:30:6a:48:05:f7:a4:ef:a0:2d:b6:b0:e2:85:
        7f:8d:dd:54:c1:4f:de:5a:09:b1:f0:14:13:af:69:25:c7:a6:
        27:6b:af:0e
-----BEGIN CERTIFICATE-----
MIIGSTCCBTGgAwIBAgIIMzAwMDAxMjAwDQYJKoZIhvcNAQELBQAwZzELMAkGA1UE
BhMCSlAxHDAaBgNVBAoME0phcGFuZXNlIEdvdmVybm1lbnQxHzAdBgNVBAsMFk5h
dGlvbmFsIFBvbGljZSBBZ2VuY3kxGTAXBgNVBAsMEE5QQSBJQ0RMIFJvb3QgQ0Ew
HhcNMjQwOTE3MDc0ODU1WhcNMjkwOTE2MTQ1OTU5WjCBnTELMAkGA1UEBhMCSlAx
HDAaBgNVBAoME0phcGFuZXNlIEdvdmVybm1lbnQxHzAdBgNVBAsMFk5hdGlvbmFs
IFBvbGljZSBBZ2VuY3kxNzA1BgNVBAsMLlByZWZlY3R1cmFsIFB1YmxpYyBTYWZl
dHkgQ29tbWlzc2lvbnMgZm9yIElDREwxFjAUBgNVBAMMDUt1bWFtb3RvIFBQU0Mw
ggEiMA0GCSqGSIb3DQEBAQUAA4IBDwAwggEKAoIBAQDbUV1zid2vW5UeUBFX2SXJ
qSVt+ZmFRdyX9Bg2EjnkZqKYTBNC8kam0NGKgH/C9mlpx1UQNU8BUV8Np6EkaTK7
StfHvo0mY+igtK4bpDmC+6oO5zvZA/b0t2yX99Yjr5+ugGvXIr6587ayMGpu5gfo
xY2EQTb0n6hRBeAF/J9LF+KdbhqTbOe5z9QkPdxsESBnwV8x6g8PpHH+1v5jCd3w
Kr5MPs8bfjPPS3sIqRsI2VIy88K5AyWaseVrDrDnSCt2LKjL+n23LW52+m1lxPYU
Daew/S68c9dxJtbQIducVOLidSa3G7yKgqZ8PHefJjJ+AwbmRtHdgkpnXeluDGfd
AgMBAAGjggLAMIICvDCBmAYDVR0jBIGQMIGNgBQRzY5gREdXT0/L6efLoUbfug5Q
i6FrpGkwZzELMAkGA1UEBhMCSlAxHDAaBgNVBAoME0phcGFuZXNlIEdvdmVybm1l
bnQxHzAdBgNVBAsMFk5hdGlvbmFsIFBvbGljZSBBZ2VuY3kxGTAXBgNVBAsMEE5Q
QSBJQ0RMIFJvb3QgQ0GCCDIwMDAwMDE2MB0GA1UdDgQWBBRov3+zVS4CoP7tKaUf
PBDUryHYZjAOBgNVHQ8BAf8EBAMCBsAwQAYDVR0gAQH/BDYwNDAyBgsqgwiGjhgH
BQEBCjAjMCEGCCsGAQUFBwIBFhVodHRwOi8vd3d3Lm5wYS5nby5qcC8wgZUGA1Ud
EQSBjTCBiqSBhzCBhDELMAkGA1UEBhMCSlAxGDAWBgNVBAoMD+aXpeacrOWbveaU
v+W6nDESMBAGA1UECwwJ6K2m5a+f5bqBMSQwIgYDVQQLDBvpg73pgZPlupznnIzl
hazlronlp5Tlk6HkvJoxITAfBgNVBAMMGOeGiuacrOecjOWFrOWuieWnlOWToeS8
mjB0BgNVHRIEbTBrpGkwZzELMAkGA1UEBhMCSlAxGDAWBgNVBAoMD+aXpeacrOWb
veaUv+W6nDESMBAGA1UECwwJ6K2m5a+f5bqBMSowKAYDVQQLDCHorablr5/luoHp
gYvou6LlhY3oqLHoqLzoqo3oqLzlsYAwgZ8GA1UdHwSBlzCBlDCBkaCBjqCBi6SB
iDCBhTELMAkGA1UEBhMCSlAxHDAaBgNVBAoME0phcGFuZXNlIEdvdmVybm1lbnQx
HzAdBgNVBAsMFk5hdGlvbmFsIFBvbGljZSBBZ2VuY3kxNzA1BgNVBAsMLlByZWZl
Y3R1cmFsIFB1YmxpYyBTYWZldHkgQ29tbWlzc2lvbnMgZm9yIElDREwwDQYJKoZI
hvcNAQELBQADggEBAGYqFPjOBkMIeeBJOE8WaGsjOLOR3EhvCi4UerNgxZyXdQ7l
YNbNZRLNfFNdw2n84I9tSRqYvdVtgziJTRlkj5IAyDMq89dcsMPM5Xgb7jfTStq6
2ZwZFwZE3nkGvr9fK0Z1Ui7S7JTiR1UwZst5aWWXTqT/47cZpUgDvEt52Kyu/cNe
EtGlaRLCV8e13Qn249vbsOFZ0dy4XYPKVs64xp+FBFtZJLQv91AU/YQWT8cKVIO8
yxIA+QS6kmY/NS49kUvAzQ+rzGK5SrktqcTABfTn2afGEo0eP8fur8HJMGpIBfek
76AttrDihX+N3VTBT95aCbHwFBOvaSXHpidrrw4=
-----END CERTIFICATE-----
