Certificate:
    Data:
        Version: 3 (0x2)
        Serial Number:
            32:30:30:30:30:30:33:30
        Signature Algorithm: sha256WithRSAEncryption
        Issuer: C=JP, O=Japanese Government, OU=National Police Agency, OU=NPA ICDL Root CA
        Validity
            Not Before: Jun 10 01:50:08 2020 GMT
            Not After : Jun  9 14:59:59 2025 GMT
        Subject: C=JP, O=Japanese Government, OU=National Police Agency, OU=Prefectural Public Safety Commissions for ICDL, CN=Kumamoto AltPPSC
        Subject Public Key Info:
            Public Key Algorithm: rsaEncryption
                Public-Key: (2048 bit)
                Modulus:
                    00:aa:b6:84:07:f6:5c:be:1e:a9:f9:e2:71:c0:e7:
                    68:48:9c:2a:ab:c8:87:52:f5:72:4e:41:62:fb:03:
                    e1:b4:b4:06:dd:8a:7b:43:73:14:c0:6f:6c:83:2b:
                    9d:63:1f:92:de:d4:c9:4a:da:5a:77:dd:db:32:45:
                    53:d7:64:fe:16:3e:98:45:8c:8d:28:2f:62:ea:a7:
                    ec:1b:d5:e7:3a:55:00:f1:ff:92:7c:28:30:1f:c2:
                    62:80:81:40:21:6b:85:e4:22:1e:32:2f:41:10:04:
                    cd:a4:57:dd:03:33:3a:57:43:be:cf:ac:aa:d8:87:
                    8c:09:90:25:b7:6e:3f:c6:63:6e:03:8a:56:3c:fa:
                    bf:83:d1:37:30:9b:6f:b3:3b:a9:ea:c7:05:79:31:
                    59:69:dd:ae:ff:f5:40:c6:ce:f7:ee:48:7c:e1:2d:
                    98:13:f3:16:52:a6:d6:24:8d:45:0d:16:76:57:29:
                    50:da:ae:fa:2f:bc:fa:43:0f:a5:4e:c7:94:fd:0a:
                    95:be:61:fc:07:93:a8:fd:db:b0:0a:c9:6e:3c:7b:
                    3d:6a:d5:07:31:c3:fc:10:19:13:65:bc:13:56:dd:
                    91:9c:18:ac:27:5d:a6:ad:50:c9:c3:0b:3c:f3:fb:
                    2b:2d:06:fb:8a:ae:47:ac:1a:30:1d:d1:65:68:dc:
                    a7:51
                Exponent: 65537 (0x10001)
        X509v3 extensions:
            X509v3 Authority Key Identifier: 
                keyid:11:CD:8E:60:44:47:57:4F:4F:CB:E9:E7:CB:A1:46:DF:BA:0E:50:8B
                DirName:/C=JP/O=Japanese Government/OU=National Police Agency/OU=NPA ICDL Root CA
                serial:32:30:30:30:30:30:31:36
            X509v3 Subject Key Identifier: 
                66:2B:C8:74:54:0A:4A:13:E5:CA:5C:8D:46:91:F6:6F:F9:18:FE:84
            X509v3 Key Usage: critical
                Digital Signature, Non Repudiation
            X509v3 Certificate Policies: critical
                Policy: 1.2.392.100120.7.5.1.1.10
                  CPS: http://www.npa.go.jp/
            X509v3 Issuer Alternative Name: 
                DirName:/C=JP/O=\xE6\x97\xA5\xE6\x9C\xAC\xE5\x9B\xBD\xE6\x94\xBF\xE5\xBA\x9C/OU=\xE8\xAD\xA6\xE5\xAF\x9F\xE5\xBA\x81/OU=\xE8\xAD\xA6\xE5\xAF\x9F\xE5\xBA\x81\xE9\x81\x8B\xE8\xBB\xA2\xE5\x85\x8D\xE8\xA8\xB1\xE8\xA8\xBC\xE8\xAA\x8D\xE8\xA8\xBC\xE5\xB1\x80
            X509v3 CRL Distribution Points: 
                Full Name:
                  DirName:C = JP, O = Japanese Government, OU = National Police Agency, OU = Prefectural Public Safety Commissions for ICDL
    Signature Algorithm: sha256WithRSAEncryption
    Signature Value:
        19:60:f2:9a:a8:12:ee:d4:5c:38:be:69:76:cc:a4:8a:44:4c:
        39:09:5f:5b:ca:df:51:7a:d4:2c:fb:54:0f:18:96:12:4f:2b:
        42:4c:1e:01:6a:a9:5d:d4:a2:4d:2e:cd:51:35:ce:94:d9:75:
        c6:a4:e7:0b:5c:62:82:da:2e:37:21:57:6a:fe:78:d8:ad:2c:
        d3:82:81:a4:1e:d3:9d:97:ce:5d:40:a0:1c:1a:a7:0e:ef:13:
        ea:d7:df:58:1a:7e:c0:36:65:cf:25:41:e3:73:ac:2d:ab:51:
        e6:16:cc:28:a3:e0:47:6c:ef:9b:3e:8f:4a:72:4b:ca:e8:63:
        82:ed:c9:98:72:f3:2b:4b:5f:e1:ce:29:1c:c9:44:60:52:f1:
        5e:2d:4c:21:17:21:a4:29:38:1c:94:5c:6f:10:44:56:14:da:
        0f:17:14:4e:c8:a1:79:ff:30:19:fb:7e:89:71:84:3c:e2:ec:
        6e:cc:a2:78:d1:d9:ae:62:b0:73:dc:3c:6d:3b:3a:b3:d7:65:
        88:24:fe:6e:80:21:02:33:da:8e:f4:af:94:a8:d1:a7:ce:f2:
        4a:ed:93:b2:94:1e:29:3c:6e:e6:ad:c7:d5:e3:fa:27:26:54:
        a6:88:31:65:ab:e8:c9:cb:69:2d:58:85:c4:13:51:55:aa:3b:
        94:40:80:f2
-----BEGIN CERTIFICATE-----
MIIFtDCCBJygAwIBAgIIMjAwMDAwMzAwDQYJKoZIhvcNAQELBQAwZzELMAkGA1UE
BhMCSlAxHDAaBgNVBAoME0phcGFuZXNlIEdvdmVybm1lbnQxHzAdBgNVBAsMFk5h
dGlvbmFsIFBvbGljZSBBZ2VuY3kxGTAXBgNVBAsMEE5QQSBJQ0RMIFJvb3QgQ0Ew
HhcNMjAwNjEwMDE1MDA4WhcNMjUwNjA5MTQ1OTU5WjCBoDELMAkGA1UEBhMCSlAx
HDAaBgNVBAoME0phcGFuZXNlIEdvdmVybm1lbnQxHzAdBgNVBAsMFk5hdGlvbmFs
IFBvbGljZSBBZ2VuY3kxNzA1BgNVBAsMLlByZWZlY3R1cmFsIFB1YmxpYyBTYWZl
dHkgQ29tbWlzc2lvbnMgZm9yIElDREwxGTAXBgNVBAMMEEt1bWFtb3RvIEFsdFBQ
U0MwggEiMA0GCSqGSIb3DQEBAQUAA4IBDwAwggEKAoIBAQCqtoQH9ly+Hqn54nHA
52hInCqryIdS9XJOQWL7A+G0tAbdintDcxTAb2yDK51jH5Le1MlK2lp33dsyRVPX
ZP4WPphFjI0oL2Lqp+wb1ec6VQDx/5J8KDAfwmKAgUAha4XkIh4yL0EQBM2kV90D
MzpXQ77PrKrYh4wJkCW3bj/GY24DilY8+r+D0Tcwm2+zO6nqxwV5MVlp3a7/9UDG
zvfuSHzhLZgT8xZSptYkjUUNFnZXKVDarvovvPpDD6VOx5T9CpW+YfwHk6j927AK
yW48ez1q1Qcxw/wQGRNlvBNW3ZGcGKwnXaatUMnDCzzz+ystBvuKrkesGjAd0WVo
3KdRAgMBAAGjggIoMIICJDCBmAYDVR0jBIGQMIGNgBQRzY5gREdXT0/L6efLoUbf
ug5Qi6FrpGkwZzELMAkGA1UEBhMCSlAxHDAaBgNVBAoME0phcGFuZXNlIEdvdmVy
bm1lbnQxHzAdBgNVBAsMFk5hdGlvbmFsIFBvbGljZSBBZ2VuY3kxGTAXBgNVBAsM
EE5QQSBJQ0RMIFJvb3QgQ0GCCDIwMDAwMDE2MB0GA1UdDgQWBBRmK8h0VApKE+XK
XI1GkfZv+Rj+hDAOBgNVHQ8BAf8EBAMCBsAwQAYDVR0gAQH/BDYwNDAyBgsqgwiG
jhgHBQEBCjAjMCEGCCsGAQUFBwIBFhVodHRwOi8vd3d3Lm5wYS5nby5qcC8wdAYD
VR0SBG0wa6RpMGcxCzAJBgNVBAYTAkpQMRgwFgYDVQQKDA/ml6XmnKzlm73mlL/l
upwxEjAQBgNVBAsMCeitpuWvn+W6gTEqMCgGA1UECwwh6K2m5a+f5bqB6YGL6Lui
5YWN6Kix6Ki86KqN6Ki85bGAMIGfBgNVHR8EgZcwgZQwgZGggY6ggYukgYgwgYUx
CzAJBgNVBAYTAkpQMRwwGgYDVQQKDBNKYXBhbmVzZSBHb3Zlcm5tZW50MR8wHQYD
VQQLDBZOYXRpb25hbCBQb2xpY2UgQWdlbmN5MTcwNQYDVQQLDC5QcmVmZWN0dXJh
bCBQdWJsaWMgU2FmZXR5IENvbW1pc3Npb25zIGZvciBJQ0RMMA0GCSqGSIb3DQEB
CwUAA4IBAQAZYPKaqBLu1Fw4vml2zKSKREw5CV9byt9RetQs+1QPGJYSTytCTB4B
aqld1KJNLs1RNc6U2XXGpOcLXGKC2i43IVdq/njYrSzTgoGkHtOdl85dQKAcGqcO
7xPq199YGn7ANmXPJUHjc6wtq1HmFswoo+BHbO+bPo9KckvK6GOC7cmYcvMrS1/h
zikcyURgUvFeLUwhFyGkKTgclFxvEERWFNoPFxROyKF5/zAZ+36JcYQ84uxuzKJ4
0dmuYrBz3DxtOzqz12WIJP5ugCECM9qO9K+UqNGnzvJK7ZOylB4pPG7mrcfV4/on
JlSmiDFlq+jJy2ktWIXEE1FVqjuUQIDy
-----END CERTIFICATE-----
