Certificate:
    Data:
        Version: 3 (0x2)
        Serial Number:
            33:30:30:30:30:30:35:32:10:46:36:df:ef:7c:a0:82:78:a6
        Signature Algorithm: sha256WithRSAEncryption
        Issuer: C=JP, O=Japanese Government, OU=National Police Agency, OU=NPA ICDL Root CA
        Validity
            Not Before: Jun 19 06:20:57 2023 GMT
            Not After : Jun 18 14:59:59 2028 GMT
        Subject: C=JP, O=Japanese Government, OU=National Police Agency, OU=Prefectural Public Safety Commissions for ICDL, CN=Kumamoto AltPPSC
        Subject Public Key Info:
            Public Key Algorithm: rsaEncryption
                Public-Key: (2048 bit)
                Modulus:
                    00:c9:d9:74:b2:31:fe:aa:18:eb:50:bd:96:9d:38:
                    6e:6a:d6:bb:e7:f8:1b:04:7c:c2:ee:c3:44:f1:ec:
                    89:f4:84:4e:39:2f:64:37:f7:27:27:7e:e6:9b:c6:
                    72:13:26:de:fa:94:47:e0:99:da:f8:f2:dd:90:fe:
                    aa:d1:34:be:a7:56:e2:08:ed:ef:01:52:bb:28:bc:
                    3a:c6:6c:fc:4a:6c:80:f8:87:ac:5b:bb:45:76:91:
                    78:14:be:11:02:53:f7:27:73:a3:c2:e4:4f:62:23:
                    ed:d7:47:c9:73:c4:c2:2b:20:7b:16:9e:c2:6b:cc:
                    6a:a0:e1:ae:c5:f2:cf:5e:cd:f8:c0:24:78:c3:12:
                    9c:0b:7a:16:dd:69:bf:43:44:a3:4e:51:5c:46:74:
                    5a:97:0b:2d:91:32:d6:ee:aa:74:37:ca:13:8d:43:
                    ad:51:d2:17:26:e2:d7:22:ee:88:36:37:4a:ca:a3:
                    df:81:42:26:e3:0d:d4:2d:9d:e3:d6:0a:74:6b:46:
                    22:f3:56:d7:53:7c:ec:38:2b:5b:da:d9:24:53:e8:
                    61:e5:33:be:bc:ef:9d:d0:3b:e2:2c:1d:da:44:54:
                    41:fb:87:e0:c3:45:f4:5b:ed:a3:58:cf:33:ab:cb:
                    3c:d5:aa:f9:76:09:48:70:80:7b:b6:07:0c:11:6b:
                    fd:53
                Exponent: 65537 (0x10001)
        X509v3 extensions:
            X509v3 Authority Key Identifier: 
                keyid:11:CD:8E:60:44:47:57:4F:4F:CB:E9:E7:CB:A1:46:DF:BA:0E:50:8B
                DirName:/C=JP/O=Japanese Government/OU=National Police Agency/OU=NPA ICDL Root CA
                serial:32:30:30:30:30:30:31:36
            X509v3 Subject Key Identifier: 
                5F:88:09:CD:38:49:F8:54:73:F3:F9:C9:F1:68:8A:40:D4:DD:0A:97
            X509v3 Key Usage: critical
                Digital Signature, Non Repudiation
            X509v3 Certificate Policies: critical
                Policy: 1.2.392.100120.7.5.1.1.10
                  CPS: http://www.npa.go.jp/
            X509v3 Issuer Alternative Name: 
                DirName:/C=JP/O=\xE6\x97\xA5\xE6\x9C\xAC\xE5\x9B\xBD\xE6\x94\xBF\xE5\xBA\x9C/OU=\xE8\xAD\xA6\xE5\xAF\x9F\xE5\xBA\x81/OU=\xE8\xAD\xA6\xE5\xAF\x9F\xE5\xBA\x81\xE9\x81\x8B\xE8\xBB\xA2\xE5\x85\x8D\xE8\xA8\xB1\xE8\xA8\xBC\xE8\xAA\x8D\xE8\xA8\xBC\xE5\xB1\x80
            X509v3 CRL Distribution Points: 
                Full Name:
                  DirName:C = JP, O = Japanese Government, OU = National Police Agency, OU = Prefectural Public Safety Commissions for ICDL
    Signature Algorithm: sha256WithRSAEncryption
    Signature Value:
        05:4d:fe:41:82:b8:9e:dc:b0:1a:fb:d2:07:9b:41:92:27:7e:
        c7:8b:a6:d4:04:e9:22:fa:e8:92:84:d1:7f:9e:86:f0:b7:15:
        5a:f4:8c:16:33:d3:ae:50:b3:25:01:ac:6b:96:5c:db:f6:4b:
        6e:a7:12:d9:b9:ea:da:f9:c3:cf:2b:56:4a:7c:c5:2e:4d:dc:
        cc:54:6d:8b:0f:dd:c9:ee:55:7d:45:65:88:41:8c:c0:d7:64:
        35:fb:a9:bb:c4:07:e6:a0:91:15:14:9a:c6:ab:38:13:5b:10:
        7b:8a:e9:95:69:9a:9d:7c:3d:48:3a:8b:81:cc:d2:e5:93:81:
        b1:3b:23:b8:00:1f:e5:00:8b:59:c3:7e:58:4f:46:84:ea:50:
        e9:31:89:20:c5:4e:31:fe:68:a7:ca:e0:92:de:9c:f9:d1:0a:
        d8:d5:dc:a2:24:b9:ba:bf:a4:6c:b3:0b:b4:bc:56:32:18:77:
        c7:ef:77:eb:01:c2:ef:51:a2:56:60:ae:d8:a1:02:d5:71:c1:
        56:a7:cd:b0:dc:ba:18:eb:18:ad:e1:a3:d2:7f:ac:6f:76:cb:
        73:07:bf:d8:89:eb:ac:a4:28:bf:83:c4:61:64:80:aa:c7:60:
        dc:56:3e:31:7e:3e:d0:26:20:a8:fc:13:0e:b4:75:a9:14:ff:
        22:a0:e6:6b
-----BEGIN CERTIFICATE-----
MIIFvjCCBKagAwIBAgISMzAwMDAwNTIQRjbf73yggnimMA0GCSqGSIb3DQEBCwUA
MGcxCzAJBgNVBAYTAkpQMRwwGgYDVQQKDBNKYXBhbmVzZSBHb3Zlcm5tZW50MR8w
HQYDVQQLDBZOYXRpb25hbCBQb2xpY2UgQWdlbmN5MRkwFwYDVQQLDBBOUEEgSUNE
TCBSb290IENBMB4XDTIzMDYxOTA2MjA1N1oXDTI4MDYxODE0NTk1OVowgaAxCzAJ
BgNVBAYTAkpQMRwwGgYDVQQKDBNKYXBhbmVzZSBHb3Zlcm5tZW50MR8wHQYDVQQL
DBZOYXRpb25hbCBQb2xpY2UgQWdlbmN5MTcwNQYDVQQLDC5QcmVmZWN0dXJhbCBQ
dWJsaWMgU2FmZXR5IENvbW1pc3Npb25zIGZvciBJQ0RMMRkwFwYDVQQDDBBLdW1h
bW90byBBbHRQUFNDMIIBIjANBgkqhkiG9w0BAQEFAAOCAQ8AMIIBCgKCAQEAydl0
sjH+qhjrUL2WnThuata75/gbBHzC7sNE8eyJ9IROOS9kN/cnJ37mm8ZyEybe+pRH
4Jna+PLdkP6q0TS+p1biCO3vAVK7KLw6xmz8SmyA+IesW7tFdpF4FL4RAlP3J3Oj
wuRPYiPt10fJc8TCKyB7Fp7Ca8xqoOGuxfLPXs34wCR4wxKcC3oW3Wm/Q0SjTlFc
RnRalwstkTLW7qp0N8oTjUOtUdIXJuLXIu6INjdKyqPfgUIm4w3ULZ3j1gp0a0Yi
81bXU3zsOCtb2tkkU+hh5TO+vO+d0DviLB3aRFRB+4fgw0X0W+2jWM8zq8s81ar5
dglIcIB7tgcMEWv9UwIDAQABo4ICKDCCAiQwgZgGA1UdIwSBkDCBjYAUEc2OYERH
V09Py+nny6FG37oOUIuha6RpMGcxCzAJBgNVBAYTAkpQMRwwGgYDVQQKDBNKYXBh
bmVzZSBHb3Zlcm5tZW50MR8wHQYDVQQLDBZOYXRpb25hbCBQb2xpY2UgQWdlbmN5
MRkwFwYDVQQLDBBOUEEgSUNETCBSb290IENBgggyMDAwMDAxNjAdBgNVHQ4EFgQU
X4gJzThJ+FRz8/nJ8WiKQNTdCpcwDgYDVR0PAQH/BAQDAgbAMEAGA1UdIAEB/wQ2
MDQwMgYLKoMIho4YBwUBAQowIzAhBggrBgEFBQcCARYVaHR0cDovL3d3dy5ucGEu
Z28uanAvMHQGA1UdEgRtMGukaTBnMQswCQYDVQQGEwJKUDEYMBYGA1UECgwP5pel
5pys5Zu95pS/5bqcMRIwEAYDVQQLDAnorablr5/luoExKjAoBgNVBAsMIeitpuWv
n+W6gemBi+i7ouWFjeioseiovOiqjeiovOWxgDCBnwYDVR0fBIGXMIGUMIGRoIGO
oIGLpIGIMIGFMQswCQYDVQQGEwJKUDEcMBoGA1UECgwTSmFwYW5lc2UgR292ZXJu
bWVudDEfMB0GA1UECwwWTmF0aW9uYWwgUG9saWNlIEFnZW5jeTE3MDUGA1UECwwu
UHJlZmVjdHVyYWwgUHVibGljIFNhZmV0eSBDb21taXNzaW9ucyBmb3IgSUNETDAN
BgkqhkiG9w0BAQsFAAOCAQEABU3+QYK4ntywGvvSB5tBkid+x4um1ATpIvrokoTR
f56G8LcVWvSMFjPTrlCzJQGsa5Zc2/ZLbqcS2bnq2vnDzytWSnzFLk3czFRtiw/d
ye5VfUVliEGMwNdkNfupu8QH5qCRFRSaxqs4E1sQe4rplWmanXw9SDqLgczS5ZOB
sTsjuAAf5QCLWcN+WE9GhOpQ6TGJIMVOMf5op8rgkt6c+dEK2NXcoiS5ur+kbLML
tLxWMhh3x+936wHC71GiVmCu2KEC1XHBVqfNsNy6GOsYreGj0n+sb3bLcwe/2Inr
rKQov4PEYWSAqsdg3FY+MX4+0CYgqPwTDrR1qRT/IqDmaw==
-----END CERTIFICATE-----
