Certificate:
    Data:
        Version: 3 (0x2)
        Serial Number:
            32:30:30:30:30:30:37:37
        Signature Algorithm: sha256WithRSAEncryption
        Issuer: C=JP, O=Japanese Government, OU=National Police Agency, OU=NPA ICDL Root CA
        Validity
            Not Before: Feb  6 04:42:29 2023 GMT
            Not After : Feb  5 14:59:59 2028 GMT
        Subject: C=JP, O=Japanese Government, OU=National Police Agency, OU=Prefectural Public Safety Commissions for ICDL, CN=Kumamoto PPSC
        Subject Public Key Info:
            Public Key Algorithm: rsaEncryption
                Public-Key: (2048 bit)
                Modulus:
                    00:94:4a:4a:c4:2f:f0:2b:1b:7e:da:3f:0c:9e:8a:
                    06:49:4c:d3:b4:b9:b7:13:c1:1e:f6:53:43:5f:92:
                    98:c8:25:5a:20:ac:91:38:47:9f:a5:90:85:74:c5:
                    25:e2:d6:90:18:ea:93:d8:88:43:56:ec:12:d0:62:
                    79:08:ec:77:ce:29:9f:1f:82:c0:74:56:e4:89:bd:
                    04:7b:ce:42:6e:e7:78:34:6b:02:99:4a:d3:70:2c:
                    81:5c:4c:95:d9:ec:43:76:81:8c:f9:a0:65:45:4d:
                    bd:cc:8c:a5:ce:fc:a7:96:96:e4:ca:72:6b:c2:41:
                    f3:97:fe:98:9e:d9:06:5b:00:42:ca:b5:84:3e:64:
                    20:69:92:6d:7c:e3:b2:40:ae:ab:b7:9d:91:2a:db:
                    81:9a:b9:7a:f9:fe:b0:78:02:41:c9:b7:77:76:a3:
                    8f:fb:65:89:ff:1b:c2:64:74:be:f8:6c:1a:7f:31:
                    79:5a:d9:5c:73:61:79:9a:21:ad:2e:44:f6:55:1b:
                    5f:9f:e8:0a:ea:09:00:b2:26:00:d7:c3:a1:d6:30:
                    32:ab:3d:c3:03:ab:b8:08:a1:7b:32:95:37:08:82:
                    ef:fe:1b:bb:d2:7a:75:14:49:7d:71:47:bf:b9:cb:
                    df:47:da:00:af:73:5d:28:7a:cb:fa:f8:98:fc:8c:
                    8b:a5
                Exponent: 65537 (0x10001)
        X509v3 extensions:
            X509v3 Authority Key Identifier: 
                keyid:11:CD:8E:60:44:47:57:4F:4F:CB:E9:E7:CB:A1:46:DF:BA:0E:50:8B
                DirName:/C=JP/O=Japanese Government/OU=National Police Agency/OU=NPA ICDL Root CA
                serial:32:30:30:30:30:30:31:36
            X509v3 Subject Key Identifier: 
                53:21:6D:8A:46:BE:62:5C:D8:DD:B7:4C:D8:57:41:1E:67:61:EF:4B
            X509v3 Key Usage: critical
                Digital Signature, Non Repudiation
            X509v3 Certificate Policies: critical
                Policy: 1.2.392.100120.7.5.1.1.10
                  CPS: http://www.npa.go.jp/
            X509v3 Subject Alternative Name: 
                DirName:/C=JP/O=\xE6\x97\xA5\xE6\x9C\xAC\xE5\x9B\xBD\xE6\x94\xBF\xE5\xBA\x9C/OU=\xE8\xAD\xA6\xE5\xAF\x9F\xE5\xBA\x81/OU=\xE9\x83\xBD\xE9\x81\x93\xE5\xBA\x9C\xE7\x9C\x8C\xE5\x85\xAC\xE5\xAE\x89\xE5\xA7\x94\xE5\x93\xA1\xE4\xBC\x9A
            X509v3 Issuer Alternative Name: 
                DirName:/C=JP/O=\xE6\x97\xA5\xE6\x9C\xAC\xE5\x9B\xBD\xE6\x94\xBF\xE5\xBA\x9C/OU=\xE8\xAD\xA6\xE5\xAF\x9F\xE5\xBA\x81/OU=\xE8\xAD\xA6\xE5\xAF\x9F\xE5\xBA\x81\xE9\x81\x8B\xE8\xBB\xA2\xE5\x85\x8D\xE8\xA8\xB1\xE8\xA8\xBC\xE8\xAA\x8D\xE8\xA8\xBC\xE5\xB1\x80
            X509v3 CRL Distribution Points: 
                Full Name:
                  DirName:C = JP, O = Japanese Government, OU = National Police Agency, OU = Prefectural Public Safety Commissions for ICDL
    Signature Algorithm: sha256WithRSAEncryption
    Signature Value:
        8a:3e:62:ab:6d:4b:ed:d8:df:bb:69:5e:b8:d8:36:f6:c5:8c:
        bc:64:86:a9:9e:50:d5:13:d3:c7:90:31:f3:cb:80:dc:af:46:
        ce:ff:fc:00:c2:64:1f:44:14:39:21:20:fa:4d:7d:79:57:b6:
        87:31:bf:86:5e:4f:75:22:55:5b:42:3c:ac:b6:ab:44:dc:17:
        2d:d0:ed:e7:ad:0f:b1:be:fa:15:7a:1d:98:35:12:2b:c5:d1:
        20:26:e9:b1:60:fd:7c:24:9f:8e:f5:34:4b:76:15:ff:81:68:
        e6:f7:d2:a7:c7:45:86:b0:f6:2d:ad:85:ba:ca:4e:22:dd:2f:
        4f:bc:d1:6e:66:45:8e:ec:ee:ab:50:09:53:b2:db:61:17:23:
        e0:48:dc:db:ce:03:02:21:0b:1e:58:ab:10:42:f8:89:21:74:
        08:b2:70:b6:a5:72:ac:22:bd:f8:6c:b7:36:fa:52:2b:3b:e1:
        c0:d2:40:df:34:bc:63:bf:5f:ab:cd:83:fe:58:1b:5f:c5:e9:
        2e:11:2d:0b:c3:54:c6:4d:54:80:4a:29:e7:ab:f1:70:06:51:
        06:a7:97:f1:d2:e1:cb:6d:a0:d4:f9:ad:d0:2f:2f:47:ef:66:
        0f:da:2d:2f:37:55:ba:40:1c:a1:10:4c:bc:92:6f:80:28:d0:
        89:4c:a8:5d
-----BEGIN CERTIFICATE-----
MIIGSTCCBTGgAwIBAgIIMjAwMDAwNzcwDQYJKoZIhvcNAQELBQAwZzELMAkGA1UE
BhMCSlAxHDAaBgNVBAoME0phcGFuZXNlIEdvdmVybm1lbnQxHzAdBgNVBAsMFk5h
dGlvbmFsIFBvbGljZSBBZ2VuY3kxGTAXBgNVBAsMEE5QQSBJQ0RMIFJvb3QgQ0Ew
HhcNMjMwMjA2MDQ0MjI5WhcNMjgwMjA1MTQ1OTU5WjCBnTELMAkGA1UEBhMCSlAx
HDAaBgNVBAoME0phcGFuZXNlIEdvdmVybm1lbnQxHzAdBgNVBAsMFk5hdGlvbmFs
IFBvbGljZSBBZ2VuY3kxNzA1BgNVBAsMLlByZWZlY3R1cmFsIFB1YmxpYyBTYWZl
dHkgQ29tbWlzc2lvbnMgZm9yIElDREwxFjAUBgNVBAMMDUt1bWFtb3RvIFBQU0Mw
ggEiMA0GCSqGSIb3DQEBAQUAA4IBDwAwggEKAoIBAQCUSkrEL/ArG37aPwyeigZJ
TNO0ubcTwR72U0NfkpjIJVogrJE4R5+lkIV0xSXi1pAY6pPYiENW7BLQYnkI7HfO
KZ8fgsB0VuSJvQR7zkJu53g0awKZStNwLIFcTJXZ7EN2gYz5oGVFTb3MjKXO/KeW
luTKcmvCQfOX/pie2QZbAELKtYQ+ZCBpkm1847JArqu3nZEq24GauXr5/rB4AkHJ
t3d2o4/7ZYn/G8JkdL74bBp/MXla2VxzYXmaIa0uRPZVG1+f6ArqCQCyJgDXw6HW
MDKrPcMDq7gIoXsylTcIgu/+G7vSenUUSX1xR7+5y99H2gCvc10oesv6+Jj8jIul
AgMBAAGjggLAMIICvDCBmAYDVR0jBIGQMIGNgBQRzY5gREdXT0/L6efLoUbfug5Q
i6FrpGkwZzELMAkGA1UEBhMCSlAxHDAaBgNVBAoME0phcGFuZXNlIEdvdmVybm1l
bnQxHzAdBgNVBAsMFk5hdGlvbmFsIFBvbGljZSBBZ2VuY3kxGTAXBgNVBAsMEE5Q
QSBJQ0RMIFJvb3QgQ0GCCDIwMDAwMDE2MB0GA1UdDgQWBBRTIW2KRr5iXNjdt0zY
V0EeZ2HvSzAOBgNVHQ8BAf8EBAMCBsAwQAYDVR0gAQH/BDYwNDAyBgsqgwiGjhgH
BQEBCjAjMCEGCCsGAQUFBwIBFhVodHRwOi8vd3d3Lm5wYS5nby5qcC8wgZUGA1Ud
EQSBjTCBiqSBhzCBhDELMAkGA1UEBhMCSlAxGDAWBgNVBAoMD+aXpeacrOWbveaU
v+W6nDESMBAGA1UECwwJ6K2m5a+f5bqBMSQwIgYDVQQLDBvpg73pgZPlupznnIzl
hazlronlp5Tlk6HkvJoxITAfBgNVBAMMGOeGiuacrOecjOWFrOWuieWnlOWToeS8
mjB0BgNVHRIEbTBrpGkwZzELMAkGA1UEBhMCSlAxGDAWBgNVBAoMD+aXpeacrOWb
veaUv+W6nDESMBAGA1UECwwJ6K2m5a+f5bqBMSowKAYDVQQLDCHorablr5/luoHp
gYvou6LlhY3oqLHoqLzoqo3oqLzlsYAwgZ8GA1UdHwSBlzCBlDCBkaCBjqCBi6SB
iDCBhTELMAkGA1UEBhMCSlAxHDAaBgNVBAoME0phcGFuZXNlIEdvdmVybm1lbnQx
HzAdBgNVBAsMFk5hdGlvbmFsIFBvbGljZSBBZ2VuY3kxNzA1BgNVBAsMLlByZWZl
Y3R1cmFsIFB1YmxpYyBTYWZldHkgQ29tbWlzc2lvbnMgZm9yIElDREwwDQYJKoZI
hvcNAQELBQADggEBAIo+YqttS+3Y37tpXrjYNvbFjLxkhqmeUNUT08eQMfPLgNyv
Rs7//ADCZB9EFDkhIPpNfXlXtocxv4ZeT3UiVVtCPKy2q0TcFy3Q7eetD7G++hV6
HZg1EivF0SAm6bFg/Xwkn471NEt2Ff+BaOb30qfHRYaw9i2thbrKTiLdL0+80W5m
RY7s7qtQCVOy22EXI+BI3NvOAwIhCx5YqxBC+IkhdAiycLalcqwivfhstzb6Uis7
4cDSQN80vGO/X6vNg/5YG1/F6S4RLQvDVMZNVIBKKeer8XAGUQanl/HS4cttoNT5
rdAvL0fvZg/aLS83VbpAHKEQTLySb4Ao0IlMqF0=
-----END CERTIFICATE-----
