Certificate:
    Data:
        Version: 3 (0x2)
        Serial Number:
            32:30:30:30:30:30:31:35
        Signature Algorithm: sha256WithRSAEncryption
        Issuer: C=JP, O=Japanese Government, OU=National Police Agency, OU=NPA ICDL Root CA
        Validity
            Not Before: Jan  9 04:49:37 2020 GMT
            Not After : Jan  8 14:59:59 2025 GMT
        Subject: C=JP, O=Japanese Government, OU=National Police Agency, OU=Prefectural Public Safety Commissions for ICDL, CN=Kumamoto PPSC
        Subject Public Key Info:
            Public Key Algorithm: rsaEncryption
                Public-Key: (2048 bit)
                Modulus:
                    00:c9:d9:74:b2:31:fe:aa:18:eb:50:bd:96:9d:38:
                    6e:6a:d6:bb:e7:f8:1b:04:7c:c2:ee:c3:44:f1:ec:
                    89:f4:84:4e:39:2f:64:37:f7:27:27:7e:e6:9b:c6:
                    72:13:26:de:fa:94:47:e0:99:da:f8:f2:dd:90:fe:
                    aa:d1:34:be:a7:56:e2:08:ed:ef:01:52:bb:28:bc:
                    3a:c6:6c:fc:4a:6c:80:f8:87:ac:5b:bb:45:76:91:
                    78:14:be:11:02:53:f7:27:73:a3:c2:e4:4f:62:23:
                    ed:d7:47:c9:73:c4:c2:2b:20:7b:16:9e:c2:6b:cc:
                    6a:a0:e1:ae:c5:f2:cf:5e:cd:f8:c0:24:78:c3:12:
                    9c:0b:7a:16:dd:69:bf:43:44:a3:4e:51:5c:46:74:
                    5a:97:0b:2d:91:32:d6:ee:aa:74:37:ca:13:8d:43:
                    ad:51:d2:17:26:e2:d7:22:ee:88:36:37:4a:ca:a3:
                    df:81:42:26:e3:0d:d4:2d:9d:e3:d6:0a:74:6b:46:
                    22:f3:56:d7:53:7c:ec:38:2b:5b:da:d9:24:53:e8:
                    61:e5:33:be:bc:ef:9d:d0:3b:e2:2c:1d:da:44:54:
                    41:fb:87:e0:c3:45:f4:5b:ed:a3:58:cf:33:ab:cb:
                    3c:d5:aa:f9:76:09:48:70:80:7b:b6:07:0c:11:6b:
                    fd:53
                Exponent: 65537 (0x10001)
        X509v3 extensions:
            X509v3 Authority Key Identifier: 
                keyid:96:FD:C7:59:CC:80:F2:94:F9:1C:64:8D:81:52:33:FB:E7:C5:02:BB
                DirName:/C=JP/O=Japanese Government/OU=National Police Agency/OU=NPA ICDL Root CA
                serial:01:32:91:52:00:00:00:7E
            X509v3 Subject Key Identifier: 
                5F:88:09:CD:38:49:F8:54:73:F3:F9:C9:F1:68:8A:40:D4:DD:0A:97
            X509v3 Key Usage: critical
                Digital Signature, Non Repudiation
            X509v3 Certificate Policies: critical
                Policy: 1.2.392.100120.7.5.1.1.10
                  CPS: http://www.npa.go.jp/
            X509v3 Subject Alternative Name: 
                DirName:/C=JP/O=\xE6\x97\xA5\xE6\x9C\xAC\xE5\x9B\xBD\xE6\x94\xBF\xE5\xBA\x9C/OU=\xE8\xAD\xA6\xE5\xAF\x9F\xE5\xBA\x81/OU=\xE9\x83\xBD\xE9\x81\x93\xE5\xBA\x9C\xE7\x9C\x8C\xE5\x85\xAC\xE5\xAE\x89\xE5\xA7\x94\xE5\x93\xA1\xE4\xBC\x9A
            X509v3 Issuer Alternative Name: 
                DirName:/C=JP/O=\xE6\x97\xA5\xE6\x9C\xAC\xE5\x9B\xBD\xE6\x94\xBF\xE5\xBA\x9C/OU=\xE8\xAD\xA6\xE5\xAF\x9F\xE5\xBA\x81/OU=\xE8\xAD\xA6\xE5\xAF\x9F\xE5\xBA\x81\xE9\x81\x8B\xE8\xBB\xA2\xE5\x85\x8D\xE8\xA8\xB1\xE8\xA8\xBC\xE8\xAA\x8D\xE8\xA8\xBC\xE5\xB1\x80
            X509v3 CRL Distribution Points: 
                Full Name:
                  DirName:C = JP, O = Japanese Government, OU = National Police Agency, OU = Prefectural Public Safety Commissions for ICDL
    Signature Algorithm: sha256WithRSAEncryption
    Signature Value:
        ce:5d:12:96:80:95:5a:3c:fe:ba:b5:b3:c2:8c:af:e6:fd:f9:
        3a:7c:15:57:0c:b3:37:c1:28:d2:c4:62:a7:d8:e6:1a:56:89:
        10:93:68:24:a4:29:13:90:ff:9f:62:54:f3:24:7a:59:ca:8a:
        1d:47:40:c8:e3:be:ae:c0:c9:ef:c5:61:0e:b9:ec:a6:69:b7:
        f4:99:5d:74:32:fb:dd:7e:46:aa:5a:5f:a2:9d:83:20:bb:d9:
        c3:87:87:bf:d1:f7:71:85:40:e7:4a:b8:be:19:28:f4:f0:8a:
        b3:64:15:0e:18:25:1f:06:a7:2f:40:ca:58:6c:2f:b6:55:4f:
        3a:eb:a6:08:b2:73:a4:1d:4c:9f:30:a4:b7:f9:bc:c7:9e:03:
        5d:fd:06:87:ce:f3:68:6f:0c:b0:66:42:c5:8a:c5:92:0c:6d:
        7a:5a:db:84:a2:62:27:31:27:a9:6f:10:d3:ff:cc:cf:14:6f:
        60:cb:e0:cb:d8:08:ff:a1:8f:af:1a:be:fa:73:23:53:07:82:
        2f:86:79:dd:97:c1:ec:a9:5d:4c:7c:3b:16:b9:59:b5:b6:3b:
        ba:06:6f:8d:69:b5:36:ba:92:0d:31:ab:3b:a0:ff:ba:43:cd:
        16:aa:ce:95:bf:4a:f9:56:07:bf:21:0c:94:16:1c:74:00:7c:
        69:7c:a5:9b
-----BEGIN CERTIFICATE-----
MIIGSTCCBTGgAwIBAgIIMjAwMDAwMTUwDQYJKoZIhvcNAQELBQAwZzELMAkGA1UE
BhMCSlAxHDAaBgNVBAoME0phcGFuZXNlIEdvdmVybm1lbnQxHzAdBgNVBAsMFk5h
dGlvbmFsIFBvbGljZSBBZ2VuY3kxGTAXBgNVBAsMEE5QQSBJQ0RMIFJvb3QgQ0Ew
HhcNMjAwMTA5MDQ0OTM3WhcNMjUwMTA4MTQ1OTU5WjCBnTELMAkGA1UEBhMCSlAx
HDAaBgNVBAoME0phcGFuZXNlIEdvdmVybm1lbnQxHzAdBgNVBAsMFk5hdGlvbmFs
IFBvbGljZSBBZ2VuY3kxNzA1BgNVBAsMLlByZWZlY3R1cmFsIFB1YmxpYyBTYWZl
dHkgQ29tbWlzc2lvbnMgZm9yIElDREwxFjAUBgNVBAMMDUt1bWFtb3RvIFBQU0Mw
ggEiMA0GCSqGSIb3DQEBAQUAA4IBDwAwggEKAoIBAQDJ2XSyMf6qGOtQvZadOG5q
1rvn+BsEfMLuw0Tx7In0hE45L2Q39ycnfuabxnITJt76lEfgmdr48t2Q/qrRNL6n
VuII7e8BUrsovDrGbPxKbID4h6xbu0V2kXgUvhECU/cnc6PC5E9iI+3XR8lzxMIr
IHsWnsJrzGqg4a7F8s9ezfjAJHjDEpwLehbdab9DRKNOUVxGdFqXCy2RMtbuqnQ3
yhONQ61R0hcm4tci7og2N0rKo9+BQibjDdQtnePWCnRrRiLzVtdTfOw4K1va2SRT
6GHlM768753QO+IsHdpEVEH7h+DDRfRb7aNYzzOryzzVqvl2CUhwgHu2BwwRa/1T
AgMBAAGjggLAMIICvDCBmAYDVR0jBIGQMIGNgBSW/cdZzIDylPkcZI2BUjP758UC
u6FrpGkwZzELMAkGA1UEBhMCSlAxHDAaBgNVBAoME0phcGFuZXNlIEdvdmVybm1l
bnQxHzAdBgNVBAsMFk5hdGlvbmFsIFBvbGljZSBBZ2VuY3kxGTAXBgNVBAsMEE5Q
QSBJQ0RMIFJvb3QgQ0GCCAEykVIAAAB+MB0GA1UdDgQWBBRfiAnNOEn4VHPz+cnx
aIpA1N0KlzAOBgNVHQ8BAf8EBAMCBsAwQAYDVR0gAQH/BDYwNDAyBgsqgwiGjhgH
BQEBCjAjMCEGCCsGAQUFBwIBFhVodHRwOi8vd3d3Lm5wYS5nby5qcC8wgZUGA1Ud
EQSBjTCBiqSBhzCBhDELMAkGA1UEBhMCSlAxGDAWBgNVBAoMD+aXpeacrOWbveaU
v+W6nDESMBAGA1UECwwJ6K2m5a+f5bqBMSQwIgYDVQQLDBvpg73pgZPlupznnIzl
hazlronlp5Tlk6HkvJoxITAfBgNVBAMMGOeGiuacrOecjOWFrOWuieWnlOWToeS8
mjB0BgNVHRIEbTBrpGkwZzELMAkGA1UEBhMCSlAxGDAWBgNVBAoMD+aXpeacrOWb
veaUv+W6nDESMBAGA1UECwwJ6K2m5a+f5bqBMSowKAYDVQQLDCHorablr5/luoHp
gYvou6LlhY3oqLHoqLzoqo3oqLzlsYAwgZ8GA1UdHwSBlzCBlDCBkaCBjqCBi6SB
iDCBhTELMAkGA1UEBhMCSlAxHDAaBgNVBAoME0phcGFuZXNlIEdvdmVybm1lbnQx
HzAdBgNVBAsMFk5hdGlvbmFsIFBvbGljZSBBZ2VuY3kxNzA1BgNVBAsMLlByZWZl
Y3R1cmFsIFB1YmxpYyBTYWZldHkgQ29tbWlzc2lvbnMgZm9yIElDREwwDQYJKoZI
hvcNAQELBQADggEBAM5dEpaAlVo8/rq1s8KMr+b9+Tp8FVcMszfBKNLEYqfY5hpW
iRCTaCSkKROQ/59iVPMkelnKih1HQMjjvq7Aye/FYQ657KZpt/SZXXQy+91+Rqpa
X6KdgyC72cOHh7/R93GFQOdKuL4ZKPTwirNkFQ4YJR8Gpy9AylhsL7ZVTzrrpgiy
c6QdTJ8wpLf5vMeeA139BofO82hvDLBmQsWKxZIMbXpa24SiYicxJ6lvENP/zM8U
b2DL4MvYCP+hj68avvpzI1MHgi+Ged2XweypXUx8Oxa5WbW2O7oGb41ptTa6kg0x
qzug/7pDzRaqzpW/SvlWB78hDJQWHHQAfGl8pZs=
-----END CERTIFICATE-----
