Certificate:
    Data:
        Version: 3 (0x2)
        Serial Number:
            33:30:30:30:30:30:39:35
        Signature Algorithm: sha256WithRSAEncryption
        Issuer: C=JP, O=Japanese Government, OU=National Police Agency, OU=NPA ICDL Root CA
        Validity
            Not Before: Sep 17 07:05:07 2024 GMT
            Not After : Sep 16 14:59:59 2029 GMT
        Subject: C=JP, O=Japanese Government, OU=National Police Agency, OU=Prefectural Public Safety Commissions for ICDL, CN=Kushiro APSC
        Subject Public Key Info:
            Public Key Algorithm: rsaEncryption
                Public-Key: (2048 bit)
                Modulus:
                    00:c5:18:65:dd:e4:c9:f0:ef:c4:e2:31:ad:49:bb:
                    91:55:bd:2a:f3:89:64:48:29:da:10:e9:bd:de:36:
                    06:f3:ee:d7:09:bf:8c:00:ed:36:2c:42:99:14:c3:
                    e6:b9:7f:57:43:5d:20:2e:a8:39:8e:5f:1d:68:f8:
                    b1:44:f3:85:c1:51:93:f2:14:23:0b:a7:04:42:41:
                    83:b1:f0:aa:ff:a8:c3:23:61:d8:ba:76:46:37:e4:
                    3e:8f:1f:e4:0b:91:03:b4:b0:41:3d:d2:f0:0d:58:
                    71:9c:02:98:a9:67:d4:55:b6:6b:ab:91:ca:8e:fd:
                    67:e5:ac:df:ce:1e:4b:ad:43:7a:c3:19:ed:b9:9d:
                    6f:56:26:4d:1e:e4:94:98:61:3c:9b:9d:b0:88:ea:
                    eb:58:23:1a:3a:5c:5a:ef:b2:d2:14:61:7d:4c:3a:
                    51:2c:66:1d:f2:2d:88:82:b5:c1:33:c5:14:29:79:
                    72:a5:fe:c9:59:5e:88:4b:70:7e:ad:0a:8e:b9:cb:
                    9f:e2:66:f5:72:7d:e6:17:db:c2:8d:a7:75:be:b1:
                    8f:8c:59:24:41:63:20:c0:67:66:4e:de:c0:5b:dd:
                    61:4b:22:0e:63:5d:de:c6:56:2d:c2:be:96:0e:a0:
                    bc:69:68:2d:ec:81:68:bc:94:d9:29:3b:f7:1b:9f:
                    4a:23
                Exponent: 65537 (0x10001)
        X509v3 extensions:
            X509v3 Authority Key Identifier: 
                keyid:11:CD:8E:60:44:47:57:4F:4F:CB:E9:E7:CB:A1:46:DF:BA:0E:50:8B
                DirName:/C=JP/O=Japanese Government/OU=National Police Agency/OU=NPA ICDL Root CA
                serial:32:30:30:30:30:30:31:36
            X509v3 Subject Key Identifier: 
                D5:FC:35:96:5E:F7:D2:79:82:97:EC:E4:9C:52:7E:5B:53:73:79:07
            X509v3 Key Usage: critical
                Digital Signature, Non Repudiation
            X509v3 Certificate Policies: critical
                Policy: 1.2.392.100120.7.5.1.1.10
                  CPS: http://www.npa.go.jp/
            X509v3 Subject Alternative Name: 
                DirName:/C=JP/O=\xE6\x97\xA5\xE6\x9C\xAC\xE5\x9B\xBD\xE6\x94\xBF\xE5\xBA\x9C/OU=\xE8\xAD\xA6\xE5\xAF\x9F\xE5\xBA\x81/OU=\xE9\x83\xBD\xE9\x81\x93\xE5\xBA\x9C\xE7\x9C\x8C\xE5\x85\xAC\xE5\xAE\x89\xE5\xA7\x94\xE5\x93\xA1\xE4\xBC\x9A
            X509v3 Issuer Alternative Name: 
                DirName:/C=JP/O=\xE6\x97\xA5\xE6\x9C\xAC\xE5\x9B\xBD\xE6\x94\xBF\xE5\xBA\x9C/OU=\xE8\xAD\xA6\xE5\xAF\x9F\xE5\xBA\x81/OU=\xE8\xAD\xA6\xE5\xAF\x9F\xE5\xBA\x81\xE9\x81\x8B\xE8\xBB\xA2\xE5\x85\x8D\xE8\xA8\xB1\xE8\xA8\xBC\xE8\xAA\x8D\xE8\xA8\xBC\xE5\xB1\x80
            X509v3 CRL Distribution Points: 
                Full Name:
                  DirName:C = JP, O = Japanese Government, OU = National Police Agency, OU = Prefectural Public Safety Commissions for ICDL
    Signature Algorithm: sha256WithRSAEncryption
    Signature Value:
        82:e4:3a:5e:f5:57:76:a4:25:7e:96:05:59:fd:5c:a7:3a:b6:
        2a:9d:4c:40:52:3a:89:69:b6:3c:28:d3:eb:b8:1d:0b:cf:3e:
        e2:7d:bd:e7:b8:ca:8d:7f:2a:f1:9e:1f:26:08:77:56:b4:85:
        33:0b:5b:2f:d5:f4:30:86:4a:59:3d:2b:0e:d9:52:21:29:e5:
        de:fb:49:c3:97:50:36:b5:38:99:91:ba:fc:69:61:98:a9:df:
        a3:89:32:8c:43:67:6c:ed:a8:7a:c0:3e:25:20:33:96:7b:99:
        37:a7:ea:5c:30:32:a2:9e:19:1f:05:96:f4:9e:c1:08:8d:6a:
        78:8a:b6:93:7f:71:bc:53:fe:20:b0:65:44:a0:52:db:36:da:
        a0:71:22:ca:13:8c:8f:30:66:b8:7b:3d:1e:86:5d:75:6f:d3:
        7f:b8:81:bc:b7:86:16:dd:a7:df:14:0c:33:30:d7:a9:8f:66:
        44:82:24:46:a7:e4:f1:cf:74:5b:7d:f7:46:d7:3a:dd:2f:8a:
        98:5f:1e:45:03:54:63:14:ad:0f:6b:41:38:e5:a4:b4:42:72:
        05:15:25:39:73:92:78:a1:2d:7e:f6:31:f7:72:db:09:f4:2f:
        b2:f7:3e:73:78:1b:f6:6a:71:17:13:2b:1b:e1:1f:a0:39:fa:
        10:b2:3e:8e
-----BEGIN CERTIFICATE-----
MIIGSzCCBTOgAwIBAgIIMzAwMDAwOTUwDQYJKoZIhvcNAQELBQAwZzELMAkGA1UE
BhMCSlAxHDAaBgNVBAoME0phcGFuZXNlIEdvdmVybm1lbnQxHzAdBgNVBAsMFk5h
dGlvbmFsIFBvbGljZSBBZ2VuY3kxGTAXBgNVBAsMEE5QQSBJQ0RMIFJvb3QgQ0Ew
HhcNMjQwOTE3MDcwNTA3WhcNMjkwOTE2MTQ1OTU5WjCBnDELMAkGA1UEBhMCSlAx
HDAaBgNVBAoME0phcGFuZXNlIEdvdmVybm1lbnQxHzAdBgNVBAsMFk5hdGlvbmFs
IFBvbGljZSBBZ2VuY3kxNzA1BgNVBAsMLlByZWZlY3R1cmFsIFB1YmxpYyBTYWZl
dHkgQ29tbWlzc2lvbnMgZm9yIElDREwxFTATBgNVBAMMDEt1c2hpcm8gQVBTQzCC
ASIwDQYJKoZIhvcNAQEBBQADggEPADCCAQoCggEBAMUYZd3kyfDvxOIxrUm7kVW9
KvOJZEgp2hDpvd42BvPu1wm/jADtNixCmRTD5rl/V0NdIC6oOY5fHWj4sUTzhcFR
k/IUIwunBEJBg7Hwqv+owyNh2Lp2RjfkPo8f5AuRA7SwQT3S8A1YcZwCmKln1FW2
a6uRyo79Z+Ws384eS61DesMZ7bmdb1YmTR7klJhhPJudsIjq61gjGjpcWu+y0hRh
fUw6USxmHfItiIK1wTPFFCl5cqX+yVleiEtwfq0KjrnLn+Jm9XJ95hfbwo2ndb6x
j4xZJEFjIMBnZk7ewFvdYUsiDmNd3sZWLcK+lg6gvGloLeyBaLyU2Sk79xufSiMC
AwEAAaOCAsMwggK/MIGYBgNVHSMEgZAwgY2AFBHNjmBER1dPT8vp58uhRt+6DlCL
oWukaTBnMQswCQYDVQQGEwJKUDEcMBoGA1UECgwTSmFwYW5lc2UgR292ZXJubWVu
dDEfMB0GA1UECwwWTmF0aW9uYWwgUG9saWNlIEFnZW5jeTEZMBcGA1UECwwQTlBB
IElDREwgUm9vdCBDQYIIMjAwMDAwMTYwHQYDVR0OBBYEFNX8NZZe99J5gpfs5JxS
fltTc3kHMA4GA1UdDwEB/wQEAwIGwDBABgNVHSABAf8ENjA0MDIGCyqDCIaOGAcF
AQEKMCMwIQYIKwYBBQUHAgEWFWh0dHA6Ly93d3cubnBhLmdvLmpwLzCBmAYDVR0R
BIGQMIGNpIGKMIGHMQswCQYDVQQGEwJKUDEYMBYGA1UECgwP5pel5pys5Zu95pS/
5bqcMRIwEAYDVQQLDAnorablr5/luoExJDAiBgNVBAsMG+mDvemBk+W6nOecjOWF
rOWuieWnlOWToeS8mjEkMCIGA1UEAwwb6Yen6Lev5pa56Z2i5YWs5a6J5aeU5ZOh
5LyaMHQGA1UdEgRtMGukaTBnMQswCQYDVQQGEwJKUDEYMBYGA1UECgwP5pel5pys
5Zu95pS/5bqcMRIwEAYDVQQLDAnorablr5/luoExKjAoBgNVBAsMIeitpuWvn+W6
gemBi+i7ouWFjeioseiovOiqjeiovOWxgDCBnwYDVR0fBIGXMIGUMIGRoIGOoIGL
pIGIMIGFMQswCQYDVQQGEwJKUDEcMBoGA1UECgwTSmFwYW5lc2UgR292ZXJubWVu
dDEfMB0GA1UECwwWTmF0aW9uYWwgUG9saWNlIEFnZW5jeTE3MDUGA1UECwwuUHJl
ZmVjdHVyYWwgUHVibGljIFNhZmV0eSBDb21taXNzaW9ucyBmb3IgSUNETDANBgkq
hkiG9w0BAQsFAAOCAQEAguQ6XvVXdqQlfpYFWf1cpzq2Kp1MQFI6iWm2PCjT67gd
C88+4n2957jKjX8q8Z4fJgh3VrSFMwtbL9X0MIZKWT0rDtlSISnl3vtJw5dQNrU4
mZG6/GlhmKnfo4kyjENnbO2oesA+JSAzlnuZN6fqXDAyop4ZHwWW9J7BCI1qeIq2
k39xvFP+ILBlRKBS2zbaoHEiyhOMjzBmuHs9HoZddW/Tf7iBvLeGFt2n3xQMMzDX
qY9mRIIkRqfk8c90W333Rtc63S+KmF8eRQNUYxStD2tBOOWktEJyBRUlOXOSeKEt
fvYx93LbCfQvsvc+c3gb9mpxFxMrG+EfoDn6ELI+jg==
-----END CERTIFICATE-----
