Certificate:
    Data:
        Version: 3 (0x2)
        Serial Number:
            32:30:30:30:30:30:33:38
        Signature Algorithm: sha256WithRSAEncryption
        Issuer: C=JP, O=Japanese Government, OU=National Police Agency, OU=NPA ICDL Root CA
        Validity
            Not Before: Feb  6 01:24:15 2023 GMT
            Not After : Feb  5 14:59:59 2028 GMT
        Subject: C=JP, O=Japanese Government, OU=National Police Agency, OU=Prefectural Public Safety Commissions for ICDL, CN=Kushiro APSC
        Subject Public Key Info:
            Public Key Algorithm: rsaEncryption
                Public-Key: (2048 bit)
                Modulus:
                    00:cb:df:70:67:04:bf:f2:6d:49:5a:ce:89:25:15:
                    3d:37:b5:93:ef:68:cd:8b:19:96:fd:9e:29:5d:27:
                    e2:1c:fa:04:b7:dc:6a:bd:6b:fb:c8:e6:33:3a:39:
                    ba:87:dc:5d:3d:f6:dc:c7:43:32:06:ae:bc:36:3f:
                    b5:66:8d:0a:15:e6:3f:fe:7d:f2:03:f0:38:38:93:
                    1f:56:28:e3:7c:5f:33:1c:d8:fb:f8:3f:ac:06:e3:
                    80:e5:ce:5e:05:4f:4c:96:ae:89:17:92:80:bf:66:
                    2b:14:ed:67:c3:bd:4c:44:6e:66:92:50:58:31:d7:
                    b4:18:f1:d0:69:85:15:5d:f6:d9:0d:6a:3e:1b:b7:
                    5d:b9:6f:49:cd:7d:13:c6:41:1c:86:c9:b6:03:84:
                    29:81:2f:9a:78:93:e9:8d:25:dd:a9:8b:24:f2:c3:
                    08:fc:04:b2:b6:87:20:d4:c4:da:b9:5e:40:6a:82:
                    60:62:f0:3b:b3:70:73:39:5c:a3:b3:1d:24:cd:e4:
                    65:ee:1b:de:f6:e3:f1:c3:de:8f:6c:c5:16:de:3a:
                    79:10:56:a6:eb:47:55:eb:d0:6d:9c:d3:f0:da:4d:
                    25:58:3e:53:f2:2e:8f:8b:85:9b:84:11:67:52:e6:
                    2a:3d:90:f4:c6:57:1d:94:ab:01:77:a2:cd:a3:c2:
                    37:d1
                Exponent: 65537 (0x10001)
        X509v3 extensions:
            X509v3 Authority Key Identifier: 
                keyid:11:CD:8E:60:44:47:57:4F:4F:CB:E9:E7:CB:A1:46:DF:BA:0E:50:8B
                DirName:/C=JP/O=Japanese Government/OU=National Police Agency/OU=NPA ICDL Root CA
                serial:32:30:30:30:30:30:31:36
            X509v3 Subject Key Identifier: 
                22:0C:8E:50:AB:AB:16:17:4E:42:F6:F7:9F:65:28:0F:8D:76:E9:A4
            X509v3 Key Usage: critical
                Digital Signature, Non Repudiation
            X509v3 Certificate Policies: critical
                Policy: 1.2.392.100120.7.5.1.1.10
                  CPS: http://www.npa.go.jp/
            X509v3 Subject Alternative Name: 
                DirName:/C=JP/O=\xE6\x97\xA5\xE6\x9C\xAC\xE5\x9B\xBD\xE6\x94\xBF\xE5\xBA\x9C/OU=\xE8\xAD\xA6\xE5\xAF\x9F\xE5\xBA\x81/OU=\xE9\x83\xBD\xE9\x81\x93\xE5\xBA\x9C\xE7\x9C\x8C\xE5\x85\xAC\xE5\xAE\x89\xE5\xA7\x94\xE5\x93\xA1\xE4\xBC\x9A
            X509v3 Issuer Alternative Name: 
                DirName:/C=JP/O=\xE6\x97\xA5\xE6\x9C\xAC\xE5\x9B\xBD\xE6\x94\xBF\xE5\xBA\x9C/OU=\xE8\xAD\xA6\xE5\xAF\x9F\xE5\xBA\x81/OU=\xE8\xAD\xA6\xE5\xAF\x9F\xE5\xBA\x81\xE9\x81\x8B\xE8\xBB\xA2\xE5\x85\x8D\xE8\xA8\xB1\xE8\xA8\xBC\xE8\xAA\x8D\xE8\xA8\xBC\xE5\xB1\x80
            X509v3 CRL Distribution Points: 
                Full Name:
                  DirName:C = JP, O = Japanese Government, OU = National Police Agency, OU = Prefectural Public Safety Commissions for ICDL
    Signature Algorithm: sha256WithRSAEncryption
    Signature Value:
        9f:0d:9c:68:91:4e:fd:8c:c8:50:d2:4a:ac:d9:47:d1:75:d2:
        fe:7f:7d:de:9d:cc:54:ce:18:09:db:41:a8:90:89:74:9b:2e:
        64:9a:a5:3b:80:1e:18:e4:8a:4e:b8:75:af:52:5a:94:70:19:
        9d:09:d0:eb:a8:35:e0:ac:8c:01:11:ae:6b:9b:7d:59:3c:30:
        11:7c:5a:d4:1e:4b:e3:13:94:3d:9a:a5:07:72:f0:42:24:c2:
        69:72:85:d1:9a:bc:bc:98:fe:b1:1d:8e:d6:9a:18:6c:2e:00:
        7e:d2:c2:a5:9f:c9:a7:ad:00:a7:b4:47:6d:3e:66:7d:39:0e:
        b6:92:33:80:7d:6e:73:c7:77:15:a4:a9:30:de:c3:2e:a3:f1:
        e6:88:f6:91:71:9d:ae:86:d4:8c:b9:b4:c1:89:4a:87:91:08:
        a5:5f:6a:93:3b:1f:42:09:ea:1e:d5:63:00:2c:f6:35:9a:f4:
        4d:e6:73:6d:47:c3:de:1c:3b:5d:e0:1f:4a:65:c6:41:0d:33:
        b7:29:03:17:a3:0a:66:7f:b3:ce:3e:0a:db:34:d0:7b:e0:4c:
        6b:dc:df:39:5f:12:29:57:f6:9f:3e:7d:9d:be:83:a9:35:53:
        97:55:3f:8b:64:ca:6f:a9:2b:dc:58:6e:0d:de:10:d0:da:73:
        f1:29:13:50
-----BEGIN CERTIFICATE-----
MIIGSzCCBTOgAwIBAgIIMjAwMDAwMzgwDQYJKoZIhvcNAQELBQAwZzELMAkGA1UE
BhMCSlAxHDAaBgNVBAoME0phcGFuZXNlIEdvdmVybm1lbnQxHzAdBgNVBAsMFk5h
dGlvbmFsIFBvbGljZSBBZ2VuY3kxGTAXBgNVBAsMEE5QQSBJQ0RMIFJvb3QgQ0Ew
HhcNMjMwMjA2MDEyNDE1WhcNMjgwMjA1MTQ1OTU5WjCBnDELMAkGA1UEBhMCSlAx
HDAaBgNVBAoME0phcGFuZXNlIEdvdmVybm1lbnQxHzAdBgNVBAsMFk5hdGlvbmFs
IFBvbGljZSBBZ2VuY3kxNzA1BgNVBAsMLlByZWZlY3R1cmFsIFB1YmxpYyBTYWZl
dHkgQ29tbWlzc2lvbnMgZm9yIElDREwxFTATBgNVBAMMDEt1c2hpcm8gQVBTQzCC
ASIwDQYJKoZIhvcNAQEBBQADggEPADCCAQoCggEBAMvfcGcEv/JtSVrOiSUVPTe1
k+9ozYsZlv2eKV0n4hz6BLfcar1r+8jmMzo5uofcXT323MdDMgauvDY/tWaNChXm
P/598gPwODiTH1Yo43xfMxzY+/g/rAbjgOXOXgVPTJauiReSgL9mKxTtZ8O9TERu
ZpJQWDHXtBjx0GmFFV322Q1qPhu3XblvSc19E8ZBHIbJtgOEKYEvmniT6Y0l3amL
JPLDCPwEsraHINTE2rleQGqCYGLwO7Nwczlco7MdJM3kZe4b3vbj8cPej2zFFt46
eRBWputHVevQbZzT8NpNJVg+U/Iuj4uFm4QRZ1LmKj2Q9MZXHZSrAXeizaPCN9EC
AwEAAaOCAsMwggK/MIGYBgNVHSMEgZAwgY2AFBHNjmBER1dPT8vp58uhRt+6DlCL
oWukaTBnMQswCQYDVQQGEwJKUDEcMBoGA1UECgwTSmFwYW5lc2UgR292ZXJubWVu
dDEfMB0GA1UECwwWTmF0aW9uYWwgUG9saWNlIEFnZW5jeTEZMBcGA1UECwwQTlBB
IElDREwgUm9vdCBDQYIIMjAwMDAwMTYwHQYDVR0OBBYEFCIMjlCrqxYXTkL2959l
KA+NdumkMA4GA1UdDwEB/wQEAwIGwDBABgNVHSABAf8ENjA0MDIGCyqDCIaOGAcF
AQEKMCMwIQYIKwYBBQUHAgEWFWh0dHA6Ly93d3cubnBhLmdvLmpwLzCBmAYDVR0R
BIGQMIGNpIGKMIGHMQswCQYDVQQGEwJKUDEYMBYGA1UECgwP5pel5pys5Zu95pS/
5bqcMRIwEAYDVQQLDAnorablr5/luoExJDAiBgNVBAsMG+mDvemBk+W6nOecjOWF
rOWuieWnlOWToeS8mjEkMCIGA1UEAwwb6Yen6Lev5pa56Z2i5YWs5a6J5aeU5ZOh
5LyaMHQGA1UdEgRtMGukaTBnMQswCQYDVQQGEwJKUDEYMBYGA1UECgwP5pel5pys
5Zu95pS/5bqcMRIwEAYDVQQLDAnorablr5/luoExKjAoBgNVBAsMIeitpuWvn+W6
gemBi+i7ouWFjeioseiovOiqjeiovOWxgDCBnwYDVR0fBIGXMIGUMIGRoIGOoIGL
pIGIMIGFMQswCQYDVQQGEwJKUDEcMBoGA1UECgwTSmFwYW5lc2UgR292ZXJubWVu
dDEfMB0GA1UECwwWTmF0aW9uYWwgUG9saWNlIEFnZW5jeTE3MDUGA1UECwwuUHJl
ZmVjdHVyYWwgUHVibGljIFNhZmV0eSBDb21taXNzaW9ucyBmb3IgSUNETDANBgkq
hkiG9w0BAQsFAAOCAQEAnw2caJFO/YzIUNJKrNlH0XXS/n993p3MVM4YCdtBqJCJ
dJsuZJqlO4AeGOSKTrh1r1JalHAZnQnQ66g14KyMARGua5t9WTwwEXxa1B5L4xOU
PZqlB3LwQiTCaXKF0Zq8vJj+sR2O1poYbC4AftLCpZ/Jp60Ap7RHbT5mfTkOtpIz
gH1uc8d3FaSpMN7DLqPx5oj2kXGdrobUjLm0wYlKh5EIpV9qkzsfQgnqHtVjACz2
NZr0TeZzbUfD3hw7XeAfSmXGQQ0ztykDF6MKZn+zzj4K2zTQe+BMa9zfOV8SKVf2
nz59nb6DqTVTl1U/i2TKb6kr3FhuDd4Q0Npz8SkTUA==
-----END CERTIFICATE-----
