Certificate:
    Data:
        Version: 3 (0x2)
        Serial Number:
            33:30:30:30:30:30:37:35
        Signature Algorithm: sha256WithRSAEncryption
        Issuer: C=JP, O=Japanese Government, OU=National Police Agency, OU=NPA ICDL Root CA
        Validity
            Not Before: Feb  2 12:10:29 2024 GMT
            Not After : Feb  1 14:59:59 2029 GMT
        Subject: C=JP, O=Japanese Government, OU=National Police Agency, OU=Prefectural Public Safety Commissions for ICDL, CN=Kushiro AltAPSC
        Subject Public Key Info:
            Public Key Algorithm: rsaEncryption
                Public-Key: (2048 bit)
                Modulus:
                    00:c3:18:8f:27:2d:b5:f3:ac:10:3a:92:16:42:e5:
                    0e:e2:80:62:9e:c8:82:1c:16:76:49:72:4f:c5:62:
                    24:e7:9b:8a:84:12:1b:8d:ef:6b:5d:c9:11:34:4d:
                    c4:75:b0:34:eb:ba:e4:9a:ee:01:7e:d1:e7:8f:c9:
                    45:67:9d:9f:df:c5:55:86:3f:a7:9d:64:97:2e:59:
                    7f:11:48:e1:78:ed:6d:87:27:86:db:a6:a5:ef:1c:
                    a5:d7:72:ff:99:70:b9:f9:b8:60:19:14:67:91:0c:
                    49:2d:93:2b:95:ca:6d:b0:17:d6:6a:9f:42:f7:f4:
                    ae:fb:ac:b6:0a:8d:55:5b:64:b8:4c:da:a4:8f:00:
                    39:cb:5e:3f:fa:fb:12:d7:53:fa:1d:cb:0f:d2:94:
                    92:bc:52:3b:ae:0e:81:df:80:29:ae:8f:e7:77:f7:
                    7e:5a:e8:7a:54:cb:1d:97:b1:7d:57:eb:f5:ae:3c:
                    e3:f8:ef:2b:3f:23:47:47:cc:72:c2:3a:35:51:f1:
                    ec:40:32:0c:02:d1:01:3b:e7:d4:2d:22:7c:6c:e8:
                    24:d3:86:be:b1:a9:06:90:de:22:63:e6:06:31:2f:
                    30:4b:d9:4c:04:42:06:42:76:e3:a0:07:d5:11:f9:
                    f1:39:4c:0d:4c:07:26:b2:e7:92:6b:77:d0:32:bb:
                    2d:bd
                Exponent: 65537 (0x10001)
        X509v3 extensions:
            X509v3 Authority Key Identifier: 
                keyid:11:CD:8E:60:44:47:57:4F:4F:CB:E9:E7:CB:A1:46:DF:BA:0E:50:8B
                DirName:/C=JP/O=Japanese Government/OU=National Police Agency/OU=NPA ICDL Root CA
                serial:32:30:30:30:30:30:31:36
            X509v3 Subject Key Identifier: 
                D7:83:5E:E8:30:D8:42:EB:3D:4C:CB:50:22:98:1B:63:73:A3:2C:2E
            X509v3 Key Usage: critical
                Digital Signature, Non Repudiation
            X509v3 Certificate Policies: critical
                Policy: 1.2.392.100120.7.5.1.1.10
                  CPS: http://www.npa.go.jp/
            X509v3 Issuer Alternative Name: 
                DirName:/C=JP/O=\xE6\x97\xA5\xE6\x9C\xAC\xE5\x9B\xBD\xE6\x94\xBF\xE5\xBA\x9C/OU=\xE8\xAD\xA6\xE5\xAF\x9F\xE5\xBA\x81/OU=\xE8\xAD\xA6\xE5\xAF\x9F\xE5\xBA\x81\xE9\x81\x8B\xE8\xBB\xA2\xE5\x85\x8D\xE8\xA8\xB1\xE8\xA8\xBC\xE8\xAA\x8D\xE8\xA8\xBC\xE5\xB1\x80
            X509v3 CRL Distribution Points: 
                Full Name:
                  DirName:C = JP, O = Japanese Government, OU = National Police Agency, OU = Prefectural Public Safety Commissions for ICDL
    Signature Algorithm: sha256WithRSAEncryption
    Signature Value:
        02:fb:70:bd:29:fe:c9:39:63:07:4e:49:71:63:2e:1c:2e:13:
        c7:57:e2:e6:e2:b3:6d:6b:60:f4:72:8d:90:b4:9e:a1:96:c8:
        48:88:5c:0a:1f:77:ba:c1:cf:11:0e:f6:fb:6a:63:26:0a:f2:
        ed:02:4b:41:c3:71:4d:14:f0:fe:26:35:c4:33:0e:eb:6b:ca:
        3f:70:a8:ad:de:79:28:78:68:d2:f3:5a:ed:4f:3a:28:69:df:
        c1:f7:c6:3b:34:99:e8:38:e1:72:fe:d7:f5:1d:9f:53:b9:21:
        09:c2:a8:63:00:e3:95:65:60:32:e0:93:d2:68:57:66:fa:0f:
        e1:c7:69:53:53:21:4d:3a:01:96:cf:7d:e8:e1:ab:5a:ca:43:
        72:87:9a:a5:f4:ca:e1:b8:30:78:ab:69:e1:d6:f5:0a:0e:57:
        06:d6:4c:b1:a3:af:b3:fd:7d:cf:f8:dd:8a:66:83:89:c3:e3:
        02:ec:a9:8e:da:21:ae:e2:bf:a3:d4:c9:05:32:f3:6c:e0:f2:
        6e:53:13:d2:69:7d:46:62:74:7e:f7:42:00:ee:1e:22:60:6b:
        a2:07:3b:db:08:2e:66:d7:9c:5c:78:98:d2:c4:34:89:7d:d1:
        ce:c4:8c:78:6f:aa:a6:db:e6:b8:02:7b:60:c4:2f:60:c6:78:
        f2:f1:a3:98
-----BEGIN CERTIFICATE-----
MIIFszCCBJugAwIBAgIIMzAwMDAwNzUwDQYJKoZIhvcNAQELBQAwZzELMAkGA1UE
BhMCSlAxHDAaBgNVBAoME0phcGFuZXNlIEdvdmVybm1lbnQxHzAdBgNVBAsMFk5h
dGlvbmFsIFBvbGljZSBBZ2VuY3kxGTAXBgNVBAsMEE5QQSBJQ0RMIFJvb3QgQ0Ew
HhcNMjQwMjAyMTIxMDI5WhcNMjkwMjAxMTQ1OTU5WjCBnzELMAkGA1UEBhMCSlAx
HDAaBgNVBAoME0phcGFuZXNlIEdvdmVybm1lbnQxHzAdBgNVBAsMFk5hdGlvbmFs
IFBvbGljZSBBZ2VuY3kxNzA1BgNVBAsMLlByZWZlY3R1cmFsIFB1YmxpYyBTYWZl
dHkgQ29tbWlzc2lvbnMgZm9yIElDREwxGDAWBgNVBAMMD0t1c2hpcm8gQWx0QVBT
QzCCASIwDQYJKoZIhvcNAQEBBQADggEPADCCAQoCggEBAMMYjycttfOsEDqSFkLl
DuKAYp7IghwWdklyT8ViJOebioQSG43va13JETRNxHWwNOu65JruAX7R54/JRWed
n9/FVYY/p51kly5ZfxFI4XjtbYcnhtumpe8cpddy/5lwufm4YBkUZ5EMSS2TK5XK
bbAX1mqfQvf0rvustgqNVVtkuEzapI8AOcteP/r7EtdT+h3LD9KUkrxSO64Ogd+A
Ka6P53f3flroelTLHZexfVfr9a484/jvKz8jR0fMcsI6NVHx7EAyDALRATvn1C0i
fGzoJNOGvrGpBpDeImPmBjEvMEvZTARCBkJ246AH1RH58TlMDUwHJrLnkmt30DK7
Lb0CAwEAAaOCAigwggIkMIGYBgNVHSMEgZAwgY2AFBHNjmBER1dPT8vp58uhRt+6
DlCLoWukaTBnMQswCQYDVQQGEwJKUDEcMBoGA1UECgwTSmFwYW5lc2UgR292ZXJu
bWVudDEfMB0GA1UECwwWTmF0aW9uYWwgUG9saWNlIEFnZW5jeTEZMBcGA1UECwwQ
TlBBIElDREwgUm9vdCBDQYIIMjAwMDAwMTYwHQYDVR0OBBYEFNeDXugw2ELrPUzL
UCKYG2NzoywuMA4GA1UdDwEB/wQEAwIGwDBABgNVHSABAf8ENjA0MDIGCyqDCIaO
GAcFAQEKMCMwIQYIKwYBBQUHAgEWFWh0dHA6Ly93d3cubnBhLmdvLmpwLzB0BgNV
HRIEbTBrpGkwZzELMAkGA1UEBhMCSlAxGDAWBgNVBAoMD+aXpeacrOWbveaUv+W6
nDESMBAGA1UECwwJ6K2m5a+f5bqBMSowKAYDVQQLDCHorablr5/luoHpgYvou6Ll
hY3oqLHoqLzoqo3oqLzlsYAwgZ8GA1UdHwSBlzCBlDCBkaCBjqCBi6SBiDCBhTEL
MAkGA1UEBhMCSlAxHDAaBgNVBAoME0phcGFuZXNlIEdvdmVybm1lbnQxHzAdBgNV
BAsMFk5hdGlvbmFsIFBvbGljZSBBZ2VuY3kxNzA1BgNVBAsMLlByZWZlY3R1cmFs
IFB1YmxpYyBTYWZldHkgQ29tbWlzc2lvbnMgZm9yIElDREwwDQYJKoZIhvcNAQEL
BQADggEBAAL7cL0p/sk5YwdOSXFjLhwuE8dX4ubis21rYPRyjZC0nqGWyEiIXAof
d7rBzxEO9vtqYyYK8u0CS0HDcU0U8P4mNcQzDutryj9wqK3eeSh4aNLzWu1POihp
38H3xjs0meg44XL+1/Udn1O5IQnCqGMA45VlYDLgk9JoV2b6D+HHaVNTIU06AZbP
fejhq1rKQ3KHmqX0yuG4MHiraeHW9QoOVwbWTLGjr7P9fc/43Ypmg4nD4wLsqY7a
Ia7iv6PUyQUy82zg8m5TE9JpfUZidH73QgDuHiJga6IHO9sILmbXnFx4mNLENIl9
0c7EjHhvqqbb5rgCe2DEL2DGePLxo5g=
-----END CERTIFICATE-----
