Certificate:
    Data:
        Version: 3 (0x2)
        Serial Number:
            33:30:30:30:30:30:33:35:21:49:83:c3:e0:8a:c2:7c:80:ee
        Signature Algorithm: sha256WithRSAEncryption
        Issuer: C=JP, O=Japanese Government, OU=National Police Agency, OU=NPA ICDL Root CA
        Validity
            Not Before: Jun 19 05:58:25 2023 GMT
            Not After : Jun 18 14:59:59 2028 GMT
        Subject: C=JP, O=Japanese Government, OU=National Police Agency, OU=Prefectural Public Safety Commissions for ICDL, CN=Kyoto AltPPSC
        Subject Public Key Info:
            Public Key Algorithm: rsaEncryption
                Public-Key: (2048 bit)
                Modulus:
                    00:82:ba:78:0f:09:74:50:4e:7d:58:0a:ec:4c:39:
                    2c:67:56:4a:7a:37:51:89:e1:ad:1a:d6:7a:fb:cd:
                    3d:78:48:7f:0c:49:0f:2f:41:e8:4c:be:a4:3a:37:
                    b4:e8:8d:96:b3:ad:25:5c:ca:73:09:0f:9f:b4:c6:
                    e5:a8:ae:f9:51:60:80:e6:23:f9:b3:ab:5f:b8:3c:
                    d3:2c:c9:3d:6e:13:c1:8e:81:8c:3e:b8:91:08:b2:
                    7d:5b:12:f3:eb:6d:e7:e2:ef:8b:16:5a:3b:cf:9c:
                    20:ff:df:de:a6:03:31:df:05:86:5b:e0:78:2a:06:
                    e1:93:e9:3b:23:0b:d9:f0:63:2b:40:c5:ed:fb:29:
                    28:37:6a:0d:07:35:52:88:db:1c:24:cc:ab:10:fa:
                    3f:af:9c:9c:c6:e6:cd:7f:1c:25:2a:89:d5:b2:f8:
                    f9:2e:a5:7c:62:f8:cd:27:0e:3e:6d:be:60:f0:9d:
                    24:24:64:d6:9a:47:ac:3a:41:95:3a:da:f0:0f:a3:
                    5b:2b:38:dd:1f:93:2a:d0:10:ec:1b:1c:80:46:79:
                    fd:4d:75:1b:76:23:dd:9d:4a:59:fa:fe:d4:50:6f:
                    a1:00:80:9f:91:fb:ba:b3:fb:76:4d:87:fd:37:d6:
                    40:5c:46:98:02:84:94:09:4e:df:33:e4:01:c9:78:
                    53:31
                Exponent: 65537 (0x10001)
        X509v3 extensions:
            X509v3 Authority Key Identifier: 
                keyid:11:CD:8E:60:44:47:57:4F:4F:CB:E9:E7:CB:A1:46:DF:BA:0E:50:8B
                DirName:/C=JP/O=Japanese Government/OU=National Police Agency/OU=NPA ICDL Root CA
                serial:32:30:30:30:30:30:31:36
            X509v3 Subject Key Identifier: 
                AB:46:93:9C:D2:EE:0A:AD:8E:F0:BE:C8:66:B3:CA:0E:A3:50:AC:18
            X509v3 Key Usage: critical
                Digital Signature, Non Repudiation
            X509v3 Certificate Policies: critical
                Policy: 1.2.392.100120.7.5.1.1.10
                  CPS: http://www.npa.go.jp/
            X509v3 Issuer Alternative Name: 
                DirName:/C=JP/O=\xE6\x97\xA5\xE6\x9C\xAC\xE5\x9B\xBD\xE6\x94\xBF\xE5\xBA\x9C/OU=\xE8\xAD\xA6\xE5\xAF\x9F\xE5\xBA\x81/OU=\xE8\xAD\xA6\xE5\xAF\x9F\xE5\xBA\x81\xE9\x81\x8B\xE8\xBB\xA2\xE5\x85\x8D\xE8\xA8\xB1\xE8\xA8\xBC\xE8\xAA\x8D\xE8\xA8\xBC\xE5\xB1\x80
            X509v3 CRL Distribution Points: 
                Full Name:
                  DirName:C = JP, O = Japanese Government, OU = National Police Agency, OU = Prefectural Public Safety Commissions for ICDL
    Signature Algorithm: sha256WithRSAEncryption
    Signature Value:
        82:b5:f2:eb:2a:74:07:75:b9:8b:93:7c:4c:a6:48:14:b5:79:
        83:f7:ee:fb:24:b3:9f:54:a0:eb:9e:bc:19:c4:91:e4:01:34:
        18:62:5c:c5:4d:a2:0c:b1:4c:47:5e:a5:5b:e3:95:cc:3b:1b:
        25:11:f9:ac:97:bb:34:e0:15:4c:32:cb:93:97:fc:d4:1a:43:
        6d:a8:8d:d0:b6:21:e2:24:85:ff:2a:e6:82:8d:47:40:12:87:
        3e:e5:f4:2a:dd:16:da:b6:bc:7e:8b:76:1c:3e:33:42:99:52:
        97:bc:f8:27:ee:a8:eb:bd:3b:ac:e8:ff:cf:77:12:d4:65:c2:
        2c:fd:43:d8:bf:ba:79:93:46:87:57:8e:98:38:ec:8c:27:e5:
        f0:6b:51:6b:dd:10:d3:84:24:84:89:d0:fc:16:ac:54:c7:e7:
        ae:73:c9:0a:0e:33:f7:64:cc:49:92:8b:d8:ed:b2:76:fe:ab:
        81:a7:fd:b0:9e:de:36:81:7c:0b:f7:0e:94:37:37:eb:7e:ee:
        85:61:21:79:6f:81:8b:51:53:43:45:5d:c9:4e:c9:2f:90:1c:
        36:7e:8b:21:7b:7c:85:53:c8:33:ef:75:37:e3:63:70:e9:aa:
        e3:89:39:bc:a9:24:56:2e:e7:6b:2e:38:c9:83:5c:90:3b:09:
        f7:5a:f3:3e
-----BEGIN CERTIFICATE-----
MIIFuzCCBKOgAwIBAgISMzAwMDAwMzUhSYPD4IrCfIDuMA0GCSqGSIb3DQEBCwUA
MGcxCzAJBgNVBAYTAkpQMRwwGgYDVQQKDBNKYXBhbmVzZSBHb3Zlcm5tZW50MR8w
HQYDVQQLDBZOYXRpb25hbCBQb2xpY2UgQWdlbmN5MRkwFwYDVQQLDBBOUEEgSUNE
TCBSb290IENBMB4XDTIzMDYxOTA1NTgyNVoXDTI4MDYxODE0NTk1OVowgZ0xCzAJ
BgNVBAYTAkpQMRwwGgYDVQQKDBNKYXBhbmVzZSBHb3Zlcm5tZW50MR8wHQYDVQQL
DBZOYXRpb25hbCBQb2xpY2UgQWdlbmN5MTcwNQYDVQQLDC5QcmVmZWN0dXJhbCBQ
dWJsaWMgU2FmZXR5IENvbW1pc3Npb25zIGZvciBJQ0RMMRYwFAYDVQQDDA1LeW90
byBBbHRQUFNDMIIBIjANBgkqhkiG9w0BAQEFAAOCAQ8AMIIBCgKCAQEAgrp4Dwl0
UE59WArsTDksZ1ZKejdRieGtGtZ6+809eEh/DEkPL0HoTL6kOje06I2Ws60lXMpz
CQ+ftMblqK75UWCA5iP5s6tfuDzTLMk9bhPBjoGMPriRCLJ9WxLz623n4u+LFlo7
z5wg/9/epgMx3wWGW+B4Kgbhk+k7IwvZ8GMrQMXt+ykoN2oNBzVSiNscJMyrEPo/
r5ycxubNfxwlKonVsvj5LqV8YvjNJw4+bb5g8J0kJGTWmkesOkGVOtrwD6NbKzjd
H5Mq0BDsGxyARnn9TXUbdiPdnUpZ+v7UUG+hAICfkfu6s/t2TYf9N9ZAXEaYAoSU
CU7fM+QByXhTMQIDAQABo4ICKDCCAiQwgZgGA1UdIwSBkDCBjYAUEc2OYERHV09P
y+nny6FG37oOUIuha6RpMGcxCzAJBgNVBAYTAkpQMRwwGgYDVQQKDBNKYXBhbmVz
ZSBHb3Zlcm5tZW50MR8wHQYDVQQLDBZOYXRpb25hbCBQb2xpY2UgQWdlbmN5MRkw
FwYDVQQLDBBOUEEgSUNETCBSb290IENBgggyMDAwMDAxNjAdBgNVHQ4EFgQUq0aT
nNLuCq2O8L7IZrPKDqNQrBgwDgYDVR0PAQH/BAQDAgbAMEAGA1UdIAEB/wQ2MDQw
MgYLKoMIho4YBwUBAQowIzAhBggrBgEFBQcCARYVaHR0cDovL3d3dy5ucGEuZ28u
anAvMHQGA1UdEgRtMGukaTBnMQswCQYDVQQGEwJKUDEYMBYGA1UECgwP5pel5pys
5Zu95pS/5bqcMRIwEAYDVQQLDAnorablr5/luoExKjAoBgNVBAsMIeitpuWvn+W6
gemBi+i7ouWFjeioseiovOiqjeiovOWxgDCBnwYDVR0fBIGXMIGUMIGRoIGOoIGL
pIGIMIGFMQswCQYDVQQGEwJKUDEcMBoGA1UECgwTSmFwYW5lc2UgR292ZXJubWVu
dDEfMB0GA1UECwwWTmF0aW9uYWwgUG9saWNlIEFnZW5jeTE3MDUGA1UECwwuUHJl
ZmVjdHVyYWwgUHVibGljIFNhZmV0eSBDb21taXNzaW9ucyBmb3IgSUNETDANBgkq
hkiG9w0BAQsFAAOCAQEAgrXy6yp0B3W5i5N8TKZIFLV5g/fu+ySzn1Sg6568GcSR
5AE0GGJcxU2iDLFMR16lW+OVzDsbJRH5rJe7NOAVTDLLk5f81BpDbaiN0LYh4iSF
/yrmgo1HQBKHPuX0Kt0W2ra8fot2HD4zQplSl7z4J+6o6707rOj/z3cS1GXCLP1D
2L+6eZNGh1eOmDjsjCfl8GtRa90Q04QkhInQ/BasVMfnrnPJCg4z92TMSZKL2O2y
dv6rgaf9sJ7eNoF8C/cOlDc3637uhWEheW+Bi1FTQ0VdyU7JL5AcNn6LIXt8hVPI
M+91N+NjcOmq44k5vKkkVi7nay44yYNckDsJ91rzPg==
-----END CERTIFICATE-----
