Certificate:
    Data:
        Version: 3 (0x2)
        Serial Number:
            33:30:30:30:30:31:31:30
        Signature Algorithm: sha256WithRSAEncryption
        Issuer: C=JP, O=Japanese Government, OU=National Police Agency, OU=NPA ICDL Root CA
        Validity
            Not Before: Sep 17 07:30:44 2024 GMT
            Not After : Sep 16 14:59:59 2029 GMT
        Subject: C=JP, O=Japanese Government, OU=National Police Agency, OU=Prefectural Public Safety Commissions for ICDL, CN=Kyoto PPSC
        Subject Public Key Info:
            Public Key Algorithm: rsaEncryption
                Public-Key: (2048 bit)
                Modulus:
                    00:d3:03:30:da:01:97:d0:0f:b8:f8:2e:01:03:9a:
                    33:72:c9:6d:48:cc:55:c6:c2:57:14:0c:0c:7c:02:
                    91:a1:ef:92:c7:4a:7e:99:76:a2:17:a8:ff:9d:fe:
                    a6:f3:ae:96:50:b7:a2:3c:ed:42:0c:87:3d:f1:a0:
                    8a:8d:9d:27:e4:b4:ff:35:e6:29:e3:77:46:de:80:
                    4d:63:a1:0e:31:49:cb:46:3d:bd:d7:1f:3f:d2:26:
                    36:56:82:ac:59:06:46:63:d4:80:4e:2a:fd:86:5e:
                    cc:af:cd:d4:39:4d:d5:1d:2d:98:54:9c:66:df:8f:
                    a9:bc:4d:a2:45:74:a1:da:7d:64:28:6b:fd:e0:96:
                    9d:9c:17:d7:9b:b2:3a:ba:d9:ff:08:7d:97:d1:c7:
                    95:71:da:6f:ac:75:f7:9c:16:49:5e:55:d6:50:b9:
                    d4:fc:61:27:2f:9c:9b:b8:98:9f:c1:b5:65:94:ae:
                    2a:6e:08:7c:f2:14:3a:9e:3d:df:a3:93:a2:ee:e2:
                    34:8f:be:4b:56:88:8f:46:60:8f:17:a0:21:0b:86:
                    ee:96:b0:7a:18:c1:9e:30:04:9b:0b:dc:48:9f:b3:
                    c8:db:59:c7:dc:96:db:aa:27:94:46:79:bf:50:62:
                    86:46:37:20:cf:d1:d7:f6:ff:39:b2:6c:58:5a:21:
                    b0:3b
                Exponent: 65537 (0x10001)
        X509v3 extensions:
            X509v3 Authority Key Identifier: 
                keyid:11:CD:8E:60:44:47:57:4F:4F:CB:E9:E7:CB:A1:46:DF:BA:0E:50:8B
                DirName:/C=JP/O=Japanese Government/OU=National Police Agency/OU=NPA ICDL Root CA
                serial:32:30:30:30:30:30:31:36
            X509v3 Subject Key Identifier: 
                3F:DB:9C:DB:10:08:F1:D0:D2:80:F7:03:A2:DD:DA:2A:09:AE:80:1B
            X509v3 Key Usage: critical
                Digital Signature, Non Repudiation
            X509v3 Certificate Policies: critical
                Policy: 1.2.392.100120.7.5.1.1.10
                  CPS: http://www.npa.go.jp/
            X509v3 Subject Alternative Name: 
                DirName:/C=JP/O=\xE6\x97\xA5\xE6\x9C\xAC\xE5\x9B\xBD\xE6\x94\xBF\xE5\xBA\x9C/OU=\xE8\xAD\xA6\xE5\xAF\x9F\xE5\xBA\x81/OU=\xE9\x83\xBD\xE9\x81\x93\xE5\xBA\x9C\xE7\x9C\x8C\xE5\x85\xAC\xE5\xAE\x89\xE5\xA7\x94\xE5\x93\xA1\xE4\xBC\x9A
            X509v3 Issuer Alternative Name: 
                DirName:/C=JP/O=\xE6\x97\xA5\xE6\x9C\xAC\xE5\x9B\xBD\xE6\x94\xBF\xE5\xBA\x9C/OU=\xE8\xAD\xA6\xE5\xAF\x9F\xE5\xBA\x81/OU=\xE8\xAD\xA6\xE5\xAF\x9F\xE5\xBA\x81\xE9\x81\x8B\xE8\xBB\xA2\xE5\x85\x8D\xE8\xA8\xB1\xE8\xA8\xBC\xE8\xAA\x8D\xE8\xA8\xBC\xE5\xB1\x80
            X509v3 CRL Distribution Points: 
                Full Name:
                  DirName:C = JP, O = Japanese Government, OU = National Police Agency, OU = Prefectural Public Safety Commissions for ICDL
    Signature Algorithm: sha256WithRSAEncryption
    Signature Value:
        84:94:5f:bb:cf:11:c0:d3:e0:43:f5:aa:a5:f9:7e:23:f8:fa:
        ea:2b:c9:cd:4b:d3:26:8d:f3:82:92:a5:80:32:80:26:0f:79:
        b9:f6:1c:f5:c2:36:b7:5f:59:a0:85:fd:dc:1f:53:45:7b:31:
        40:b7:5d:1d:e9:89:79:fc:f8:34:f1:d5:5d:cc:d1:32:1d:84:
        7c:0c:30:0b:1c:d2:9d:03:c1:a6:d9:16:95:f8:54:47:4f:06:
        a7:22:70:d0:a7:2b:a5:be:f3:60:43:0b:33:19:0a:01:fc:9d:
        d7:d7:50:a1:62:79:fe:ce:ef:f7:30:98:9c:9f:5d:d9:ef:fd:
        8b:60:f1:a3:d9:d4:1e:1e:6b:39:bc:2b:43:f3:0a:61:99:1e:
        af:72:aa:86:f5:99:40:cd:3a:37:cb:7c:62:c7:39:ec:45:07:
        59:c4:ef:89:e8:c2:ac:9c:29:7d:9d:8f:97:f6:59:0c:3a:54:
        2b:ad:1b:ed:6b:8d:a1:7c:6a:df:2d:89:42:7d:7c:b3:33:58:
        73:45:79:48:7d:99:6d:70:b4:3c:63:3e:9d:4f:12:cd:e1:f5:
        fd:36:d3:c4:01:a3:2c:d6:e1:c1:d3:c2:72:e8:78:a9:0b:5c:
        3a:82:76:f8:66:cd:f1:0f:c6:7f:d4:cd:3e:56:68:9e:fa:cf:
        f2:c2:d8:6a
-----BEGIN CERTIFICATE-----
MIIGRjCCBS6gAwIBAgIIMzAwMDAxMTAwDQYJKoZIhvcNAQELBQAwZzELMAkGA1UE
BhMCSlAxHDAaBgNVBAoME0phcGFuZXNlIEdvdmVybm1lbnQxHzAdBgNVBAsMFk5h
dGlvbmFsIFBvbGljZSBBZ2VuY3kxGTAXBgNVBAsMEE5QQSBJQ0RMIFJvb3QgQ0Ew
HhcNMjQwOTE3MDczMDQ0WhcNMjkwOTE2MTQ1OTU5WjCBmjELMAkGA1UEBhMCSlAx
HDAaBgNVBAoME0phcGFuZXNlIEdvdmVybm1lbnQxHzAdBgNVBAsMFk5hdGlvbmFs
IFBvbGljZSBBZ2VuY3kxNzA1BgNVBAsMLlByZWZlY3R1cmFsIFB1YmxpYyBTYWZl
dHkgQ29tbWlzc2lvbnMgZm9yIElDREwxEzARBgNVBAMMCkt5b3RvIFBQU0MwggEi
MA0GCSqGSIb3DQEBAQUAA4IBDwAwggEKAoIBAQDTAzDaAZfQD7j4LgEDmjNyyW1I
zFXGwlcUDAx8ApGh75LHSn6ZdqIXqP+d/qbzrpZQt6I87UIMhz3xoIqNnSfktP81
5injd0begE1joQ4xSctGPb3XHz/SJjZWgqxZBkZj1IBOKv2GXsyvzdQ5TdUdLZhU
nGbfj6m8TaJFdKHafWQoa/3glp2cF9ebsjq62f8IfZfRx5Vx2m+sdfecFkleVdZQ
udT8YScvnJu4mJ/BtWWUripuCHzyFDqePd+jk6Lu4jSPvktWiI9GYI8XoCELhu6W
sHoYwZ4wBJsL3Eifs8jbWcfcltuqJ5RGeb9QYoZGNyDP0df2/zmybFhaIbA7AgMB
AAGjggLAMIICvDCBmAYDVR0jBIGQMIGNgBQRzY5gREdXT0/L6efLoUbfug5Qi6Fr
pGkwZzELMAkGA1UEBhMCSlAxHDAaBgNVBAoME0phcGFuZXNlIEdvdmVybm1lbnQx
HzAdBgNVBAsMFk5hdGlvbmFsIFBvbGljZSBBZ2VuY3kxGTAXBgNVBAsMEE5QQSBJ
Q0RMIFJvb3QgQ0GCCDIwMDAwMDE2MB0GA1UdDgQWBBQ/25zbEAjx0NKA9wOi3doq
Ca6AGzAOBgNVHQ8BAf8EBAMCBsAwQAYDVR0gAQH/BDYwNDAyBgsqgwiGjhgHBQEB
CjAjMCEGCCsGAQUFBwIBFhVodHRwOi8vd3d3Lm5wYS5nby5qcC8wgZUGA1UdEQSB
jTCBiqSBhzCBhDELMAkGA1UEBhMCSlAxGDAWBgNVBAoMD+aXpeacrOWbveaUv+W6
nDESMBAGA1UECwwJ6K2m5a+f5bqBMSQwIgYDVQQLDBvpg73pgZPlupznnIzlhazl
ronlp5Tlk6HkvJoxITAfBgNVBAMMGOS6rOmDveW6nOWFrOWuieWnlOWToeS8mjB0
BgNVHRIEbTBrpGkwZzELMAkGA1UEBhMCSlAxGDAWBgNVBAoMD+aXpeacrOWbveaU
v+W6nDESMBAGA1UECwwJ6K2m5a+f5bqBMSowKAYDVQQLDCHorablr5/luoHpgYvo
u6LlhY3oqLHoqLzoqo3oqLzlsYAwgZ8GA1UdHwSBlzCBlDCBkaCBjqCBi6SBiDCB
hTELMAkGA1UEBhMCSlAxHDAaBgNVBAoME0phcGFuZXNlIEdvdmVybm1lbnQxHzAd
BgNVBAsMFk5hdGlvbmFsIFBvbGljZSBBZ2VuY3kxNzA1BgNVBAsMLlByZWZlY3R1
cmFsIFB1YmxpYyBTYWZldHkgQ29tbWlzc2lvbnMgZm9yIElDREwwDQYJKoZIhvcN
AQELBQADggEBAISUX7vPEcDT4EP1qqX5fiP4+uoryc1L0yaN84KSpYAygCYPebn2
HPXCNrdfWaCF/dwfU0V7MUC3XR3piXn8+DTx1V3M0TIdhHwMMAsc0p0DwabZFpX4
VEdPBqcicNCnK6W+82BDCzMZCgH8ndfXUKFief7O7/cwmJyfXdnv/Ytg8aPZ1B4e
azm8K0PzCmGZHq9yqob1mUDNOjfLfGLHOexFB1nE74nowqycKX2dj5f2WQw6VCut
G+1rjaF8at8tiUJ9fLMzWHNFeUh9mW1wtDxjPp1PEs3h9f0208QBoyzW4cHTwnLo
eKkLXDqCdvhmzfEPxn/UzT5WaJ76z/LC2Go=
-----END CERTIFICATE-----
