Certificate:
    Data:
        Version: 3 (0x2)
        Serial Number:
            32:30:30:30:30:30:36:32
        Signature Algorithm: sha256WithRSAEncryption
        Issuer: C=JP, O=Japanese Government, OU=National Police Agency, OU=NPA ICDL Root CA
        Validity
            Not Before: Feb  6 02:33:57 2023 GMT
            Not After : Feb  5 14:59:59 2028 GMT
        Subject: C=JP, O=Japanese Government, OU=National Police Agency, OU=Prefectural Public Safety Commissions for ICDL, CN=Kyoto PPSC
        Subject Public Key Info:
            Public Key Algorithm: rsaEncryption
                Public-Key: (2048 bit)
                Modulus:
                    00:bb:a3:ee:f6:45:47:3f:57:6b:7f:dc:b5:d2:22:
                    e8:54:03:9c:7f:72:ac:8d:99:87:9f:80:71:60:f0:
                    2f:78:1b:c4:04:10:ee:17:62:6d:80:9d:1c:9d:5d:
                    b9:35:f4:23:1c:53:f2:57:1b:f5:b8:3b:cd:2d:5c:
                    18:be:3d:49:a0:7b:db:54:8c:f0:ae:48:77:2a:fb:
                    e2:dc:58:58:97:28:d9:ed:9a:ea:13:bf:c4:a9:ec:
                    b1:43:a3:27:b9:96:e7:8c:e1:96:a7:23:36:4f:9a:
                    42:64:6a:0a:5a:45:6b:f9:0e:2b:84:37:c6:ec:b9:
                    ab:df:a9:a4:c9:7f:62:0d:bb:ef:f5:40:ce:48:de:
                    f0:1b:8f:6c:dd:40:5b:e0:3f:e9:06:d4:cd:39:b0:
                    6f:dc:77:14:9f:32:87:43:63:7a:0a:7c:0c:29:2e:
                    a7:05:d9:20:ff:61:b6:4c:c6:18:ae:c5:c8:13:76:
                    9e:60:60:86:3d:6e:21:d5:51:61:be:97:8b:e1:a7:
                    9b:27:37:1d:4d:b9:cb:82:e6:81:09:3c:ac:b8:99:
                    e8:8d:ae:fa:b6:01:63:03:69:3d:3e:03:c0:2d:c0:
                    83:67:0c:ad:b3:c9:4f:1d:77:80:18:99:46:68:42:
                    1b:33:f8:ef:84:08:e3:99:b0:04:c3:39:95:0b:0c:
                    99:9b
                Exponent: 65537 (0x10001)
        X509v3 extensions:
            X509v3 Authority Key Identifier: 
                keyid:11:CD:8E:60:44:47:57:4F:4F:CB:E9:E7:CB:A1:46:DF:BA:0E:50:8B
                DirName:/C=JP/O=Japanese Government/OU=National Police Agency/OU=NPA ICDL Root CA
                serial:32:30:30:30:30:30:31:36
            X509v3 Subject Key Identifier: 
                F6:43:02:60:FB:A3:AF:41:33:19:D0:9A:82:FC:61:10:74:8F:3B:EB
            X509v3 Key Usage: critical
                Digital Signature, Non Repudiation
            X509v3 Certificate Policies: critical
                Policy: 1.2.392.100120.7.5.1.1.10
                  CPS: http://www.npa.go.jp/
            X509v3 Subject Alternative Name: 
                DirName:/C=JP/O=\xE6\x97\xA5\xE6\x9C\xAC\xE5\x9B\xBD\xE6\x94\xBF\xE5\xBA\x9C/OU=\xE8\xAD\xA6\xE5\xAF\x9F\xE5\xBA\x81/OU=\xE9\x83\xBD\xE9\x81\x93\xE5\xBA\x9C\xE7\x9C\x8C\xE5\x85\xAC\xE5\xAE\x89\xE5\xA7\x94\xE5\x93\xA1\xE4\xBC\x9A
            X509v3 Issuer Alternative Name: 
                DirName:/C=JP/O=\xE6\x97\xA5\xE6\x9C\xAC\xE5\x9B\xBD\xE6\x94\xBF\xE5\xBA\x9C/OU=\xE8\xAD\xA6\xE5\xAF\x9F\xE5\xBA\x81/OU=\xE8\xAD\xA6\xE5\xAF\x9F\xE5\xBA\x81\xE9\x81\x8B\xE8\xBB\xA2\xE5\x85\x8D\xE8\xA8\xB1\xE8\xA8\xBC\xE8\xAA\x8D\xE8\xA8\xBC\xE5\xB1\x80
            X509v3 CRL Distribution Points: 
                Full Name:
                  DirName:C = JP, O = Japanese Government, OU = National Police Agency, OU = Prefectural Public Safety Commissions for ICDL
    Signature Algorithm: sha256WithRSAEncryption
    Signature Value:
        64:85:cc:2f:f8:39:84:74:f0:35:34:f3:bf:75:83:3b:ad:02:
        ad:c6:80:35:a4:de:fa:6a:90:a3:1c:56:9b:52:1d:0a:ca:ea:
        2b:71:b6:f5:fc:8f:df:84:ae:83:8f:77:29:0e:6d:c7:c7:41:
        0a:3b:80:70:2d:19:fe:cc:c4:60:9a:5c:96:10:c9:1f:c0:53:
        48:2c:ae:cd:1f:31:2c:d1:f9:21:18:dd:22:ca:31:81:3b:d3:
        ac:36:f9:e7:3a:18:9e:b8:0d:1d:a2:4d:0b:90:eb:f7:48:02:
        00:e0:b1:f4:8f:7f:0f:43:d5:e6:74:be:b5:1a:b9:ee:79:be:
        99:64:dd:94:8c:96:8d:d7:79:18:b3:cc:51:99:4e:5b:58:65:
        bc:33:44:3d:cd:a8:3c:88:e2:a5:32:73:49:96:34:50:e8:a1:
        f4:88:6d:ab:a5:6d:31:dd:0d:fe:2f:71:c1:ac:ac:4c:33:65:
        b6:60:06:f7:3e:94:0c:47:bd:86:64:d2:73:29:54:06:c8:d1:
        e9:a2:6a:0a:f6:3b:aa:53:24:dd:ed:56:db:a1:ac:6a:b5:d8:
        d5:62:47:92:7f:9a:32:a1:c1:8c:94:14:ea:3c:99:cd:f4:19:
        c6:f9:e8:eb:fa:f0:06:8a:32:9a:d2:5a:eb:4d:61:c6:f0:6a:
        51:43:f0:af
-----BEGIN CERTIFICATE-----
MIIGRjCCBS6gAwIBAgIIMjAwMDAwNjIwDQYJKoZIhvcNAQELBQAwZzELMAkGA1UE
BhMCSlAxHDAaBgNVBAoME0phcGFuZXNlIEdvdmVybm1lbnQxHzAdBgNVBAsMFk5h
dGlvbmFsIFBvbGljZSBBZ2VuY3kxGTAXBgNVBAsMEE5QQSBJQ0RMIFJvb3QgQ0Ew
HhcNMjMwMjA2MDIzMzU3WhcNMjgwMjA1MTQ1OTU5WjCBmjELMAkGA1UEBhMCSlAx
HDAaBgNVBAoME0phcGFuZXNlIEdvdmVybm1lbnQxHzAdBgNVBAsMFk5hdGlvbmFs
IFBvbGljZSBBZ2VuY3kxNzA1BgNVBAsMLlByZWZlY3R1cmFsIFB1YmxpYyBTYWZl
dHkgQ29tbWlzc2lvbnMgZm9yIElDREwxEzARBgNVBAMMCkt5b3RvIFBQU0MwggEi
MA0GCSqGSIb3DQEBAQUAA4IBDwAwggEKAoIBAQC7o+72RUc/V2t/3LXSIuhUA5x/
cqyNmYefgHFg8C94G8QEEO4XYm2AnRydXbk19CMcU/JXG/W4O80tXBi+PUmge9tU
jPCuSHcq++LcWFiXKNntmuoTv8Sp7LFDoye5lueM4ZanIzZPmkJkagpaRWv5DiuE
N8bsuavfqaTJf2INu+/1QM5I3vAbj2zdQFvgP+kG1M05sG/cdxSfModDY3oKfAwp
LqcF2SD/YbZMxhiuxcgTdp5gYIY9biHVUWG+l4vhp5snNx1NucuC5oEJPKy4meiN
rvq2AWMDaT0+A8AtwINnDK2zyU8dd4AYmUZoQhsz+O+ECOOZsATDOZULDJmbAgMB
AAGjggLAMIICvDCBmAYDVR0jBIGQMIGNgBQRzY5gREdXT0/L6efLoUbfug5Qi6Fr
pGkwZzELMAkGA1UEBhMCSlAxHDAaBgNVBAoME0phcGFuZXNlIEdvdmVybm1lbnQx
HzAdBgNVBAsMFk5hdGlvbmFsIFBvbGljZSBBZ2VuY3kxGTAXBgNVBAsMEE5QQSBJ
Q0RMIFJvb3QgQ0GCCDIwMDAwMDE2MB0GA1UdDgQWBBT2QwJg+6OvQTMZ0JqC/GEQ
dI876zAOBgNVHQ8BAf8EBAMCBsAwQAYDVR0gAQH/BDYwNDAyBgsqgwiGjhgHBQEB
CjAjMCEGCCsGAQUFBwIBFhVodHRwOi8vd3d3Lm5wYS5nby5qcC8wgZUGA1UdEQSB
jTCBiqSBhzCBhDELMAkGA1UEBhMCSlAxGDAWBgNVBAoMD+aXpeacrOWbveaUv+W6
nDESMBAGA1UECwwJ6K2m5a+f5bqBMSQwIgYDVQQLDBvpg73pgZPlupznnIzlhazl
ronlp5Tlk6HkvJoxITAfBgNVBAMMGOS6rOmDveW6nOWFrOWuieWnlOWToeS8mjB0
BgNVHRIEbTBrpGkwZzELMAkGA1UEBhMCSlAxGDAWBgNVBAoMD+aXpeacrOWbveaU
v+W6nDESMBAGA1UECwwJ6K2m5a+f5bqBMSowKAYDVQQLDCHorablr5/luoHpgYvo
u6LlhY3oqLHoqLzoqo3oqLzlsYAwgZ8GA1UdHwSBlzCBlDCBkaCBjqCBi6SBiDCB
hTELMAkGA1UEBhMCSlAxHDAaBgNVBAoME0phcGFuZXNlIEdvdmVybm1lbnQxHzAd
BgNVBAsMFk5hdGlvbmFsIFBvbGljZSBBZ2VuY3kxNzA1BgNVBAsMLlByZWZlY3R1
cmFsIFB1YmxpYyBTYWZldHkgQ29tbWlzc2lvbnMgZm9yIElDREwwDQYJKoZIhvcN
AQELBQADggEBAGSFzC/4OYR08DU08791gzutAq3GgDWk3vpqkKMcVptSHQrK6itx
tvX8j9+EroOPdykObcfHQQo7gHAtGf7MxGCaXJYQyR/AU0gsrs0fMSzR+SEY3SLK
MYE706w2+ec6GJ64DR2iTQuQ6/dIAgDgsfSPfw9D1eZ0vrUaue55vplk3ZSMlo3X
eRizzFGZTltYZbwzRD3NqDyI4qUyc0mWNFDoofSIbaulbTHdDf4vccGsrEwzZbZg
Bvc+lAxHvYZk0nMpVAbI0emiagr2O6pTJN3tVtuhrGq12NViR5J/mjKhwYyUFOo8
mc30Gcb56Ov68AaKMprSWutNYcbwalFD8K8=
-----END CERTIFICATE-----
