Certificate:
    Data:
        Version: 3 (0x2)
        Serial Number:
            32:30:30:30:30:30:36:30
        Signature Algorithm: sha256WithRSAEncryption
        Issuer: C=JP, O=Japanese Government, OU=National Police Agency, OU=NPA ICDL Root CA
        Validity
            Not Before: Feb  6 02:29:28 2023 GMT
            Not After : Feb  5 14:59:59 2028 GMT
        Subject: C=JP, O=Japanese Government, OU=National Police Agency, OU=Prefectural Public Safety Commissions for ICDL, CN=Mie PPSC
        Subject Public Key Info:
            Public Key Algorithm: rsaEncryption
                Public-Key: (2048 bit)
                Modulus:
                    00:85:da:39:94:23:30:ec:a7:c4:e7:ed:99:5c:aa:
                    c0:75:fc:e6:a0:a3:91:d4:cf:f1:36:b2:4b:35:08:
                    30:7a:59:2c:b2:aa:c8:26:d1:c4:1d:ce:58:8a:1b:
                    26:da:e4:e8:98:13:fc:33:02:de:f8:74:5d:63:9c:
                    f1:aa:b2:75:7f:77:ea:e4:83:63:01:28:23:1b:58:
                    ca:78:9e:12:11:27:a7:64:46:ee:e2:b9:89:52:0c:
                    a9:f7:23:2e:dd:ae:83:bf:94:51:34:17:76:47:2e:
                    32:f4:7c:22:7d:ce:2a:93:4e:ad:73:e3:2b:47:30:
                    43:f1:ed:4c:87:e4:4b:aa:06:50:5d:05:a4:a2:ed:
                    87:e4:4e:67:6b:ab:e2:4e:74:f3:2b:28:ce:4c:d1:
                    6f:92:21:7a:50:b7:33:6a:20:31:9a:13:c7:c8:7e:
                    ed:ca:c5:cd:3d:9e:66:0b:16:9d:a1:78:fb:ca:b3:
                    b2:df:db:70:c1:00:92:75:ba:5f:ec:2c:07:5f:d9:
                    a3:8f:5f:00:7b:b1:26:cd:06:ed:a2:6f:60:b0:54:
                    d7:b3:7a:6c:2b:08:ae:b9:a1:e4:94:18:b0:e9:78:
                    7a:38:3e:07:11:b8:67:ff:61:d6:3b:93:13:da:c2:
                    ca:04:24:52:be:2e:1c:08:18:2c:cc:88:fe:ba:48:
                    c4:e5
                Exponent: 65537 (0x10001)
        X509v3 extensions:
            X509v3 Authority Key Identifier: 
                keyid:11:CD:8E:60:44:47:57:4F:4F:CB:E9:E7:CB:A1:46:DF:BA:0E:50:8B
                DirName:/C=JP/O=Japanese Government/OU=National Police Agency/OU=NPA ICDL Root CA
                serial:32:30:30:30:30:30:31:36
            X509v3 Subject Key Identifier: 
                FF:03:88:0E:C4:3D:39:1C:81:C5:4D:0B:E8:B5:61:38:0F:1A:EA:ED
            X509v3 Key Usage: critical
                Digital Signature, Non Repudiation
            X509v3 Certificate Policies: critical
                Policy: 1.2.392.100120.7.5.1.1.10
                  CPS: http://www.npa.go.jp/
            X509v3 Subject Alternative Name: 
                DirName:/C=JP/O=\xE6\x97\xA5\xE6\x9C\xAC\xE5\x9B\xBD\xE6\x94\xBF\xE5\xBA\x9C/OU=\xE8\xAD\xA6\xE5\xAF\x9F\xE5\xBA\x81/OU=\xE9\x83\xBD\xE9\x81\x93\xE5\xBA\x9C\xE7\x9C\x8C\xE5\x85\xAC\xE5\xAE\x89\xE5\xA7\x94\xE5\x93\xA1\xE4\xBC\x9A
            X509v3 Issuer Alternative Name: 
                DirName:/C=JP/O=\xE6\x97\xA5\xE6\x9C\xAC\xE5\x9B\xBD\xE6\x94\xBF\xE5\xBA\x9C/OU=\xE8\xAD\xA6\xE5\xAF\x9F\xE5\xBA\x81/OU=\xE8\xAD\xA6\xE5\xAF\x9F\xE5\xBA\x81\xE9\x81\x8B\xE8\xBB\xA2\xE5\x85\x8D\xE8\xA8\xB1\xE8\xA8\xBC\xE8\xAA\x8D\xE8\xA8\xBC\xE5\xB1\x80
            X509v3 CRL Distribution Points: 
                Full Name:
                  DirName:C = JP, O = Japanese Government, OU = National Police Agency, OU = Prefectural Public Safety Commissions for ICDL
    Signature Algorithm: sha256WithRSAEncryption
    Signature Value:
        35:a9:4a:05:e1:44:c1:93:fc:3a:3d:01:71:24:1b:a3:a0:44:
        0e:70:d1:35:df:28:61:70:c3:f2:91:3a:34:2b:60:64:f7:cb:
        c0:92:66:92:17:75:2c:0e:72:f2:6c:05:9d:64:d8:6f:d5:70:
        ff:bf:32:c7:97:0f:2c:00:0e:50:f5:4b:05:e8:46:90:50:df:
        2b:29:08:bb:fb:1c:24:c3:c6:6f:90:ae:be:19:b5:a5:48:de:
        c0:36:6a:ed:31:53:65:83:d0:3d:cc:1e:b2:81:fc:bb:96:08:
        59:fe:cc:71:d8:cb:65:ce:7e:60:20:9d:c0:9a:9e:2e:39:3f:
        9d:73:c6:68:87:2c:73:eb:8c:4e:05:cc:71:41:57:2f:c2:97:
        7b:4c:c5:69:bb:07:91:09:2e:b7:85:a6:96:d3:f0:a4:b7:c0:
        e7:a1:f3:b7:b0:cc:a6:e1:95:58:a0:e4:e7:54:e5:c3:1d:dd:
        17:54:ed:df:b5:94:e1:d0:1d:d9:f1:d9:c1:1e:f4:88:b7:59:
        5f:12:39:2d:56:49:44:21:75:06:f1:5f:19:5c:76:a1:17:0a:
        32:a9:92:86:6b:4c:fd:ee:7a:ec:80:36:ff:b9:70:08:4c:f0:
        8a:82:7e:0b:b4:71:b9:6a:33:a0:6c:e4:5a:0d:b3:f5:71:d4:
        fc:14:53:73
-----BEGIN CERTIFICATE-----
MIIGRDCCBSygAwIBAgIIMjAwMDAwNjAwDQYJKoZIhvcNAQELBQAwZzELMAkGA1UE
BhMCSlAxHDAaBgNVBAoME0phcGFuZXNlIEdvdmVybm1lbnQxHzAdBgNVBAsMFk5h
dGlvbmFsIFBvbGljZSBBZ2VuY3kxGTAXBgNVBAsMEE5QQSBJQ0RMIFJvb3QgQ0Ew
HhcNMjMwMjA2MDIyOTI4WhcNMjgwMjA1MTQ1OTU5WjCBmDELMAkGA1UEBhMCSlAx
HDAaBgNVBAoME0phcGFuZXNlIEdvdmVybm1lbnQxHzAdBgNVBAsMFk5hdGlvbmFs
IFBvbGljZSBBZ2VuY3kxNzA1BgNVBAsMLlByZWZlY3R1cmFsIFB1YmxpYyBTYWZl
dHkgQ29tbWlzc2lvbnMgZm9yIElDREwxETAPBgNVBAMMCE1pZSBQUFNDMIIBIjAN
BgkqhkiG9w0BAQEFAAOCAQ8AMIIBCgKCAQEAhdo5lCMw7KfE5+2ZXKrAdfzmoKOR
1M/xNrJLNQgwelkssqrIJtHEHc5Yihsm2uTomBP8MwLe+HRdY5zxqrJ1f3fq5INj
ASgjG1jKeJ4SESenZEbu4rmJUgyp9yMu3a6Dv5RRNBd2Ry4y9Hwifc4qk06tc+Mr
RzBD8e1Mh+RLqgZQXQWkou2H5E5na6viTnTzKyjOTNFvkiF6ULczaiAxmhPHyH7t
ysXNPZ5mCxadoXj7yrOy39twwQCSdbpf7CwHX9mjj18Ae7EmzQbtom9gsFTXs3ps
KwiuuaHklBiw6Xh6OD4HEbhn/2HWO5MT2sLKBCRSvi4cCBgszIj+ukjE5QIDAQAB
o4ICwDCCArwwgZgGA1UdIwSBkDCBjYAUEc2OYERHV09Py+nny6FG37oOUIuha6Rp
MGcxCzAJBgNVBAYTAkpQMRwwGgYDVQQKDBNKYXBhbmVzZSBHb3Zlcm5tZW50MR8w
HQYDVQQLDBZOYXRpb25hbCBQb2xpY2UgQWdlbmN5MRkwFwYDVQQLDBBOUEEgSUNE
TCBSb290IENBgggyMDAwMDAxNjAdBgNVHQ4EFgQU/wOIDsQ9ORyBxU0L6LVhOA8a
6u0wDgYDVR0PAQH/BAQDAgbAMEAGA1UdIAEB/wQ2MDQwMgYLKoMIho4YBwUBAQow
IzAhBggrBgEFBQcCARYVaHR0cDovL3d3dy5ucGEuZ28uanAvMIGVBgNVHREEgY0w
gYqkgYcwgYQxCzAJBgNVBAYTAkpQMRgwFgYDVQQKDA/ml6XmnKzlm73mlL/lupwx
EjAQBgNVBAsMCeitpuWvn+W6gTEkMCIGA1UECwwb6YO96YGT5bqc55yM5YWs5a6J
5aeU5ZOh5LyaMSEwHwYDVQQDDBjkuInph43nnIzlhazlronlp5Tlk6HkvJowdAYD
VR0SBG0wa6RpMGcxCzAJBgNVBAYTAkpQMRgwFgYDVQQKDA/ml6XmnKzlm73mlL/l
upwxEjAQBgNVBAsMCeitpuWvn+W6gTEqMCgGA1UECwwh6K2m5a+f5bqB6YGL6Lui
5YWN6Kix6Ki86KqN6Ki85bGAMIGfBgNVHR8EgZcwgZQwgZGggY6ggYukgYgwgYUx
CzAJBgNVBAYTAkpQMRwwGgYDVQQKDBNKYXBhbmVzZSBHb3Zlcm5tZW50MR8wHQYD
VQQLDBZOYXRpb25hbCBQb2xpY2UgQWdlbmN5MTcwNQYDVQQLDC5QcmVmZWN0dXJh
bCBQdWJsaWMgU2FmZXR5IENvbW1pc3Npb25zIGZvciBJQ0RMMA0GCSqGSIb3DQEB
CwUAA4IBAQA1qUoF4UTBk/w6PQFxJBujoEQOcNE13yhhcMPykTo0K2Bk98vAkmaS
F3UsDnLybAWdZNhv1XD/vzLHlw8sAA5Q9UsF6EaQUN8rKQi7+xwkw8ZvkK6+GbWl
SN7ANmrtMVNlg9A9zB6ygfy7lghZ/sxx2Mtlzn5gIJ3Amp4uOT+dc8Zohyxz64xO
BcxxQVcvwpd7TMVpuweRCS63haaW0/Ckt8DnofO3sMym4ZVYoOTnVOXDHd0XVO3f
tZTh0B3Z8dnBHvSIt1lfEjktVklEIXUG8V8ZXHahFwoyqZKGa0z97nrsgDb/uXAI
TPCKgn4LtHG5ajOgbORaDbP1cdT8FFNz
-----END CERTIFICATE-----
