Certificate:
    Data:
        Version: 3 (0x2)
        Serial Number:
            33:30:30:30:30:31:30:38
        Signature Algorithm: sha256WithRSAEncryption
        Issuer: C=JP, O=Japanese Government, OU=National Police Agency, OU=NPA ICDL Root CA
        Validity
            Not Before: Sep 17 07:27:34 2024 GMT
            Not After : Sep 16 14:59:59 2029 GMT
        Subject: C=JP, O=Japanese Government, OU=National Police Agency, OU=Prefectural Public Safety Commissions for ICDL, CN=Mie PPSC
        Subject Public Key Info:
            Public Key Algorithm: rsaEncryption
                Public-Key: (2048 bit)
                Modulus:
                    00:b2:ae:2f:a8:02:f9:46:b8:b9:9b:e6:3f:a6:d0:
                    35:c2:ad:7d:5a:46:79:0b:78:8b:14:83:7a:ea:ef:
                    0f:33:2c:cf:1c:9a:d3:1a:ad:a7:23:88:d3:60:53:
                    bd:eb:fa:42:4b:8e:b4:90:a2:29:c1:3b:25:0c:6a:
                    3f:15:82:09:e3:c9:72:4b:3a:93:6e:fb:06:e6:f0:
                    33:1c:ee:88:eb:c5:d2:82:06:ad:6b:3d:aa:da:c7:
                    78:62:85:30:6d:68:96:a7:11:2b:d1:b3:23:e8:ea:
                    d8:7c:fa:b8:c8:90:36:0e:49:aa:c4:bc:bb:b6:74:
                    38:a2:4e:e8:fe:45:5d:3e:74:31:da:70:67:2f:e1:
                    ca:d0:74:33:aa:f5:19:ac:af:40:14:cb:e5:c7:a5:
                    1e:7c:6c:32:95:d5:70:82:f8:2e:a2:75:70:08:cd:
                    27:b3:d0:9d:71:30:b9:b8:41:68:35:cb:52:f5:9d:
                    ba:fa:f2:1a:29:c5:e9:1a:3a:e3:e8:22:a6:54:86:
                    54:45:36:d2:f7:33:9e:11:e1:07:56:ff:f3:5d:08:
                    51:59:97:cc:b3:c9:a3:32:4d:7f:21:df:fc:7c:c8:
                    7b:50:42:47:e1:40:31:25:2f:00:b1:7f:1e:1b:a2:
                    43:ed:24:8b:ed:1e:f6:1b:cf:75:36:02:6a:a6:ad:
                    e9:9d
                Exponent: 65537 (0x10001)
        X509v3 extensions:
            X509v3 Authority Key Identifier: 
                keyid:11:CD:8E:60:44:47:57:4F:4F:CB:E9:E7:CB:A1:46:DF:BA:0E:50:8B
                DirName:/C=JP/O=Japanese Government/OU=National Police Agency/OU=NPA ICDL Root CA
                serial:32:30:30:30:30:30:31:36
            X509v3 Subject Key Identifier: 
                CC:25:4E:FE:7A:C5:17:F2:A5:8A:4D:D4:A7:19:AF:73:53:9E:4E:F4
            X509v3 Key Usage: critical
                Digital Signature, Non Repudiation
            X509v3 Certificate Policies: critical
                Policy: 1.2.392.100120.7.5.1.1.10
                  CPS: http://www.npa.go.jp/
            X509v3 Subject Alternative Name: 
                DirName:/C=JP/O=\xE6\x97\xA5\xE6\x9C\xAC\xE5\x9B\xBD\xE6\x94\xBF\xE5\xBA\x9C/OU=\xE8\xAD\xA6\xE5\xAF\x9F\xE5\xBA\x81/OU=\xE9\x83\xBD\xE9\x81\x93\xE5\xBA\x9C\xE7\x9C\x8C\xE5\x85\xAC\xE5\xAE\x89\xE5\xA7\x94\xE5\x93\xA1\xE4\xBC\x9A
            X509v3 Issuer Alternative Name: 
                DirName:/C=JP/O=\xE6\x97\xA5\xE6\x9C\xAC\xE5\x9B\xBD\xE6\x94\xBF\xE5\xBA\x9C/OU=\xE8\xAD\xA6\xE5\xAF\x9F\xE5\xBA\x81/OU=\xE8\xAD\xA6\xE5\xAF\x9F\xE5\xBA\x81\xE9\x81\x8B\xE8\xBB\xA2\xE5\x85\x8D\xE8\xA8\xB1\xE8\xA8\xBC\xE8\xAA\x8D\xE8\xA8\xBC\xE5\xB1\x80
            X509v3 CRL Distribution Points: 
                Full Name:
                  DirName:C = JP, O = Japanese Government, OU = National Police Agency, OU = Prefectural Public Safety Commissions for ICDL
    Signature Algorithm: sha256WithRSAEncryption
    Signature Value:
        9d:5c:54:ef:62:0e:b9:0d:75:9c:34:39:6a:9b:15:61:f2:f8:
        86:ed:c0:05:f9:73:78:81:48:4b:99:c6:30:b4:54:3c:49:30:
        9e:6d:3c:d3:a4:97:5e:ed:e6:d3:ed:04:9e:b2:0b:95:11:41:
        d7:85:d1:7c:75:f0:2a:62:5a:30:64:14:9c:f5:fd:f5:e1:8a:
        95:8d:1a:75:d5:62:e2:34:82:a4:1f:91:45:27:81:46:0b:0b:
        da:e7:74:53:ee:74:05:a4:7f:57:24:08:21:03:50:25:81:8a:
        2a:1c:93:6c:12:7a:a5:60:e3:54:ab:fa:e7:ab:07:12:1a:18:
        f8:af:d8:c2:74:b0:65:9c:40:f9:6a:da:86:ae:9d:8c:a9:c4:
        09:19:49:7e:11:33:9a:06:cb:9c:fa:70:6e:22:6f:9f:b3:26:
        14:32:f2:d1:10:3d:08:b2:e0:28:3d:e2:b3:3a:9c:71:f2:23:
        03:73:b4:d0:a9:64:5e:a2:1d:d0:0e:63:8a:5f:9a:5e:a6:ee:
        44:72:37:f3:a9:5b:5e:a0:1a:fa:e1:8c:81:c3:43:42:e2:58:
        b0:50:8f:6e:db:21:95:74:bd:a0:cc:cf:d9:23:3c:eb:2b:c2:
        b9:98:61:4d:c4:f6:ea:82:1d:c7:4d:c4:89:15:46:73:91:88:
        fd:8b:ed:4e
-----BEGIN CERTIFICATE-----
MIIGRDCCBSygAwIBAgIIMzAwMDAxMDgwDQYJKoZIhvcNAQELBQAwZzELMAkGA1UE
BhMCSlAxHDAaBgNVBAoME0phcGFuZXNlIEdvdmVybm1lbnQxHzAdBgNVBAsMFk5h
dGlvbmFsIFBvbGljZSBBZ2VuY3kxGTAXBgNVBAsMEE5QQSBJQ0RMIFJvb3QgQ0Ew
HhcNMjQwOTE3MDcyNzM0WhcNMjkwOTE2MTQ1OTU5WjCBmDELMAkGA1UEBhMCSlAx
HDAaBgNVBAoME0phcGFuZXNlIEdvdmVybm1lbnQxHzAdBgNVBAsMFk5hdGlvbmFs
IFBvbGljZSBBZ2VuY3kxNzA1BgNVBAsMLlByZWZlY3R1cmFsIFB1YmxpYyBTYWZl
dHkgQ29tbWlzc2lvbnMgZm9yIElDREwxETAPBgNVBAMMCE1pZSBQUFNDMIIBIjAN
BgkqhkiG9w0BAQEFAAOCAQ8AMIIBCgKCAQEAsq4vqAL5Rri5m+Y/ptA1wq19WkZ5
C3iLFIN66u8PMyzPHJrTGq2nI4jTYFO96/pCS460kKIpwTslDGo/FYIJ48lySzqT
bvsG5vAzHO6I68XSggataz2q2sd4YoUwbWiWpxEr0bMj6OrYfPq4yJA2DkmqxLy7
tnQ4ok7o/kVdPnQx2nBnL+HK0HQzqvUZrK9AFMvlx6UefGwyldVwgvguonVwCM0n
s9CdcTC5uEFoNctS9Z26+vIaKcXpGjrj6CKmVIZURTbS9zOeEeEHVv/zXQhRWZfM
s8mjMk1/Id/8fMh7UEJH4UAxJS8AsX8eG6JD7SSL7R72G891NgJqpq3pnQIDAQAB
o4ICwDCCArwwgZgGA1UdIwSBkDCBjYAUEc2OYERHV09Py+nny6FG37oOUIuha6Rp
MGcxCzAJBgNVBAYTAkpQMRwwGgYDVQQKDBNKYXBhbmVzZSBHb3Zlcm5tZW50MR8w
HQYDVQQLDBZOYXRpb25hbCBQb2xpY2UgQWdlbmN5MRkwFwYDVQQLDBBOUEEgSUNE
TCBSb290IENBgggyMDAwMDAxNjAdBgNVHQ4EFgQUzCVO/nrFF/Klik3Upxmvc1Oe
TvQwDgYDVR0PAQH/BAQDAgbAMEAGA1UdIAEB/wQ2MDQwMgYLKoMIho4YBwUBAQow
IzAhBggrBgEFBQcCARYVaHR0cDovL3d3dy5ucGEuZ28uanAvMIGVBgNVHREEgY0w
gYqkgYcwgYQxCzAJBgNVBAYTAkpQMRgwFgYDVQQKDA/ml6XmnKzlm73mlL/lupwx
EjAQBgNVBAsMCeitpuWvn+W6gTEkMCIGA1UECwwb6YO96YGT5bqc55yM5YWs5a6J
5aeU5ZOh5LyaMSEwHwYDVQQDDBjkuInph43nnIzlhazlronlp5Tlk6HkvJowdAYD
VR0SBG0wa6RpMGcxCzAJBgNVBAYTAkpQMRgwFgYDVQQKDA/ml6XmnKzlm73mlL/l
upwxEjAQBgNVBAsMCeitpuWvn+W6gTEqMCgGA1UECwwh6K2m5a+f5bqB6YGL6Lui
5YWN6Kix6Ki86KqN6Ki85bGAMIGfBgNVHR8EgZcwgZQwgZGggY6ggYukgYgwgYUx
CzAJBgNVBAYTAkpQMRwwGgYDVQQKDBNKYXBhbmVzZSBHb3Zlcm5tZW50MR8wHQYD
VQQLDBZOYXRpb25hbCBQb2xpY2UgQWdlbmN5MTcwNQYDVQQLDC5QcmVmZWN0dXJh
bCBQdWJsaWMgU2FmZXR5IENvbW1pc3Npb25zIGZvciBJQ0RMMA0GCSqGSIb3DQEB
CwUAA4IBAQCdXFTvYg65DXWcNDlqmxVh8viG7cAF+XN4gUhLmcYwtFQ8STCebTzT
pJde7ebT7QSesguVEUHXhdF8dfAqYlowZBSc9f314YqVjRp11WLiNIKkH5FFJ4FG
Cwva53RT7nQFpH9XJAghA1AlgYoqHJNsEnqlYONUq/rnqwcSGhj4r9jCdLBlnED5
atqGrp2MqcQJGUl+ETOaBsuc+nBuIm+fsyYUMvLRED0IsuAoPeKzOpxx8iMDc7TQ
qWReoh3QDmOKX5pepu5EcjfzqVteoBr64YyBw0NC4liwUI9u2yGVdL2gzM/ZIzzr
K8K5mGFNxPbqgh3HTcSJFUZzkYj9i+1O
-----END CERTIFICATE-----
