Certificate:
    Data:
        Version: 3 (0x2)
        Serial Number:
            33:30:30:30:30:30:33:33:b8:0f:dd:e6:43:61:fb:21:7f:7a
        Signature Algorithm: sha256WithRSAEncryption
        Issuer: C=JP, O=Japanese Government, OU=National Police Agency, OU=NPA ICDL Root CA
        Validity
            Not Before: Jun 19 05:55:47 2023 GMT
            Not After : Jun 18 14:59:59 2028 GMT
        Subject: C=JP, O=Japanese Government, OU=National Police Agency, OU=Prefectural Public Safety Commissions for ICDL, CN=Mie AltPPSC
        Subject Public Key Info:
            Public Key Algorithm: rsaEncryption
                Public-Key: (2048 bit)
                Modulus:
                    00:84:0e:7f:a9:de:f6:f6:cf:7a:89:64:b3:7e:9d:
                    82:45:e4:95:a4:e1:b0:11:42:c0:bc:b5:5e:45:3f:
                    43:6b:87:e2:c4:c7:d7:4c:40:e9:7f:04:a9:c3:7f:
                    dc:f9:cf:0b:61:aa:b7:e7:24:cf:64:39:a9:9d:17:
                    32:c3:b3:83:ac:87:d1:84:62:6b:51:77:a4:27:e1:
                    dc:c0:d0:fe:07:62:8f:5d:32:7e:bc:49:ec:89:59:
                    3f:93:97:e8:03:41:cc:de:07:9e:b5:f0:ce:54:ba:
                    ae:6b:de:18:90:71:a1:68:57:cf:ef:60:e0:aa:69:
                    2f:88:10:f4:ee:09:8d:4a:40:bc:a5:c7:0e:fa:eb:
                    84:73:25:09:59:1d:de:8f:a8:eb:bd:fe:e8:c4:c0:
                    f3:a8:c4:0a:ef:15:a5:06:c4:2b:f7:07:d9:ca:08:
                    bc:c3:8c:46:9b:fe:0e:d3:6d:f9:df:c2:16:52:8d:
                    7c:20:d3:16:2d:f1:45:f8:3b:2c:b9:ca:27:5e:e3:
                    af:a7:7c:57:cf:83:20:ad:01:f0:37:d8:c9:f6:92:
                    2c:bc:07:d3:35:84:40:98:d1:28:02:e1:09:0a:21:
                    ca:e5:7e:79:ce:dc:43:ac:c6:c8:3f:f3:f6:32:d9:
                    d0:5f:ea:bf:ba:0e:d6:d6:c2:94:1b:92:21:a2:d7:
                    c1:23
                Exponent: 65537 (0x10001)
        X509v3 extensions:
            X509v3 Authority Key Identifier: 
                keyid:11:CD:8E:60:44:47:57:4F:4F:CB:E9:E7:CB:A1:46:DF:BA:0E:50:8B
                DirName:/C=JP/O=Japanese Government/OU=National Police Agency/OU=NPA ICDL Root CA
                serial:32:30:30:30:30:30:31:36
            X509v3 Subject Key Identifier: 
                DE:86:63:32:EB:F5:66:33:3A:5E:51:CD:83:8B:59:6D:88:67:5C:1E
            X509v3 Key Usage: critical
                Digital Signature, Non Repudiation
            X509v3 Certificate Policies: critical
                Policy: 1.2.392.100120.7.5.1.1.10
                  CPS: http://www.npa.go.jp/
            X509v3 Issuer Alternative Name: 
                DirName:/C=JP/O=\xE6\x97\xA5\xE6\x9C\xAC\xE5\x9B\xBD\xE6\x94\xBF\xE5\xBA\x9C/OU=\xE8\xAD\xA6\xE5\xAF\x9F\xE5\xBA\x81/OU=\xE8\xAD\xA6\xE5\xAF\x9F\xE5\xBA\x81\xE9\x81\x8B\xE8\xBB\xA2\xE5\x85\x8D\xE8\xA8\xB1\xE8\xA8\xBC\xE8\xAA\x8D\xE8\xA8\xBC\xE5\xB1\x80
            X509v3 CRL Distribution Points: 
                Full Name:
                  DirName:C = JP, O = Japanese Government, OU = National Police Agency, OU = Prefectural Public Safety Commissions for ICDL
    Signature Algorithm: sha256WithRSAEncryption
    Signature Value:
        9f:85:92:06:c8:c7:fe:20:13:ae:1d:e3:be:1c:dc:7f:82:b2:
        46:5e:f7:06:1a:bc:51:3a:8e:b2:11:bf:f4:bd:45:fa:ed:06:
        0c:7a:79:5a:9b:7f:ed:d5:3a:05:79:3d:29:8c:18:4d:ea:a8:
        d1:72:99:d3:af:e7:45:a5:9c:28:41:31:f9:e5:c8:79:d4:96:
        86:1d:45:f1:e1:84:81:b9:d8:8d:d0:76:6b:7c:c5:0a:85:15:
        a1:3f:44:06:20:df:15:d2:4c:d3:51:99:c9:21:27:40:91:da:
        08:fc:3e:80:39:35:8b:d1:41:8f:00:d6:78:34:86:97:ee:e4:
        7a:de:4c:ca:f7:0b:ac:d3:ce:dd:c3:a3:b6:03:79:f5:a3:20:
        4d:d8:0b:5a:2b:2c:45:01:83:7c:d1:37:17:2a:14:0b:09:b8:
        bb:f9:a8:ac:ba:97:c5:1f:9b:66:34:c2:b3:84:64:05:51:0d:
        26:be:0d:91:c8:84:07:f9:92:2a:b5:d5:a0:b6:84:4b:2f:fa:
        cb:db:6b:59:26:c1:dc:c9:1c:59:bc:ec:6e:00:7b:c1:5b:ee:
        13:e8:06:bd:a9:78:03:92:7a:1c:e2:e7:9a:6c:b7:02:30:5a:
        bb:b9:5a:24:fb:b9:46:68:ec:21:de:a0:c8:1b:1c:a4:16:a9:
        ed:0a:29:5e
-----BEGIN CERTIFICATE-----
MIIFuTCCBKGgAwIBAgISMzAwMDAwMzO4D93mQ2H7IX96MA0GCSqGSIb3DQEBCwUA
MGcxCzAJBgNVBAYTAkpQMRwwGgYDVQQKDBNKYXBhbmVzZSBHb3Zlcm5tZW50MR8w
HQYDVQQLDBZOYXRpb25hbCBQb2xpY2UgQWdlbmN5MRkwFwYDVQQLDBBOUEEgSUNE
TCBSb290IENBMB4XDTIzMDYxOTA1NTU0N1oXDTI4MDYxODE0NTk1OVowgZsxCzAJ
BgNVBAYTAkpQMRwwGgYDVQQKDBNKYXBhbmVzZSBHb3Zlcm5tZW50MR8wHQYDVQQL
DBZOYXRpb25hbCBQb2xpY2UgQWdlbmN5MTcwNQYDVQQLDC5QcmVmZWN0dXJhbCBQ
dWJsaWMgU2FmZXR5IENvbW1pc3Npb25zIGZvciBJQ0RMMRQwEgYDVQQDDAtNaWUg
QWx0UFBTQzCCASIwDQYJKoZIhvcNAQEBBQADggEPADCCAQoCggEBAIQOf6ne9vbP
eolks36dgkXklaThsBFCwLy1XkU/Q2uH4sTH10xA6X8EqcN/3PnPC2Gqt+ckz2Q5
qZ0XMsOzg6yH0YRia1F3pCfh3MDQ/gdij10yfrxJ7IlZP5OX6ANBzN4HnrXwzlS6
rmveGJBxoWhXz+9g4KppL4gQ9O4JjUpAvKXHDvrrhHMlCVkd3o+o673+6MTA86jE
Cu8VpQbEK/cH2coIvMOMRpv+DtNt+d/CFlKNfCDTFi3xRfg7LLnKJ17jr6d8V8+D
IK0B8DfYyfaSLLwH0zWEQJjRKALhCQohyuV+ec7cQ6zGyD/z9jLZ0F/qv7oO1tbC
lBuSIaLXwSMCAwEAAaOCAigwggIkMIGYBgNVHSMEgZAwgY2AFBHNjmBER1dPT8vp
58uhRt+6DlCLoWukaTBnMQswCQYDVQQGEwJKUDEcMBoGA1UECgwTSmFwYW5lc2Ug
R292ZXJubWVudDEfMB0GA1UECwwWTmF0aW9uYWwgUG9saWNlIEFnZW5jeTEZMBcG
A1UECwwQTlBBIElDREwgUm9vdCBDQYIIMjAwMDAwMTYwHQYDVR0OBBYEFN6GYzLr
9WYzOl5RzYOLWW2IZ1weMA4GA1UdDwEB/wQEAwIGwDBABgNVHSABAf8ENjA0MDIG
CyqDCIaOGAcFAQEKMCMwIQYIKwYBBQUHAgEWFWh0dHA6Ly93d3cubnBhLmdvLmpw
LzB0BgNVHRIEbTBrpGkwZzELMAkGA1UEBhMCSlAxGDAWBgNVBAoMD+aXpeacrOWb
veaUv+W6nDESMBAGA1UECwwJ6K2m5a+f5bqBMSowKAYDVQQLDCHorablr5/luoHp
gYvou6LlhY3oqLHoqLzoqo3oqLzlsYAwgZ8GA1UdHwSBlzCBlDCBkaCBjqCBi6SB
iDCBhTELMAkGA1UEBhMCSlAxHDAaBgNVBAoME0phcGFuZXNlIEdvdmVybm1lbnQx
HzAdBgNVBAsMFk5hdGlvbmFsIFBvbGljZSBBZ2VuY3kxNzA1BgNVBAsMLlByZWZl
Y3R1cmFsIFB1YmxpYyBTYWZldHkgQ29tbWlzc2lvbnMgZm9yIElDREwwDQYJKoZI
hvcNAQELBQADggEBAJ+FkgbIx/4gE64d474c3H+CskZe9wYavFE6jrIRv/S9Rfrt
Bgx6eVqbf+3VOgV5PSmMGE3qqNFymdOv50WlnChBMfnlyHnUloYdRfHhhIG52I3Q
dmt8xQqFFaE/RAYg3xXSTNNRmckhJ0CR2gj8PoA5NYvRQY8A1ng0hpfu5HreTMr3
C6zTzt3Do7YDefWjIE3YC1orLEUBg3zRNxcqFAsJuLv5qKy6l8Ufm2Y0wrOEZAVR
DSa+DZHIhAf5kiq11aC2hEsv+svba1kmwdzJHFm87G4Ae8Fb7hPoBr2peAOSehzi
55pstwIwWru5WiT7uUZo7CHeoMgbHKQWqe0KKV4=
-----END CERTIFICATE-----
