Certificate:
    Data:
        Version: 3 (0x2)
        Serial Number:
            33:30:30:30:30:30:37:37
        Signature Algorithm: sha256WithRSAEncryption
        Issuer: C=JP, O=Japanese Government, OU=National Police Agency, OU=NPA ICDL Root CA
        Validity
            Not Before: Mar 18 05:10:36 2024 GMT
            Not After : Mar 17 14:59:59 2029 GMT
        Subject: C=JP, O=Japanese Government, OU=National Police Agency, OU=Prefectural Public Safety Commissions for ICDL, CN=Miyagi AltPPSC
        Subject Public Key Info:
            Public Key Algorithm: rsaEncryption
                Public-Key: (2048 bit)
                Modulus:
                    00:c6:14:9e:e3:69:0a:e4:0f:64:84:1c:be:d7:82:
                    41:57:7c:1e:93:2b:1c:2e:22:9d:1a:93:6e:80:01:
                    1b:2f:55:ab:dd:8f:b8:11:e7:8e:c7:35:b6:26:09:
                    91:a5:4e:bc:e9:a7:91:08:98:46:86:40:14:c4:95:
                    76:f4:90:35:94:2f:69:5b:b4:49:7e:81:4d:a4:98:
                    c7:a4:03:b5:e4:dc:f5:c9:3d:a5:f8:a2:5d:ba:d0:
                    f0:06:91:6f:17:e8:84:f2:41:a6:0d:ee:86:51:66:
                    2c:6f:48:37:d0:41:74:d9:1a:1c:e8:38:20:9d:5f:
                    68:a6:7a:8c:d9:90:4d:8d:65:bf:e1:2f:78:36:bb:
                    22:a7:96:a4:ff:85:e1:e7:bc:e3:3f:75:88:0c:93:
                    ed:62:f3:36:83:99:ee:c5:af:ac:e8:75:1c:a1:72:
                    53:53:87:57:54:48:b7:aa:22:5e:7d:39:d4:88:2b:
                    5c:a2:d7:1b:b0:56:70:a2:fe:e8:c8:98:42:38:32:
                    ad:0f:7b:8f:c4:8a:96:fb:ba:b3:1e:9f:52:50:46:
                    77:52:ec:a8:fb:9e:b5:b8:f6:a1:48:5c:ac:5f:83:
                    19:e3:7f:b8:bb:db:c1:69:7f:d8:ae:c2:f9:5d:48:
                    12:9f:fa:6b:2c:7b:57:c1:4b:3d:a2:6a:1a:97:81:
                    1e:7f
                Exponent: 65537 (0x10001)
        X509v3 extensions:
            X509v3 Authority Key Identifier: 
                keyid:11:CD:8E:60:44:47:57:4F:4F:CB:E9:E7:CB:A1:46:DF:BA:0E:50:8B
                DirName:/C=JP/O=Japanese Government/OU=National Police Agency/OU=NPA ICDL Root CA
                serial:32:30:30:30:30:30:31:36
            X509v3 Subject Key Identifier: 
                68:8C:41:09:E7:4C:FF:7E:96:1E:17:10:34:E9:E4:50:13:7E:36:F3
            X509v3 Key Usage: critical
                Digital Signature, Non Repudiation
            X509v3 Certificate Policies: critical
                Policy: 1.2.392.100120.7.5.1.1.10
                  CPS: http://www.npa.go.jp/
            X509v3 Issuer Alternative Name: 
                DirName:/C=JP/O=\xE6\x97\xA5\xE6\x9C\xAC\xE5\x9B\xBD\xE6\x94\xBF\xE5\xBA\x9C/OU=\xE8\xAD\xA6\xE5\xAF\x9F\xE5\xBA\x81/OU=\xE8\xAD\xA6\xE5\xAF\x9F\xE5\xBA\x81\xE9\x81\x8B\xE8\xBB\xA2\xE5\x85\x8D\xE8\xA8\xB1\xE8\xA8\xBC\xE8\xAA\x8D\xE8\xA8\xBC\xE5\xB1\x80
            X509v3 CRL Distribution Points: 
                Full Name:
                  DirName:C = JP, O = Japanese Government, OU = National Police Agency, OU = Prefectural Public Safety Commissions for ICDL
    Signature Algorithm: sha256WithRSAEncryption
    Signature Value:
        25:8b:4a:1f:75:b0:b2:da:76:b6:65:86:d2:37:d3:4f:3e:2b:
        30:81:93:f1:c9:03:ab:db:83:7c:b1:97:29:d0:27:fa:7d:f2:
        41:12:f6:f2:31:63:b7:46:2b:0a:1b:9c:a9:38:51:30:39:a3:
        a8:9c:88:85:34:ac:37:90:cc:5e:7d:90:1c:c1:44:96:9f:55:
        79:85:43:51:a5:95:a6:92:a3:c6:97:61:47:54:ca:d7:17:d0:
        fd:7e:85:a7:78:ae:09:df:49:ac:80:67:6e:32:8c:c1:86:a8:
        1a:35:83:47:1e:17:8d:8d:3f:7c:d1:ca:bd:7a:66:e9:65:a9:
        6c:aa:d2:58:82:65:24:fb:a9:2e:8d:b6:06:17:6b:7b:d7:1c:
        c4:3b:55:23:c9:fc:1e:e7:d3:74:2f:9e:a3:04:1f:89:74:48:
        5c:37:be:df:48:70:78:f1:bb:20:65:3a:b5:6b:fa:05:f8:1f:
        fc:9e:57:83:49:ee:cb:9c:4d:e8:7e:18:4e:42:d5:b9:b2:e7:
        0a:79:c1:2c:65:10:97:30:e1:66:26:92:d3:45:93:88:9a:75:
        c7:82:f1:b2:f9:27:68:d6:ee:00:0d:60:b5:03:cb:11:3c:5e:
        8b:3c:8d:9b:8c:30:93:db:d6:1c:04:2e:5a:cc:9f:22:2e:aa:
        d7:0d:a2:58
-----BEGIN CERTIFICATE-----
MIIFsjCCBJqgAwIBAgIIMzAwMDAwNzcwDQYJKoZIhvcNAQELBQAwZzELMAkGA1UE
BhMCSlAxHDAaBgNVBAoME0phcGFuZXNlIEdvdmVybm1lbnQxHzAdBgNVBAsMFk5h
dGlvbmFsIFBvbGljZSBBZ2VuY3kxGTAXBgNVBAsMEE5QQSBJQ0RMIFJvb3QgQ0Ew
HhcNMjQwMzE4MDUxMDM2WhcNMjkwMzE3MTQ1OTU5WjCBnjELMAkGA1UEBhMCSlAx
HDAaBgNVBAoME0phcGFuZXNlIEdvdmVybm1lbnQxHzAdBgNVBAsMFk5hdGlvbmFs
IFBvbGljZSBBZ2VuY3kxNzA1BgNVBAsMLlByZWZlY3R1cmFsIFB1YmxpYyBTYWZl
dHkgQ29tbWlzc2lvbnMgZm9yIElDREwxFzAVBgNVBAMMDk1peWFnaSBBbHRQUFND
MIIBIjANBgkqhkiG9w0BAQEFAAOCAQ8AMIIBCgKCAQEAxhSe42kK5A9khBy+14JB
V3wekyscLiKdGpNugAEbL1Wr3Y+4EeeOxzW2JgmRpU686aeRCJhGhkAUxJV29JA1
lC9pW7RJfoFNpJjHpAO15Nz1yT2l+KJdutDwBpFvF+iE8kGmDe6GUWYsb0g30EF0
2Roc6DggnV9opnqM2ZBNjWW/4S94Nrsip5ak/4Xh57zjP3WIDJPtYvM2g5nuxa+s
6HUcoXJTU4dXVEi3qiJefTnUiCtcotcbsFZwov7oyJhCODKtD3uPxIqW+7qzHp9S
UEZ3Uuyo+561uPahSFysX4MZ43+4u9vBaX/YrsL5XUgSn/prLHtXwUs9omoal4Ee
fwIDAQABo4ICKDCCAiQwgZgGA1UdIwSBkDCBjYAUEc2OYERHV09Py+nny6FG37oO
UIuha6RpMGcxCzAJBgNVBAYTAkpQMRwwGgYDVQQKDBNKYXBhbmVzZSBHb3Zlcm5t
ZW50MR8wHQYDVQQLDBZOYXRpb25hbCBQb2xpY2UgQWdlbmN5MRkwFwYDVQQLDBBO
UEEgSUNETCBSb290IENBgggyMDAwMDAxNjAdBgNVHQ4EFgQUaIxBCedM/36WHhcQ
NOnkUBN+NvMwDgYDVR0PAQH/BAQDAgbAMEAGA1UdIAEB/wQ2MDQwMgYLKoMIho4Y
BwUBAQowIzAhBggrBgEFBQcCARYVaHR0cDovL3d3dy5ucGEuZ28uanAvMHQGA1Ud
EgRtMGukaTBnMQswCQYDVQQGEwJKUDEYMBYGA1UECgwP5pel5pys5Zu95pS/5bqc
MRIwEAYDVQQLDAnorablr5/luoExKjAoBgNVBAsMIeitpuWvn+W6gemBi+i7ouWF
jeioseiovOiqjeiovOWxgDCBnwYDVR0fBIGXMIGUMIGRoIGOoIGLpIGIMIGFMQsw
CQYDVQQGEwJKUDEcMBoGA1UECgwTSmFwYW5lc2UgR292ZXJubWVudDEfMB0GA1UE
CwwWTmF0aW9uYWwgUG9saWNlIEFnZW5jeTE3MDUGA1UECwwuUHJlZmVjdHVyYWwg
UHVibGljIFNhZmV0eSBDb21taXNzaW9ucyBmb3IgSUNETDANBgkqhkiG9w0BAQsF
AAOCAQEAJYtKH3Wwstp2tmWG0jfTTz4rMIGT8ckDq9uDfLGXKdAn+n3yQRL28jFj
t0YrChucqThRMDmjqJyIhTSsN5DMXn2QHMFElp9VeYVDUaWVppKjxpdhR1TK1xfQ
/X6Fp3iuCd9JrIBnbjKMwYaoGjWDRx4XjY0/fNHKvXpm6WWpbKrSWIJlJPupLo22
Bhdre9ccxDtVI8n8HufTdC+eowQfiXRIXDe+30hwePG7IGU6tWv6Bfgf/J5Xg0nu
y5xN6H4YTkLVubLnCnnBLGUQlzDhZiaS00WTiJp1x4LxsvknaNbuAA1gtQPLETxe
izyNm4wwk9vWHAQuWsyfIi6q1w2iWA==
-----END CERTIFICATE-----
