Certificate:
    Data:
        Version: 3 (0x2)
        Serial Number:
            33:30:30:30:30:31:32:32
        Signature Algorithm: sha256WithRSAEncryption
        Issuer: C=JP, O=Japanese Government, OU=National Police Agency, OU=NPA ICDL Root CA
        Validity
            Not Before: Sep 17 07:52:40 2024 GMT
            Not After : Sep 16 14:59:59 2029 GMT
        Subject: C=JP, O=Japanese Government, OU=National Police Agency, OU=Prefectural Public Safety Commissions for ICDL, CN=Miyazaki PPSC
        Subject Public Key Info:
            Public Key Algorithm: rsaEncryption
                Public-Key: (2048 bit)
                Modulus:
                    00:c3:fe:0a:98:84:e8:c6:bc:96:b9:d4:61:75:9c:
                    c9:d0:3c:ef:33:35:8e:f1:a7:b5:2c:cb:4e:37:9c:
                    26:30:de:61:11:c7:95:e9:4f:74:de:05:35:1b:8d:
                    60:91:c8:26:48:61:dc:15:6b:df:be:4d:58:b6:c2:
                    e3:1b:01:e4:83:95:f6:7d:14:00:df:6c:29:fd:a8:
                    50:71:e3:38:1e:76:c6:49:4b:5c:42:db:d2:e8:0d:
                    50:d2:97:c5:ef:cf:9b:e6:28:93:33:90:6d:d0:e5:
                    d3:54:59:fb:d5:9c:f8:1a:b9:47:45:f7:85:4d:9e:
                    23:de:be:ea:2b:a1:71:d2:95:f8:8e:84:56:74:3f:
                    30:2e:02:8d:72:32:8b:42:28:87:6b:8d:96:df:f2:
                    ab:ef:d7:d9:25:e5:e7:13:50:13:b2:18:89:47:65:
                    b8:82:b7:35:3f:3a:16:d2:31:e3:af:f5:0c:49:ae:
                    1b:09:ff:cd:ee:ec:f9:20:86:7b:3b:75:d6:c4:ee:
                    5e:56:f2:99:47:16:94:29:8b:ba:71:6b:8a:a5:c3:
                    57:be:7a:f3:f2:12:f9:08:98:73:2d:36:c5:21:42:
                    ef:bc:33:3c:db:e3:14:92:9a:9e:2e:23:71:53:d5:
                    21:87:ab:b5:ca:b4:46:5a:cc:a3:2c:60:ef:ba:a8:
                    75:31
                Exponent: 65537 (0x10001)
        X509v3 extensions:
            X509v3 Authority Key Identifier: 
                keyid:11:CD:8E:60:44:47:57:4F:4F:CB:E9:E7:CB:A1:46:DF:BA:0E:50:8B
                DirName:/C=JP/O=Japanese Government/OU=National Police Agency/OU=NPA ICDL Root CA
                serial:32:30:30:30:30:30:31:36
            X509v3 Subject Key Identifier: 
                EC:67:ED:23:D3:BA:45:44:FC:E9:23:AC:C0:28:34:BA:5A:75:79:DE
            X509v3 Key Usage: critical
                Digital Signature, Non Repudiation
            X509v3 Certificate Policies: critical
                Policy: 1.2.392.100120.7.5.1.1.10
                  CPS: http://www.npa.go.jp/
            X509v3 Subject Alternative Name: 
                DirName:/C=JP/O=\xE6\x97\xA5\xE6\x9C\xAC\xE5\x9B\xBD\xE6\x94\xBF\xE5\xBA\x9C/OU=\xE8\xAD\xA6\xE5\xAF\x9F\xE5\xBA\x81/OU=\xE9\x83\xBD\xE9\x81\x93\xE5\xBA\x9C\xE7\x9C\x8C\xE5\x85\xAC\xE5\xAE\x89\xE5\xA7\x94\xE5\x93\xA1\xE4\xBC\x9A
            X509v3 Issuer Alternative Name: 
                DirName:/C=JP/O=\xE6\x97\xA5\xE6\x9C\xAC\xE5\x9B\xBD\xE6\x94\xBF\xE5\xBA\x9C/OU=\xE8\xAD\xA6\xE5\xAF\x9F\xE5\xBA\x81/OU=\xE8\xAD\xA6\xE5\xAF\x9F\xE5\xBA\x81\xE9\x81\x8B\xE8\xBB\xA2\xE5\x85\x8D\xE8\xA8\xB1\xE8\xA8\xBC\xE8\xAA\x8D\xE8\xA8\xBC\xE5\xB1\x80
            X509v3 CRL Distribution Points: 
                Full Name:
                  DirName:C = JP, O = Japanese Government, OU = National Police Agency, OU = Prefectural Public Safety Commissions for ICDL
    Signature Algorithm: sha256WithRSAEncryption
    Signature Value:
        2d:c7:fc:9e:0f:9b:9e:ce:0b:95:4b:f9:fd:01:ac:54:80:f8:
        00:84:f6:ae:01:18:c6:e6:f7:02:6c:64:fd:be:dc:e7:08:81:
        b5:3b:80:21:f7:84:e3:52:69:ad:68:b9:eb:5f:34:42:63:ba:
        90:72:26:98:aa:44:2e:96:eb:0e:1f:35:4b:8f:62:57:90:3b:
        d1:68:bb:15:b7:d7:4c:cd:46:09:03:25:dc:c8:4f:e5:8d:a0:
        97:9f:b3:97:aa:f0:ed:2b:33:55:14:7c:42:19:7f:c3:fb:9c:
        d1:61:c6:0a:1c:24:c7:7b:a7:cd:82:c3:89:0a:06:2b:0a:69:
        20:04:41:22:32:d4:be:b4:d2:6c:3e:80:77:2d:22:15:be:89:
        ee:34:bc:82:ca:7d:4c:34:b6:5d:ea:f3:1c:17:07:ab:bb:8a:
        84:0f:ff:ce:57:9c:5e:61:57:38:c5:32:c3:a8:2b:ee:46:9b:
        e8:55:ec:fb:a2:5a:33:aa:dc:06:2d:c8:88:87:fe:10:56:e9:
        0d:dc:a6:b7:82:72:83:2d:9f:87:d0:d6:b0:5a:cf:6a:1f:88:
        83:dc:a6:1f:15:3c:aa:2d:9c:09:3d:63:8e:03:98:b9:01:9c:
        78:00:e1:ca:db:bc:53:1e:df:e2:f1:70:bd:8e:b0:c9:8c:3b:
        05:2e:4c:50
-----BEGIN CERTIFICATE-----
MIIGSTCCBTGgAwIBAgIIMzAwMDAxMjIwDQYJKoZIhvcNAQELBQAwZzELMAkGA1UE
BhMCSlAxHDAaBgNVBAoME0phcGFuZXNlIEdvdmVybm1lbnQxHzAdBgNVBAsMFk5h
dGlvbmFsIFBvbGljZSBBZ2VuY3kxGTAXBgNVBAsMEE5QQSBJQ0RMIFJvb3QgQ0Ew
HhcNMjQwOTE3MDc1MjQwWhcNMjkwOTE2MTQ1OTU5WjCBnTELMAkGA1UEBhMCSlAx
HDAaBgNVBAoME0phcGFuZXNlIEdvdmVybm1lbnQxHzAdBgNVBAsMFk5hdGlvbmFs
IFBvbGljZSBBZ2VuY3kxNzA1BgNVBAsMLlByZWZlY3R1cmFsIFB1YmxpYyBTYWZl
dHkgQ29tbWlzc2lvbnMgZm9yIElDREwxFjAUBgNVBAMMDU1peWF6YWtpIFBQU0Mw
ggEiMA0GCSqGSIb3DQEBAQUAA4IBDwAwggEKAoIBAQDD/gqYhOjGvJa51GF1nMnQ
PO8zNY7xp7Usy043nCYw3mERx5XpT3TeBTUbjWCRyCZIYdwVa9++TVi2wuMbAeSD
lfZ9FADfbCn9qFBx4zgedsZJS1xC29LoDVDSl8Xvz5vmKJMzkG3Q5dNUWfvVnPga
uUdF94VNniPevuoroXHSlfiOhFZ0PzAuAo1yMotCKIdrjZbf8qvv19kl5ecTUBOy
GIlHZbiCtzU/OhbSMeOv9QxJrhsJ/83u7Pkghns7ddbE7l5W8plHFpQpi7pxa4ql
w1e+evPyEvkImHMtNsUhQu+8Mzzb4xSSmp4uI3FT1SGHq7XKtEZazKMsYO+6qHUx
AgMBAAGjggLAMIICvDCBmAYDVR0jBIGQMIGNgBQRzY5gREdXT0/L6efLoUbfug5Q
i6FrpGkwZzELMAkGA1UEBhMCSlAxHDAaBgNVBAoME0phcGFuZXNlIEdvdmVybm1l
bnQxHzAdBgNVBAsMFk5hdGlvbmFsIFBvbGljZSBBZ2VuY3kxGTAXBgNVBAsMEE5Q
QSBJQ0RMIFJvb3QgQ0GCCDIwMDAwMDE2MB0GA1UdDgQWBBTsZ+0j07pFRPzpI6zA
KDS6WnV53jAOBgNVHQ8BAf8EBAMCBsAwQAYDVR0gAQH/BDYwNDAyBgsqgwiGjhgH
BQEBCjAjMCEGCCsGAQUFBwIBFhVodHRwOi8vd3d3Lm5wYS5nby5qcC8wgZUGA1Ud
EQSBjTCBiqSBhzCBhDELMAkGA1UEBhMCSlAxGDAWBgNVBAoMD+aXpeacrOWbveaU
v+W6nDESMBAGA1UECwwJ6K2m5a+f5bqBMSQwIgYDVQQLDBvpg73pgZPlupznnIzl
hazlronlp5Tlk6HkvJoxITAfBgNVBAMMGOWuruW0juecjOWFrOWuieWnlOWToeS8
mjB0BgNVHRIEbTBrpGkwZzELMAkGA1UEBhMCSlAxGDAWBgNVBAoMD+aXpeacrOWb
veaUv+W6nDESMBAGA1UECwwJ6K2m5a+f5bqBMSowKAYDVQQLDCHorablr5/luoHp
gYvou6LlhY3oqLHoqLzoqo3oqLzlsYAwgZ8GA1UdHwSBlzCBlDCBkaCBjqCBi6SB
iDCBhTELMAkGA1UEBhMCSlAxHDAaBgNVBAoME0phcGFuZXNlIEdvdmVybm1lbnQx
HzAdBgNVBAsMFk5hdGlvbmFsIFBvbGljZSBBZ2VuY3kxNzA1BgNVBAsMLlByZWZl
Y3R1cmFsIFB1YmxpYyBTYWZldHkgQ29tbWlzc2lvbnMgZm9yIElDREwwDQYJKoZI
hvcNAQELBQADggEBAC3H/J4Pm57OC5VL+f0BrFSA+ACE9q4BGMbm9wJsZP2+3OcI
gbU7gCH3hONSaa1ouetfNEJjupByJpiqRC6W6w4fNUuPYleQO9FouxW310zNRgkD
JdzIT+WNoJefs5eq8O0rM1UUfEIZf8P7nNFhxgocJMd7p82Cw4kKBisKaSAEQSIy
1L600mw+gHctIhW+ie40vILKfUw0tl3q8xwXB6u7ioQP/85XnF5hVzjFMsOoK+5G
m+hV7PuiWjOq3AYtyIiH/hBW6Q3cpreCcoMtn4fQ1rBaz2ofiIPcph8VPKotnAk9
Y44DmLkBnHgA4crbvFMe3+LxcL2OsMmMOwUuTFA=
-----END CERTIFICATE-----
