Certificate:
    Data:
        Version: 3 (0x2)
        Serial Number:
            32:30:30:30:30:30:37:39
        Signature Algorithm: sha256WithRSAEncryption
        Issuer: C=JP, O=Japanese Government, OU=National Police Agency, OU=NPA ICDL Root CA
        Validity
            Not Before: Feb  6 04:48:48 2023 GMT
            Not After : Feb  5 14:59:59 2028 GMT
        Subject: C=JP, O=Japanese Government, OU=National Police Agency, OU=Prefectural Public Safety Commissions for ICDL, CN=Miyazaki PPSC
        Subject Public Key Info:
            Public Key Algorithm: rsaEncryption
                Public-Key: (2048 bit)
                Modulus:
                    00:b1:5a:78:b1:cb:ad:4d:f4:0a:02:e5:e0:51:56:
                    d8:f3:63:3a:ae:a9:c1:fd:a8:fb:33:b4:1d:08:2b:
                    89:e9:8e:c6:8e:55:d2:84:b3:55:38:4f:ec:ce:80:
                    25:b5:5b:d5:22:39:23:07:c2:c0:b7:cc:82:57:a4:
                    59:7b:9b:bd:7b:7a:09:6a:10:4b:af:6e:de:bd:9e:
                    3e:52:35:d1:02:17:1f:91:dd:10:16:ff:fb:95:c1:
                    72:da:90:6d:45:46:7a:72:fa:dc:52:8d:2e:37:1c:
                    e8:19:b5:9d:ed:ff:88:9d:b3:e5:73:cb:2f:39:ac:
                    c8:11:37:bb:23:7e:bf:b1:6a:b7:42:f2:a8:64:97:
                    e4:5e:e0:33:ba:14:6f:bd:2e:c2:44:1e:f9:1f:cf:
                    08:68:45:e1:7f:db:62:81:70:4b:b2:b0:8f:4d:90:
                    f7:db:cd:a2:be:df:f2:5b:4a:f3:56:af:c5:64:64:
                    d6:80:1b:42:04:f5:c3:71:67:f3:92:ab:7b:77:a0:
                    bd:c1:81:ee:fb:4e:1d:73:1b:70:9b:38:52:1a:e3:
                    3e:b0:5d:d6:3f:ce:f8:18:8c:a1:28:13:e7:0e:fc:
                    38:74:7a:e1:d7:bf:16:28:1e:61:34:ad:fd:2b:84:
                    4c:99:f9:f8:89:22:ac:10:9e:e2:49:70:27:1f:c3:
                    c6:81
                Exponent: 65537 (0x10001)
        X509v3 extensions:
            X509v3 Authority Key Identifier: 
                keyid:11:CD:8E:60:44:47:57:4F:4F:CB:E9:E7:CB:A1:46:DF:BA:0E:50:8B
                DirName:/C=JP/O=Japanese Government/OU=National Police Agency/OU=NPA ICDL Root CA
                serial:32:30:30:30:30:30:31:36
            X509v3 Subject Key Identifier: 
                CB:1D:65:8A:8A:6B:69:36:B6:CC:F2:D7:2B:B7:B5:AF:6B:3F:69:A1
            X509v3 Key Usage: critical
                Digital Signature, Non Repudiation
            X509v3 Certificate Policies: critical
                Policy: 1.2.392.100120.7.5.1.1.10
                  CPS: http://www.npa.go.jp/
            X509v3 Subject Alternative Name: 
                DirName:/C=JP/O=\xE6\x97\xA5\xE6\x9C\xAC\xE5\x9B\xBD\xE6\x94\xBF\xE5\xBA\x9C/OU=\xE8\xAD\xA6\xE5\xAF\x9F\xE5\xBA\x81/OU=\xE9\x83\xBD\xE9\x81\x93\xE5\xBA\x9C\xE7\x9C\x8C\xE5\x85\xAC\xE5\xAE\x89\xE5\xA7\x94\xE5\x93\xA1\xE4\xBC\x9A
            X509v3 Issuer Alternative Name: 
                DirName:/C=JP/O=\xE6\x97\xA5\xE6\x9C\xAC\xE5\x9B\xBD\xE6\x94\xBF\xE5\xBA\x9C/OU=\xE8\xAD\xA6\xE5\xAF\x9F\xE5\xBA\x81/OU=\xE8\xAD\xA6\xE5\xAF\x9F\xE5\xBA\x81\xE9\x81\x8B\xE8\xBB\xA2\xE5\x85\x8D\xE8\xA8\xB1\xE8\xA8\xBC\xE8\xAA\x8D\xE8\xA8\xBC\xE5\xB1\x80
            X509v3 CRL Distribution Points: 
                Full Name:
                  DirName:C = JP, O = Japanese Government, OU = National Police Agency, OU = Prefectural Public Safety Commissions for ICDL
    Signature Algorithm: sha256WithRSAEncryption
    Signature Value:
        0c:be:71:31:d3:8c:a5:1e:39:57:73:76:cf:bb:23:58:07:fd:
        a8:85:c5:3e:c0:6f:70:5a:eb:b1:12:31:ef:bc:b8:d2:ad:69:
        2d:48:4d:f3:9a:e6:e2:a9:56:ad:2e:49:46:99:ae:7d:cc:49:
        4c:78:4b:93:99:57:8d:27:ce:88:66:d5:0a:b9:96:d1:f3:fd:
        7d:83:a6:9d:1c:8a:1d:93:ad:3a:b5:f2:f4:5a:cc:4d:88:53:
        42:a9:5f:fa:49:85:7f:c4:1c:8e:23:4c:2b:42:aa:bb:ff:8c:
        a9:66:53:ca:b9:2d:e5:b6:6e:4e:0a:ac:d6:48:4d:17:00:58:
        bf:dd:b9:a7:cf:ca:1f:a7:29:9f:50:a1:3a:bf:c1:21:6e:b6:
        81:d1:01:87:34:9a:f6:50:4b:90:25:f5:6f:50:41:94:9a:c5:
        8d:36:79:40:64:a3:6a:5e:84:33:f1:a6:db:d1:04:c0:57:12:
        7a:5a:f2:3c:5c:4e:ee:3c:b1:1c:ae:21:d0:d8:84:b6:97:52:
        b2:5c:c6:18:f2:0c:cd:60:dc:2d:38:5b:55:d7:de:41:25:30:
        f4:b3:60:67:67:0a:bd:eb:ae:03:6a:57:04:3e:36:5a:99:63:
        6a:96:a4:e7:56:1b:a7:a0:af:16:c2:86:fe:a4:92:b9:75:0c:
        44:8a:6f:84
-----BEGIN CERTIFICATE-----
MIIGSTCCBTGgAwIBAgIIMjAwMDAwNzkwDQYJKoZIhvcNAQELBQAwZzELMAkGA1UE
BhMCSlAxHDAaBgNVBAoME0phcGFuZXNlIEdvdmVybm1lbnQxHzAdBgNVBAsMFk5h
dGlvbmFsIFBvbGljZSBBZ2VuY3kxGTAXBgNVBAsMEE5QQSBJQ0RMIFJvb3QgQ0Ew
HhcNMjMwMjA2MDQ0ODQ4WhcNMjgwMjA1MTQ1OTU5WjCBnTELMAkGA1UEBhMCSlAx
HDAaBgNVBAoME0phcGFuZXNlIEdvdmVybm1lbnQxHzAdBgNVBAsMFk5hdGlvbmFs
IFBvbGljZSBBZ2VuY3kxNzA1BgNVBAsMLlByZWZlY3R1cmFsIFB1YmxpYyBTYWZl
dHkgQ29tbWlzc2lvbnMgZm9yIElDREwxFjAUBgNVBAMMDU1peWF6YWtpIFBQU0Mw
ggEiMA0GCSqGSIb3DQEBAQUAA4IBDwAwggEKAoIBAQCxWnixy61N9AoC5eBRVtjz
YzquqcH9qPsztB0IK4npjsaOVdKEs1U4T+zOgCW1W9UiOSMHwsC3zIJXpFl7m717
eglqEEuvbt69nj5SNdECFx+R3RAW//uVwXLakG1FRnpy+txSjS43HOgZtZ3t/4id
s+Vzyy85rMgRN7sjfr+xardC8qhkl+Re4DO6FG+9LsJEHvkfzwhoReF/22KBcEuy
sI9NkPfbzaK+3/JbSvNWr8VkZNaAG0IE9cNxZ/OSq3t3oL3Bge77Th1zG3CbOFIa
4z6wXdY/zvgYjKEoE+cO/Dh0euHXvxYoHmE0rf0rhEyZ+fiJIqwQnuJJcCcfw8aB
AgMBAAGjggLAMIICvDCBmAYDVR0jBIGQMIGNgBQRzY5gREdXT0/L6efLoUbfug5Q
i6FrpGkwZzELMAkGA1UEBhMCSlAxHDAaBgNVBAoME0phcGFuZXNlIEdvdmVybm1l
bnQxHzAdBgNVBAsMFk5hdGlvbmFsIFBvbGljZSBBZ2VuY3kxGTAXBgNVBAsMEE5Q
QSBJQ0RMIFJvb3QgQ0GCCDIwMDAwMDE2MB0GA1UdDgQWBBTLHWWKimtpNrbM8tcr
t7Wvaz9poTAOBgNVHQ8BAf8EBAMCBsAwQAYDVR0gAQH/BDYwNDAyBgsqgwiGjhgH
BQEBCjAjMCEGCCsGAQUFBwIBFhVodHRwOi8vd3d3Lm5wYS5nby5qcC8wgZUGA1Ud
EQSBjTCBiqSBhzCBhDELMAkGA1UEBhMCSlAxGDAWBgNVBAoMD+aXpeacrOWbveaU
v+W6nDESMBAGA1UECwwJ6K2m5a+f5bqBMSQwIgYDVQQLDBvpg73pgZPlupznnIzl
hazlronlp5Tlk6HkvJoxITAfBgNVBAMMGOWuruW0juecjOWFrOWuieWnlOWToeS8
mjB0BgNVHRIEbTBrpGkwZzELMAkGA1UEBhMCSlAxGDAWBgNVBAoMD+aXpeacrOWb
veaUv+W6nDESMBAGA1UECwwJ6K2m5a+f5bqBMSowKAYDVQQLDCHorablr5/luoHp
gYvou6LlhY3oqLHoqLzoqo3oqLzlsYAwgZ8GA1UdHwSBlzCBlDCBkaCBjqCBi6SB
iDCBhTELMAkGA1UEBhMCSlAxHDAaBgNVBAoME0phcGFuZXNlIEdvdmVybm1lbnQx
HzAdBgNVBAsMFk5hdGlvbmFsIFBvbGljZSBBZ2VuY3kxNzA1BgNVBAsMLlByZWZl
Y3R1cmFsIFB1YmxpYyBTYWZldHkgQ29tbWlzc2lvbnMgZm9yIElDREwwDQYJKoZI
hvcNAQELBQADggEBAAy+cTHTjKUeOVdzds+7I1gH/aiFxT7Ab3Ba67ESMe+8uNKt
aS1ITfOa5uKpVq0uSUaZrn3MSUx4S5OZV40nzohm1Qq5ltHz/X2Dpp0cih2TrTq1
8vRazE2IU0KpX/pJhX/EHI4jTCtCqrv/jKlmU8q5LeW2bk4KrNZITRcAWL/duafP
yh+nKZ9QoTq/wSFutoHRAYc0mvZQS5Al9W9QQZSaxY02eUBko2pehDPxptvRBMBX
Enpa8jxcTu48sRyuIdDYhLaXUrJcxhjyDM1g3C04W1XX3kElMPSzYGdnCr3rrgNq
VwQ+NlqZY2qWpOdWG6egrxbChv6kkrl1DESKb4Q=
-----END CERTIFICATE-----
