Certificate:
    Data:
        Version: 3 (0x2)
        Serial Number:
            33:30:30:30:30:30:35:37
        Signature Algorithm: sha256WithRSAEncryption
        Issuer: C=JP, O=Japanese Government, OU=National Police Agency, OU=NPA ICDL Root CA
        Validity
            Not Before: Nov  1 04:11:12 2023 GMT
            Not After : Oct 31 14:59:59 2028 GMT
        Subject: C=JP, O=Japanese Government, OU=National Police Agency, OU=Prefectural Public Safety Commissions for ICDL, CN=Miyagi PPSC
        Subject Public Key Info:
            Public Key Algorithm: rsaEncryption
                Public-Key: (2048 bit)
                Modulus:
                    00:ba:ce:4e:e2:93:6b:6d:2b:20:2b:cb:81:6e:5f:
                    61:68:e8:cc:9a:3e:ab:fb:36:fa:77:cf:49:4f:cb:
                    18:df:35:66:cc:bb:71:59:33:67:2f:d9:6e:d2:4a:
                    d6:7b:44:e6:93:24:22:64:c7:d5:9c:61:2d:8f:5b:
                    46:2a:e0:f9:f1:eb:51:26:80:c9:92:a1:1d:03:f5:
                    00:7b:a9:61:2f:57:5e:78:11:8e:3d:e8:eb:45:19:
                    a3:3c:f3:df:bb:98:b5:67:99:f3:88:ea:62:d4:8d:
                    f9:4d:91:f1:c4:a2:44:0a:11:ee:40:4d:8d:5a:ca:
                    7e:77:0d:04:91:39:6f:60:d7:82:e5:5b:c0:75:c4:
                    01:2d:fb:65:76:82:f6:4b:27:e8:0d:93:8d:61:b3:
                    9b:94:b9:fd:59:db:ac:f5:ac:53:c9:b4:41:77:7c:
                    e3:d6:09:d0:da:a8:58:02:62:7a:ff:a4:0e:13:90:
                    08:6d:58:54:d8:81:5b:87:8a:76:90:7d:40:05:7c:
                    a0:13:56:66:02:dc:c2:fa:4f:c2:85:c2:20:98:5d:
                    2b:34:fb:6e:79:30:80:42:7e:66:bc:c3:78:48:81:
                    30:e4:fd:36:3b:02:a8:61:80:d1:67:d2:24:a1:ed:
                    38:b5:a7:f8:a1:6a:b0:94:23:0c:b3:72:f1:2a:f9:
                    03:81
                Exponent: 65537 (0x10001)
        X509v3 extensions:
            X509v3 Authority Key Identifier: 
                keyid:11:CD:8E:60:44:47:57:4F:4F:CB:E9:E7:CB:A1:46:DF:BA:0E:50:8B
                DirName:/C=JP/O=Japanese Government/OU=National Police Agency/OU=NPA ICDL Root CA
                serial:32:30:30:30:30:30:31:36
            X509v3 Subject Key Identifier: 
                A3:52:2F:A5:57:29:CB:46:9C:5F:8A:45:6C:67:BE:2A:F2:36:6B:DA
            X509v3 Key Usage: critical
                Digital Signature, Non Repudiation
            X509v3 Certificate Policies: critical
                Policy: 1.2.392.100120.7.5.1.1.10
                  CPS: http://www.npa.go.jp/
            X509v3 Subject Alternative Name: 
                DirName:/C=JP/O=\xE6\x97\xA5\xE6\x9C\xAC\xE5\x9B\xBD\xE6\x94\xBF\xE5\xBA\x9C/OU=\xE8\xAD\xA6\xE5\xAF\x9F\xE5\xBA\x81/OU=\xE9\x83\xBD\xE9\x81\x93\xE5\xBA\x9C\xE7\x9C\x8C\xE5\x85\xAC\xE5\xAE\x89\xE5\xA7\x94\xE5\x93\xA1\xE4\xBC\x9A
            X509v3 Issuer Alternative Name: 
                DirName:/C=JP/O=\xE6\x97\xA5\xE6\x9C\xAC\xE5\x9B\xBD\xE6\x94\xBF\xE5\xBA\x9C/OU=\xE8\xAD\xA6\xE5\xAF\x9F\xE5\xBA\x81/OU=\xE8\xAD\xA6\xE5\xAF\x9F\xE5\xBA\x81\xE9\x81\x8B\xE8\xBB\xA2\xE5\x85\x8D\xE8\xA8\xB1\xE8\xA8\xBC\xE8\xAA\x8D\xE8\xA8\xBC\xE5\xB1\x80
            X509v3 CRL Distribution Points: 
                Full Name:
                  DirName:C = JP, O = Japanese Government, OU = National Police Agency, OU = Prefectural Public Safety Commissions for ICDL
    Signature Algorithm: sha256WithRSAEncryption
    Signature Value:
        4a:14:b8:80:e8:fa:49:70:5f:93:aa:fc:27:50:d8:78:73:74:
        d7:ff:4b:10:f2:43:5d:9c:05:6c:12:67:ac:de:89:a5:3d:9d:
        8a:de:fe:c9:91:74:37:0c:4e:66:8b:d3:ad:6c:16:ae:05:a6:
        a4:7b:e7:10:c8:43:14:bd:3f:13:90:6a:2f:7c:82:b0:9d:6c:
        f9:3b:5a:69:48:47:10:80:49:aa:ff:23:9d:4c:0c:88:a0:29:
        a4:f8:f0:1d:76:d8:9b:5c:01:0b:93:26:f2:c8:03:bd:a4:d3:
        d1:20:8e:62:f1:8b:36:f1:bf:7d:8d:63:d2:a2:61:ad:1f:0c:
        40:ea:84:c6:83:12:48:7b:d9:50:77:d5:f0:c1:10:71:ec:e3:
        55:2e:1d:44:1a:51:3d:4d:72:a6:5e:31:4c:cc:a6:bb:e3:b6:
        ca:74:5a:7a:65:1f:c7:c0:a2:69:b1:72:ab:f0:77:ab:4b:70:
        02:11:a8:c8:11:fd:9f:ad:25:c7:d5:70:a2:21:c6:bc:c6:44:
        5d:c2:89:3e:15:4e:95:c6:14:c6:f7:94:22:57:02:4a:8b:ce:
        8a:40:92:3a:03:0a:6e:18:51:54:16:6d:21:c5:b6:42:79:65:
        8e:07:c7:8a:14:9c:38:6a:9c:20:87:d6:ef:99:cd:31:86:b5:
        23:d9:81:81
-----BEGIN CERTIFICATE-----
MIIGRzCCBS+gAwIBAgIIMzAwMDAwNTcwDQYJKoZIhvcNAQELBQAwZzELMAkGA1UE
BhMCSlAxHDAaBgNVBAoME0phcGFuZXNlIEdvdmVybm1lbnQxHzAdBgNVBAsMFk5h
dGlvbmFsIFBvbGljZSBBZ2VuY3kxGTAXBgNVBAsMEE5QQSBJQ0RMIFJvb3QgQ0Ew
HhcNMjMxMTAxMDQxMTEyWhcNMjgxMDMxMTQ1OTU5WjCBmzELMAkGA1UEBhMCSlAx
HDAaBgNVBAoME0phcGFuZXNlIEdvdmVybm1lbnQxHzAdBgNVBAsMFk5hdGlvbmFs
IFBvbGljZSBBZ2VuY3kxNzA1BgNVBAsMLlByZWZlY3R1cmFsIFB1YmxpYyBTYWZl
dHkgQ29tbWlzc2lvbnMgZm9yIElDREwxFDASBgNVBAMMC01peWFnaSBQUFNDMIIB
IjANBgkqhkiG9w0BAQEFAAOCAQ8AMIIBCgKCAQEAus5O4pNrbSsgK8uBbl9haOjM
mj6r+zb6d89JT8sY3zVmzLtxWTNnL9lu0krWe0TmkyQiZMfVnGEtj1tGKuD58etR
JoDJkqEdA/UAe6lhL1deeBGOPejrRRmjPPPfu5i1Z5nziOpi1I35TZHxxKJEChHu
QE2NWsp+dw0EkTlvYNeC5VvAdcQBLftldoL2SyfoDZONYbOblLn9Wdus9axTybRB
d3zj1gnQ2qhYAmJ6/6QOE5AIbVhU2IFbh4p2kH1ABXygE1ZmAtzC+k/ChcIgmF0r
NPtueTCAQn5mvMN4SIEw5P02OwKoYYDRZ9Ikoe04taf4oWqwlCMMs3LxKvkDgQID
AQABo4ICwDCCArwwgZgGA1UdIwSBkDCBjYAUEc2OYERHV09Py+nny6FG37oOUIuh
a6RpMGcxCzAJBgNVBAYTAkpQMRwwGgYDVQQKDBNKYXBhbmVzZSBHb3Zlcm5tZW50
MR8wHQYDVQQLDBZOYXRpb25hbCBQb2xpY2UgQWdlbmN5MRkwFwYDVQQLDBBOUEEg
SUNETCBSb290IENBgggyMDAwMDAxNjAdBgNVHQ4EFgQUo1IvpVcpy0acX4pFbGe+
KvI2a9owDgYDVR0PAQH/BAQDAgbAMEAGA1UdIAEB/wQ2MDQwMgYLKoMIho4YBwUB
AQowIzAhBggrBgEFBQcCARYVaHR0cDovL3d3dy5ucGEuZ28uanAvMIGVBgNVHREE
gY0wgYqkgYcwgYQxCzAJBgNVBAYTAkpQMRgwFgYDVQQKDA/ml6XmnKzlm73mlL/l
upwxEjAQBgNVBAsMCeitpuWvn+W6gTEkMCIGA1UECwwb6YO96YGT5bqc55yM5YWs
5a6J5aeU5ZOh5LyaMSEwHwYDVQQDDBjlrq7ln47nnIzlhazlronlp5Tlk6HkvJow
dAYDVR0SBG0wa6RpMGcxCzAJBgNVBAYTAkpQMRgwFgYDVQQKDA/ml6XmnKzlm73m
lL/lupwxEjAQBgNVBAsMCeitpuWvn+W6gTEqMCgGA1UECwwh6K2m5a+f5bqB6YGL
6Lui5YWN6Kix6Ki86KqN6Ki85bGAMIGfBgNVHR8EgZcwgZQwgZGggY6ggYukgYgw
gYUxCzAJBgNVBAYTAkpQMRwwGgYDVQQKDBNKYXBhbmVzZSBHb3Zlcm5tZW50MR8w
HQYDVQQLDBZOYXRpb25hbCBQb2xpY2UgQWdlbmN5MTcwNQYDVQQLDC5QcmVmZWN0
dXJhbCBQdWJsaWMgU2FmZXR5IENvbW1pc3Npb25zIGZvciBJQ0RMMA0GCSqGSIb3
DQEBCwUAA4IBAQBKFLiA6PpJcF+TqvwnUNh4c3TX/0sQ8kNdnAVsEmes3omlPZ2K
3v7JkXQ3DE5mi9OtbBauBaake+cQyEMUvT8TkGovfIKwnWz5O1ppSEcQgEmq/yOd
TAyIoCmk+PAddtibXAELkybyyAO9pNPRII5i8Ys28b99jWPSomGtHwxA6oTGgxJI
e9lQd9XwwRBx7ONVLh1EGlE9TXKmXjFMzKa747bKdFp6ZR/HwKJpsXKr8HerS3AC
EajIEf2frSXH1XCiIca8xkRdwok+FU6VxhTG95QiVwJKi86KQJI6AwpuGFFUFm0h
xbZCeWWOB8eKFJw4apwgh9bvmc0xhrUj2YGB
-----END CERTIFICATE-----
