Certificate:
    Data:
        Version: 3 (0x2)
        Serial Number:
            33:30:30:30:30:30:31:33:d0:82:95:f4:4c:d9:96:b8:3d:db
        Signature Algorithm: sha256WithRSAEncryption
        Issuer: C=JP, O=Japanese Government, OU=National Police Agency, OU=NPA ICDL Root CA
        Validity
            Not Before: Jun 19 05:28:05 2023 GMT
            Not After : Jun 18 14:59:59 2028 GMT
        Subject: C=JP, O=Japanese Government, OU=National Police Agency, OU=Prefectural Public Safety Commissions for ICDL, CN=Miyagi AltPPSC
        Subject Public Key Info:
            Public Key Algorithm: rsaEncryption
                Public-Key: (2048 bit)
                Modulus:
                    00:8e:4a:c4:18:db:f4:f4:2f:26:e6:18:ba:5b:7a:
                    35:e4:ff:c6:a7:e4:29:60:d5:9a:a7:50:20:ad:98:
                    be:1b:d0:ce:02:5a:57:3b:a0:d1:b6:68:d7:5d:1b:
                    fa:7c:02:3d:88:81:86:71:7f:f1:8c:0d:8e:67:b2:
                    4a:db:b2:ab:59:94:38:24:76:4c:46:65:b3:bb:65:
                    43:3c:95:00:e5:d4:44:ab:13:4d:bd:be:bf:52:8c:
                    be:b5:98:de:67:ff:2c:a8:e0:23:f8:e3:96:8e:41:
                    07:11:45:8b:73:63:a7:cb:ff:3c:37:2e:21:9b:91:
                    98:07:36:5e:01:72:d4:76:7f:1a:b1:ac:0c:ce:04:
                    c8:4c:8f:f1:d7:ff:f6:d0:55:6f:f3:dc:6d:b5:c7:
                    22:d3:41:1b:74:dd:95:c8:53:81:82:39:9f:3c:32:
                    cd:4a:5b:6c:97:ea:65:32:ae:36:86:6f:52:8e:39:
                    96:4e:5f:03:09:25:b0:02:b4:46:86:4d:3e:ea:e7:
                    dd:0d:88:d3:0f:23:2c:11:9d:c6:19:f4:00:69:a9:
                    3c:ac:ac:c1:ad:14:07:b4:a4:aa:30:e4:01:36:e8:
                    74:f4:6c:f1:60:9a:b5:40:e8:cd:b5:6c:23:f9:96:
                    d5:40:67:d0:10:8a:b6:29:1a:08:7b:cd:9b:59:98:
                    55:69
                Exponent: 65537 (0x10001)
        X509v3 extensions:
            X509v3 Authority Key Identifier: 
                keyid:11:CD:8E:60:44:47:57:4F:4F:CB:E9:E7:CB:A1:46:DF:BA:0E:50:8B
                DirName:/C=JP/O=Japanese Government/OU=National Police Agency/OU=NPA ICDL Root CA
                serial:32:30:30:30:30:30:31:36
            X509v3 Subject Key Identifier: 
                0A:DD:77:AE:7E:4C:48:F3:5B:8F:05:D7:0A:A4:27:25:47:6C:BE:F0
            X509v3 Key Usage: critical
                Digital Signature, Non Repudiation
            X509v3 Certificate Policies: critical
                Policy: 1.2.392.100120.7.5.1.1.10
                  CPS: http://www.npa.go.jp/
            X509v3 Issuer Alternative Name: 
                DirName:/C=JP/O=\xE6\x97\xA5\xE6\x9C\xAC\xE5\x9B\xBD\xE6\x94\xBF\xE5\xBA\x9C/OU=\xE8\xAD\xA6\xE5\xAF\x9F\xE5\xBA\x81/OU=\xE8\xAD\xA6\xE5\xAF\x9F\xE5\xBA\x81\xE9\x81\x8B\xE8\xBB\xA2\xE5\x85\x8D\xE8\xA8\xB1\xE8\xA8\xBC\xE8\xAA\x8D\xE8\xA8\xBC\xE5\xB1\x80
            X509v3 CRL Distribution Points: 
                Full Name:
                  DirName:C = JP, O = Japanese Government, OU = National Police Agency, OU = Prefectural Public Safety Commissions for ICDL
    Signature Algorithm: sha256WithRSAEncryption
    Signature Value:
        77:ca:64:55:85:14:a2:7d:73:f3:cf:f0:a2:e2:d4:0c:81:f6:
        76:ba:e4:78:92:f1:d0:66:23:62:2b:4a:35:9f:a8:2b:21:69:
        76:d9:db:66:37:77:51:bf:34:57:98:16:6e:16:0e:e9:50:52:
        f8:66:e4:ad:f5:bd:c9:22:2c:3a:c4:59:90:8f:40:72:8f:14:
        89:d8:0a:29:b9:a3:11:4d:e7:ba:01:f4:59:86:e7:58:26:03:
        be:71:f6:46:4e:2e:74:5b:30:f2:58:1f:b5:0c:19:8f:10:af:
        40:33:6f:49:80:9d:c6:5b:00:6a:9e:30:b9:a0:49:6d:55:40:
        a4:61:6f:6c:b2:fc:b5:65:d3:3d:46:0e:b8:5d:7e:3f:7a:b7:
        55:67:41:1a:bc:fb:98:60:3e:11:29:a7:9f:de:7d:d8:f8:30:
        c2:ed:ce:8c:e4:7b:f2:4a:92:50:88:3f:b9:99:60:38:f2:92:
        c7:90:38:9b:97:6e:69:e8:de:77:de:01:51:bf:ed:67:1d:e0:
        fc:7b:d3:de:1b:70:c2:81:25:b0:45:36:6b:4d:ab:54:06:bb:
        f2:e6:90:a8:cd:1e:26:f4:e3:fd:15:37:0e:09:d3:fa:f4:f2:
        45:b8:d8:d3:e8:6b:28:9a:ca:74:6c:d2:6e:b7:62:81:f7:e1:
        17:6e:cb:a2
-----BEGIN CERTIFICATE-----
MIIFvDCCBKSgAwIBAgISMzAwMDAwMTPQgpX0TNmWuD3bMA0GCSqGSIb3DQEBCwUA
MGcxCzAJBgNVBAYTAkpQMRwwGgYDVQQKDBNKYXBhbmVzZSBHb3Zlcm5tZW50MR8w
HQYDVQQLDBZOYXRpb25hbCBQb2xpY2UgQWdlbmN5MRkwFwYDVQQLDBBOUEEgSUNE
TCBSb290IENBMB4XDTIzMDYxOTA1MjgwNVoXDTI4MDYxODE0NTk1OVowgZ4xCzAJ
BgNVBAYTAkpQMRwwGgYDVQQKDBNKYXBhbmVzZSBHb3Zlcm5tZW50MR8wHQYDVQQL
DBZOYXRpb25hbCBQb2xpY2UgQWdlbmN5MTcwNQYDVQQLDC5QcmVmZWN0dXJhbCBQ
dWJsaWMgU2FmZXR5IENvbW1pc3Npb25zIGZvciBJQ0RMMRcwFQYDVQQDDA5NaXlh
Z2kgQWx0UFBTQzCCASIwDQYJKoZIhvcNAQEBBQADggEPADCCAQoCggEBAI5KxBjb
9PQvJuYYult6NeT/xqfkKWDVmqdQIK2YvhvQzgJaVzug0bZo110b+nwCPYiBhnF/
8YwNjmeyStuyq1mUOCR2TEZls7tlQzyVAOXURKsTTb2+v1KMvrWY3mf/LKjgI/jj
lo5BBxFFi3Njp8v/PDcuIZuRmAc2XgFy1HZ/GrGsDM4EyEyP8df/9tBVb/PcbbXH
ItNBG3TdlchTgYI5nzwyzUpbbJfqZTKuNoZvUo45lk5fAwklsAK0RoZNPurn3Q2I
0w8jLBGdxhn0AGmpPKyswa0UB7SkqjDkATbodPRs8WCatUDozbVsI/mW1UBn0BCK
tikaCHvNm1mYVWkCAwEAAaOCAigwggIkMIGYBgNVHSMEgZAwgY2AFBHNjmBER1dP
T8vp58uhRt+6DlCLoWukaTBnMQswCQYDVQQGEwJKUDEcMBoGA1UECgwTSmFwYW5l
c2UgR292ZXJubWVudDEfMB0GA1UECwwWTmF0aW9uYWwgUG9saWNlIEFnZW5jeTEZ
MBcGA1UECwwQTlBBIElDREwgUm9vdCBDQYIIMjAwMDAwMTYwHQYDVR0OBBYEFArd
d65+TEjzW48F1wqkJyVHbL7wMA4GA1UdDwEB/wQEAwIGwDBABgNVHSABAf8ENjA0
MDIGCyqDCIaOGAcFAQEKMCMwIQYIKwYBBQUHAgEWFWh0dHA6Ly93d3cubnBhLmdv
LmpwLzB0BgNVHRIEbTBrpGkwZzELMAkGA1UEBhMCSlAxGDAWBgNVBAoMD+aXpeac
rOWbveaUv+W6nDESMBAGA1UECwwJ6K2m5a+f5bqBMSowKAYDVQQLDCHorablr5/l
uoHpgYvou6LlhY3oqLHoqLzoqo3oqLzlsYAwgZ8GA1UdHwSBlzCBlDCBkaCBjqCB
i6SBiDCBhTELMAkGA1UEBhMCSlAxHDAaBgNVBAoME0phcGFuZXNlIEdvdmVybm1l
bnQxHzAdBgNVBAsMFk5hdGlvbmFsIFBvbGljZSBBZ2VuY3kxNzA1BgNVBAsMLlBy
ZWZlY3R1cmFsIFB1YmxpYyBTYWZldHkgQ29tbWlzc2lvbnMgZm9yIElDREwwDQYJ
KoZIhvcNAQELBQADggEBAHfKZFWFFKJ9c/PP8KLi1AyB9na65HiS8dBmI2IrSjWf
qCshaXbZ22Y3d1G/NFeYFm4WDulQUvhm5K31vckiLDrEWZCPQHKPFInYCim5oxFN
57oB9FmG51gmA75x9kZOLnRbMPJYH7UMGY8Qr0Azb0mAncZbAGqeMLmgSW1VQKRh
b2yy/LVl0z1GDrhdfj96t1VnQRq8+5hgPhEpp5/efdj4MMLtzozke/JKklCIP7mZ
YDjykseQOJuXbmno3nfeAVG/7Wcd4Px7094bcMKBJbBFNmtNq1QGu/LmkKjNHib0
4/0VNw4J0/r08kW42NPoayiaynRs0m63YoH34Rduy6I=
-----END CERTIFICATE-----
