Certificate:
    Data:
        Version: 3 (0x2)
        Serial Number:
            33:30:30:30:30:30:35:34:87:81:da:b9:af:e3:f0:f8:43:93
        Signature Algorithm: sha256WithRSAEncryption
        Issuer: C=JP, O=Japanese Government, OU=National Police Agency, OU=NPA ICDL Root CA
        Validity
            Not Before: Jun 19 06:23:29 2023 GMT
            Not After : Jun 18 14:59:59 2028 GMT
        Subject: C=JP, O=Japanese Government, OU=National Police Agency, OU=Prefectural Public Safety Commissions for ICDL, CN=Miyazaki AltPPSC
        Subject Public Key Info:
            Public Key Algorithm: rsaEncryption
                Public-Key: (2048 bit)
                Modulus:
                    00:98:17:c6:f7:f3:ef:a6:08:d9:5c:fb:5e:e1:0b:
                    59:61:49:0e:25:4c:03:ab:df:db:c4:ec:a2:42:62:
                    fa:3a:0a:a7:5d:62:7d:a6:e9:b8:66:b9:98:46:5a:
                    9d:9b:ee:34:a4:80:80:c7:89:53:7b:3b:27:c2:3a:
                    0c:20:c9:37:13:65:bc:be:68:99:7e:61:01:e7:13:
                    db:9c:1f:d5:cf:9d:f2:95:dc:24:c3:61:91:20:86:
                    2f:d0:9f:ee:2e:14:33:21:5c:92:77:e3:17:ef:04:
                    d4:42:87:1a:f0:ea:92:66:1e:a1:38:2c:04:0e:a1:
                    f2:a1:82:aa:7f:23:46:a3:a7:60:3e:55:ca:28:9c:
                    89:03:bd:49:f9:66:07:b2:e3:20:75:35:65:84:c3:
                    42:d0:e3:9a:c8:13:07:d2:c6:7f:92:3f:2b:97:63:
                    f5:c5:7a:7e:51:ae:21:a8:2d:83:ad:19:e8:12:59:
                    4f:d5:98:3b:5a:33:5f:70:67:30:ae:2b:58:9c:87:
                    b0:44:fb:ed:51:81:56:63:79:1b:4a:a5:73:86:f0:
                    b4:ee:77:f0:f8:9e:92:88:e7:ad:34:07:c1:00:79:
                    a1:eb:7d:74:d3:ca:49:6c:bb:0c:dc:2b:e1:a9:af:
                    81:3e:48:3c:9f:ca:88:aa:85:b5:ce:de:d4:12:54:
                    e1:27
                Exponent: 65537 (0x10001)
        X509v3 extensions:
            X509v3 Authority Key Identifier: 
                keyid:11:CD:8E:60:44:47:57:4F:4F:CB:E9:E7:CB:A1:46:DF:BA:0E:50:8B
                DirName:/C=JP/O=Japanese Government/OU=National Police Agency/OU=NPA ICDL Root CA
                serial:32:30:30:30:30:30:31:36
            X509v3 Subject Key Identifier: 
                E7:F2:04:CC:E6:94:69:4F:01:FA:14:15:52:87:11:46:6E:5E:30:DF
            X509v3 Key Usage: critical
                Digital Signature, Non Repudiation
            X509v3 Certificate Policies: critical
                Policy: 1.2.392.100120.7.5.1.1.10
                  CPS: http://www.npa.go.jp/
            X509v3 Issuer Alternative Name: 
                DirName:/C=JP/O=\xE6\x97\xA5\xE6\x9C\xAC\xE5\x9B\xBD\xE6\x94\xBF\xE5\xBA\x9C/OU=\xE8\xAD\xA6\xE5\xAF\x9F\xE5\xBA\x81/OU=\xE8\xAD\xA6\xE5\xAF\x9F\xE5\xBA\x81\xE9\x81\x8B\xE8\xBB\xA2\xE5\x85\x8D\xE8\xA8\xB1\xE8\xA8\xBC\xE8\xAA\x8D\xE8\xA8\xBC\xE5\xB1\x80
            X509v3 CRL Distribution Points: 
                Full Name:
                  DirName:C = JP, O = Japanese Government, OU = National Police Agency, OU = Prefectural Public Safety Commissions for ICDL
    Signature Algorithm: sha256WithRSAEncryption
    Signature Value:
        82:ed:a3:00:61:79:99:e2:0c:91:8e:76:b9:dc:a8:87:b4:40:
        26:e9:a4:95:88:c8:d7:24:23:e2:33:1d:7b:4f:5d:8e:9c:2b:
        06:af:f8:9e:3d:14:93:0a:68:fc:3a:02:22:30:64:d9:11:4d:
        bb:d6:c3:18:77:ba:eb:6f:ce:64:49:5c:b4:60:4f:a8:67:a9:
        0b:0a:a2:97:bb:73:23:dc:49:f0:57:68:17:6e:e3:46:e2:c9:
        92:df:b4:bc:20:58:04:be:63:cc:9e:5f:fb:2c:c7:01:a5:6e:
        ba:26:d1:96:ce:47:f0:ce:c2:06:39:5b:d6:35:7b:e5:a5:01:
        ea:bd:84:0b:4f:c5:54:ce:6b:ac:22:1c:bf:0a:32:6f:b5:95:
        b4:28:01:0b:93:ed:91:9c:5f:32:5c:7d:39:19:14:50:fc:57:
        e9:fa:9d:39:ef:fe:99:7d:26:51:ca:9a:27:dc:d1:88:69:63:
        27:14:b5:c4:39:cd:f2:45:23:85:70:d3:15:58:9c:f5:52:0f:
        43:09:c6:db:0c:37:e0:1c:f5:12:64:9e:4b:e4:52:a4:e8:75:
        6e:f2:bb:e6:3c:c5:40:bb:65:be:88:78:69:7d:52:b3:2c:31:
        44:97:05:bd:77:94:3a:d0:b5:9d:d3:ed:e2:0c:e2:8a:94:ac:
        0a:af:24:84
-----BEGIN CERTIFICATE-----
MIIFvjCCBKagAwIBAgISMzAwMDAwNTSHgdq5r+Pw+EOTMA0GCSqGSIb3DQEBCwUA
MGcxCzAJBgNVBAYTAkpQMRwwGgYDVQQKDBNKYXBhbmVzZSBHb3Zlcm5tZW50MR8w
HQYDVQQLDBZOYXRpb25hbCBQb2xpY2UgQWdlbmN5MRkwFwYDVQQLDBBOUEEgSUNE
TCBSb290IENBMB4XDTIzMDYxOTA2MjMyOVoXDTI4MDYxODE0NTk1OVowgaAxCzAJ
BgNVBAYTAkpQMRwwGgYDVQQKDBNKYXBhbmVzZSBHb3Zlcm5tZW50MR8wHQYDVQQL
DBZOYXRpb25hbCBQb2xpY2UgQWdlbmN5MTcwNQYDVQQLDC5QcmVmZWN0dXJhbCBQ
dWJsaWMgU2FmZXR5IENvbW1pc3Npb25zIGZvciBJQ0RMMRkwFwYDVQQDDBBNaXlh
emFraSBBbHRQUFNDMIIBIjANBgkqhkiG9w0BAQEFAAOCAQ8AMIIBCgKCAQEAmBfG
9/PvpgjZXPte4QtZYUkOJUwDq9/bxOyiQmL6OgqnXWJ9pum4ZrmYRlqdm+40pICA
x4lTezsnwjoMIMk3E2W8vmiZfmEB5xPbnB/Vz53yldwkw2GRIIYv0J/uLhQzIVyS
d+MX7wTUQoca8OqSZh6hOCwEDqHyoYKqfyNGo6dgPlXKKJyJA71J+WYHsuMgdTVl
hMNC0OOayBMH0sZ/kj8rl2P1xXp+Ua4hqC2DrRnoEllP1Zg7WjNfcGcwritYnIew
RPvtUYFWY3kbSqVzhvC07nfw+J6SiOetNAfBAHmh631008pJbLsM3Cvhqa+BPkg8
n8qIqoW1zt7UElThJwIDAQABo4ICKDCCAiQwgZgGA1UdIwSBkDCBjYAUEc2OYERH
V09Py+nny6FG37oOUIuha6RpMGcxCzAJBgNVBAYTAkpQMRwwGgYDVQQKDBNKYXBh
bmVzZSBHb3Zlcm5tZW50MR8wHQYDVQQLDBZOYXRpb25hbCBQb2xpY2UgQWdlbmN5
MRkwFwYDVQQLDBBOUEEgSUNETCBSb290IENBgggyMDAwMDAxNjAdBgNVHQ4EFgQU
5/IEzOaUaU8B+hQVUocRRm5eMN8wDgYDVR0PAQH/BAQDAgbAMEAGA1UdIAEB/wQ2
MDQwMgYLKoMIho4YBwUBAQowIzAhBggrBgEFBQcCARYVaHR0cDovL3d3dy5ucGEu
Z28uanAvMHQGA1UdEgRtMGukaTBnMQswCQYDVQQGEwJKUDEYMBYGA1UECgwP5pel
5pys5Zu95pS/5bqcMRIwEAYDVQQLDAnorablr5/luoExKjAoBgNVBAsMIeitpuWv
n+W6gemBi+i7ouWFjeioseiovOiqjeiovOWxgDCBnwYDVR0fBIGXMIGUMIGRoIGO
oIGLpIGIMIGFMQswCQYDVQQGEwJKUDEcMBoGA1UECgwTSmFwYW5lc2UgR292ZXJu
bWVudDEfMB0GA1UECwwWTmF0aW9uYWwgUG9saWNlIEFnZW5jeTE3MDUGA1UECwwu
UHJlZmVjdHVyYWwgUHVibGljIFNhZmV0eSBDb21taXNzaW9ucyBmb3IgSUNETDAN
BgkqhkiG9w0BAQsFAAOCAQEAgu2jAGF5meIMkY52udyoh7RAJumklYjI1yQj4jMd
e09djpwrBq/4nj0Ukwpo/DoCIjBk2RFNu9bDGHe662/OZElctGBPqGepCwqil7tz
I9xJ8FdoF27jRuLJkt+0vCBYBL5jzJ5f+yzHAaVuuibRls5H8M7CBjlb1jV75aUB
6r2EC0/FVM5rrCIcvwoyb7WVtCgBC5PtkZxfMlx9ORkUUPxX6fqdOe/+mX0mUcqa
J9zRiGljJxS1xDnN8kUjhXDTFVic9VIPQwnG2ww34Bz1EmSeS+RSpOh1bvK75jzF
QLtlvoh4aX1SsywxRJcFvXeUOtC1ndPt4gziipSsCq8khA==
-----END CERTIFICATE-----
