Certificate:
    Data:
        Version: 3 (0x2)
        Serial Number:
            32:30:30:30:30:30:34:32
        Signature Algorithm: sha256WithRSAEncryption
        Issuer: C=JP, O=Japanese Government, OU=National Police Agency, OU=NPA ICDL Root CA
        Validity
            Not Before: Feb  6 01:35:51 2023 GMT
            Not After : Feb  5 14:59:59 2028 GMT
        Subject: C=JP, O=Japanese Government, OU=National Police Agency, OU=Prefectural Public Safety Commissions for ICDL, CN=Miyagi PPSC
        Subject Public Key Info:
            Public Key Algorithm: rsaEncryption
                Public-Key: (2048 bit)
                Modulus:
                    00:c6:14:9e:e3:69:0a:e4:0f:64:84:1c:be:d7:82:
                    41:57:7c:1e:93:2b:1c:2e:22:9d:1a:93:6e:80:01:
                    1b:2f:55:ab:dd:8f:b8:11:e7:8e:c7:35:b6:26:09:
                    91:a5:4e:bc:e9:a7:91:08:98:46:86:40:14:c4:95:
                    76:f4:90:35:94:2f:69:5b:b4:49:7e:81:4d:a4:98:
                    c7:a4:03:b5:e4:dc:f5:c9:3d:a5:f8:a2:5d:ba:d0:
                    f0:06:91:6f:17:e8:84:f2:41:a6:0d:ee:86:51:66:
                    2c:6f:48:37:d0:41:74:d9:1a:1c:e8:38:20:9d:5f:
                    68:a6:7a:8c:d9:90:4d:8d:65:bf:e1:2f:78:36:bb:
                    22:a7:96:a4:ff:85:e1:e7:bc:e3:3f:75:88:0c:93:
                    ed:62:f3:36:83:99:ee:c5:af:ac:e8:75:1c:a1:72:
                    53:53:87:57:54:48:b7:aa:22:5e:7d:39:d4:88:2b:
                    5c:a2:d7:1b:b0:56:70:a2:fe:e8:c8:98:42:38:32:
                    ad:0f:7b:8f:c4:8a:96:fb:ba:b3:1e:9f:52:50:46:
                    77:52:ec:a8:fb:9e:b5:b8:f6:a1:48:5c:ac:5f:83:
                    19:e3:7f:b8:bb:db:c1:69:7f:d8:ae:c2:f9:5d:48:
                    12:9f:fa:6b:2c:7b:57:c1:4b:3d:a2:6a:1a:97:81:
                    1e:7f
                Exponent: 65537 (0x10001)
        X509v3 extensions:
            X509v3 Authority Key Identifier: 
                keyid:11:CD:8E:60:44:47:57:4F:4F:CB:E9:E7:CB:A1:46:DF:BA:0E:50:8B
                DirName:/C=JP/O=Japanese Government/OU=National Police Agency/OU=NPA ICDL Root CA
                serial:32:30:30:30:30:30:31:36
            X509v3 Subject Key Identifier: 
                68:8C:41:09:E7:4C:FF:7E:96:1E:17:10:34:E9:E4:50:13:7E:36:F3
            X509v3 Key Usage: critical
                Digital Signature, Non Repudiation
            X509v3 Certificate Policies: critical
                Policy: 1.2.392.100120.7.5.1.1.10
                  CPS: http://www.npa.go.jp/
            X509v3 Subject Alternative Name: 
                DirName:/C=JP/O=\xE6\x97\xA5\xE6\x9C\xAC\xE5\x9B\xBD\xE6\x94\xBF\xE5\xBA\x9C/OU=\xE8\xAD\xA6\xE5\xAF\x9F\xE5\xBA\x81/OU=\xE9\x83\xBD\xE9\x81\x93\xE5\xBA\x9C\xE7\x9C\x8C\xE5\x85\xAC\xE5\xAE\x89\xE5\xA7\x94\xE5\x93\xA1\xE4\xBC\x9A
            X509v3 Issuer Alternative Name: 
                DirName:/C=JP/O=\xE6\x97\xA5\xE6\x9C\xAC\xE5\x9B\xBD\xE6\x94\xBF\xE5\xBA\x9C/OU=\xE8\xAD\xA6\xE5\xAF\x9F\xE5\xBA\x81/OU=\xE8\xAD\xA6\xE5\xAF\x9F\xE5\xBA\x81\xE9\x81\x8B\xE8\xBB\xA2\xE5\x85\x8D\xE8\xA8\xB1\xE8\xA8\xBC\xE8\xAA\x8D\xE8\xA8\xBC\xE5\xB1\x80
            X509v3 CRL Distribution Points: 
                Full Name:
                  DirName:C = JP, O = Japanese Government, OU = National Police Agency, OU = Prefectural Public Safety Commissions for ICDL
    Signature Algorithm: sha256WithRSAEncryption
    Signature Value:
        52:42:e8:72:f5:9e:74:66:6d:4f:45:85:44:bb:b9:7c:f4:7c:
        51:0f:f0:dc:69:aa:b2:df:ba:9b:79:a3:a5:58:df:cb:7c:9a:
        94:65:b3:ba:ed:4f:c9:2f:d2:f5:a6:c4:08:f8:b5:24:c1:0a:
        b5:f3:c1:37:dd:0c:1c:fa:8a:30:4c:f5:5a:2b:1f:1b:a0:3e:
        1b:5c:17:1a:e2:4e:d8:d6:99:1c:aa:dc:e6:3d:64:79:04:bf:
        7c:d8:bb:a1:0f:85:2a:fc:8e:6b:d3:02:b7:c9:e7:a2:5e:80:
        0e:4b:d0:8a:1e:a2:70:ff:8e:16:b5:65:8e:10:d3:b2:e6:63:
        04:4d:be:cf:30:dd:31:11:6e:23:a8:09:6d:26:37:db:32:88:
        c9:d5:d1:c6:43:91:62:9c:da:d0:44:a7:7a:50:f3:62:f7:c0:
        8b:76:06:c9:c4:37:a4:0b:82:18:28:fe:9e:88:fb:17:fd:45:
        07:bd:44:19:6b:27:dd:fa:4d:49:79:1d:cd:51:03:9e:f6:3f:
        b9:49:a8:cd:85:5c:b3:2c:f3:8e:71:16:8e:e9:dd:06:b0:4e:
        12:ca:d8:85:3a:3b:e2:04:1e:62:1b:3f:18:d4:21:51:32:39:
        56:46:84:08:b2:59:81:dc:ce:cc:ca:3f:e6:03:32:02:d2:e3:
        5c:a5:b4:89
-----BEGIN CERTIFICATE-----
MIIGRzCCBS+gAwIBAgIIMjAwMDAwNDIwDQYJKoZIhvcNAQELBQAwZzELMAkGA1UE
BhMCSlAxHDAaBgNVBAoME0phcGFuZXNlIEdvdmVybm1lbnQxHzAdBgNVBAsMFk5h
dGlvbmFsIFBvbGljZSBBZ2VuY3kxGTAXBgNVBAsMEE5QQSBJQ0RMIFJvb3QgQ0Ew
HhcNMjMwMjA2MDEzNTUxWhcNMjgwMjA1MTQ1OTU5WjCBmzELMAkGA1UEBhMCSlAx
HDAaBgNVBAoME0phcGFuZXNlIEdvdmVybm1lbnQxHzAdBgNVBAsMFk5hdGlvbmFs
IFBvbGljZSBBZ2VuY3kxNzA1BgNVBAsMLlByZWZlY3R1cmFsIFB1YmxpYyBTYWZl
dHkgQ29tbWlzc2lvbnMgZm9yIElDREwxFDASBgNVBAMMC01peWFnaSBQUFNDMIIB
IjANBgkqhkiG9w0BAQEFAAOCAQ8AMIIBCgKCAQEAxhSe42kK5A9khBy+14JBV3we
kyscLiKdGpNugAEbL1Wr3Y+4EeeOxzW2JgmRpU686aeRCJhGhkAUxJV29JA1lC9p
W7RJfoFNpJjHpAO15Nz1yT2l+KJdutDwBpFvF+iE8kGmDe6GUWYsb0g30EF02Roc
6DggnV9opnqM2ZBNjWW/4S94Nrsip5ak/4Xh57zjP3WIDJPtYvM2g5nuxa+s6HUc
oXJTU4dXVEi3qiJefTnUiCtcotcbsFZwov7oyJhCODKtD3uPxIqW+7qzHp9SUEZ3
Uuyo+561uPahSFysX4MZ43+4u9vBaX/YrsL5XUgSn/prLHtXwUs9omoal4EefwID
AQABo4ICwDCCArwwgZgGA1UdIwSBkDCBjYAUEc2OYERHV09Py+nny6FG37oOUIuh
a6RpMGcxCzAJBgNVBAYTAkpQMRwwGgYDVQQKDBNKYXBhbmVzZSBHb3Zlcm5tZW50
MR8wHQYDVQQLDBZOYXRpb25hbCBQb2xpY2UgQWdlbmN5MRkwFwYDVQQLDBBOUEEg
SUNETCBSb290IENBgggyMDAwMDAxNjAdBgNVHQ4EFgQUaIxBCedM/36WHhcQNOnk
UBN+NvMwDgYDVR0PAQH/BAQDAgbAMEAGA1UdIAEB/wQ2MDQwMgYLKoMIho4YBwUB
AQowIzAhBggrBgEFBQcCARYVaHR0cDovL3d3dy5ucGEuZ28uanAvMIGVBgNVHREE
gY0wgYqkgYcwgYQxCzAJBgNVBAYTAkpQMRgwFgYDVQQKDA/ml6XmnKzlm73mlL/l
upwxEjAQBgNVBAsMCeitpuWvn+W6gTEkMCIGA1UECwwb6YO96YGT5bqc55yM5YWs
5a6J5aeU5ZOh5LyaMSEwHwYDVQQDDBjlrq7ln47nnIzlhazlronlp5Tlk6HkvJow
dAYDVR0SBG0wa6RpMGcxCzAJBgNVBAYTAkpQMRgwFgYDVQQKDA/ml6XmnKzlm73m
lL/lupwxEjAQBgNVBAsMCeitpuWvn+W6gTEqMCgGA1UECwwh6K2m5a+f5bqB6YGL
6Lui5YWN6Kix6Ki86KqN6Ki85bGAMIGfBgNVHR8EgZcwgZQwgZGggY6ggYukgYgw
gYUxCzAJBgNVBAYTAkpQMRwwGgYDVQQKDBNKYXBhbmVzZSBHb3Zlcm5tZW50MR8w
HQYDVQQLDBZOYXRpb25hbCBQb2xpY2UgQWdlbmN5MTcwNQYDVQQLDC5QcmVmZWN0
dXJhbCBQdWJsaWMgU2FmZXR5IENvbW1pc3Npb25zIGZvciBJQ0RMMA0GCSqGSIb3
DQEBCwUAA4IBAQBSQuhy9Z50Zm1PRYVEu7l89HxRD/Dcaaqy37qbeaOlWN/LfJqU
ZbO67U/JL9L1psQI+LUkwQq188E33Qwc+oowTPVaKx8boD4bXBca4k7Y1pkcqtzm
PWR5BL982LuhD4Uq/I5r0wK3yeeiXoAOS9CKHqJw/44WtWWOENOy5mMETb7PMN0x
EW4jqAltJjfbMojJ1dHGQ5FinNrQRKd6UPNi98CLdgbJxDekC4IYKP6eiPsX/UUH
vUQZayfd+k1JeR3NUQOe9j+5SajNhVyzLPOOcRaO6d0GsE4SytiFOjviBB5iGz8Y
1CFRMjlWRoQIslmB3M7Myj/mAzIC0uNcpbSJ
-----END CERTIFICATE-----
