Certificate:
    Data:
        Version: 3 (0x2)
        Serial Number:
            32:30:30:30:30:30:37:36
        Signature Algorithm: sha256WithRSAEncryption
        Issuer: C=JP, O=Japanese Government, OU=National Police Agency, OU=NPA ICDL Root CA
        Validity
            Not Before: Feb  6 04:39:42 2023 GMT
            Not After : Feb  5 14:59:59 2028 GMT
        Subject: C=JP, O=Japanese Government, OU=National Police Agency, OU=Prefectural Public Safety Commissions for ICDL, CN=Nagasaki PPSC
        Subject Public Key Info:
            Public Key Algorithm: rsaEncryption
                Public-Key: (2048 bit)
                Modulus:
                    00:cb:bc:23:4b:3e:f6:8f:78:92:88:4c:76:bc:00:
                    e9:e1:6c:7f:93:7a:ce:a5:33:a9:54:61:95:38:6b:
                    b9:a5:e4:6b:ce:68:20:59:c5:e1:32:b0:2d:30:df:
                    7d:b1:71:19:46:f7:31:61:ca:08:7f:c5:7b:8c:85:
                    f3:be:4e:8a:2b:0a:68:0e:47:98:5e:f7:16:f5:02:
                    ed:d0:b6:36:f1:69:96:38:83:fe:28:9d:88:d1:60:
                    1e:39:16:d9:6a:ec:2e:d8:a2:42:c1:31:c1:57:f6:
                    59:4a:2e:f4:dd:00:86:e8:3f:a7:d9:ac:6a:39:98:
                    77:c3:22:8f:95:9e:35:d2:71:9c:92:6a:73:77:5b:
                    81:85:8c:a9:d3:f1:6a:ee:0d:1b:20:41:d6:c0:97:
                    1d:a6:6d:40:b8:2f:bb:83:21:2b:ed:f9:10:74:b1:
                    8e:bf:51:15:5b:11:96:8b:81:7a:46:3d:e7:ce:e9:
                    a0:5c:40:2d:be:4a:77:73:93:6b:0e:0d:be:00:63:
                    1a:0b:d4:4a:f9:66:06:97:82:a5:6a:a9:77:34:a3:
                    d2:75:8a:64:70:a5:e0:26:0e:2b:e6:81:ff:bc:74:
                    ad:e7:51:05:b1:a0:31:a8:87:a6:dc:34:65:05:a4:
                    76:4b:c4:c6:0f:16:d2:fa:d8:75:e8:49:7e:e0:14:
                    bd:a7
                Exponent: 65537 (0x10001)
        X509v3 extensions:
            X509v3 Authority Key Identifier: 
                keyid:11:CD:8E:60:44:47:57:4F:4F:CB:E9:E7:CB:A1:46:DF:BA:0E:50:8B
                DirName:/C=JP/O=Japanese Government/OU=National Police Agency/OU=NPA ICDL Root CA
                serial:32:30:30:30:30:30:31:36
            X509v3 Subject Key Identifier: 
                17:2C:56:D8:DA:A9:86:15:3B:59:59:7B:1A:A3:AB:AA:B3:13:3D:1F
            X509v3 Key Usage: critical
                Digital Signature, Non Repudiation
            X509v3 Certificate Policies: critical
                Policy: 1.2.392.100120.7.5.1.1.10
                  CPS: http://www.npa.go.jp/
            X509v3 Subject Alternative Name: 
                DirName:/C=JP/O=\xE6\x97\xA5\xE6\x9C\xAC\xE5\x9B\xBD\xE6\x94\xBF\xE5\xBA\x9C/OU=\xE8\xAD\xA6\xE5\xAF\x9F\xE5\xBA\x81/OU=\xE9\x83\xBD\xE9\x81\x93\xE5\xBA\x9C\xE7\x9C\x8C\xE5\x85\xAC\xE5\xAE\x89\xE5\xA7\x94\xE5\x93\xA1\xE4\xBC\x9A
            X509v3 Issuer Alternative Name: 
                DirName:/C=JP/O=\xE6\x97\xA5\xE6\x9C\xAC\xE5\x9B\xBD\xE6\x94\xBF\xE5\xBA\x9C/OU=\xE8\xAD\xA6\xE5\xAF\x9F\xE5\xBA\x81/OU=\xE8\xAD\xA6\xE5\xAF\x9F\xE5\xBA\x81\xE9\x81\x8B\xE8\xBB\xA2\xE5\x85\x8D\xE8\xA8\xB1\xE8\xA8\xBC\xE8\xAA\x8D\xE8\xA8\xBC\xE5\xB1\x80
            X509v3 CRL Distribution Points: 
                Full Name:
                  DirName:C = JP, O = Japanese Government, OU = National Police Agency, OU = Prefectural Public Safety Commissions for ICDL
    Signature Algorithm: sha256WithRSAEncryption
    Signature Value:
        3b:bd:2d:40:2b:49:99:7c:09:3f:11:e5:8f:12:52:16:63:44:
        8b:c1:5e:ae:0d:4a:9c:7c:06:fb:c4:49:9f:3f:81:b4:7e:5c:
        32:d4:23:62:8a:8d:0b:1d:38:98:ed:d9:5d:6f:e9:80:1f:a5:
        3c:9e:89:14:94:14:60:fd:5f:ad:cd:5d:15:35:f4:58:e1:f1:
        6e:5f:c5:2f:66:b2:1e:fd:b6:d0:f3:5d:36:83:d9:c5:8b:22:
        6d:b9:bf:35:5e:01:f7:97:86:b2:f7:12:87:39:d9:60:6a:2b:
        9d:84:68:7f:3c:d3:01:bb:ed:a1:45:b0:57:00:58:37:ae:86:
        d8:5f:d3:c5:fa:ba:21:d4:ee:d2:79:ec:d7:3e:6f:35:fa:73:
        1a:6d:d5:af:34:5c:9a:d1:ae:46:99:43:76:8c:b1:7e:07:82:
        b7:27:88:1e:ee:3b:2c:cc:ad:f9:64:38:33:d6:50:8b:5e:60:
        40:01:52:3b:3c:3d:22:7a:21:bb:1a:bd:be:eb:db:cb:e5:ab:
        ac:37:a0:90:79:19:5a:1e:a6:bd:4c:8f:0f:84:e4:63:03:f7:
        70:16:92:09:c6:7b:d5:d9:b3:49:3a:30:04:8d:db:93:ff:14:
        bd:1e:8a:e7:c9:70:4b:8b:b7:59:e7:75:72:97:78:dd:3c:65:
        06:0a:e1:f2
-----BEGIN CERTIFICATE-----
MIIGSTCCBTGgAwIBAgIIMjAwMDAwNzYwDQYJKoZIhvcNAQELBQAwZzELMAkGA1UE
BhMCSlAxHDAaBgNVBAoME0phcGFuZXNlIEdvdmVybm1lbnQxHzAdBgNVBAsMFk5h
dGlvbmFsIFBvbGljZSBBZ2VuY3kxGTAXBgNVBAsMEE5QQSBJQ0RMIFJvb3QgQ0Ew
HhcNMjMwMjA2MDQzOTQyWhcNMjgwMjA1MTQ1OTU5WjCBnTELMAkGA1UEBhMCSlAx
HDAaBgNVBAoME0phcGFuZXNlIEdvdmVybm1lbnQxHzAdBgNVBAsMFk5hdGlvbmFs
IFBvbGljZSBBZ2VuY3kxNzA1BgNVBAsMLlByZWZlY3R1cmFsIFB1YmxpYyBTYWZl
dHkgQ29tbWlzc2lvbnMgZm9yIElDREwxFjAUBgNVBAMMDU5hZ2FzYWtpIFBQU0Mw
ggEiMA0GCSqGSIb3DQEBAQUAA4IBDwAwggEKAoIBAQDLvCNLPvaPeJKITHa8AOnh
bH+Tes6lM6lUYZU4a7ml5GvOaCBZxeEysC0w332xcRlG9zFhygh/xXuMhfO+Toor
CmgOR5he9xb1Au3QtjbxaZY4g/4onYjRYB45Ftlq7C7YokLBMcFX9llKLvTdAIbo
P6fZrGo5mHfDIo+VnjXScZySanN3W4GFjKnT8WruDRsgQdbAlx2mbUC4L7uDISvt
+RB0sY6/URVbEZaLgXpGPefO6aBcQC2+Sndzk2sODb4AYxoL1Er5ZgaXgqVqqXc0
o9J1imRwpeAmDivmgf+8dK3nUQWxoDGoh6bcNGUFpHZLxMYPFtL62HXoSX7gFL2n
AgMBAAGjggLAMIICvDCBmAYDVR0jBIGQMIGNgBQRzY5gREdXT0/L6efLoUbfug5Q
i6FrpGkwZzELMAkGA1UEBhMCSlAxHDAaBgNVBAoME0phcGFuZXNlIEdvdmVybm1l
bnQxHzAdBgNVBAsMFk5hdGlvbmFsIFBvbGljZSBBZ2VuY3kxGTAXBgNVBAsMEE5Q
QSBJQ0RMIFJvb3QgQ0GCCDIwMDAwMDE2MB0GA1UdDgQWBBQXLFbY2qmGFTtZWXsa
o6uqsxM9HzAOBgNVHQ8BAf8EBAMCBsAwQAYDVR0gAQH/BDYwNDAyBgsqgwiGjhgH
BQEBCjAjMCEGCCsGAQUFBwIBFhVodHRwOi8vd3d3Lm5wYS5nby5qcC8wgZUGA1Ud
EQSBjTCBiqSBhzCBhDELMAkGA1UEBhMCSlAxGDAWBgNVBAoMD+aXpeacrOWbveaU
v+W6nDESMBAGA1UECwwJ6K2m5a+f5bqBMSQwIgYDVQQLDBvpg73pgZPlupznnIzl
hazlronlp5Tlk6HkvJoxITAfBgNVBAMMGOmVt+W0juecjOWFrOWuieWnlOWToeS8
mjB0BgNVHRIEbTBrpGkwZzELMAkGA1UEBhMCSlAxGDAWBgNVBAoMD+aXpeacrOWb
veaUv+W6nDESMBAGA1UECwwJ6K2m5a+f5bqBMSowKAYDVQQLDCHorablr5/luoHp
gYvou6LlhY3oqLHoqLzoqo3oqLzlsYAwgZ8GA1UdHwSBlzCBlDCBkaCBjqCBi6SB
iDCBhTELMAkGA1UEBhMCSlAxHDAaBgNVBAoME0phcGFuZXNlIEdvdmVybm1lbnQx
HzAdBgNVBAsMFk5hdGlvbmFsIFBvbGljZSBBZ2VuY3kxNzA1BgNVBAsMLlByZWZl
Y3R1cmFsIFB1YmxpYyBTYWZldHkgQ29tbWlzc2lvbnMgZm9yIElDREwwDQYJKoZI
hvcNAQELBQADggEBADu9LUArSZl8CT8R5Y8SUhZjRIvBXq4NSpx8BvvESZ8/gbR+
XDLUI2KKjQsdOJjt2V1v6YAfpTyeiRSUFGD9X63NXRU19Fjh8W5fxS9msh79ttDz
XTaD2cWLIm25vzVeAfeXhrL3Eoc52WBqK52EaH880wG77aFFsFcAWDeuhthf08X6
uiHU7tJ57Nc+bzX6cxpt1a80XJrRrkaZQ3aMsX4HgrcniB7uOyzMrflkODPWUIte
YEABUjs8PSJ6Ibsavb7r28vlq6w3oJB5GVoepr1Mjw+E5GMD93AWkgnGe9XZs0k6
MASN25P/FL0eiufJcEuLt1nndXKXeN08ZQYK4fI=
-----END CERTIFICATE-----
