Certificate:
    Data:
        Version: 3 (0x2)
        Serial Number:
            33:30:30:30:30:30:35:31:5d:f1:1f:a7:ec:90:b1:10:db:cb
        Signature Algorithm: sha256WithRSAEncryption
        Issuer: C=JP, O=Japanese Government, OU=National Police Agency, OU=NPA ICDL Root CA
        Validity
            Not Before: Jun 19 06:19:29 2023 GMT
            Not After : Jun 18 14:59:59 2028 GMT
        Subject: C=JP, O=Japanese Government, OU=National Police Agency, OU=Prefectural Public Safety Commissions for ICDL, CN=Nagasaki AltPPSC
        Subject Public Key Info:
            Public Key Algorithm: rsaEncryption
                Public-Key: (2048 bit)
                Modulus:
                    00:81:10:b6:cb:fe:a5:17:73:45:cb:da:46:ec:41:
                    35:24:be:f2:89:07:38:9a:99:82:b0:97:32:8f:e1:
                    84:bf:12:a7:9f:fe:db:62:4d:f1:81:f9:78:8e:4e:
                    9d:e5:10:e7:a0:01:1a:b0:a1:68:26:79:95:99:31:
                    1c:0f:46:d2:63:f9:a0:3b:2a:19:b9:a8:7f:c9:f4:
                    6d:62:81:30:da:98:f0:19:61:ba:65:d6:17:71:3c:
                    83:e6:85:35:85:e8:1f:c5:95:79:21:58:9d:f6:c6:
                    b1:c7:fc:18:f9:48:d5:07:11:99:d4:bc:27:bb:4a:
                    01:e8:24:73:34:65:7f:ae:6b:f6:b3:9d:b3:e3:ee:
                    8d:aa:e8:96:7b:34:5d:69:d8:37:ed:f2:44:6f:76:
                    a3:75:cd:86:04:54:0b:b9:f1:5e:ac:f2:d3:62:58:
                    98:22:e0:9a:02:e3:b5:05:0b:70:78:9a:d3:54:d3:
                    2a:3b:29:61:79:2a:44:01:39:9a:a4:12:45:4b:6a:
                    0b:e9:af:a9:33:e8:5e:15:39:23:4e:1b:ec:e8:74:
                    8c:cf:f9:7d:9f:a7:7d:32:64:89:c9:f1:4a:ae:25:
                    19:97:70:a0:3c:4e:57:73:9d:62:bc:96:ab:73:7d:
                    d5:a3:a8:90:d1:24:c5:48:c5:d8:33:1e:bf:96:98:
                    de:f7
                Exponent: 65537 (0x10001)
        X509v3 extensions:
            X509v3 Authority Key Identifier: 
                keyid:11:CD:8E:60:44:47:57:4F:4F:CB:E9:E7:CB:A1:46:DF:BA:0E:50:8B
                DirName:/C=JP/O=Japanese Government/OU=National Police Agency/OU=NPA ICDL Root CA
                serial:32:30:30:30:30:30:31:36
            X509v3 Subject Key Identifier: 
                C8:12:9E:02:77:CD:F9:0D:AB:1E:D1:BA:40:91:64:7A:41:93:79:9A
            X509v3 Key Usage: critical
                Digital Signature, Non Repudiation
            X509v3 Certificate Policies: critical
                Policy: 1.2.392.100120.7.5.1.1.10
                  CPS: http://www.npa.go.jp/
            X509v3 Issuer Alternative Name: 
                DirName:/C=JP/O=\xE6\x97\xA5\xE6\x9C\xAC\xE5\x9B\xBD\xE6\x94\xBF\xE5\xBA\x9C/OU=\xE8\xAD\xA6\xE5\xAF\x9F\xE5\xBA\x81/OU=\xE8\xAD\xA6\xE5\xAF\x9F\xE5\xBA\x81\xE9\x81\x8B\xE8\xBB\xA2\xE5\x85\x8D\xE8\xA8\xB1\xE8\xA8\xBC\xE8\xAA\x8D\xE8\xA8\xBC\xE5\xB1\x80
            X509v3 CRL Distribution Points: 
                Full Name:
                  DirName:C = JP, O = Japanese Government, OU = National Police Agency, OU = Prefectural Public Safety Commissions for ICDL
    Signature Algorithm: sha256WithRSAEncryption
    Signature Value:
        9c:36:98:2c:cd:b9:9a:86:01:95:67:2b:be:77:95:41:8f:7e:
        6e:2c:c1:06:e0:59:78:71:ce:21:54:f8:18:3a:0a:92:3b:99:
        65:71:58:67:48:1f:9d:32:ff:de:a6:c5:7d:f4:1c:9b:73:f2:
        71:76:73:8f:e1:2d:09:6c:fa:9c:9d:71:5a:d3:eb:00:35:c1:
        73:9b:00:31:2e:db:86:f9:7f:ba:14:57:e1:7e:69:31:f5:49:
        5f:90:de:a8:a4:01:09:2b:a9:61:75:d1:91:85:0d:ed:c5:d6:
        b6:12:37:d9:06:12:28:3a:38:c8:dc:4a:23:ac:a4:2a:ce:e0:
        92:c3:77:ca:7b:03:6e:51:08:1d:c7:a5:2f:aa:db:0b:69:ef:
        9a:03:06:fb:9d:92:e5:17:91:99:c2:b1:96:82:e2:41:12:e2:
        f5:69:6b:cc:7f:b3:51:8c:50:29:c4:b0:44:b9:61:6f:e6:3e:
        a7:7f:78:1b:b4:92:25:0c:cd:ad:32:3f:d1:f9:bb:0d:97:42:
        16:ce:90:b7:5f:8a:e8:ec:bd:89:93:54:79:71:1f:fe:bf:23:
        1a:ec:1a:2c:19:37:6d:d6:1b:d9:88:7b:e8:93:d4:79:fe:ef:
        71:ec:44:99:99:1a:6b:90:ad:37:ce:60:4c:9f:1b:59:75:7e:
        b4:df:11:0a
-----BEGIN CERTIFICATE-----
MIIFvjCCBKagAwIBAgISMzAwMDAwNTFd8R+n7JCxENvLMA0GCSqGSIb3DQEBCwUA
MGcxCzAJBgNVBAYTAkpQMRwwGgYDVQQKDBNKYXBhbmVzZSBHb3Zlcm5tZW50MR8w
HQYDVQQLDBZOYXRpb25hbCBQb2xpY2UgQWdlbmN5MRkwFwYDVQQLDBBOUEEgSUNE
TCBSb290IENBMB4XDTIzMDYxOTA2MTkyOVoXDTI4MDYxODE0NTk1OVowgaAxCzAJ
BgNVBAYTAkpQMRwwGgYDVQQKDBNKYXBhbmVzZSBHb3Zlcm5tZW50MR8wHQYDVQQL
DBZOYXRpb25hbCBQb2xpY2UgQWdlbmN5MTcwNQYDVQQLDC5QcmVmZWN0dXJhbCBQ
dWJsaWMgU2FmZXR5IENvbW1pc3Npb25zIGZvciBJQ0RMMRkwFwYDVQQDDBBOYWdh
c2FraSBBbHRQUFNDMIIBIjANBgkqhkiG9w0BAQEFAAOCAQ8AMIIBCgKCAQEAgRC2
y/6lF3NFy9pG7EE1JL7yiQc4mpmCsJcyj+GEvxKnn/7bYk3xgfl4jk6d5RDnoAEa
sKFoJnmVmTEcD0bSY/mgOyoZuah/yfRtYoEw2pjwGWG6ZdYXcTyD5oU1hegfxZV5
IVid9saxx/wY+UjVBxGZ1Lwnu0oB6CRzNGV/rmv2s52z4+6NquiWezRdadg37fJE
b3ajdc2GBFQLufFerPLTYliYIuCaAuO1BQtweJrTVNMqOylheSpEATmapBJFS2oL
6a+pM+heFTkjThvs6HSMz/l9n6d9MmSJyfFKriUZl3CgPE5Xc51ivJarc33Vo6iQ
0STFSMXYMx6/lpje9wIDAQABo4ICKDCCAiQwgZgGA1UdIwSBkDCBjYAUEc2OYERH
V09Py+nny6FG37oOUIuha6RpMGcxCzAJBgNVBAYTAkpQMRwwGgYDVQQKDBNKYXBh
bmVzZSBHb3Zlcm5tZW50MR8wHQYDVQQLDBZOYXRpb25hbCBQb2xpY2UgQWdlbmN5
MRkwFwYDVQQLDBBOUEEgSUNETCBSb290IENBgggyMDAwMDAxNjAdBgNVHQ4EFgQU
yBKeAnfN+Q2rHtG6QJFkekGTeZowDgYDVR0PAQH/BAQDAgbAMEAGA1UdIAEB/wQ2
MDQwMgYLKoMIho4YBwUBAQowIzAhBggrBgEFBQcCARYVaHR0cDovL3d3dy5ucGEu
Z28uanAvMHQGA1UdEgRtMGukaTBnMQswCQYDVQQGEwJKUDEYMBYGA1UECgwP5pel
5pys5Zu95pS/5bqcMRIwEAYDVQQLDAnorablr5/luoExKjAoBgNVBAsMIeitpuWv
n+W6gemBi+i7ouWFjeioseiovOiqjeiovOWxgDCBnwYDVR0fBIGXMIGUMIGRoIGO
oIGLpIGIMIGFMQswCQYDVQQGEwJKUDEcMBoGA1UECgwTSmFwYW5lc2UgR292ZXJu
bWVudDEfMB0GA1UECwwWTmF0aW9uYWwgUG9saWNlIEFnZW5jeTE3MDUGA1UECwwu
UHJlZmVjdHVyYWwgUHVibGljIFNhZmV0eSBDb21taXNzaW9ucyBmb3IgSUNETDAN
BgkqhkiG9w0BAQsFAAOCAQEAnDaYLM25moYBlWcrvneVQY9+bizBBuBZeHHOIVT4
GDoKkjuZZXFYZ0gfnTL/3qbFffQcm3PycXZzj+EtCWz6nJ1xWtPrADXBc5sAMS7b
hvl/uhRX4X5pMfVJX5DeqKQBCSupYXXRkYUN7cXWthI32QYSKDo4yNxKI6ykKs7g
ksN3ynsDblEIHcelL6rbC2nvmgMG+52S5ReRmcKxloLiQRLi9WlrzH+zUYxQKcSw
RLlhb+Y+p394G7SSJQzNrTI/0fm7DZdCFs6Qt1+K6Oy9iZNUeXEf/r8jGuwaLBk3
bdYb2Yh76JPUef7vcexEmZkaa5CtN85gTJ8bWXV+tN8RCg==
-----END CERTIFICATE-----
