Certificate:
    Data:
        Version: 3 (0x2)
        Serial Number:
            32:30:30:30:30:30:35:33
        Signature Algorithm: sha256WithRSAEncryption
        Issuer: C=JP, O=Japanese Government, OU=National Police Agency, OU=NPA ICDL Root CA
        Validity
            Not Before: Feb  6 02:08:58 2023 GMT
            Not After : Feb  5 14:59:59 2028 GMT
        Subject: C=JP, O=Japanese Government, OU=National Police Agency, OU=Prefectural Public Safety Commissions for ICDL, CN=Nagano PPSC
        Subject Public Key Info:
            Public Key Algorithm: rsaEncryption
                Public-Key: (2048 bit)
                Modulus:
                    00:a2:77:32:f3:d4:34:c0:ed:ce:ce:d9:d9:c2:7f:
                    8d:4c:22:96:8e:98:d0:b6:03:2e:20:ea:ed:3b:d3:
                    c9:20:1f:e8:5b:0f:38:c5:51:54:45:ca:72:f4:4c:
                    06:66:2f:a7:cc:df:07:36:91:22:d1:9e:fe:77:8a:
                    46:28:21:4c:d8:5f:81:6c:61:09:e7:55:56:2f:c5:
                    f9:47:32:12:fd:e1:66:93:c0:28:69:4e:1b:cc:a4:
                    de:a1:ad:4d:bd:bb:d8:00:de:5e:e4:17:9d:bb:f2:
                    3b:cd:e4:2e:3d:9a:1e:0c:81:1f:db:5a:e9:be:a3:
                    69:26:fd:22:ab:a7:94:a6:c6:3a:1c:6a:6a:68:89:
                    b2:20:9c:74:78:60:1f:af:c0:ff:59:9a:22:8b:12:
                    cf:2d:0d:c9:de:31:a0:11:5b:36:03:e3:b2:97:11:
                    d5:58:dc:29:78:fd:2a:12:61:28:b4:68:f4:50:6f:
                    6b:38:71:15:22:80:fa:ad:5f:27:73:7d:a1:70:76:
                    e1:1f:3d:a8:26:31:a1:2a:c0:1a:f8:b7:8d:4a:57:
                    ec:1c:d8:9c:a9:58:87:9b:e4:01:c7:70:05:74:2b:
                    69:87:c0:f1:f1:87:67:d5:a6:20:8d:21:57:dd:ef:
                    1a:c0:31:13:35:e1:48:1b:26:a2:cc:b4:1d:aa:d0:
                    c2:93
                Exponent: 65537 (0x10001)
        X509v3 extensions:
            X509v3 Authority Key Identifier: 
                keyid:11:CD:8E:60:44:47:57:4F:4F:CB:E9:E7:CB:A1:46:DF:BA:0E:50:8B
                DirName:/C=JP/O=Japanese Government/OU=National Police Agency/OU=NPA ICDL Root CA
                serial:32:30:30:30:30:30:31:36
            X509v3 Subject Key Identifier: 
                1B:B5:FC:15:88:25:DC:87:93:11:16:33:59:49:E5:96:6E:30:57:34
            X509v3 Key Usage: critical
                Digital Signature, Non Repudiation
            X509v3 Certificate Policies: critical
                Policy: 1.2.392.100120.7.5.1.1.10
                  CPS: http://www.npa.go.jp/
            X509v3 Subject Alternative Name: 
                DirName:/C=JP/O=\xE6\x97\xA5\xE6\x9C\xAC\xE5\x9B\xBD\xE6\x94\xBF\xE5\xBA\x9C/OU=\xE8\xAD\xA6\xE5\xAF\x9F\xE5\xBA\x81/OU=\xE9\x83\xBD\xE9\x81\x93\xE5\xBA\x9C\xE7\x9C\x8C\xE5\x85\xAC\xE5\xAE\x89\xE5\xA7\x94\xE5\x93\xA1\xE4\xBC\x9A
            X509v3 Issuer Alternative Name: 
                DirName:/C=JP/O=\xE6\x97\xA5\xE6\x9C\xAC\xE5\x9B\xBD\xE6\x94\xBF\xE5\xBA\x9C/OU=\xE8\xAD\xA6\xE5\xAF\x9F\xE5\xBA\x81/OU=\xE8\xAD\xA6\xE5\xAF\x9F\xE5\xBA\x81\xE9\x81\x8B\xE8\xBB\xA2\xE5\x85\x8D\xE8\xA8\xB1\xE8\xA8\xBC\xE8\xAA\x8D\xE8\xA8\xBC\xE5\xB1\x80
            X509v3 CRL Distribution Points: 
                Full Name:
                  DirName:C = JP, O = Japanese Government, OU = National Police Agency, OU = Prefectural Public Safety Commissions for ICDL
    Signature Algorithm: sha256WithRSAEncryption
    Signature Value:
        67:8c:ec:42:d7:92:2e:c8:8e:61:31:20:e7:2e:e4:fe:c6:de:
        9c:1f:64:98:54:c2:f1:a8:e6:0b:0e:22:8e:ac:c6:98:83:a6:
        6d:1f:63:61:8d:e9:50:0f:35:a5:52:b4:e9:7f:2a:09:b6:17:
        53:37:62:1b:63:ba:07:7a:92:39:f1:7b:d5:5d:96:d7:8b:0a:
        ea:43:ef:96:3d:92:28:33:dc:f9:3a:40:95:66:94:dd:9f:b6:
        4a:c9:9e:52:e1:fb:89:a8:7a:5c:36:8b:02:f5:c4:d3:c2:b3:
        27:7d:06:80:64:44:ac:5d:17:f5:14:2a:39:1e:47:90:df:be:
        6a:b8:e2:15:38:60:4a:7e:aa:e0:85:29:77:92:7f:5e:92:7e:
        0b:92:bd:3a:61:e3:b6:a3:71:30:71:6a:bc:33:29:30:9d:e5:
        87:a6:82:98:86:7f:3a:a5:45:ca:f8:27:6e:10:59:f5:b8:f6:
        5c:da:27:68:be:45:95:fe:04:4b:af:8e:67:7f:8a:be:e9:23:
        86:c2:50:4c:7b:9b:0c:b6:62:9e:f1:1e:f6:5d:b4:77:43:19:
        15:ac:18:74:b1:86:ce:80:1e:c6:f1:9c:8e:6b:2a:c7:6e:71:
        4c:a9:cd:b6:42:69:a8:89:dd:5a:c2:fe:b2:cd:aa:3f:af:c4:
        75:80:9b:3a
-----BEGIN CERTIFICATE-----
MIIGRzCCBS+gAwIBAgIIMjAwMDAwNTMwDQYJKoZIhvcNAQELBQAwZzELMAkGA1UE
BhMCSlAxHDAaBgNVBAoME0phcGFuZXNlIEdvdmVybm1lbnQxHzAdBgNVBAsMFk5h
dGlvbmFsIFBvbGljZSBBZ2VuY3kxGTAXBgNVBAsMEE5QQSBJQ0RMIFJvb3QgQ0Ew
HhcNMjMwMjA2MDIwODU4WhcNMjgwMjA1MTQ1OTU5WjCBmzELMAkGA1UEBhMCSlAx
HDAaBgNVBAoME0phcGFuZXNlIEdvdmVybm1lbnQxHzAdBgNVBAsMFk5hdGlvbmFs
IFBvbGljZSBBZ2VuY3kxNzA1BgNVBAsMLlByZWZlY3R1cmFsIFB1YmxpYyBTYWZl
dHkgQ29tbWlzc2lvbnMgZm9yIElDREwxFDASBgNVBAMMC05hZ2FubyBQUFNDMIIB
IjANBgkqhkiG9w0BAQEFAAOCAQ8AMIIBCgKCAQEAoncy89Q0wO3OztnZwn+NTCKW
jpjQtgMuIOrtO9PJIB/oWw84xVFURcpy9EwGZi+nzN8HNpEi0Z7+d4pGKCFM2F+B
bGEJ51VWL8X5RzIS/eFmk8AoaU4bzKTeoa1NvbvYAN5e5Bedu/I7zeQuPZoeDIEf
21rpvqNpJv0iq6eUpsY6HGpqaImyIJx0eGAfr8D/WZoiixLPLQ3J3jGgEVs2A+Oy
lxHVWNwpeP0qEmEotGj0UG9rOHEVIoD6rV8nc32hcHbhHz2oJjGhKsAa+LeNSlfs
HNicqViHm+QBx3AFdCtph8Dx8Ydn1aYgjSFX3e8awDETNeFIGyaizLQdqtDCkwID
AQABo4ICwDCCArwwgZgGA1UdIwSBkDCBjYAUEc2OYERHV09Py+nny6FG37oOUIuh
a6RpMGcxCzAJBgNVBAYTAkpQMRwwGgYDVQQKDBNKYXBhbmVzZSBHb3Zlcm5tZW50
MR8wHQYDVQQLDBZOYXRpb25hbCBQb2xpY2UgQWdlbmN5MRkwFwYDVQQLDBBOUEEg
SUNETCBSb290IENBgggyMDAwMDAxNjAdBgNVHQ4EFgQUG7X8FYgl3IeTERYzWUnl
lm4wVzQwDgYDVR0PAQH/BAQDAgbAMEAGA1UdIAEB/wQ2MDQwMgYLKoMIho4YBwUB
AQowIzAhBggrBgEFBQcCARYVaHR0cDovL3d3dy5ucGEuZ28uanAvMIGVBgNVHREE
gY0wgYqkgYcwgYQxCzAJBgNVBAYTAkpQMRgwFgYDVQQKDA/ml6XmnKzlm73mlL/l
upwxEjAQBgNVBAsMCeitpuWvn+W6gTEkMCIGA1UECwwb6YO96YGT5bqc55yM5YWs
5a6J5aeU5ZOh5LyaMSEwHwYDVQQDDBjplbfph47nnIzlhazlronlp5Tlk6HkvJow
dAYDVR0SBG0wa6RpMGcxCzAJBgNVBAYTAkpQMRgwFgYDVQQKDA/ml6XmnKzlm73m
lL/lupwxEjAQBgNVBAsMCeitpuWvn+W6gTEqMCgGA1UECwwh6K2m5a+f5bqB6YGL
6Lui5YWN6Kix6Ki86KqN6Ki85bGAMIGfBgNVHR8EgZcwgZQwgZGggY6ggYukgYgw
gYUxCzAJBgNVBAYTAkpQMRwwGgYDVQQKDBNKYXBhbmVzZSBHb3Zlcm5tZW50MR8w
HQYDVQQLDBZOYXRpb25hbCBQb2xpY2UgQWdlbmN5MTcwNQYDVQQLDC5QcmVmZWN0
dXJhbCBQdWJsaWMgU2FmZXR5IENvbW1pc3Npb25zIGZvciBJQ0RMMA0GCSqGSIb3
DQEBCwUAA4IBAQBnjOxC15IuyI5hMSDnLuT+xt6cH2SYVMLxqOYLDiKOrMaYg6Zt
H2NhjelQDzWlUrTpfyoJthdTN2IbY7oHepI58XvVXZbXiwrqQ++WPZIoM9z5OkCV
ZpTdn7ZKyZ5S4fuJqHpcNosC9cTTwrMnfQaAZESsXRf1FCo5HkeQ375quOIVOGBK
fqrghSl3kn9ekn4Lkr06YeO2o3EwcWq8MykwneWHpoKYhn86pUXK+CduEFn1uPZc
2idovkWV/gRLr45nf4q+6SOGwlBMe5sMtmKe8R72XbR3QxkVrBh0sYbOgB7G8ZyO
ayrHbnFMqc22Qmmoid1awv6yzao/r8R1gJs6
-----END CERTIFICATE-----
