Certificate:
    Data:
        Version: 3 (0x2)
        Serial Number:
            33:30:30:30:30:31:30:32
        Signature Algorithm: sha256WithRSAEncryption
        Issuer: C=JP, O=Japanese Government, OU=National Police Agency, OU=NPA ICDL Root CA
        Validity
            Not Before: Sep 17 07:15:58 2024 GMT
            Not After : Sep 16 14:59:59 2029 GMT
        Subject: C=JP, O=Japanese Government, OU=National Police Agency, OU=Prefectural Public Safety Commissions for ICDL, CN=Nagano PPSC
        Subject Public Key Info:
            Public Key Algorithm: rsaEncryption
                Public-Key: (2048 bit)
                Modulus:
                    00:bb:0e:89:41:5e:15:d6:ce:74:db:7d:e9:8a:95:
                    1b:c7:46:c8:ce:2c:60:3b:99:75:80:b2:8e:fc:38:
                    7c:1b:eb:cc:4e:8f:b2:98:5d:cb:06:b8:82:de:eb:
                    97:2d:58:83:37:49:a0:cd:56:42:38:91:be:47:4b:
                    8a:48:13:12:fd:1c:fd:95:be:04:42:57:56:69:7c:
                    b5:b4:85:38:95:56:5b:0a:54:07:2d:74:98:71:84:
                    8d:5a:73:75:4d:b2:d1:cc:2f:ec:57:e7:8c:bb:38:
                    ca:27:f2:55:d3:ca:d9:a5:67:25:2d:d1:3d:c2:d8:
                    8f:d7:c2:5e:15:0a:9c:9a:f7:4b:8c:f3:c3:56:5f:
                    59:63:e0:5b:f5:7b:c7:a8:6a:fd:22:c8:26:5f:00:
                    98:c8:0e:9d:07:f7:76:eb:d9:39:32:ca:23:1b:fe:
                    6b:23:47:4a:f2:ca:eb:bc:21:5f:b7:65:73:5a:bf:
                    b3:fa:09:9d:d8:8e:fc:b7:31:26:62:e8:ea:9e:28:
                    ee:33:3d:98:6e:c8:4a:4c:07:ea:f2:3b:24:3f:42:
                    fd:59:72:04:e9:fa:87:e8:88:3d:ee:3c:f6:1c:61:
                    5b:24:5f:14:f6:e6:61:59:74:95:82:42:96:d5:d4:
                    52:82:c3:36:46:6a:0d:9c:a4:78:39:58:ab:47:81:
                    c3:93
                Exponent: 65537 (0x10001)
        X509v3 extensions:
            X509v3 Authority Key Identifier: 
                keyid:11:CD:8E:60:44:47:57:4F:4F:CB:E9:E7:CB:A1:46:DF:BA:0E:50:8B
                DirName:/C=JP/O=Japanese Government/OU=National Police Agency/OU=NPA ICDL Root CA
                serial:32:30:30:30:30:30:31:36
            X509v3 Subject Key Identifier: 
                0E:93:85:A3:9B:ED:88:7B:98:5D:F1:3D:BD:97:1A:EB:25:4E:2D:CA
            X509v3 Key Usage: critical
                Digital Signature, Non Repudiation
            X509v3 Certificate Policies: critical
                Policy: 1.2.392.100120.7.5.1.1.10
                  CPS: http://www.npa.go.jp/
            X509v3 Subject Alternative Name: 
                DirName:/C=JP/O=\xE6\x97\xA5\xE6\x9C\xAC\xE5\x9B\xBD\xE6\x94\xBF\xE5\xBA\x9C/OU=\xE8\xAD\xA6\xE5\xAF\x9F\xE5\xBA\x81/OU=\xE9\x83\xBD\xE9\x81\x93\xE5\xBA\x9C\xE7\x9C\x8C\xE5\x85\xAC\xE5\xAE\x89\xE5\xA7\x94\xE5\x93\xA1\xE4\xBC\x9A
            X509v3 Issuer Alternative Name: 
                DirName:/C=JP/O=\xE6\x97\xA5\xE6\x9C\xAC\xE5\x9B\xBD\xE6\x94\xBF\xE5\xBA\x9C/OU=\xE8\xAD\xA6\xE5\xAF\x9F\xE5\xBA\x81/OU=\xE8\xAD\xA6\xE5\xAF\x9F\xE5\xBA\x81\xE9\x81\x8B\xE8\xBB\xA2\xE5\x85\x8D\xE8\xA8\xB1\xE8\xA8\xBC\xE8\xAA\x8D\xE8\xA8\xBC\xE5\xB1\x80
            X509v3 CRL Distribution Points: 
                Full Name:
                  DirName:C = JP, O = Japanese Government, OU = National Police Agency, OU = Prefectural Public Safety Commissions for ICDL
    Signature Algorithm: sha256WithRSAEncryption
    Signature Value:
        67:41:58:03:94:ae:bc:dd:45:97:29:15:31:d9:9e:1d:9f:5b:
        4c:22:6a:34:e3:ea:34:6c:79:88:cc:91:59:66:8a:d8:79:65:
        60:23:60:c5:fc:53:98:7e:b3:a8:12:62:0c:a4:7b:3e:6b:85:
        16:71:30:62:60:94:76:cf:ec:79:34:c9:8b:be:f4:8f:cf:b1:
        10:90:e8:a8:16:12:21:d1:97:15:4c:90:19:29:e4:fb:33:a2:
        7f:0c:6e:73:51:f3:97:31:c2:c7:8c:a8:b9:43:bb:1c:bb:b4:
        79:bf:48:8f:07:7b:35:d2:10:d7:c8:bc:d9:2f:79:43:f1:c1:
        e9:2f:ad:ed:2d:9b:9c:b3:37:f8:05:87:3c:45:78:c9:dd:26:
        f8:76:32:cc:4a:8c:ed:32:1d:d1:c6:21:60:d0:9a:16:ac:a2:
        9f:d0:56:1d:f5:3e:21:09:a7:9f:4b:60:a5:3d:ef:68:63:2f:
        a3:7f:a3:65:52:b5:fb:12:52:35:fe:cb:0c:7a:91:ae:1e:e3:
        73:7f:0c:2e:d9:6f:ac:b2:82:9b:a8:3c:1c:1c:88:19:16:2c:
        3c:fb:13:26:d4:7a:d3:cd:70:fb:e7:80:be:2d:20:57:62:42:
        d4:e3:ef:84:4e:cc:0d:5e:8b:87:ff:20:ac:51:a3:f0:ce:95:
        84:79:b6:1c
-----BEGIN CERTIFICATE-----
MIIGRzCCBS+gAwIBAgIIMzAwMDAxMDIwDQYJKoZIhvcNAQELBQAwZzELMAkGA1UE
BhMCSlAxHDAaBgNVBAoME0phcGFuZXNlIEdvdmVybm1lbnQxHzAdBgNVBAsMFk5h
dGlvbmFsIFBvbGljZSBBZ2VuY3kxGTAXBgNVBAsMEE5QQSBJQ0RMIFJvb3QgQ0Ew
HhcNMjQwOTE3MDcxNTU4WhcNMjkwOTE2MTQ1OTU5WjCBmzELMAkGA1UEBhMCSlAx
HDAaBgNVBAoME0phcGFuZXNlIEdvdmVybm1lbnQxHzAdBgNVBAsMFk5hdGlvbmFs
IFBvbGljZSBBZ2VuY3kxNzA1BgNVBAsMLlByZWZlY3R1cmFsIFB1YmxpYyBTYWZl
dHkgQ29tbWlzc2lvbnMgZm9yIElDREwxFDASBgNVBAMMC05hZ2FubyBQUFNDMIIB
IjANBgkqhkiG9w0BAQEFAAOCAQ8AMIIBCgKCAQEAuw6JQV4V1s50233pipUbx0bI
zixgO5l1gLKO/Dh8G+vMTo+ymF3LBriC3uuXLViDN0mgzVZCOJG+R0uKSBMS/Rz9
lb4EQldWaXy1tIU4lVZbClQHLXSYcYSNWnN1TbLRzC/sV+eMuzjKJ/JV08rZpWcl
LdE9wtiP18JeFQqcmvdLjPPDVl9ZY+Bb9XvHqGr9IsgmXwCYyA6dB/d269k5Msoj
G/5rI0dK8srrvCFft2VzWr+z+gmd2I78tzEmYujqnijuMz2YbshKTAfq8jskP0L9
WXIE6fqH6Ig97jz2HGFbJF8U9uZhWXSVgkKW1dRSgsM2RmoNnKR4OVirR4HDkwID
AQABo4ICwDCCArwwgZgGA1UdIwSBkDCBjYAUEc2OYERHV09Py+nny6FG37oOUIuh
a6RpMGcxCzAJBgNVBAYTAkpQMRwwGgYDVQQKDBNKYXBhbmVzZSBHb3Zlcm5tZW50
MR8wHQYDVQQLDBZOYXRpb25hbCBQb2xpY2UgQWdlbmN5MRkwFwYDVQQLDBBOUEEg
SUNETCBSb290IENBgggyMDAwMDAxNjAdBgNVHQ4EFgQUDpOFo5vtiHuYXfE9vZca
6yVOLcowDgYDVR0PAQH/BAQDAgbAMEAGA1UdIAEB/wQ2MDQwMgYLKoMIho4YBwUB
AQowIzAhBggrBgEFBQcCARYVaHR0cDovL3d3dy5ucGEuZ28uanAvMIGVBgNVHREE
gY0wgYqkgYcwgYQxCzAJBgNVBAYTAkpQMRgwFgYDVQQKDA/ml6XmnKzlm73mlL/l
upwxEjAQBgNVBAsMCeitpuWvn+W6gTEkMCIGA1UECwwb6YO96YGT5bqc55yM5YWs
5a6J5aeU5ZOh5LyaMSEwHwYDVQQDDBjplbfph47nnIzlhazlronlp5Tlk6HkvJow
dAYDVR0SBG0wa6RpMGcxCzAJBgNVBAYTAkpQMRgwFgYDVQQKDA/ml6XmnKzlm73m
lL/lupwxEjAQBgNVBAsMCeitpuWvn+W6gTEqMCgGA1UECwwh6K2m5a+f5bqB6YGL
6Lui5YWN6Kix6Ki86KqN6Ki85bGAMIGfBgNVHR8EgZcwgZQwgZGggY6ggYukgYgw
gYUxCzAJBgNVBAYTAkpQMRwwGgYDVQQKDBNKYXBhbmVzZSBHb3Zlcm5tZW50MR8w
HQYDVQQLDBZOYXRpb25hbCBQb2xpY2UgQWdlbmN5MTcwNQYDVQQLDC5QcmVmZWN0
dXJhbCBQdWJsaWMgU2FmZXR5IENvbW1pc3Npb25zIGZvciBJQ0RMMA0GCSqGSIb3
DQEBCwUAA4IBAQBnQVgDlK683UWXKRUx2Z4dn1tMImo04+o0bHmIzJFZZorYeWVg
I2DF/FOYfrOoEmIMpHs+a4UWcTBiYJR2z+x5NMmLvvSPz7EQkOioFhIh0ZcVTJAZ
KeT7M6J/DG5zUfOXMcLHjKi5Q7scu7R5v0iPB3s10hDXyLzZL3lD8cHpL63tLZuc
szf4BYc8RXjJ3Sb4djLMSoztMh3RxiFg0JoWrKKf0FYd9T4hCaefS2ClPe9oYy+j
f6NlUrX7ElI1/ssMepGuHuNzfwwu2W+ssoKbqDwcHIgZFiw8+xMm1HrTzXD754C+
LSBXYkLU4++ETswNXouH/yCsUaPwzpWEebYc
-----END CERTIFICATE-----
