Certificate:
    Data:
        Version: 3 (0x2)
        Serial Number:
            33:30:30:30:30:31:31:39
        Signature Algorithm: sha256WithRSAEncryption
        Issuer: C=JP, O=Japanese Government, OU=National Police Agency, OU=NPA ICDL Root CA
        Validity
            Not Before: Sep 17 07:47:00 2024 GMT
            Not After : Sep 16 14:59:59 2029 GMT
        Subject: C=JP, O=Japanese Government, OU=National Police Agency, OU=Prefectural Public Safety Commissions for ICDL, CN=Nagasaki PPSC
        Subject Public Key Info:
            Public Key Algorithm: rsaEncryption
                Public-Key: (2048 bit)
                Modulus:
                    00:ce:f5:34:8d:fa:eb:84:57:69:77:89:9f:a7:7e:
                    fd:20:2e:d0:0a:70:24:18:70:17:b2:f4:4b:88:6c:
                    5f:e7:8d:89:32:98:5c:80:1d:49:84:b0:3e:5c:59:
                    46:fb:26:bb:82:c0:42:2b:3e:ff:71:85:fd:83:ac:
                    64:8e:d1:23:a6:ec:4a:12:b5:e6:b7:34:90:b4:86:
                    ae:31:a8:4c:57:ee:f2:a2:5e:25:42:a9:ee:a0:83:
                    91:ae:ae:04:63:e1:76:e3:af:66:94:52:b5:54:d9:
                    dd:da:01:d5:89:53:e2:69:93:f3:d8:cc:57:08:6f:
                    59:69:52:74:ff:d7:ac:d1:1a:50:9a:d6:de:8c:ed:
                    f1:4f:85:2e:13:09:25:c3:91:c3:a7:46:5f:bd:2c:
                    c0:a5:6c:ad:2d:ba:56:03:d2:ad:48:e1:b9:15:d2:
                    d6:9f:92:fd:bf:ca:70:0d:5d:68:7e:79:56:86:f4:
                    ac:5a:fe:45:bc:f8:ff:c0:af:d7:ac:f0:b2:21:f5:
                    a3:4b:fd:47:f7:de:83:c9:ef:2c:fa:60:e3:40:8e:
                    06:50:dd:55:07:e6:f2:87:08:bf:e2:20:4a:b1:cf:
                    69:53:50:38:41:fb:ed:4e:d1:cb:01:1c:15:ec:91:
                    7f:16:ba:95:4e:6e:aa:42:9c:4a:2a:17:c4:81:f1:
                    a9:47
                Exponent: 65537 (0x10001)
        X509v3 extensions:
            X509v3 Authority Key Identifier: 
                keyid:11:CD:8E:60:44:47:57:4F:4F:CB:E9:E7:CB:A1:46:DF:BA:0E:50:8B
                DirName:/C=JP/O=Japanese Government/OU=National Police Agency/OU=NPA ICDL Root CA
                serial:32:30:30:30:30:30:31:36
            X509v3 Subject Key Identifier: 
                CB:C8:5C:A5:75:51:21:49:3A:CD:6B:40:7A:DA:C4:B8:E1:F8:9A:68
            X509v3 Key Usage: critical
                Digital Signature, Non Repudiation
            X509v3 Certificate Policies: critical
                Policy: 1.2.392.100120.7.5.1.1.10
                  CPS: http://www.npa.go.jp/
            X509v3 Subject Alternative Name: 
                DirName:/C=JP/O=\xE6\x97\xA5\xE6\x9C\xAC\xE5\x9B\xBD\xE6\x94\xBF\xE5\xBA\x9C/OU=\xE8\xAD\xA6\xE5\xAF\x9F\xE5\xBA\x81/OU=\xE9\x83\xBD\xE9\x81\x93\xE5\xBA\x9C\xE7\x9C\x8C\xE5\x85\xAC\xE5\xAE\x89\xE5\xA7\x94\xE5\x93\xA1\xE4\xBC\x9A
            X509v3 Issuer Alternative Name: 
                DirName:/C=JP/O=\xE6\x97\xA5\xE6\x9C\xAC\xE5\x9B\xBD\xE6\x94\xBF\xE5\xBA\x9C/OU=\xE8\xAD\xA6\xE5\xAF\x9F\xE5\xBA\x81/OU=\xE8\xAD\xA6\xE5\xAF\x9F\xE5\xBA\x81\xE9\x81\x8B\xE8\xBB\xA2\xE5\x85\x8D\xE8\xA8\xB1\xE8\xA8\xBC\xE8\xAA\x8D\xE8\xA8\xBC\xE5\xB1\x80
            X509v3 CRL Distribution Points: 
                Full Name:
                  DirName:C = JP, O = Japanese Government, OU = National Police Agency, OU = Prefectural Public Safety Commissions for ICDL
    Signature Algorithm: sha256WithRSAEncryption
    Signature Value:
        4c:00:98:00:26:c6:d3:30:8c:4d:11:0d:15:8f:2f:da:07:f1:
        58:e7:60:c4:0f:f4:e4:f6:98:cc:b7:87:33:25:5c:ad:2d:ed:
        51:b0:15:50:a5:6a:24:38:7e:eb:c6:62:34:c7:b4:3d:6b:69:
        9c:1b:53:28:64:e0:88:94:54:b3:ef:ce:bf:f4:03:7e:26:1d:
        b2:8c:a2:d3:20:19:15:4d:e0:b4:f2:64:df:c3:d2:f5:4c:29:
        5e:d1:d7:79:ad:da:b3:08:64:97:a6:1f:d6:3b:13:f4:14:03:
        ec:7c:8f:c7:cb:7b:19:6f:46:72:8f:4d:b0:6c:91:c2:a4:96:
        35:e0:5e:7d:9d:de:3a:ca:3d:35:79:e2:f7:6d:99:4c:28:65:
        ff:1a:73:a6:39:3c:6b:dc:7e:03:b2:5e:66:a6:5c:6c:8b:cb:
        ed:aa:65:31:9b:bf:34:ed:78:bd:0f:e0:43:9c:d3:5d:4f:3d:
        0b:0e:00:22:84:ec:e6:ef:0d:b2:a5:b7:20:18:91:29:f2:ad:
        f4:2c:00:60:1d:45:56:df:df:d1:21:65:79:fe:99:14:90:8b:
        c2:ab:f6:d6:fb:4c:be:7d:59:18:b6:52:b9:fb:e1:70:dd:56:
        27:8a:aa:f2:69:f8:e2:f3:8a:8f:b9:7c:cc:34:20:7a:ac:7a:
        67:81:e4:8f
-----BEGIN CERTIFICATE-----
MIIGSTCCBTGgAwIBAgIIMzAwMDAxMTkwDQYJKoZIhvcNAQELBQAwZzELMAkGA1UE
BhMCSlAxHDAaBgNVBAoME0phcGFuZXNlIEdvdmVybm1lbnQxHzAdBgNVBAsMFk5h
dGlvbmFsIFBvbGljZSBBZ2VuY3kxGTAXBgNVBAsMEE5QQSBJQ0RMIFJvb3QgQ0Ew
HhcNMjQwOTE3MDc0NzAwWhcNMjkwOTE2MTQ1OTU5WjCBnTELMAkGA1UEBhMCSlAx
HDAaBgNVBAoME0phcGFuZXNlIEdvdmVybm1lbnQxHzAdBgNVBAsMFk5hdGlvbmFs
IFBvbGljZSBBZ2VuY3kxNzA1BgNVBAsMLlByZWZlY3R1cmFsIFB1YmxpYyBTYWZl
dHkgQ29tbWlzc2lvbnMgZm9yIElDREwxFjAUBgNVBAMMDU5hZ2FzYWtpIFBQU0Mw
ggEiMA0GCSqGSIb3DQEBAQUAA4IBDwAwggEKAoIBAQDO9TSN+uuEV2l3iZ+nfv0g
LtAKcCQYcBey9EuIbF/njYkymFyAHUmEsD5cWUb7JruCwEIrPv9xhf2DrGSO0SOm
7EoStea3NJC0hq4xqExX7vKiXiVCqe6gg5GurgRj4Xbjr2aUUrVU2d3aAdWJU+Jp
k/PYzFcIb1lpUnT/16zRGlCa1t6M7fFPhS4TCSXDkcOnRl+9LMClbK0tulYD0q1I
4bkV0tafkv2/ynANXWh+eVaG9Kxa/kW8+P/Ar9es8LIh9aNL/Uf33oPJ7yz6YONA
jgZQ3VUH5vKHCL/iIEqxz2lTUDhB++1O0csBHBXskX8WupVObqpCnEoqF8SB8alH
AgMBAAGjggLAMIICvDCBmAYDVR0jBIGQMIGNgBQRzY5gREdXT0/L6efLoUbfug5Q
i6FrpGkwZzELMAkGA1UEBhMCSlAxHDAaBgNVBAoME0phcGFuZXNlIEdvdmVybm1l
bnQxHzAdBgNVBAsMFk5hdGlvbmFsIFBvbGljZSBBZ2VuY3kxGTAXBgNVBAsMEE5Q
QSBJQ0RMIFJvb3QgQ0GCCDIwMDAwMDE2MB0GA1UdDgQWBBTLyFyldVEhSTrNa0B6
2sS44fiaaDAOBgNVHQ8BAf8EBAMCBsAwQAYDVR0gAQH/BDYwNDAyBgsqgwiGjhgH
BQEBCjAjMCEGCCsGAQUFBwIBFhVodHRwOi8vd3d3Lm5wYS5nby5qcC8wgZUGA1Ud
EQSBjTCBiqSBhzCBhDELMAkGA1UEBhMCSlAxGDAWBgNVBAoMD+aXpeacrOWbveaU
v+W6nDESMBAGA1UECwwJ6K2m5a+f5bqBMSQwIgYDVQQLDBvpg73pgZPlupznnIzl
hazlronlp5Tlk6HkvJoxITAfBgNVBAMMGOmVt+W0juecjOWFrOWuieWnlOWToeS8
mjB0BgNVHRIEbTBrpGkwZzELMAkGA1UEBhMCSlAxGDAWBgNVBAoMD+aXpeacrOWb
veaUv+W6nDESMBAGA1UECwwJ6K2m5a+f5bqBMSowKAYDVQQLDCHorablr5/luoHp
gYvou6LlhY3oqLHoqLzoqo3oqLzlsYAwgZ8GA1UdHwSBlzCBlDCBkaCBjqCBi6SB
iDCBhTELMAkGA1UEBhMCSlAxHDAaBgNVBAoME0phcGFuZXNlIEdvdmVybm1lbnQx
HzAdBgNVBAsMFk5hdGlvbmFsIFBvbGljZSBBZ2VuY3kxNzA1BgNVBAsMLlByZWZl
Y3R1cmFsIFB1YmxpYyBTYWZldHkgQ29tbWlzc2lvbnMgZm9yIElDREwwDQYJKoZI
hvcNAQELBQADggEBAEwAmAAmxtMwjE0RDRWPL9oH8VjnYMQP9OT2mMy3hzMlXK0t
7VGwFVClaiQ4fuvGYjTHtD1raZwbUyhk4IiUVLPvzr/0A34mHbKMotMgGRVN4LTy
ZN/D0vVMKV7R13mt2rMIZJemH9Y7E/QUA+x8j8fLexlvRnKPTbBskcKkljXgXn2d
3jrKPTV54vdtmUwoZf8ac6Y5PGvcfgOyXmamXGyLy+2qZTGbvzTteL0P4EOc011P
PQsOACKE7ObvDbKltyAYkSnyrfQsAGAdRVbf39EhZXn+mRSQi8Kr9tb7TL59WRi2
Urn74XDdVieKqvJp+OLzio+5fMw0IHqsemeB5I8=
-----END CERTIFICATE-----
