Certificate:
    Data:
        Version: 3 (0x2)
        Serial Number:
            33:30:30:30:30:30:32:36:c6:69:6d:c0:58:81:8a:f6:65:81
        Signature Algorithm: sha256WithRSAEncryption
        Issuer: C=JP, O=Japanese Government, OU=National Police Agency, OU=NPA ICDL Root CA
        Validity
            Not Before: Jun 19 05:48:06 2023 GMT
            Not After : Jun 18 14:59:59 2028 GMT
        Subject: C=JP, O=Japanese Government, OU=National Police Agency, OU=Prefectural Public Safety Commissions for ICDL, CN=Nagano AltPPSC
        Subject Public Key Info:
            Public Key Algorithm: rsaEncryption
                Public-Key: (2048 bit)
                Modulus:
                    00:a4:14:46:96:d8:e0:c9:31:74:55:ef:3d:fd:35:
                    16:2c:a0:64:41:7b:70:d6:4f:02:fb:a6:04:9f:74:
                    ea:3a:02:e4:23:b5:ed:e3:d4:13:28:cc:7e:5c:b7:
                    54:f4:12:e8:19:af:bb:c0:c2:21:8d:d0:d9:2a:76:
                    93:86:42:a5:3a:f8:a3:6b:27:94:fa:da:a4:27:e4:
                    5a:bc:81:5a:f6:0c:ae:f6:99:c0:2e:0d:a5:53:7c:
                    7a:98:96:9c:a2:30:79:4a:ef:e5:52:90:eb:cb:e6:
                    30:fd:0b:33:f0:b6:37:21:fd:f9:9e:4f:9b:e4:f1:
                    9d:e5:c9:af:d7:e1:51:9e:71:cb:bc:24:a2:13:5b:
                    b3:cf:c7:c3:a1:af:4e:77:0b:7b:e8:14:5e:f7:b7:
                    9f:f6:68:f4:35:59:7b:c2:3f:4d:a0:22:ba:a9:dc:
                    52:76:a7:23:a4:35:1b:9a:d4:33:34:47:5d:63:cd:
                    3b:bc:fc:04:85:e5:1f:dc:2a:82:3b:33:37:7a:dd:
                    b1:3c:6d:1b:67:6e:f8:a4:78:fc:b3:ee:7c:c0:73:
                    9a:60:01:74:d2:0f:f2:3a:a5:41:c8:21:c7:82:4d:
                    ba:dc:27:b6:c4:f6:9e:76:c0:62:9a:98:49:9f:a3:
                    6d:d6:93:83:37:6c:75:2e:86:0e:9d:f3:29:dd:9e:
                    56:43
                Exponent: 65537 (0x10001)
        X509v3 extensions:
            X509v3 Authority Key Identifier: 
                keyid:11:CD:8E:60:44:47:57:4F:4F:CB:E9:E7:CB:A1:46:DF:BA:0E:50:8B
                DirName:/C=JP/O=Japanese Government/OU=National Police Agency/OU=NPA ICDL Root CA
                serial:32:30:30:30:30:30:31:36
            X509v3 Subject Key Identifier: 
                9E:E9:A7:06:AC:54:B2:05:4E:11:A8:43:FB:F5:2A:7F:F7:AF:82:F5
            X509v3 Key Usage: critical
                Digital Signature, Non Repudiation
            X509v3 Certificate Policies: critical
                Policy: 1.2.392.100120.7.5.1.1.10
                  CPS: http://www.npa.go.jp/
            X509v3 Issuer Alternative Name: 
                DirName:/C=JP/O=\xE6\x97\xA5\xE6\x9C\xAC\xE5\x9B\xBD\xE6\x94\xBF\xE5\xBA\x9C/OU=\xE8\xAD\xA6\xE5\xAF\x9F\xE5\xBA\x81/OU=\xE8\xAD\xA6\xE5\xAF\x9F\xE5\xBA\x81\xE9\x81\x8B\xE8\xBB\xA2\xE5\x85\x8D\xE8\xA8\xB1\xE8\xA8\xBC\xE8\xAA\x8D\xE8\xA8\xBC\xE5\xB1\x80
            X509v3 CRL Distribution Points: 
                Full Name:
                  DirName:C = JP, O = Japanese Government, OU = National Police Agency, OU = Prefectural Public Safety Commissions for ICDL
    Signature Algorithm: sha256WithRSAEncryption
    Signature Value:
        74:64:20:0d:fe:e4:a6:e0:e8:48:7c:4f:85:19:a5:0a:89:c5:
        1d:4a:0c:9a:9d:0f:3f:9e:24:79:54:8e:64:02:d9:3b:5c:a9:
        95:00:7a:c1:e0:e9:03:cb:17:26:f2:33:8d:ab:3f:aa:77:e3:
        23:87:e9:47:9a:94:3c:04:d1:08:fb:07:0d:49:e8:97:c5:54:
        28:63:ec:11:49:22:68:0b:66:05:c6:8e:e5:ce:e4:f7:bf:b2:
        af:2f:3b:ec:56:bb:52:b3:02:ce:cd:a3:46:4f:82:6d:44:9a:
        76:12:62:d7:18:2a:0e:53:a4:26:38:3f:83:8a:47:5d:c5:18:
        d3:0d:ff:f5:53:12:e7:9b:3a:c0:4b:9a:f7:f2:20:70:98:1c:
        ed:9d:08:74:eb:f7:7a:38:32:2b:44:24:4a:f7:40:d3:c2:2d:
        50:9c:b4:8b:ef:f7:fd:46:de:db:0e:64:f3:84:ac:a7:f9:ce:
        ee:3c:ab:5e:43:b8:b7:43:47:09:45:cb:d8:2e:1b:cf:c6:bb:
        8f:82:9e:c2:8c:c2:62:64:29:2b:9e:7d:a4:f4:5f:39:7f:56:
        fa:bf:22:5d:03:b2:82:e1:22:bb:98:ab:df:02:5f:2e:a0:57:
        76:d0:f9:6c:ea:c8:a6:92:80:0c:8f:c8:0a:62:8c:6b:93:03:
        fd:3b:5c:35
-----BEGIN CERTIFICATE-----
MIIFvDCCBKSgAwIBAgISMzAwMDAwMjbGaW3AWIGK9mWBMA0GCSqGSIb3DQEBCwUA
MGcxCzAJBgNVBAYTAkpQMRwwGgYDVQQKDBNKYXBhbmVzZSBHb3Zlcm5tZW50MR8w
HQYDVQQLDBZOYXRpb25hbCBQb2xpY2UgQWdlbmN5MRkwFwYDVQQLDBBOUEEgSUNE
TCBSb290IENBMB4XDTIzMDYxOTA1NDgwNloXDTI4MDYxODE0NTk1OVowgZ4xCzAJ
BgNVBAYTAkpQMRwwGgYDVQQKDBNKYXBhbmVzZSBHb3Zlcm5tZW50MR8wHQYDVQQL
DBZOYXRpb25hbCBQb2xpY2UgQWdlbmN5MTcwNQYDVQQLDC5QcmVmZWN0dXJhbCBQ
dWJsaWMgU2FmZXR5IENvbW1pc3Npb25zIGZvciBJQ0RMMRcwFQYDVQQDDA5OYWdh
bm8gQWx0UFBTQzCCASIwDQYJKoZIhvcNAQEBBQADggEPADCCAQoCggEBAKQURpbY
4MkxdFXvPf01FiygZEF7cNZPAvumBJ906joC5CO17ePUEyjMfly3VPQS6Bmvu8DC
IY3Q2Sp2k4ZCpTr4o2snlPrapCfkWryBWvYMrvaZwC4NpVN8epiWnKIweUrv5VKQ
68vmMP0LM/C2NyH9+Z5Pm+TxneXJr9fhUZ5xy7wkohNbs8/Hw6GvTncLe+gUXve3
n/Zo9DVZe8I/TaAiuqncUnanI6Q1G5rUMzRHXWPNO7z8BIXlH9wqgjszN3rdsTxt
G2du+KR4/LPufMBzmmABdNIP8jqlQcghx4JNutwntsT2nnbAYpqYSZ+jbdaTgzds
dS6GDp3zKd2eVkMCAwEAAaOCAigwggIkMIGYBgNVHSMEgZAwgY2AFBHNjmBER1dP
T8vp58uhRt+6DlCLoWukaTBnMQswCQYDVQQGEwJKUDEcMBoGA1UECgwTSmFwYW5l
c2UgR292ZXJubWVudDEfMB0GA1UECwwWTmF0aW9uYWwgUG9saWNlIEFnZW5jeTEZ
MBcGA1UECwwQTlBBIElDREwgUm9vdCBDQYIIMjAwMDAwMTYwHQYDVR0OBBYEFJ7p
pwasVLIFThGoQ/v1Kn/3r4L1MA4GA1UdDwEB/wQEAwIGwDBABgNVHSABAf8ENjA0
MDIGCyqDCIaOGAcFAQEKMCMwIQYIKwYBBQUHAgEWFWh0dHA6Ly93d3cubnBhLmdv
LmpwLzB0BgNVHRIEbTBrpGkwZzELMAkGA1UEBhMCSlAxGDAWBgNVBAoMD+aXpeac
rOWbveaUv+W6nDESMBAGA1UECwwJ6K2m5a+f5bqBMSowKAYDVQQLDCHorablr5/l
uoHpgYvou6LlhY3oqLHoqLzoqo3oqLzlsYAwgZ8GA1UdHwSBlzCBlDCBkaCBjqCB
i6SBiDCBhTELMAkGA1UEBhMCSlAxHDAaBgNVBAoME0phcGFuZXNlIEdvdmVybm1l
bnQxHzAdBgNVBAsMFk5hdGlvbmFsIFBvbGljZSBBZ2VuY3kxNzA1BgNVBAsMLlBy
ZWZlY3R1cmFsIFB1YmxpYyBTYWZldHkgQ29tbWlzc2lvbnMgZm9yIElDREwwDQYJ
KoZIhvcNAQELBQADggEBAHRkIA3+5Kbg6Eh8T4UZpQqJxR1KDJqdDz+eJHlUjmQC
2TtcqZUAesHg6QPLFybyM42rP6p34yOH6UealDwE0Qj7Bw1J6JfFVChj7BFJImgL
ZgXGjuXO5Pe/sq8vO+xWu1KzAs7No0ZPgm1EmnYSYtcYKg5TpCY4P4OKR13FGNMN
//VTEuebOsBLmvfyIHCYHO2dCHTr93o4MitEJEr3QNPCLVCctIvv9/1G3tsOZPOE
rKf5zu48q15DuLdDRwlFy9guG8/Gu4+CnsKMwmJkKSuefaT0Xzl/Vvq/Il0DsoLh
IruYq98CXy6gV3bQ+WzqyKaSgAyPyApijGuTA/07XDU=
-----END CERTIFICATE-----
