Certificate:
    Data:
        Version: 3 (0x2)
        Serial Number:
            33:30:30:30:30:30:33:38:3a:30:2b:61:96:7c:87:88:67:b4
        Signature Algorithm: sha256WithRSAEncryption
        Issuer: C=JP, O=Japanese Government, OU=National Police Agency, OU=NPA ICDL Root CA
        Validity
            Not Before: Jun 19 06:02:27 2023 GMT
            Not After : Jun 18 14:59:59 2028 GMT
        Subject: C=JP, O=Japanese Government, OU=National Police Agency, OU=Prefectural Public Safety Commissions for ICDL, CN=Nara AltPPSC
        Subject Public Key Info:
            Public Key Algorithm: rsaEncryption
                Public-Key: (2048 bit)
                Modulus:
                    00:ba:c8:ad:39:ba:a6:fd:c4:a8:2e:ea:ff:31:85:
                    b8:bd:17:68:d6:15:4a:b3:f6:ad:68:21:3e:ed:0e:
                    b8:c2:04:54:68:1f:87:91:af:9b:6b:72:92:af:95:
                    e3:bb:ae:83:87:cc:79:18:69:ae:66:90:d7:45:f5:
                    c9:90:e8:b5:b6:80:98:96:d0:24:e9:28:ca:a5:61:
                    cb:6c:d1:96:0b:21:0e:b5:31:b1:37:47:40:c5:fa:
                    2e:ca:2c:44:05:3b:d3:14:72:ed:24:85:bf:e3:22:
                    4c:ba:e6:0b:f3:47:f6:34:09:3f:ea:ed:58:58:a4:
                    50:3d:13:93:de:9c:48:4c:a4:f7:37:6e:f8:e3:9f:
                    2d:5c:c0:c3:3e:db:71:45:63:f5:27:95:22:e0:4d:
                    10:fb:47:a5:b8:19:f1:da:f3:58:e8:20:d6:4a:a0:
                    8a:f6:43:2a:1f:57:30:3c:12:2f:54:b6:6d:ed:d3:
                    23:bf:9f:d2:5e:6c:e1:25:12:a4:05:7d:f4:cf:87:
                    86:d5:62:da:05:9e:bf:7b:c8:e0:c8:b9:47:ea:ed:
                    42:97:27:09:ce:14:4d:d0:58:76:82:39:a8:75:d7:
                    7a:45:91:12:b2:51:2e:22:76:68:c4:65:de:7a:48:
                    40:2d:a9:5c:df:4f:04:c1:8f:e4:15:bf:d0:80:7a:
                    15:fd
                Exponent: 65537 (0x10001)
        X509v3 extensions:
            X509v3 Authority Key Identifier: 
                keyid:11:CD:8E:60:44:47:57:4F:4F:CB:E9:E7:CB:A1:46:DF:BA:0E:50:8B
                DirName:/C=JP/O=Japanese Government/OU=National Police Agency/OU=NPA ICDL Root CA
                serial:32:30:30:30:30:30:31:36
            X509v3 Subject Key Identifier: 
                8A:A3:A1:AE:22:88:A0:DD:FC:7D:88:95:EB:AF:E2:23:C7:00:41:60
            X509v3 Key Usage: critical
                Digital Signature, Non Repudiation
            X509v3 Certificate Policies: critical
                Policy: 1.2.392.100120.7.5.1.1.10
                  CPS: http://www.npa.go.jp/
            X509v3 Issuer Alternative Name: 
                DirName:/C=JP/O=\xE6\x97\xA5\xE6\x9C\xAC\xE5\x9B\xBD\xE6\x94\xBF\xE5\xBA\x9C/OU=\xE8\xAD\xA6\xE5\xAF\x9F\xE5\xBA\x81/OU=\xE8\xAD\xA6\xE5\xAF\x9F\xE5\xBA\x81\xE9\x81\x8B\xE8\xBB\xA2\xE5\x85\x8D\xE8\xA8\xB1\xE8\xA8\xBC\xE8\xAA\x8D\xE8\xA8\xBC\xE5\xB1\x80
            X509v3 CRL Distribution Points: 
                Full Name:
                  DirName:C = JP, O = Japanese Government, OU = National Police Agency, OU = Prefectural Public Safety Commissions for ICDL
    Signature Algorithm: sha256WithRSAEncryption
    Signature Value:
        57:b0:41:26:34:99:ac:11:db:00:95:2a:36:62:09:c1:9e:1c:
        fe:de:58:bf:74:3b:91:7f:2b:bc:32:e8:3a:8b:37:16:f3:f1:
        09:a8:e9:d4:92:ae:d8:69:27:a5:15:26:17:0f:93:cd:26:77:
        2d:f3:1e:18:ad:fd:43:7f:5b:24:de:12:da:81:ad:a7:75:f5:
        0b:3d:9b:51:45:08:ce:5f:0a:a9:22:dc:3d:7d:fd:c7:57:a0:
        6c:39:9f:65:70:5c:51:b1:97:df:2b:5d:ea:2b:f8:b8:b8:85:
        67:4b:01:ee:e7:da:4e:9d:09:ca:db:63:3d:a6:04:ba:49:d2:
        cb:7a:8e:98:76:6f:a3:1a:a6:b8:73:31:8f:85:9f:98:2e:5e:
        77:c3:ab:06:3c:81:59:8f:7c:ed:5e:36:57:40:c9:13:79:98:
        4e:39:55:0a:f6:85:f8:ee:f0:85:52:e5:a0:1c:ef:cb:b7:32:
        27:ed:a1:75:0e:b9:3a:4b:51:c2:60:63:45:16:09:ed:f8:61:
        95:f4:5c:16:f6:4f:b9:2b:42:b4:28:1d:c2:67:7c:0b:70:86:
        55:5b:28:8a:33:88:f4:4b:09:ac:07:73:83:a9:32:7f:c6:04:
        07:2b:f5:97:78:7a:ca:13:06:4b:2f:8b:35:f2:22:6f:07:e8:
        64:d6:f7:d2
-----BEGIN CERTIFICATE-----
MIIFujCCBKKgAwIBAgISMzAwMDAwMzg6MCthlnyHiGe0MA0GCSqGSIb3DQEBCwUA
MGcxCzAJBgNVBAYTAkpQMRwwGgYDVQQKDBNKYXBhbmVzZSBHb3Zlcm5tZW50MR8w
HQYDVQQLDBZOYXRpb25hbCBQb2xpY2UgQWdlbmN5MRkwFwYDVQQLDBBOUEEgSUNE
TCBSb290IENBMB4XDTIzMDYxOTA2MDIyN1oXDTI4MDYxODE0NTk1OVowgZwxCzAJ
BgNVBAYTAkpQMRwwGgYDVQQKDBNKYXBhbmVzZSBHb3Zlcm5tZW50MR8wHQYDVQQL
DBZOYXRpb25hbCBQb2xpY2UgQWdlbmN5MTcwNQYDVQQLDC5QcmVmZWN0dXJhbCBQ
dWJsaWMgU2FmZXR5IENvbW1pc3Npb25zIGZvciBJQ0RMMRUwEwYDVQQDDAxOYXJh
IEFsdFBQU0MwggEiMA0GCSqGSIb3DQEBAQUAA4IBDwAwggEKAoIBAQC6yK05uqb9
xKgu6v8xhbi9F2jWFUqz9q1oIT7tDrjCBFRoH4eRr5trcpKvleO7roOHzHkYaa5m
kNdF9cmQ6LW2gJiW0CTpKMqlYcts0ZYLIQ61MbE3R0DF+i7KLEQFO9MUcu0khb/j
Iky65gvzR/Y0CT/q7VhYpFA9E5PenEhMpPc3bvjjny1cwMM+23FFY/UnlSLgTRD7
R6W4GfHa81joINZKoIr2QyofVzA8Ei9Utm3t0yO/n9JebOElEqQFffTPh4bVYtoF
nr97yODIuUfq7UKXJwnOFE3QWHaCOah113pFkRKyUS4idmjEZd56SEAtqVzfTwTB
j+QVv9CAehX9AgMBAAGjggIoMIICJDCBmAYDVR0jBIGQMIGNgBQRzY5gREdXT0/L
6efLoUbfug5Qi6FrpGkwZzELMAkGA1UEBhMCSlAxHDAaBgNVBAoME0phcGFuZXNl
IEdvdmVybm1lbnQxHzAdBgNVBAsMFk5hdGlvbmFsIFBvbGljZSBBZ2VuY3kxGTAX
BgNVBAsMEE5QQSBJQ0RMIFJvb3QgQ0GCCDIwMDAwMDE2MB0GA1UdDgQWBBSKo6Gu
Ioig3fx9iJXrr+IjxwBBYDAOBgNVHQ8BAf8EBAMCBsAwQAYDVR0gAQH/BDYwNDAy
BgsqgwiGjhgHBQEBCjAjMCEGCCsGAQUFBwIBFhVodHRwOi8vd3d3Lm5wYS5nby5q
cC8wdAYDVR0SBG0wa6RpMGcxCzAJBgNVBAYTAkpQMRgwFgYDVQQKDA/ml6XmnKzl
m73mlL/lupwxEjAQBgNVBAsMCeitpuWvn+W6gTEqMCgGA1UECwwh6K2m5a+f5bqB
6YGL6Lui5YWN6Kix6Ki86KqN6Ki85bGAMIGfBgNVHR8EgZcwgZQwgZGggY6ggYuk
gYgwgYUxCzAJBgNVBAYTAkpQMRwwGgYDVQQKDBNKYXBhbmVzZSBHb3Zlcm5tZW50
MR8wHQYDVQQLDBZOYXRpb25hbCBQb2xpY2UgQWdlbmN5MTcwNQYDVQQLDC5QcmVm
ZWN0dXJhbCBQdWJsaWMgU2FmZXR5IENvbW1pc3Npb25zIGZvciBJQ0RMMA0GCSqG
SIb3DQEBCwUAA4IBAQBXsEEmNJmsEdsAlSo2YgnBnhz+3li/dDuRfyu8Mug6izcW
8/EJqOnUkq7YaSelFSYXD5PNJnct8x4Yrf1Df1sk3hLaga2ndfULPZtRRQjOXwqp
Itw9ff3HV6BsOZ9lcFxRsZffK13qK/i4uIVnSwHu59pOnQnK22M9pgS6SdLLeo6Y
dm+jGqa4czGPhZ+YLl53w6sGPIFZj3ztXjZXQMkTeZhOOVUK9oX47vCFUuWgHO/L
tzIn7aF1Drk6S1HCYGNFFgnt+GGV9FwW9k+5K0K0KB3CZ3wLcIZVWyiKM4j0Swms
B3ODqTJ/xgQHK/WXeHrKEwZLL4s18iJvB+hk1vfS
-----END CERTIFICATE-----
