Certificate:
    Data:
        Version: 3 (0x2)
        Serial Number:
            33:30:30:30:30:31:31:32
        Signature Algorithm: sha256WithRSAEncryption
        Issuer: C=JP, O=Japanese Government, OU=National Police Agency, OU=NPA ICDL Root CA
        Validity
            Not Before: Sep 17 07:34:15 2024 GMT
            Not After : Sep 16 14:59:59 2029 GMT
        Subject: C=JP, O=Japanese Government, OU=National Police Agency, OU=Prefectural Public Safety Commissions for ICDL, CN=Nara PPSC
        Subject Public Key Info:
            Public Key Algorithm: rsaEncryption
                Public-Key: (2048 bit)
                Modulus:
                    00:de:9f:0d:19:30:0a:62:c4:03:bd:46:ad:1a:d7:
                    ae:d2:97:87:f8:b4:9e:6b:74:ce:77:b0:51:b3:29:
                    99:cd:31:93:5a:4e:41:76:61:ca:3a:3b:1f:29:d7:
                    f1:ed:5a:1f:b8:dc:82:87:af:a8:c3:cd:16:fe:b9:
                    a5:53:8f:d1:6c:25:ce:b1:10:59:c2:9e:26:9f:c9:
                    47:a0:e6:91:38:e8:f5:dd:76:a6:0b:f9:39:57:a7:
                    09:88:9b:b6:af:60:11:b0:5e:9a:c0:62:47:78:b1:
                    e1:f5:ce:0a:0e:05:f0:a1:11:3b:a4:ca:a9:a0:4d:
                    5c:93:f9:4a:8e:65:48:66:ef:ab:a8:22:2f:bf:c3:
                    1e:e4:a5:ae:8d:4b:62:bf:0f:aa:d8:2d:9c:67:43:
                    d8:d8:09:04:c2:da:44:2c:cc:02:fc:53:a6:c9:a4:
                    a5:e0:a7:17:fc:eb:bf:ec:f9:15:f7:e0:bb:00:46:
                    bc:5a:68:16:ad:31:dc:b8:11:03:4f:0f:44:f4:7a:
                    bd:2c:e9:82:83:e8:25:88:e5:d3:7f:06:ad:12:73:
                    e9:60:0f:4a:3a:04:63:16:ff:68:7b:18:f2:13:e5:
                    1a:fe:65:90:8e:ef:85:e9:86:73:f4:ea:ab:24:db:
                    81:47:ef:2b:71:8a:a6:72:21:ba:2c:da:72:2c:ea:
                    c0:97
                Exponent: 65537 (0x10001)
        X509v3 extensions:
            X509v3 Authority Key Identifier: 
                keyid:11:CD:8E:60:44:47:57:4F:4F:CB:E9:E7:CB:A1:46:DF:BA:0E:50:8B
                DirName:/C=JP/O=Japanese Government/OU=National Police Agency/OU=NPA ICDL Root CA
                serial:32:30:30:30:30:30:31:36
            X509v3 Subject Key Identifier: 
                84:FC:70:B3:AB:8F:9E:DA:5C:12:7B:07:FC:93:A0:6D:08:35:EC:E4
            X509v3 Key Usage: critical
                Digital Signature, Non Repudiation
            X509v3 Certificate Policies: critical
                Policy: 1.2.392.100120.7.5.1.1.10
                  CPS: http://www.npa.go.jp/
            X509v3 Subject Alternative Name: 
                DirName:/C=JP/O=\xE6\x97\xA5\xE6\x9C\xAC\xE5\x9B\xBD\xE6\x94\xBF\xE5\xBA\x9C/OU=\xE8\xAD\xA6\xE5\xAF\x9F\xE5\xBA\x81/OU=\xE9\x83\xBD\xE9\x81\x93\xE5\xBA\x9C\xE7\x9C\x8C\xE5\x85\xAC\xE5\xAE\x89\xE5\xA7\x94\xE5\x93\xA1\xE4\xBC\x9A
            X509v3 Issuer Alternative Name: 
                DirName:/C=JP/O=\xE6\x97\xA5\xE6\x9C\xAC\xE5\x9B\xBD\xE6\x94\xBF\xE5\xBA\x9C/OU=\xE8\xAD\xA6\xE5\xAF\x9F\xE5\xBA\x81/OU=\xE8\xAD\xA6\xE5\xAF\x9F\xE5\xBA\x81\xE9\x81\x8B\xE8\xBB\xA2\xE5\x85\x8D\xE8\xA8\xB1\xE8\xA8\xBC\xE8\xAA\x8D\xE8\xA8\xBC\xE5\xB1\x80
            X509v3 CRL Distribution Points: 
                Full Name:
                  DirName:C = JP, O = Japanese Government, OU = National Police Agency, OU = Prefectural Public Safety Commissions for ICDL
    Signature Algorithm: sha256WithRSAEncryption
    Signature Value:
        23:12:3a:24:43:90:b8:55:9a:32:f6:67:ac:5c:28:35:96:6f:
        3e:ed:f1:23:cf:31:e5:85:37:b5:80:c3:f9:3c:90:c9:3f:92:
        8a:50:33:38:fb:84:2b:1e:81:cb:c6:f8:6b:95:68:02:9a:45:
        02:f9:3d:a0:26:a1:6b:5f:60:43:c6:2d:2e:97:be:43:be:a4:
        53:e0:4e:42:39:e8:a7:df:87:87:fc:31:af:1a:74:d7:87:ec:
        c7:19:a4:8c:a1:69:20:c0:ed:e2:a0:ac:fd:1a:d9:a1:5f:35:
        d2:8d:43:e3:f0:2a:0a:6f:49:b8:64:95:80:f3:7b:66:95:0b:
        55:96:f8:75:58:a0:18:7b:56:1c:69:48:57:8a:8b:a8:e7:bf:
        43:b5:7b:a6:aa:bb:d9:e3:87:77:fc:4e:92:e4:42:d2:ed:91:
        71:fa:4d:d0:fc:ae:cf:f8:8d:a6:f0:6f:e6:72:47:a7:7d:cf:
        96:16:05:0a:2d:5b:9e:7c:8f:f0:31:5c:68:29:a9:28:e6:a4:
        66:84:22:d2:e4:ec:72:3d:e4:c5:d2:a2:ee:4c:89:f0:80:7f:
        78:5f:80:4e:bc:86:d4:3e:1c:40:3b:20:33:23:a3:fe:53:a9:
        67:4d:31:c2:b2:d5:1f:52:e0:63:a1:df:36:df:a8:b8:78:c4:
        95:64:0f:8c
-----BEGIN CERTIFICATE-----
MIIGRTCCBS2gAwIBAgIIMzAwMDAxMTIwDQYJKoZIhvcNAQELBQAwZzELMAkGA1UE
BhMCSlAxHDAaBgNVBAoME0phcGFuZXNlIEdvdmVybm1lbnQxHzAdBgNVBAsMFk5h
dGlvbmFsIFBvbGljZSBBZ2VuY3kxGTAXBgNVBAsMEE5QQSBJQ0RMIFJvb3QgQ0Ew
HhcNMjQwOTE3MDczNDE1WhcNMjkwOTE2MTQ1OTU5WjCBmTELMAkGA1UEBhMCSlAx
HDAaBgNVBAoME0phcGFuZXNlIEdvdmVybm1lbnQxHzAdBgNVBAsMFk5hdGlvbmFs
IFBvbGljZSBBZ2VuY3kxNzA1BgNVBAsMLlByZWZlY3R1cmFsIFB1YmxpYyBTYWZl
dHkgQ29tbWlzc2lvbnMgZm9yIElDREwxEjAQBgNVBAMMCU5hcmEgUFBTQzCCASIw
DQYJKoZIhvcNAQEBBQADggEPADCCAQoCggEBAN6fDRkwCmLEA71GrRrXrtKXh/i0
nmt0znewUbMpmc0xk1pOQXZhyjo7HynX8e1aH7jcgoevqMPNFv65pVOP0WwlzrEQ
WcKeJp/JR6DmkTjo9d12pgv5OVenCYibtq9gEbBemsBiR3ix4fXOCg4F8KERO6TK
qaBNXJP5So5lSGbvq6giL7/DHuSlro1LYr8PqtgtnGdD2NgJBMLaRCzMAvxTpsmk
peCnF/zrv+z5FffguwBGvFpoFq0x3LgRA08PRPR6vSzpgoPoJYjl038GrRJz6WAP
SjoEYxb/aHsY8hPlGv5lkI7vhemGc/TqqyTbgUfvK3GKpnIhuizacizqwJcCAwEA
AaOCAsAwggK8MIGYBgNVHSMEgZAwgY2AFBHNjmBER1dPT8vp58uhRt+6DlCLoWuk
aTBnMQswCQYDVQQGEwJKUDEcMBoGA1UECgwTSmFwYW5lc2UgR292ZXJubWVudDEf
MB0GA1UECwwWTmF0aW9uYWwgUG9saWNlIEFnZW5jeTEZMBcGA1UECwwQTlBBIElD
REwgUm9vdCBDQYIIMjAwMDAwMTYwHQYDVR0OBBYEFIT8cLOrj57aXBJ7B/yToG0I
NezkMA4GA1UdDwEB/wQEAwIGwDBABgNVHSABAf8ENjA0MDIGCyqDCIaOGAcFAQEK
MCMwIQYIKwYBBQUHAgEWFWh0dHA6Ly93d3cubnBhLmdvLmpwLzCBlQYDVR0RBIGN
MIGKpIGHMIGEMQswCQYDVQQGEwJKUDEYMBYGA1UECgwP5pel5pys5Zu95pS/5bqc
MRIwEAYDVQQLDAnorablr5/luoExJDAiBgNVBAsMG+mDvemBk+W6nOecjOWFrOWu
ieWnlOWToeS8mjEhMB8GA1UEAwwY5aWI6Imv55yM5YWs5a6J5aeU5ZOh5LyaMHQG
A1UdEgRtMGukaTBnMQswCQYDVQQGEwJKUDEYMBYGA1UECgwP5pel5pys5Zu95pS/
5bqcMRIwEAYDVQQLDAnorablr5/luoExKjAoBgNVBAsMIeitpuWvn+W6gemBi+i7
ouWFjeioseiovOiqjeiovOWxgDCBnwYDVR0fBIGXMIGUMIGRoIGOoIGLpIGIMIGF
MQswCQYDVQQGEwJKUDEcMBoGA1UECgwTSmFwYW5lc2UgR292ZXJubWVudDEfMB0G
A1UECwwWTmF0aW9uYWwgUG9saWNlIEFnZW5jeTE3MDUGA1UECwwuUHJlZmVjdHVy
YWwgUHVibGljIFNhZmV0eSBDb21taXNzaW9ucyBmb3IgSUNETDANBgkqhkiG9w0B
AQsFAAOCAQEAIxI6JEOQuFWaMvZnrFwoNZZvPu3xI88x5YU3tYDD+TyQyT+SilAz
OPuEKx6By8b4a5VoAppFAvk9oCaha19gQ8YtLpe+Q76kU+BOQjnop9+Hh/wxrxp0
14fsxxmkjKFpIMDt4qCs/RrZoV810o1D4/AqCm9JuGSVgPN7ZpULVZb4dVigGHtW
HGlIV4qLqOe/Q7V7pqq72eOHd/xOkuRC0u2RcfpN0Pyuz/iNpvBv5nJHp33PlhYF
Ci1bnnyP8DFcaCmpKOakZoQi0uTscj3kxdKi7kyJ8IB/eF+ATryG1D4cQDsgMyOj
/lOpZ00xwrLVH1LgY6HfNt+ouHjElWQPjA==
-----END CERTIFICATE-----
