Certificate:
    Data:
        Version: 3 (0x2)
        Serial Number:
            32:30:30:30:30:30:36:34
        Signature Algorithm: sha256WithRSAEncryption
        Issuer: C=JP, O=Japanese Government, OU=National Police Agency, OU=NPA ICDL Root CA
        Validity
            Not Before: Feb  6 02:38:29 2023 GMT
            Not After : Feb  5 14:59:59 2028 GMT
        Subject: C=JP, O=Japanese Government, OU=National Police Agency, OU=Prefectural Public Safety Commissions for ICDL, CN=Nara PPSC
        Subject Public Key Info:
            Public Key Algorithm: rsaEncryption
                Public-Key: (2048 bit)
                Modulus:
                    00:86:2d:da:62:20:d4:56:e0:c1:3a:17:c1:53:f1:
                    98:57:5c:2c:68:b0:2a:dd:fb:7a:bc:fa:de:63:02:
                    18:51:97:ae:67:67:58:58:ad:de:e2:e1:bf:e0:b9:
                    e1:48:62:17:34:ae:00:6e:b7:92:41:fc:e3:f3:bb:
                    bf:34:d6:19:e9:c1:40:0d:15:17:ea:57:14:fc:e3:
                    5e:26:7b:91:ed:e3:52:55:69:f1:94:7f:4a:9d:9d:
                    a6:f3:e7:a2:46:31:57:9b:8e:a8:1b:5d:02:ac:c3:
                    f2:ab:3f:35:86:cb:f7:7d:f0:7c:e3:f3:2d:36:f2:
                    e7:82:27:9d:da:58:35:46:ee:81:ae:91:2d:73:c4:
                    eb:bd:a6:8b:e6:63:31:e6:70:2c:7b:1f:2a:06:e4:
                    a8:86:4d:7f:15:c5:c9:7c:b8:e4:88:9f:02:e2:76:
                    59:06:c2:86:71:71:d2:00:07:9e:39:0b:17:35:70:
                    aa:33:33:b4:ed:13:87:84:d8:db:97:fa:ab:9a:91:
                    97:8c:15:6d:d6:7b:90:a4:a5:86:ad:8b:84:b3:ff:
                    5b:ce:cc:ff:19:bf:d2:71:30:5e:f5:f5:5b:40:e3:
                    96:cc:3b:f2:fb:73:1a:70:3a:61:ee:8c:40:93:a9:
                    b3:6b:4a:31:9d:6b:51:1c:90:17:7d:1f:d6:ec:c2:
                    d1:57
                Exponent: 65537 (0x10001)
        X509v3 extensions:
            X509v3 Authority Key Identifier: 
                keyid:11:CD:8E:60:44:47:57:4F:4F:CB:E9:E7:CB:A1:46:DF:BA:0E:50:8B
                DirName:/C=JP/O=Japanese Government/OU=National Police Agency/OU=NPA ICDL Root CA
                serial:32:30:30:30:30:30:31:36
            X509v3 Subject Key Identifier: 
                88:72:C2:9E:4C:B5:24:55:0D:0D:AC:70:16:09:D9:05:99:A9:EC:0E
            X509v3 Key Usage: critical
                Digital Signature, Non Repudiation
            X509v3 Certificate Policies: critical
                Policy: 1.2.392.100120.7.5.1.1.10
                  CPS: http://www.npa.go.jp/
            X509v3 Subject Alternative Name: 
                DirName:/C=JP/O=\xE6\x97\xA5\xE6\x9C\xAC\xE5\x9B\xBD\xE6\x94\xBF\xE5\xBA\x9C/OU=\xE8\xAD\xA6\xE5\xAF\x9F\xE5\xBA\x81/OU=\xE9\x83\xBD\xE9\x81\x93\xE5\xBA\x9C\xE7\x9C\x8C\xE5\x85\xAC\xE5\xAE\x89\xE5\xA7\x94\xE5\x93\xA1\xE4\xBC\x9A
            X509v3 Issuer Alternative Name: 
                DirName:/C=JP/O=\xE6\x97\xA5\xE6\x9C\xAC\xE5\x9B\xBD\xE6\x94\xBF\xE5\xBA\x9C/OU=\xE8\xAD\xA6\xE5\xAF\x9F\xE5\xBA\x81/OU=\xE8\xAD\xA6\xE5\xAF\x9F\xE5\xBA\x81\xE9\x81\x8B\xE8\xBB\xA2\xE5\x85\x8D\xE8\xA8\xB1\xE8\xA8\xBC\xE8\xAA\x8D\xE8\xA8\xBC\xE5\xB1\x80
            X509v3 CRL Distribution Points: 
                Full Name:
                  DirName:C = JP, O = Japanese Government, OU = National Police Agency, OU = Prefectural Public Safety Commissions for ICDL
    Signature Algorithm: sha256WithRSAEncryption
    Signature Value:
        49:04:06:b2:8b:8c:ab:1a:8e:64:00:38:ec:b3:a4:1f:4a:50:
        3b:aa:47:67:cf:53:7d:ee:d7:09:b8:a7:e0:83:46:dc:8d:b5:
        d8:6a:a7:9b:9c:61:02:09:6f:75:e8:8e:ea:55:d4:91:e7:fd:
        5a:33:74:a8:24:5e:75:82:28:7c:21:2d:44:7d:83:a8:f6:2c:
        89:50:87:d3:4a:56:6c:31:37:b6:7e:6d:b7:42:01:48:80:44:
        75:ec:bc:a4:8c:1a:52:1e:b9:54:2e:7a:61:66:ad:2c:25:b4:
        00:44:58:ba:d0:2b:9a:03:ae:b7:fd:43:62:92:49:32:5c:cc:
        c5:fa:36:b3:4c:ad:85:ed:59:35:c8:d0:93:da:f9:fb:ea:b3:
        38:ff:a8:02:c0:ad:0e:65:f5:4c:73:e1:38:32:bf:4e:f3:27:
        66:29:5d:ac:06:03:b6:c6:aa:40:9b:83:96:27:9a:c9:6f:11:
        92:0c:44:e1:b8:ff:a1:8a:55:cb:86:19:69:12:6a:c7:60:f9:
        11:9f:fd:0b:29:fc:a8:b9:0f:f8:cc:b0:15:da:87:2d:a8:dd:
        21:11:66:f7:d8:f7:1b:4a:59:3c:a1:32:6a:a1:4a:21:e3:17:
        8a:8e:70:65:d3:53:47:15:2e:6f:61:9c:ba:63:9d:ca:2d:24:
        28:3c:de:84
-----BEGIN CERTIFICATE-----
MIIGRTCCBS2gAwIBAgIIMjAwMDAwNjQwDQYJKoZIhvcNAQELBQAwZzELMAkGA1UE
BhMCSlAxHDAaBgNVBAoME0phcGFuZXNlIEdvdmVybm1lbnQxHzAdBgNVBAsMFk5h
dGlvbmFsIFBvbGljZSBBZ2VuY3kxGTAXBgNVBAsMEE5QQSBJQ0RMIFJvb3QgQ0Ew
HhcNMjMwMjA2MDIzODI5WhcNMjgwMjA1MTQ1OTU5WjCBmTELMAkGA1UEBhMCSlAx
HDAaBgNVBAoME0phcGFuZXNlIEdvdmVybm1lbnQxHzAdBgNVBAsMFk5hdGlvbmFs
IFBvbGljZSBBZ2VuY3kxNzA1BgNVBAsMLlByZWZlY3R1cmFsIFB1YmxpYyBTYWZl
dHkgQ29tbWlzc2lvbnMgZm9yIElDREwxEjAQBgNVBAMMCU5hcmEgUFBTQzCCASIw
DQYJKoZIhvcNAQEBBQADggEPADCCAQoCggEBAIYt2mIg1FbgwToXwVPxmFdcLGiw
Kt37erz63mMCGFGXrmdnWFit3uLhv+C54UhiFzSuAG63kkH84/O7vzTWGenBQA0V
F+pXFPzjXiZ7ke3jUlVp8ZR/Sp2dpvPnokYxV5uOqBtdAqzD8qs/NYbL933wfOPz
LTby54InndpYNUbuga6RLXPE672mi+ZjMeZwLHsfKgbkqIZNfxXFyXy45IifAuJ2
WQbChnFx0gAHnjkLFzVwqjMztO0Th4TY25f6q5qRl4wVbdZ7kKSlhq2LhLP/W87M
/xm/0nEwXvX1W0Djlsw78vtzGnA6Ye6MQJOps2tKMZ1rURyQF30f1uzC0VcCAwEA
AaOCAsAwggK8MIGYBgNVHSMEgZAwgY2AFBHNjmBER1dPT8vp58uhRt+6DlCLoWuk
aTBnMQswCQYDVQQGEwJKUDEcMBoGA1UECgwTSmFwYW5lc2UgR292ZXJubWVudDEf
MB0GA1UECwwWTmF0aW9uYWwgUG9saWNlIEFnZW5jeTEZMBcGA1UECwwQTlBBIElD
REwgUm9vdCBDQYIIMjAwMDAwMTYwHQYDVR0OBBYEFIhywp5MtSRVDQ2scBYJ2QWZ
qewOMA4GA1UdDwEB/wQEAwIGwDBABgNVHSABAf8ENjA0MDIGCyqDCIaOGAcFAQEK
MCMwIQYIKwYBBQUHAgEWFWh0dHA6Ly93d3cubnBhLmdvLmpwLzCBlQYDVR0RBIGN
MIGKpIGHMIGEMQswCQYDVQQGEwJKUDEYMBYGA1UECgwP5pel5pys5Zu95pS/5bqc
MRIwEAYDVQQLDAnorablr5/luoExJDAiBgNVBAsMG+mDvemBk+W6nOecjOWFrOWu
ieWnlOWToeS8mjEhMB8GA1UEAwwY5aWI6Imv55yM5YWs5a6J5aeU5ZOh5LyaMHQG
A1UdEgRtMGukaTBnMQswCQYDVQQGEwJKUDEYMBYGA1UECgwP5pel5pys5Zu95pS/
5bqcMRIwEAYDVQQLDAnorablr5/luoExKjAoBgNVBAsMIeitpuWvn+W6gemBi+i7
ouWFjeioseiovOiqjeiovOWxgDCBnwYDVR0fBIGXMIGUMIGRoIGOoIGLpIGIMIGF
MQswCQYDVQQGEwJKUDEcMBoGA1UECgwTSmFwYW5lc2UgR292ZXJubWVudDEfMB0G
A1UECwwWTmF0aW9uYWwgUG9saWNlIEFnZW5jeTE3MDUGA1UECwwuUHJlZmVjdHVy
YWwgUHVibGljIFNhZmV0eSBDb21taXNzaW9ucyBmb3IgSUNETDANBgkqhkiG9w0B
AQsFAAOCAQEASQQGsouMqxqOZAA47LOkH0pQO6pHZ89Tfe7XCbin4ING3I212Gqn
m5xhAglvdeiO6lXUkef9WjN0qCRedYIofCEtRH2DqPYsiVCH00pWbDE3tn5tt0IB
SIBEdey8pIwaUh65VC56YWatLCW0AERYutArmgOut/1DYpJJMlzMxfo2s0ythe1Z
NcjQk9r5++qzOP+oAsCtDmX1THPhODK/TvMnZildrAYDtsaqQJuDlieayW8RkgxE
4bj/oYpVy4YZaRJqx2D5EZ/9Cyn8qLkP+MywFdqHLajdIRFm99j3G0pZPKEyaqFK
IeMXio5wZdNTRxUub2GcumOdyi0kKDzehA==
-----END CERTIFICATE-----
