Certificate:
    Data:
        Version: 3 (0x2)
        Serial Number:
            32:30:30:30:30:30:33:32
        Signature Algorithm: sha256WithRSAEncryption
        Issuer: C=JP, O=Japanese Government, OU=National Police Agency, OU=NPA ICDL Root CA
        Validity
            Not Before: Dec 14 02:20:59 2022 GMT
            Not After : Dec 13 14:59:59 2027 GMT
        Subject: C=JP, O=Japanese Government, OU=National Police Agency, OU=Prefectural Public Safety Commissions for ICDL, CN=Niigata PPSC
        Subject Public Key Info:
            Public Key Algorithm: rsaEncryption
                Public-Key: (2048 bit)
                Modulus:
                    00:d6:35:14:4b:c0:48:80:e9:c5:e6:e7:18:ab:6d:
                    b2:dd:2a:35:84:2e:a4:85:84:13:89:56:76:e1:04:
                    74:f1:c7:95:eb:69:69:e9:0b:ba:6a:e7:02:a0:74:
                    73:7f:21:5a:91:25:89:c3:dc:68:5c:07:da:1f:8f:
                    c3:90:0d:35:93:e1:8b:b1:0d:6e:d6:f8:3c:ba:16:
                    6c:39:87:54:c0:ac:8c:19:64:a5:9d:ca:98:17:42:
                    fd:07:e0:8f:3f:35:7f:dd:da:90:27:ab:2d:d9:18:
                    9c:4b:e4:3b:c3:8b:02:4d:15:88:63:16:49:85:5a:
                    20:a6:eb:07:d8:90:4f:2d:9e:58:7a:96:d8:07:d9:
                    f0:64:1c:5f:64:d7:0e:7e:85:f7:32:1b:4f:93:33:
                    21:4c:09:4c:ad:c5:85:ab:14:b2:cc:62:8d:ea:b7:
                    d9:b0:ef:cb:8c:07:55:89:cf:77:8c:f7:dc:d0:08:
                    9a:5f:25:ef:a9:c8:ea:df:28:9e:c3:fa:c5:12:87:
                    fb:72:55:a9:7b:cb:de:80:05:cf:33:0a:05:6e:0d:
                    a6:96:8b:88:af:33:84:10:16:1d:9e:7c:52:36:06:
                    0c:0f:7c:6e:e3:a4:1c:09:c7:7a:ac:77:89:35:08:
                    74:5d:19:fa:5f:68:3b:9f:9e:d9:e7:ab:4c:e7:e8:
                    a3:37
                Exponent: 65537 (0x10001)
        X509v3 extensions:
            X509v3 Authority Key Identifier: 
                keyid:11:CD:8E:60:44:47:57:4F:4F:CB:E9:E7:CB:A1:46:DF:BA:0E:50:8B
                DirName:/C=JP/O=Japanese Government/OU=National Police Agency/OU=NPA ICDL Root CA
                serial:32:30:30:30:30:30:31:36
            X509v3 Subject Key Identifier: 
                59:8B:1A:D4:07:A3:D6:01:A5:AD:BD:23:31:BF:19:13:91:ED:4F:C7
            X509v3 Key Usage: critical
                Digital Signature, Non Repudiation
            X509v3 Certificate Policies: critical
                Policy: 1.2.392.100120.7.5.1.1.10
                  CPS: http://www.npa.go.jp/
            X509v3 Subject Alternative Name: 
                DirName:/C=JP/O=\xE6\x97\xA5\xE6\x9C\xAC\xE5\x9B\xBD\xE6\x94\xBF\xE5\xBA\x9C/OU=\xE8\xAD\xA6\xE5\xAF\x9F\xE5\xBA\x81/OU=\xE9\x83\xBD\xE9\x81\x93\xE5\xBA\x9C\xE7\x9C\x8C\xE5\x85\xAC\xE5\xAE\x89\xE5\xA7\x94\xE5\x93\xA1\xE4\xBC\x9A
            X509v3 Issuer Alternative Name: 
                DirName:/C=JP/O=\xE6\x97\xA5\xE6\x9C\xAC\xE5\x9B\xBD\xE6\x94\xBF\xE5\xBA\x9C/OU=\xE8\xAD\xA6\xE5\xAF\x9F\xE5\xBA\x81/OU=\xE8\xAD\xA6\xE5\xAF\x9F\xE5\xBA\x81\xE9\x81\x8B\xE8\xBB\xA2\xE5\x85\x8D\xE8\xA8\xB1\xE8\xA8\xBC\xE8\xAA\x8D\xE8\xA8\xBC\xE5\xB1\x80
            X509v3 CRL Distribution Points: 
                Full Name:
                  DirName:C = JP, O = Japanese Government, OU = National Police Agency, OU = Prefectural Public Safety Commissions for ICDL
    Signature Algorithm: sha256WithRSAEncryption
    Signature Value:
        9c:05:88:3a:b7:e3:88:f0:d1:62:7b:20:ac:70:19:6c:d9:0d:
        ba:81:19:87:b2:90:ea:ea:51:8b:90:ae:3d:b4:a0:3d:b5:06:
        6b:08:69:b1:72:bf:a9:0c:25:13:e7:ad:ee:88:fc:0e:8c:e8:
        8f:e9:66:86:ce:ce:6a:3a:be:ed:7b:a2:cc:06:ba:94:ba:ac:
        d7:69:fb:10:9b:19:1e:ff:3f:ca:5e:b4:ef:27:8c:05:75:5c:
        12:05:ed:25:cd:19:ce:4a:cb:b2:be:fe:7d:a1:40:ef:28:60:
        bc:3b:6c:e2:36:2c:de:3c:78:13:23:7c:6e:de:0a:d4:a7:79:
        6a:64:57:0d:a6:22:29:bd:f5:18:9f:f5:45:cc:92:03:6a:76:
        40:de:b1:8b:21:72:78:98:b7:60:2d:eb:b1:2d:92:56:73:f2:
        6b:a4:84:9a:f1:ae:f8:6e:ee:1a:78:db:0c:47:7b:93:11:f4:
        c7:10:f0:a1:e6:70:03:9f:3b:0a:0d:e8:a5:21:bd:0b:91:f0:
        f9:e5:90:87:b5:7d:96:f3:14:49:01:9c:81:c2:7d:f0:09:f0:
        18:4e:1a:06:85:f8:75:b7:18:a9:d3:dd:4c:67:4a:e5:19:6a:
        7a:f9:f1:95:b8:5b:95:bd:eb:d3:e4:68:f1:9a:11:b3:84:9b:
        24:d4:af:c2
-----BEGIN CERTIFICATE-----
MIIGSDCCBTCgAwIBAgIIMjAwMDAwMzIwDQYJKoZIhvcNAQELBQAwZzELMAkGA1UE
BhMCSlAxHDAaBgNVBAoME0phcGFuZXNlIEdvdmVybm1lbnQxHzAdBgNVBAsMFk5h
dGlvbmFsIFBvbGljZSBBZ2VuY3kxGTAXBgNVBAsMEE5QQSBJQ0RMIFJvb3QgQ0Ew
HhcNMjIxMjE0MDIyMDU5WhcNMjcxMjEzMTQ1OTU5WjCBnDELMAkGA1UEBhMCSlAx
HDAaBgNVBAoME0phcGFuZXNlIEdvdmVybm1lbnQxHzAdBgNVBAsMFk5hdGlvbmFs
IFBvbGljZSBBZ2VuY3kxNzA1BgNVBAsMLlByZWZlY3R1cmFsIFB1YmxpYyBTYWZl
dHkgQ29tbWlzc2lvbnMgZm9yIElDREwxFTATBgNVBAMMDE5paWdhdGEgUFBTQzCC
ASIwDQYJKoZIhvcNAQEBBQADggEPADCCAQoCggEBANY1FEvASIDpxebnGKttst0q
NYQupIWEE4lWduEEdPHHletpaekLumrnAqB0c38hWpElicPcaFwH2h+Pw5ANNZPh
i7ENbtb4PLoWbDmHVMCsjBlkpZ3KmBdC/Qfgjz81f93akCerLdkYnEvkO8OLAk0V
iGMWSYVaIKbrB9iQTy2eWHqW2AfZ8GQcX2TXDn6F9zIbT5MzIUwJTK3FhasUssxi
jeq32bDvy4wHVYnPd4z33NAIml8l76nI6t8onsP6xRKH+3JVqXvL3oAFzzMKBW4N
ppaLiK8zhBAWHZ58UjYGDA98buOkHAnHeqx3iTUIdF0Z+l9oO5+e2eerTOfoozcC
AwEAAaOCAsAwggK8MIGYBgNVHSMEgZAwgY2AFBHNjmBER1dPT8vp58uhRt+6DlCL
oWukaTBnMQswCQYDVQQGEwJKUDEcMBoGA1UECgwTSmFwYW5lc2UgR292ZXJubWVu
dDEfMB0GA1UECwwWTmF0aW9uYWwgUG9saWNlIEFnZW5jeTEZMBcGA1UECwwQTlBB
IElDREwgUm9vdCBDQYIIMjAwMDAwMTYwHQYDVR0OBBYEFFmLGtQHo9YBpa29IzG/
GROR7U/HMA4GA1UdDwEB/wQEAwIGwDBABgNVHSABAf8ENjA0MDIGCyqDCIaOGAcF
AQEKMCMwIQYIKwYBBQUHAgEWFWh0dHA6Ly93d3cubnBhLmdvLmpwLzCBlQYDVR0R
BIGNMIGKpIGHMIGEMQswCQYDVQQGEwJKUDEYMBYGA1UECgwP5pel5pys5Zu95pS/
5bqcMRIwEAYDVQQLDAnorablr5/luoExJDAiBgNVBAsMG+mDvemBk+W6nOecjOWF
rOWuieWnlOWToeS8mjEhMB8GA1UEAwwY5paw5r2f55yM5YWs5a6J5aeU5ZOh5Lya
MHQGA1UdEgRtMGukaTBnMQswCQYDVQQGEwJKUDEYMBYGA1UECgwP5pel5pys5Zu9
5pS/5bqcMRIwEAYDVQQLDAnorablr5/luoExKjAoBgNVBAsMIeitpuWvn+W6gemB
i+i7ouWFjeioseiovOiqjeiovOWxgDCBnwYDVR0fBIGXMIGUMIGRoIGOoIGLpIGI
MIGFMQswCQYDVQQGEwJKUDEcMBoGA1UECgwTSmFwYW5lc2UgR292ZXJubWVudDEf
MB0GA1UECwwWTmF0aW9uYWwgUG9saWNlIEFnZW5jeTE3MDUGA1UECwwuUHJlZmVj
dHVyYWwgUHVibGljIFNhZmV0eSBDb21taXNzaW9ucyBmb3IgSUNETDANBgkqhkiG
9w0BAQsFAAOCAQEAnAWIOrfjiPDRYnsgrHAZbNkNuoEZh7KQ6upRi5CuPbSgPbUG
awhpsXK/qQwlE+et7oj8Dozoj+lmhs7Oajq+7XuizAa6lLqs12n7EJsZHv8/yl60
7yeMBXVcEgXtJc0ZzkrLsr7+faFA7yhgvDts4jYs3jx4EyN8bt4K1Kd5amRXDaYi
Kb31GJ/1RcySA2p2QN6xiyFyeJi3YC3rsS2SVnPya6SEmvGu+G7uGnjbDEd7kxH0
xxDwoeZwA587Cg3opSG9C5Hw+eWQh7V9lvMUSQGcgcJ98AnwGE4aBoX4dbcYqdPd
TGdK5Rlqevnxlbhblb3r0+Ro8ZoRs4SbJNSvwg==
-----END CERTIFICATE-----
