Certificate:
    Data:
        Version: 3 (0x2)
        Serial Number:
            31:30:30:30:30:30:37:39
        Signature Algorithm: sha256WithRSAEncryption
        Issuer: C=JP, O=Japanese Government, OU=National Police Agency, OU=NPA ICDL Root CA
        Validity
            Not Before: Dec  5 08:00:00 2023 GMT
            Not After : Dec  5 07:59:59 2028 GMT
        Subject: C=JP, O=Japanese Government, OU=National Police Agency, OU=Prefectural Public Safety Commissions for ICDL, CN=Niigata PPSC
        Subject Public Key Info:
            Public Key Algorithm: rsaEncryption
                Public-Key: (2048 bit)
                Modulus:
                    00:95:53:d1:b8:22:85:76:73:da:47:6f:04:a3:0f:
                    b4:9a:05:39:a6:3f:57:f7:4d:90:94:1c:0c:01:63:
                    e9:24:db:ad:5c:56:fa:a1:0b:84:ab:bb:28:95:b0:
                    a6:a4:64:37:fd:dd:59:60:09:6f:89:36:23:2f:d9:
                    b1:d3:72:7a:4a:31:74:b1:41:fe:a5:2c:6f:aa:61:
                    bd:11:79:75:45:e4:5b:39:cd:00:06:04:6a:f7:0f:
                    49:ed:16:fc:31:9f:88:66:10:4f:b3:fc:32:06:76:
                    ba:b3:22:9c:1a:7f:ae:82:f3:37:e1:1a:3c:bf:ea:
                    86:d8:b4:fe:07:77:c4:f8:60:8e:4e:77:80:6f:2f:
                    7e:10:8a:c4:f0:51:6f:7c:d9:11:e1:d0:a9:6b:5b:
                    b0:91:32:5a:60:d5:b7:84:17:fb:c8:e6:12:14:82:
                    f0:38:c0:ef:4a:ff:a4:9d:95:63:99:f1:24:1d:28:
                    c8:0e:f3:89:58:93:74:a3:61:13:13:30:7e:a5:b6:
                    36:d9:2c:57:7d:89:ef:83:9c:08:fa:ce:91:29:cd:
                    8e:70:f9:ef:57:38:8c:c3:45:5e:a1:e7:e8:e3:5a:
                    27:b6:1d:30:8c:b5:72:b8:8e:90:46:21:52:c1:3d:
                    54:c2:2f:8b:06:71:14:d5:a2:b3:6f:e1:d3:c8:06:
                    cc:4f
                Exponent: 65537 (0x10001)
        X509v3 extensions:
            X509v3 Authority Key Identifier: 
                keyid:11:CD:8E:60:44:47:57:4F:4F:CB:E9:E7:CB:A1:46:DF:BA:0E:50:8B
                DirName:/C=JP/O=Japanese Government/OU=National Police Agency/OU=NPA ICDL Root CA
                serial:32:30:30:30:30:30:31:36
            X509v3 Subject Key Identifier: 
                EF:15:BF:48:E2:E3:A5:D8:48:ED:DE:28:4A:3E:0E:57:CD:09:14:70
            X509v3 Key Usage: critical
                Digital Signature, Non Repudiation
            X509v3 Certificate Policies: critical
                Policy: 1.2.392.100120.7.5.1.1.10
                  CPS: http://www.npa.go.jp/
            X509v3 Subject Alternative Name: 
                DirName:/C=JP/O=\xE6\x97\xA5\xE6\x9C\xAC\xE5\x9B\xBD\xE6\x94\xBF\xE5\xBA\x9C/OU=\xE8\xAD\xA6\xE5\xAF\x9F\xE5\xBA\x81/OU=\xE9\x83\xBD\xE9\x81\x93\xE5\xBA\x9C\xE7\x9C\x8C\xE5\x85\xAC\xE5\xAE\x89\xE5\xA7\x94\xE5\x93\xA1\xE4\xBC\x9A
            X509v3 Issuer Alternative Name: 
                DirName:/C=JP/O=\xE6\x97\xA5\xE6\x9C\xAC\xE5\x9B\xBD\xE6\x94\xBF\xE5\xBA\x9C/OU=\xE8\xAD\xA6\xE5\xAF\x9F\xE5\xBA\x81/OU=\xE8\xAD\xA6\xE5\xAF\x9F\xE5\xBA\x81\xE9\x81\x8B\xE8\xBB\xA2\xE5\x85\x8D\xE8\xA8\xB1\xE8\xA8\xBC\xE8\xAA\x8D\xE8\xA8\xBC\xE5\xB1\x80
            X509v3 CRL Distribution Points: 
                Full Name:
                  DirName:C = JP, O = Japanese Government, OU = National Police Agency, OU = Prefectural Public Safety Commissions for ICDL
    Signature Algorithm: sha256WithRSAEncryption
    Signature Value:
        4c:39:d6:e3:7b:ed:7d:4f:17:0b:e0:e9:46:93:d7:36:93:1a:
        4b:fb:92:b0:10:31:6b:d6:dc:e3:32:6b:ce:86:43:fc:82:73:
        d5:0d:1a:60:4d:88:0a:7c:79:c3:86:f3:bc:56:f3:3a:da:d2:
        e9:bf:f6:25:01:96:dc:33:f4:77:f3:23:92:24:47:0f:87:92:
        13:84:35:7f:e9:e3:52:a5:cf:2f:ad:d3:7f:b2:26:33:ce:86:
        83:fc:c6:df:ac:e5:ea:20:6f:34:fe:bb:84:70:af:11:ea:28:
        23:0a:6c:94:63:96:cd:c8:d4:02:16:e1:a7:09:98:15:3f:5f:
        e3:36:97:43:54:e6:39:8e:e9:7f:a3:19:47:82:9b:08:db:c8:
        8d:a6:ab:da:fb:5e:4f:c6:1e:1d:69:9f:6c:0c:9d:d8:74:7e:
        2f:ef:7a:61:d6:88:9e:13:80:50:4d:db:d5:e3:92:48:97:50:
        84:00:52:75:f9:16:a9:90:09:8e:af:55:48:94:9e:db:1d:45:
        cf:cd:63:19:3b:d0:15:94:af:27:28:11:bd:ca:5a:b9:bc:8d:
        b1:8a:93:5a:b2:4e:fd:2d:39:46:37:ac:d2:e9:bc:b5:59:b4:
        2d:92:20:c5:c5:fd:0b:f6:e3:ca:2c:d1:b3:54:ce:2c:87:94:
        55:99:d5:37
-----BEGIN CERTIFICATE-----
MIIGSDCCBTCgAwIBAgIIMTAwMDAwNzkwDQYJKoZIhvcNAQELBQAwZzELMAkGA1UE
BhMCSlAxHDAaBgNVBAoME0phcGFuZXNlIEdvdmVybm1lbnQxHzAdBgNVBAsMFk5h
dGlvbmFsIFBvbGljZSBBZ2VuY3kxGTAXBgNVBAsMEE5QQSBJQ0RMIFJvb3QgQ0Ew
HhcNMjMxMjA1MDgwMDAwWhcNMjgxMjA1MDc1OTU5WjCBnDELMAkGA1UEBhMCSlAx
HDAaBgNVBAoME0phcGFuZXNlIEdvdmVybm1lbnQxHzAdBgNVBAsMFk5hdGlvbmFs
IFBvbGljZSBBZ2VuY3kxNzA1BgNVBAsMLlByZWZlY3R1cmFsIFB1YmxpYyBTYWZl
dHkgQ29tbWlzc2lvbnMgZm9yIElDREwxFTATBgNVBAMMDE5paWdhdGEgUFBTQzCC
ASIwDQYJKoZIhvcNAQEBBQADggEPADCCAQoCggEBAJVT0bgihXZz2kdvBKMPtJoF
OaY/V/dNkJQcDAFj6STbrVxW+qELhKu7KJWwpqRkN/3dWWAJb4k2Iy/ZsdNyekox
dLFB/qUsb6phvRF5dUXkWznNAAYEavcPSe0W/DGfiGYQT7P8MgZ2urMinBp/roLz
N+EaPL/qhti0/gd3xPhgjk53gG8vfhCKxPBRb3zZEeHQqWtbsJEyWmDVt4QX+8jm
EhSC8DjA70r/pJ2VY5nxJB0oyA7ziViTdKNhExMwfqW2NtksV32J74OcCPrOkSnN
jnD571c4jMNFXqHn6ONaJ7YdMIy1criOkEYhUsE9VMIviwZxFNWis2/h08gGzE8C
AwEAAaOCAsAwggK8MIGYBgNVHSMEgZAwgY2AFBHNjmBER1dPT8vp58uhRt+6DlCL
oWukaTBnMQswCQYDVQQGEwJKUDEcMBoGA1UECgwTSmFwYW5lc2UgR292ZXJubWVu
dDEfMB0GA1UECwwWTmF0aW9uYWwgUG9saWNlIEFnZW5jeTEZMBcGA1UECwwQTlBB
IElDREwgUm9vdCBDQYIIMjAwMDAwMTYwHQYDVR0OBBYEFO8Vv0ji46XYSO3eKEo+
DlfNCRRwMA4GA1UdDwEB/wQEAwIGwDBABgNVHSABAf8ENjA0MDIGCyqDCIaOGAcF
AQEKMCMwIQYIKwYBBQUHAgEWFWh0dHA6Ly93d3cubnBhLmdvLmpwLzCBlQYDVR0R
BIGNMIGKpIGHMIGEMQswCQYDVQQGEwJKUDEYMBYGA1UECgwP5pel5pys5Zu95pS/
5bqcMRIwEAYDVQQLDAnorablr5/luoExJDAiBgNVBAsMG+mDvemBk+W6nOecjOWF
rOWuieWnlOWToeS8mjEhMB8GA1UEAwwY5paw5r2f55yM5YWs5a6J5aeU5ZOh5Lya
MHQGA1UdEgRtMGukaTBnMQswCQYDVQQGEwJKUDEYMBYGA1UECgwP5pel5pys5Zu9
5pS/5bqcMRIwEAYDVQQLDAnorablr5/luoExKjAoBgNVBAsMIeitpuWvn+W6gemB
i+i7ouWFjeioseiovOiqjeiovOWxgDCBnwYDVR0fBIGXMIGUMIGRoIGOoIGLpIGI
MIGFMQswCQYDVQQGEwJKUDEcMBoGA1UECgwTSmFwYW5lc2UgR292ZXJubWVudDEf
MB0GA1UECwwWTmF0aW9uYWwgUG9saWNlIEFnZW5jeTE3MDUGA1UECwwuUHJlZmVj
dHVyYWwgUHVibGljIFNhZmV0eSBDb21taXNzaW9ucyBmb3IgSUNETDANBgkqhkiG
9w0BAQsFAAOCAQEATDnW43vtfU8XC+DpRpPXNpMaS/uSsBAxa9bc4zJrzoZD/IJz
1Q0aYE2ICnx5w4bzvFbzOtrS6b/2JQGW3DP0d/MjkiRHD4eSE4Q1f+njUqXPL63T
f7ImM86Gg/zG36zl6iBvNP67hHCvEeooIwpslGOWzcjUAhbhpwmYFT9f4zaXQ1Tm
OY7pf6MZR4KbCNvIjaar2vteT8YeHWmfbAyd2HR+L+96YdaInhOAUE3b1eOSSJdQ
hABSdfkWqZAJjq9VSJSe2x1Fz81jGTvQFZSvJygRvcpaubyNsYqTWrJO/S05Rjes
0um8tVm0LZIgxcX9C/bjyizRs1TOLIeUVZnVNw==
-----END CERTIFICATE-----
