Certificate:
    Data:
        Version: 3 (0x2)
        Serial Number:
            01:32:91:52:00:00:00:7e
        Signature Algorithm: sha256WithRSAEncryption
        Issuer: C=JP, O=Japanese Government, OU=National Police Agency, OU=NPA ICDL Root CA
        Validity
            Not Before: Feb  2 05:30:36 2015 GMT
            Not After : Feb  1 14:59:59 2025 GMT
        Subject: C=JP, O=Japanese Government, OU=National Police Agency, OU=NPA ICDL Root CA
        Subject Public Key Info:
            Public Key Algorithm: rsaEncryption
                Public-Key: (2048 bit)
                Modulus:
                    00:dd:08:b6:b3:89:c9:c9:ac:5a:c5:2a:f0:bb:d6:
                    c0:62:90:a8:52:89:4a:55:09:0a:1c:b2:87:e5:98:
                    7c:ad:cc:c6:c7:d3:60:cc:27:e4:a4:82:31:5b:3c:
                    aa:9e:c6:5e:23:61:56:35:ee:1c:41:a4:26:6b:82:
                    ec:7a:52:1e:17:18:4f:d6:28:8c:b6:5d:9e:65:25:
                    18:f0:82:e9:a5:7c:6d:43:c7:cf:b0:69:4b:e3:f8:
                    76:a8:95:b5:3f:05:f5:06:33:8c:2f:bd:c7:c8:df:
                    7d:c5:b3:58:d7:1f:9f:7b:d0:e1:db:47:1e:41:4d:
                    26:84:68:59:d6:92:d0:c3:e1:65:b2:f5:17:a2:7d:
                    d4:70:0a:33:c5:0a:87:9e:51:b6:b3:02:44:f0:35:
                    a9:6f:1a:bc:ae:8a:4c:93:38:ae:26:c3:72:a3:44:
                    d2:18:ba:92:e4:a3:93:27:ee:5c:95:fc:71:63:01:
                    5b:8e:73:d8:f3:03:ff:35:c8:52:16:9f:3a:f1:5f:
                    29:94:f9:1c:f7:9f:90:db:24:0e:b9:30:f7:52:28:
                    45:72:6e:b4:7d:d5:71:5a:01:8c:d0:4e:56:39:14:
                    b6:85:17:17:de:21:21:8c:0a:f6:9b:f6:87:ed:94:
                    ab:29:a2:09:96:8a:44:d7:0a:bd:36:f3:f7:3d:a2:
                    95:59
                Exponent: 65537 (0x10001)
        X509v3 extensions:
            X509v3 Key Usage: critical
                Certificate Sign, CRL Sign
            X509v3 Subject Alternative Name: 
                DirName:/C=JP/O=\xE6\x97\xA5\xE6\x9C\xAC\xE5\x9B\xBD\xE6\x94\xBF\xE5\xBA\x9C/OU=\xE8\xAD\xA6\xE5\xAF\x9F\xE5\xBA\x81/OU=\xE8\xAD\xA6\xE5\xAF\x9F\xE5\xBA\x81\xE9\x81\x8B\xE8\xBB\xA2\xE5\x85\x8D\xE8\xA8\xB1\xE8\xA8\xBC\xE8\xAA\x8D\xE8\xA8\xBC\xE5\xB1\x80
            X509v3 Issuer Alternative Name: 
                DirName:/C=JP/O=\xE6\x97\xA5\xE6\x9C\xAC\xE5\x9B\xBD\xE6\x94\xBF\xE5\xBA\x9C/OU=\xE8\xAD\xA6\xE5\xAF\x9F\xE5\xBA\x81/OU=\xE8\xAD\xA6\xE5\xAF\x9F\xE5\xBA\x81\xE9\x81\x8B\xE8\xBB\xA2\xE5\x85\x8D\xE8\xA8\xB1\xE8\xA8\xBC\xE8\xAA\x8D\xE8\xA8\xBC\xE5\xB1\x80
            X509v3 CRL Distribution Points: 
                Full Name:
                  DirName:C = JP, O = Japanese Government, OU = National Police Agency, OU = NPA ICDL Root CA
            X509v3 Basic Constraints: critical
                CA:TRUE
            X509v3 Authority Key Identifier: 
                keyid:96:FD:C7:59:CC:80:F2:94:F9:1C:64:8D:81:52:33:FB:E7:C5:02:BB
                DirName:/C=JP/O=Japanese Government/OU=National Police Agency/OU=NPA ICDL Root CA
                serial:01:32:91:52:00:00:00:7E
            X509v3 Subject Key Identifier: 
                96:FD:C7:59:CC:80:F2:94:F9:1C:64:8D:81:52:33:FB:E7:C5:02:BB
    Signature Algorithm: sha256WithRSAEncryption
    Signature Value:
        37:c3:e8:c4:5d:a8:eb:ef:b8:17:fd:17:90:46:09:91:e5:11:
        f4:36:0f:a2:3e:64:09:99:3a:98:62:7a:ab:82:05:89:da:32:
        0e:42:ad:fb:a2:cb:ed:3b:43:50:67:70:bd:ab:0c:6e:29:e2:
        e7:b2:8a:12:08:52:e8:56:3d:3a:dc:06:aa:8e:b1:65:48:42:
        f5:f8:29:c9:d4:9e:c3:91:34:67:4f:e9:76:85:67:4c:d4:d7:
        db:27:70:e1:12:32:8a:48:97:a2:5a:6e:43:bd:64:6a:4d:a6:
        e4:8f:4b:b0:15:50:df:97:24:43:ed:36:98:a4:5d:78:81:31:
        5f:e0:fd:8b:07:dd:33:46:b1:46:d3:d8:b1:4a:5b:d0:86:d0:
        41:04:d5:c8:d4:79:f6:e0:98:a6:d7:6a:95:4a:44:e2:b6:79:
        f8:9c:1a:43:b4:8c:2e:d4:8d:18:54:d3:a1:01:b2:ce:15:20:
        0e:36:54:13:be:39:dc:87:08:37:68:8c:ae:8e:ab:a9:d3:9f:
        ca:a1:0c:cc:35:e0:35:bd:cc:b7:dc:e6:54:97:97:9c:35:cd:
        3a:81:52:bf:e5:b6:44:46:f3:b9:63:db:a0:35:5a:97:17:97:
        eb:1f:40:34:a9:e9:24:9e:56:3a:0a:0b:ef:5a:2e:8e:8e:b0:
        bd:9c:b0:44
-----BEGIN CERTIFICATE-----
MIIFmTCCBIGgAwIBAgIIATKRUgAAAH4wDQYJKoZIhvcNAQELBQAwZzELMAkGA1UE
BhMCSlAxHDAaBgNVBAoME0phcGFuZXNlIEdvdmVybm1lbnQxHzAdBgNVBAsMFk5h
dGlvbmFsIFBvbGljZSBBZ2VuY3kxGTAXBgNVBAsMEE5QQSBJQ0RMIFJvb3QgQ0Ew
HhcNMTUwMjAyMDUzMDM2WhcNMjUwMjAxMTQ1OTU5WjBnMQswCQYDVQQGEwJKUDEc
MBoGA1UECgwTSmFwYW5lc2UgR292ZXJubWVudDEfMB0GA1UECwwWTmF0aW9uYWwg
UG9saWNlIEFnZW5jeTEZMBcGA1UECwwQTlBBIElDREwgUm9vdCBDQTCCASIwDQYJ
KoZIhvcNAQEBBQADggEPADCCAQoCggEBAN0ItrOJycmsWsUq8LvWwGKQqFKJSlUJ
Chyyh+WYfK3MxsfTYMwn5KSCMVs8qp7GXiNhVjXuHEGkJmuC7HpSHhcYT9YojLZd
nmUlGPCC6aV8bUPHz7BpS+P4dqiVtT8F9QYzjC+9x8jffcWzWNcfn3vQ4dtHHkFN
JoRoWdaS0MPhZbL1F6J91HAKM8UKh55RtrMCRPA1qW8avK6KTJM4ribDcqNE0hi6
kuSjkyfuXJX8cWMBW45z2PMD/zXIUhafOvFfKZT5HPefkNskDrkw91IoRXJutH3V
cVoBjNBOVjkUtoUXF94hIYwK9pv2h+2UqymiCZaKRNcKvTbz9z2ilVkCAwEAAaOC
AkcwggJDMA4GA1UdDwEB/wQEAwIBBjB0BgNVHREEbTBrpGkwZzELMAkGA1UEBhMC
SlAxGDAWBgNVBAoMD+aXpeacrOWbveaUv+W6nDESMBAGA1UECwwJ6K2m5a+f5bqB
MSowKAYDVQQLDCHorablr5/luoHpgYvou6LlhY3oqLHoqLzoqo3oqLzlsYAwdAYD
VR0SBG0wa6RpMGcxCzAJBgNVBAYTAkpQMRgwFgYDVQQKDA/ml6XmnKzlm73mlL/l
upwxEjAQBgNVBAsMCeitpuWvn+W6gTEqMCgGA1UECwwh6K2m5a+f5bqB6YGL6Lui
5YWN6Kix6Ki86KqN6Ki85bGAMHoGA1UdHwRzMHEwb6BtoGukaTBnMQswCQYDVQQG
EwJKUDEcMBoGA1UECgwTSmFwYW5lc2UgR292ZXJubWVudDEfMB0GA1UECwwWTmF0
aW9uYWwgUG9saWNlIEFnZW5jeTEZMBcGA1UECwwQTlBBIElDREwgUm9vdCBDQTAP
BgNVHRMBAf8EBTADAQH/MIGYBgNVHSMEgZAwgY2AFJb9x1nMgPKU+RxkjYFSM/vn
xQK7oWukaTBnMQswCQYDVQQGEwJKUDEcMBoGA1UECgwTSmFwYW5lc2UgR292ZXJu
bWVudDEfMB0GA1UECwwWTmF0aW9uYWwgUG9saWNlIEFnZW5jeTEZMBcGA1UECwwQ
TlBBIElDREwgUm9vdCBDQYIIATKRUgAAAH4wHQYDVR0OBBYEFJb9x1nMgPKU+Rxk
jYFSM/vnxQK7MA0GCSqGSIb3DQEBCwUAA4IBAQA3w+jEXajr77gX/ReQRgmR5RH0
Ng+iPmQJmTqYYnqrggWJ2jIOQq37osvtO0NQZ3C9qwxuKeLnsooSCFLoVj063Aaq
jrFlSEL1+CnJ1J7DkTRnT+l2hWdM1NfbJ3DhEjKKSJeiWm5DvWRqTabkj0uwFVDf
lyRD7TaYpF14gTFf4P2LB90zRrFG09ixSlvQhtBBBNXI1Hn24Jim12qVSkTitnn4
nBpDtIwu1I0YVNOhAbLOFSAONlQTvjnchwg3aIyujqup05/KoQzMNeA1vcy33OZU
l5ecNc06gVK/5bZERvO5Y9ugNVqXF5frH0A0qekknlY6CgvvWi6OjrC9nLBE
-----END CERTIFICATE-----
