Certificate:
    Data:
        Version: 3 (0x2)
        Serial Number:
            32:30:30:30:30:30:31:36
        Signature Algorithm: sha256WithRSAEncryption
        Issuer: C=JP, O=Japanese Government, OU=National Police Agency, OU=NPA ICDL Root CA
        Validity
            Not Before: Jan 28 15:00:00 2020 GMT
            Not After : Jan 28 14:59:59 2030 GMT
        Subject: C=JP, O=Japanese Government, OU=National Police Agency, OU=NPA ICDL Root CA
        Subject Public Key Info:
            Public Key Algorithm: rsaEncryption
                Public-Key: (2048 bit)
                Modulus:
                    00:ad:3b:01:4c:2d:7e:40:a6:8b:c7:00:3f:3b:a6:
                    99:80:33:19:b1:74:8b:9b:46:d9:cd:9e:20:75:7d:
                    fb:67:03:78:7d:08:07:da:8f:64:37:32:c3:d3:41:
                    17:6c:53:9c:3a:f0:89:60:5a:07:62:bb:bf:0f:3a:
                    ce:7a:38:b1:7d:c1:03:3f:35:72:45:3d:3d:1e:3e:
                    a1:57:65:03:e0:88:92:ca:5a:a7:ee:69:1c:5c:5d:
                    41:5c:30:1d:4a:66:54:32:56:85:19:81:ca:16:24:
                    cf:20:1f:d9:54:6d:83:56:82:43:f0:3f:c6:0b:7b:
                    65:8c:cc:3f:11:1f:ab:11:04:af:81:34:bb:09:3d:
                    8c:59:ad:2b:4c:95:1e:8e:53:ab:fa:81:4a:c7:6a:
                    59:f8:95:65:c3:16:35:50:c5:9b:26:c6:67:a7:5d:
                    e5:9f:f8:21:98:a8:87:4f:ff:de:a8:9a:46:5c:a0:
                    8d:a3:6d:30:97:6d:93:28:46:ef:23:37:23:6c:5d:
                    65:47:21:80:ed:ba:50:9a:a5:46:80:4d:47:12:42:
                    10:6e:a1:99:d7:e8:b4:85:0c:6d:25:d1:b3:9c:d5:
                    89:28:bf:a3:00:93:6d:cf:3d:de:0d:98:d1:1f:75:
                    63:e3:c7:f3:20:72:12:de:dd:f9:02:62:8f:84:4c:
                    73:bf
                Exponent: 65537 (0x10001)
        X509v3 extensions:
            X509v3 Subject Key Identifier: 
                11:CD:8E:60:44:47:57:4F:4F:CB:E9:E7:CB:A1:46:DF:BA:0E:50:8B
            X509v3 Key Usage: critical
                Certificate Sign, CRL Sign
            X509v3 Subject Alternative Name: 
                DirName:/C=JP/O=\xE6\x97\xA5\xE6\x9C\xAC\xE5\x9B\xBD\xE6\x94\xBF\xE5\xBA\x9C/OU=\xE8\xAD\xA6\xE5\xAF\x9F\xE5\xBA\x81/OU=\xE8\xAD\xA6\xE5\xAF\x9F\xE5\xBA\x81\xE9\x81\x8B\xE8\xBB\xA2\xE5\x85\x8D\xE8\xA8\xB1\xE8\xA8\xBC\xE8\xAA\x8D\xE8\xA8\xBC\xE5\xB1\x80
            X509v3 Issuer Alternative Name: 
                DirName:/C=JP/O=\xE6\x97\xA5\xE6\x9C\xAC\xE5\x9B\xBD\xE6\x94\xBF\xE5\xBA\x9C/OU=\xE8\xAD\xA6\xE5\xAF\x9F\xE5\xBA\x81/OU=\xE8\xAD\xA6\xE5\xAF\x9F\xE5\xBA\x81\xE9\x81\x8B\xE8\xBB\xA2\xE5\x85\x8D\xE8\xA8\xB1\xE8\xA8\xBC\xE8\xAA\x8D\xE8\xA8\xBC\xE5\xB1\x80
            X509v3 CRL Distribution Points: 
                Full Name:
                  DirName:C = JP, O = Japanese Government, OU = National Police Agency, OU = NPA ICDL Root CA
            X509v3 Basic Constraints: critical
                CA:TRUE
            X509v3 Authority Key Identifier: 
                keyid:11:CD:8E:60:44:47:57:4F:4F:CB:E9:E7:CB:A1:46:DF:BA:0E:50:8B
                DirName:/C=JP/O=Japanese Government/OU=National Police Agency/OU=NPA ICDL Root CA
                serial:32:30:30:30:30:30:31:36
    Signature Algorithm: sha256WithRSAEncryption
    Signature Value:
        92:1b:d0:ba:c5:e6:c9:b0:83:0f:58:01:27:62:91:5c:0d:12:
        2d:bc:aa:db:da:ce:01:a5:05:e5:80:cb:92:5a:19:ca:f0:f6:
        ae:e1:3d:67:d8:3d:00:4e:d9:e9:5f:91:0e:21:39:92:c2:2e:
        46:57:08:98:00:68:1e:5b:47:46:3d:be:5c:f6:58:5d:fd:2a:
        ba:a8:db:e6:8b:a0:a5:3a:d5:8d:34:4d:79:a5:74:64:ff:57:
        ee:b7:fa:3b:81:03:20:a5:9d:41:6d:25:b0:3d:d0:f4:80:55:
        a2:6f:72:06:52:c6:95:87:91:81:64:08:b2:cf:d1:08:df:fb:
        9b:a4:eb:af:4a:d6:62:d8:f5:81:1e:11:63:c3:97:4f:8d:36:
        bb:bc:f7:33:52:79:ee:5a:5a:c4:47:44:70:1a:4b:c3:e2:d5:
        a7:5e:84:bc:a8:0d:e2:60:31:16:80:de:03:f7:74:8c:11:2f:
        18:9d:62:c2:8c:95:6d:d5:68:15:0a:08:c6:d4:93:e0:1e:1a:
        f6:62:3c:2f:29:e0:7f:da:9c:43:07:60:4b:2d:c1:f3:fb:5f:
        cb:1c:e8:38:2f:95:9f:cf:88:d7:25:8c:83:f6:a6:55:75:52:
        04:0a:a7:1d:af:d5:d3:81:3b:81:28:28:50:e4:9b:43:46:34:
        c2:77:a8:00
-----BEGIN CERTIFICATE-----
MIIFmTCCBIGgAwIBAgIIMjAwMDAwMTYwDQYJKoZIhvcNAQELBQAwZzELMAkGA1UE
BhMCSlAxHDAaBgNVBAoME0phcGFuZXNlIEdvdmVybm1lbnQxHzAdBgNVBAsMFk5h
dGlvbmFsIFBvbGljZSBBZ2VuY3kxGTAXBgNVBAsMEE5QQSBJQ0RMIFJvb3QgQ0Ew
HhcNMjAwMTI4MTUwMDAwWhcNMzAwMTI4MTQ1OTU5WjBnMQswCQYDVQQGEwJKUDEc
MBoGA1UECgwTSmFwYW5lc2UgR292ZXJubWVudDEfMB0GA1UECwwWTmF0aW9uYWwg
UG9saWNlIEFnZW5jeTEZMBcGA1UECwwQTlBBIElDREwgUm9vdCBDQTCCASIwDQYJ
KoZIhvcNAQEBBQADggEPADCCAQoCggEBAK07AUwtfkCmi8cAPzummYAzGbF0i5tG
2c2eIHV9+2cDeH0IB9qPZDcyw9NBF2xTnDrwiWBaB2K7vw86zno4sX3BAz81ckU9
PR4+oVdlA+CIkspap+5pHFxdQVwwHUpmVDJWhRmByhYkzyAf2VRtg1aCQ/A/xgt7
ZYzMPxEfqxEEr4E0uwk9jFmtK0yVHo5Tq/qBSsdqWfiVZcMWNVDFmybGZ6dd5Z/4
IZioh0//3qiaRlygjaNtMJdtkyhG7yM3I2xdZUchgO26UJqlRoBNRxJCEG6hmdfo
tIUMbSXRs5zViSi/owCTbc893g2Y0R91Y+PH8yByEt7d+QJij4RMc78CAwEAAaOC
AkcwggJDMB0GA1UdDgQWBBQRzY5gREdXT0/L6efLoUbfug5QizAOBgNVHQ8BAf8E
BAMCAQYwdAYDVR0RBG0wa6RpMGcxCzAJBgNVBAYTAkpQMRgwFgYDVQQKDA/ml6Xm
nKzlm73mlL/lupwxEjAQBgNVBAsMCeitpuWvn+W6gTEqMCgGA1UECwwh6K2m5a+f
5bqB6YGL6Lui5YWN6Kix6Ki86KqN6Ki85bGAMHQGA1UdEgRtMGukaTBnMQswCQYD
VQQGEwJKUDEYMBYGA1UECgwP5pel5pys5Zu95pS/5bqcMRIwEAYDVQQLDAnorabl
r5/luoExKjAoBgNVBAsMIeitpuWvn+W6gemBi+i7ouWFjeioseiovOiqjeiovOWx
gDB6BgNVHR8EczBxMG+gbaBrpGkwZzELMAkGA1UEBhMCSlAxHDAaBgNVBAoME0ph
cGFuZXNlIEdvdmVybm1lbnQxHzAdBgNVBAsMFk5hdGlvbmFsIFBvbGljZSBBZ2Vu
Y3kxGTAXBgNVBAsMEE5QQSBJQ0RMIFJvb3QgQ0EwDwYDVR0TAQH/BAUwAwEB/zCB
mAYDVR0jBIGQMIGNgBQRzY5gREdXT0/L6efLoUbfug5Qi6FrpGkwZzELMAkGA1UE
BhMCSlAxHDAaBgNVBAoME0phcGFuZXNlIEdvdmVybm1lbnQxHzAdBgNVBAsMFk5h
dGlvbmFsIFBvbGljZSBBZ2VuY3kxGTAXBgNVBAsMEE5QQSBJQ0RMIFJvb3QgQ0GC
CDIwMDAwMDE2MA0GCSqGSIb3DQEBCwUAA4IBAQCSG9C6xebJsIMPWAEnYpFcDRIt
vKrb2s4BpQXlgMuSWhnK8Pau4T1n2D0ATtnpX5EOITmSwi5GVwiYAGgeW0dGPb5c
9lhd/Sq6qNvmi6ClOtWNNE15pXRk/1fut/o7gQMgpZ1BbSWwPdD0gFWib3IGUsaV
h5GBZAiyz9EI3/ubpOuvStZi2PWBHhFjw5dPjTa7vPczUnnuWlrER0RwGkvD4tWn
XoS8qA3iYDEWgN4D93SMES8YnWLCjJVt1WgVCgjG1JPgHhr2YjwvKeB/2pxDB2BL
LcHz+1/LHOg4L5Wfz4jXJYyD9qZVdVIECqcdr9XTgTuBKChQ5JtDRjTCd6gA
-----END CERTIFICATE-----
