Certificate:
    Data:
        Version: 3 (0x2)
        Serial Number:
            32:30:30:30:30:30:31:38
        Signature Algorithm: sha256WithRSAEncryption
        Issuer: C=JP, O=Japanese Government, OU=National Police Agency, OU=NPA ICDL Root CA
        Validity
            Not Before: Jan 28 15:00:00 2020 GMT
            Not After : Feb  1 14:59:59 2025 GMT
        Subject: C=JP, O=Japanese Government, OU=National Police Agency, OU=NPA ICDL Root CA
        Subject Public Key Info:
            Public Key Algorithm: rsaEncryption
                Public-Key: (2048 bit)
                Modulus:
                    00:ad:3b:01:4c:2d:7e:40:a6:8b:c7:00:3f:3b:a6:
                    99:80:33:19:b1:74:8b:9b:46:d9:cd:9e:20:75:7d:
                    fb:67:03:78:7d:08:07:da:8f:64:37:32:c3:d3:41:
                    17:6c:53:9c:3a:f0:89:60:5a:07:62:bb:bf:0f:3a:
                    ce:7a:38:b1:7d:c1:03:3f:35:72:45:3d:3d:1e:3e:
                    a1:57:65:03:e0:88:92:ca:5a:a7:ee:69:1c:5c:5d:
                    41:5c:30:1d:4a:66:54:32:56:85:19:81:ca:16:24:
                    cf:20:1f:d9:54:6d:83:56:82:43:f0:3f:c6:0b:7b:
                    65:8c:cc:3f:11:1f:ab:11:04:af:81:34:bb:09:3d:
                    8c:59:ad:2b:4c:95:1e:8e:53:ab:fa:81:4a:c7:6a:
                    59:f8:95:65:c3:16:35:50:c5:9b:26:c6:67:a7:5d:
                    e5:9f:f8:21:98:a8:87:4f:ff:de:a8:9a:46:5c:a0:
                    8d:a3:6d:30:97:6d:93:28:46:ef:23:37:23:6c:5d:
                    65:47:21:80:ed:ba:50:9a:a5:46:80:4d:47:12:42:
                    10:6e:a1:99:d7:e8:b4:85:0c:6d:25:d1:b3:9c:d5:
                    89:28:bf:a3:00:93:6d:cf:3d:de:0d:98:d1:1f:75:
                    63:e3:c7:f3:20:72:12:de:dd:f9:02:62:8f:84:4c:
                    73:bf
                Exponent: 65537 (0x10001)
        X509v3 extensions:
            X509v3 Authority Key Identifier: 
                keyid:96:FD:C7:59:CC:80:F2:94:F9:1C:64:8D:81:52:33:FB:E7:C5:02:BB
                DirName:/C=JP/O=Japanese Government/OU=National Police Agency/OU=NPA ICDL Root CA
                serial:01:32:91:52:00:00:00:7E
            X509v3 Subject Key Identifier: 
                11:CD:8E:60:44:47:57:4F:4F:CB:E9:E7:CB:A1:46:DF:BA:0E:50:8B
            X509v3 Key Usage: critical
                Certificate Sign, CRL Sign
            X509v3 Certificate Policies: 
                Policy: X509v3 Any Policy
            X509v3 Subject Alternative Name: 
                DirName:/C=JP/O=\xE6\x97\xA5\xE6\x9C\xAC\xE5\x9B\xBD\xE6\x94\xBF\xE5\xBA\x9C/OU=\xE8\xAD\xA6\xE5\xAF\x9F\xE5\xBA\x81/OU=\xE8\xAD\xA6\xE5\xAF\x9F\xE5\xBA\x81\xE9\x81\x8B\xE8\xBB\xA2\xE5\x85\x8D\xE8\xA8\xB1\xE8\xA8\xBC\xE8\xAA\x8D\xE8\xA8\xBC\xE5\xB1\x80
            X509v3 Issuer Alternative Name: 
                DirName:/C=JP/O=\xE6\x97\xA5\xE6\x9C\xAC\xE5\x9B\xBD\xE6\x94\xBF\xE5\xBA\x9C/OU=\xE8\xAD\xA6\xE5\xAF\x9F\xE5\xBA\x81/OU=\xE8\xAD\xA6\xE5\xAF\x9F\xE5\xBA\x81\xE9\x81\x8B\xE8\xBB\xA2\xE5\x85\x8D\xE8\xA8\xB1\xE8\xA8\xBC\xE8\xAA\x8D\xE8\xA8\xBC\xE5\xB1\x80
            X509v3 CRL Distribution Points: 
                Full Name:
                  DirName:C = JP, O = Japanese Government, OU = National Police Agency, OU = NPA ICDL Root CA
            X509v3 Basic Constraints: critical
                CA:TRUE
    Signature Algorithm: sha256WithRSAEncryption
    Signature Value:
        ab:40:fd:27:fb:43:2f:f2:f7:24:89:90:0e:03:8e:53:ba:91:
        f4:2b:40:76:b3:6e:0a:7a:41:5a:79:e8:66:d8:ba:90:27:cd:
        42:1c:aa:30:ec:f9:06:56:06:ec:70:93:81:28:08:c5:f2:ab:
        72:41:42:fb:37:d9:f5:f0:ee:cb:43:cc:8f:48:5c:56:53:6d:
        ed:a3:9b:18:ed:fb:8f:2d:d7:8a:aa:ed:5b:78:e6:85:c7:bf:
        78:94:f7:66:d4:5a:1f:ad:64:e7:a8:01:4a:97:de:59:9d:00:
        1b:7e:f7:2c:97:1f:7a:98:92:4a:f0:99:e6:95:fb:8a:60:47:
        fc:9e:82:4c:89:c6:27:df:5d:a7:1a:c3:9a:2e:f9:d7:1e:e9:
        8b:b4:2c:44:3f:8b:09:41:91:5c:90:0d:e9:86:91:73:f7:08:
        5c:d9:df:01:0d:01:90:33:d1:f8:5f:ee:7b:a9:59:f2:e1:6d:
        f9:98:7f:d8:af:2b:f5:bb:16:ec:67:92:9c:c4:ac:45:0b:ef:
        2e:6f:f4:45:c0:6b:9f:f8:f9:96:c1:7b:06:8a:2b:21:c2:fa:
        80:0e:ad:86:c2:04:b2:8c:4a:71:11:a6:26:0c:97:57:f6:27:
        eb:41:98:b0:97:1f:e3:6e:c3:0e:bc:32:0b:cc:82:90:65:04:
        53:47:52:a1
-----BEGIN CERTIFICATE-----
MIIFrDCCBJSgAwIBAgIIMjAwMDAwMTgwDQYJKoZIhvcNAQELBQAwZzELMAkGA1UE
BhMCSlAxHDAaBgNVBAoME0phcGFuZXNlIEdvdmVybm1lbnQxHzAdBgNVBAsMFk5h
dGlvbmFsIFBvbGljZSBBZ2VuY3kxGTAXBgNVBAsMEE5QQSBJQ0RMIFJvb3QgQ0Ew
HhcNMjAwMTI4MTUwMDAwWhcNMjUwMjAxMTQ1OTU5WjBnMQswCQYDVQQGEwJKUDEc
MBoGA1UECgwTSmFwYW5lc2UgR292ZXJubWVudDEfMB0GA1UECwwWTmF0aW9uYWwg
UG9saWNlIEFnZW5jeTEZMBcGA1UECwwQTlBBIElDREwgUm9vdCBDQTCCASIwDQYJ
KoZIhvcNAQEBBQADggEPADCCAQoCggEBAK07AUwtfkCmi8cAPzummYAzGbF0i5tG
2c2eIHV9+2cDeH0IB9qPZDcyw9NBF2xTnDrwiWBaB2K7vw86zno4sX3BAz81ckU9
PR4+oVdlA+CIkspap+5pHFxdQVwwHUpmVDJWhRmByhYkzyAf2VRtg1aCQ/A/xgt7
ZYzMPxEfqxEEr4E0uwk9jFmtK0yVHo5Tq/qBSsdqWfiVZcMWNVDFmybGZ6dd5Z/4
IZioh0//3qiaRlygjaNtMJdtkyhG7yM3I2xdZUchgO26UJqlRoBNRxJCEG6hmdfo
tIUMbSXRs5zViSi/owCTbc893g2Y0R91Y+PH8yByEt7d+QJij4RMc78CAwEAAaOC
AlowggJWMIGYBgNVHSMEgZAwgY2AFJb9x1nMgPKU+RxkjYFSM/vnxQK7oWukaTBn
MQswCQYDVQQGEwJKUDEcMBoGA1UECgwTSmFwYW5lc2UgR292ZXJubWVudDEfMB0G
A1UECwwWTmF0aW9uYWwgUG9saWNlIEFnZW5jeTEZMBcGA1UECwwQTlBBIElDREwg
Um9vdCBDQYIIATKRUgAAAH4wHQYDVR0OBBYEFBHNjmBER1dPT8vp58uhRt+6DlCL
MA4GA1UdDwEB/wQEAwIBBjARBgNVHSAECjAIMAYGBFUdIAAwdAYDVR0RBG0wa6Rp
MGcxCzAJBgNVBAYTAkpQMRgwFgYDVQQKDA/ml6XmnKzlm73mlL/lupwxEjAQBgNV
BAsMCeitpuWvn+W6gTEqMCgGA1UECwwh6K2m5a+f5bqB6YGL6Lui5YWN6Kix6Ki8
6KqN6Ki85bGAMHQGA1UdEgRtMGukaTBnMQswCQYDVQQGEwJKUDEYMBYGA1UECgwP
5pel5pys5Zu95pS/5bqcMRIwEAYDVQQLDAnorablr5/luoExKjAoBgNVBAsMIeit
puWvn+W6gemBi+i7ouWFjeioseiovOiqjeiovOWxgDB6BgNVHR8EczBxMG+gbaBr
pGkwZzELMAkGA1UEBhMCSlAxHDAaBgNVBAoME0phcGFuZXNlIEdvdmVybm1lbnQx
HzAdBgNVBAsMFk5hdGlvbmFsIFBvbGljZSBBZ2VuY3kxGTAXBgNVBAsMEE5QQSBJ
Q0RMIFJvb3QgQ0EwDwYDVR0TAQH/BAUwAwEB/zANBgkqhkiG9w0BAQsFAAOCAQEA
q0D9J/tDL/L3JImQDgOOU7qR9CtAdrNuCnpBWnnoZti6kCfNQhyqMOz5BlYG7HCT
gSgIxfKrckFC+zfZ9fDuy0PMj0hcVlNt7aObGO37jy3XiqrtW3jmhce/eJT3ZtRa
H61k56gBSpfeWZ0AG373LJcfepiSSvCZ5pX7imBH/J6CTInGJ99dpxrDmi751x7p
i7QsRD+LCUGRXJAN6YaRc/cIXNnfAQ0BkDPR+F/ue6lZ8uFt+Zh/2K8r9bsW7GeS
nMSsRQvvLm/0RcBrn/j5lsF7BoorIcL6gA6thsIEsoxKcRGmJgyXV/Yn60GYsJcf
427DDrwyC8yCkGUEU0dSoQ==
-----END CERTIFICATE-----
