Certificate:
    Data:
        Version: 3 (0x2)
        Serial Number:
            32:30:30:30:30:30:31:37
        Signature Algorithm: sha256WithRSAEncryption
        Issuer: C=JP, O=Japanese Government, OU=National Police Agency, OU=NPA ICDL Root CA
        Validity
            Not Before: Feb  2 05:30:36 2015 GMT
            Not After : Feb  1 14:59:59 2025 GMT
        Subject: C=JP, O=Japanese Government, OU=National Police Agency, OU=NPA ICDL Root CA
        Subject Public Key Info:
            Public Key Algorithm: rsaEncryption
                Public-Key: (2048 bit)
                Modulus:
                    00:dd:08:b6:b3:89:c9:c9:ac:5a:c5:2a:f0:bb:d6:
                    c0:62:90:a8:52:89:4a:55:09:0a:1c:b2:87:e5:98:
                    7c:ad:cc:c6:c7:d3:60:cc:27:e4:a4:82:31:5b:3c:
                    aa:9e:c6:5e:23:61:56:35:ee:1c:41:a4:26:6b:82:
                    ec:7a:52:1e:17:18:4f:d6:28:8c:b6:5d:9e:65:25:
                    18:f0:82:e9:a5:7c:6d:43:c7:cf:b0:69:4b:e3:f8:
                    76:a8:95:b5:3f:05:f5:06:33:8c:2f:bd:c7:c8:df:
                    7d:c5:b3:58:d7:1f:9f:7b:d0:e1:db:47:1e:41:4d:
                    26:84:68:59:d6:92:d0:c3:e1:65:b2:f5:17:a2:7d:
                    d4:70:0a:33:c5:0a:87:9e:51:b6:b3:02:44:f0:35:
                    a9:6f:1a:bc:ae:8a:4c:93:38:ae:26:c3:72:a3:44:
                    d2:18:ba:92:e4:a3:93:27:ee:5c:95:fc:71:63:01:
                    5b:8e:73:d8:f3:03:ff:35:c8:52:16:9f:3a:f1:5f:
                    29:94:f9:1c:f7:9f:90:db:24:0e:b9:30:f7:52:28:
                    45:72:6e:b4:7d:d5:71:5a:01:8c:d0:4e:56:39:14:
                    b6:85:17:17:de:21:21:8c:0a:f6:9b:f6:87:ed:94:
                    ab:29:a2:09:96:8a:44:d7:0a:bd:36:f3:f7:3d:a2:
                    95:59
                Exponent: 65537 (0x10001)
        X509v3 extensions:
            X509v3 Authority Key Identifier: 
                keyid:11:CD:8E:60:44:47:57:4F:4F:CB:E9:E7:CB:A1:46:DF:BA:0E:50:8B
                DirName:/C=JP/O=Japanese Government/OU=National Police Agency/OU=NPA ICDL Root CA
                serial:32:30:30:30:30:30:31:36
            X509v3 Subject Key Identifier: 
                96:FD:C7:59:CC:80:F2:94:F9:1C:64:8D:81:52:33:FB:E7:C5:02:BB
            X509v3 Key Usage: critical
                Certificate Sign, CRL Sign
            X509v3 Certificate Policies: 
                Policy: X509v3 Any Policy
            X509v3 Subject Alternative Name: 
                DirName:/C=JP/O=\xE6\x97\xA5\xE6\x9C\xAC\xE5\x9B\xBD\xE6\x94\xBF\xE5\xBA\x9C/OU=\xE8\xAD\xA6\xE5\xAF\x9F\xE5\xBA\x81/OU=\xE8\xAD\xA6\xE5\xAF\x9F\xE5\xBA\x81\xE9\x81\x8B\xE8\xBB\xA2\xE5\x85\x8D\xE8\xA8\xB1\xE8\xA8\xBC\xE8\xAA\x8D\xE8\xA8\xBC\xE5\xB1\x80
            X509v3 Issuer Alternative Name: 
                DirName:/C=JP/O=\xE6\x97\xA5\xE6\x9C\xAC\xE5\x9B\xBD\xE6\x94\xBF\xE5\xBA\x9C/OU=\xE8\xAD\xA6\xE5\xAF\x9F\xE5\xBA\x81/OU=\xE8\xAD\xA6\xE5\xAF\x9F\xE5\xBA\x81\xE9\x81\x8B\xE8\xBB\xA2\xE5\x85\x8D\xE8\xA8\xB1\xE8\xA8\xBC\xE8\xAA\x8D\xE8\xA8\xBC\xE5\xB1\x80
            X509v3 CRL Distribution Points: 
                Full Name:
                  DirName:C = JP, O = Japanese Government, OU = National Police Agency, OU = NPA ICDL Root CA
            X509v3 Basic Constraints: critical
                CA:TRUE
    Signature Algorithm: sha256WithRSAEncryption
    Signature Value:
        38:16:d3:11:f4:74:c8:e2:56:de:be:e7:1b:b6:a7:c2:68:7d:
        a4:19:1d:60:f7:bb:64:41:30:a0:ed:6d:5e:8d:b7:43:67:77:
        3d:f5:29:68:6a:a0:6a:cb:50:f8:3c:6c:a8:bf:3a:c5:6f:1a:
        9d:a1:cb:75:c6:14:60:b5:7a:0c:2f:e7:42:d4:53:fe:1f:71:
        96:06:3b:1d:f3:e1:44:84:9c:79:9f:2e:c6:1d:41:a4:87:e1:
        ea:1e:0d:82:59:ad:b2:8f:e1:b6:08:d4:f2:a2:66:48:86:62:
        9e:d8:74:cd:9f:cc:99:65:8d:45:d1:ec:79:7a:6e:61:b4:21:
        26:cf:7b:b6:ae:05:41:0d:87:99:83:b8:87:fe:a1:09:9c:56:
        56:26:bc:68:9d:89:0d:ba:c1:02:0b:e5:56:5b:98:0a:b3:81:
        5b:f3:dc:06:6e:16:a5:b5:ed:03:75:92:ae:2c:31:45:89:06:
        76:77:8d:b5:f7:eb:b7:a5:5e:1c:d5:cb:0b:e5:ac:e9:c1:00:
        98:08:67:aa:f8:6b:65:a3:9d:13:c9:c4:43:85:85:6c:70:76:
        6e:cc:35:e3:df:0e:19:8f:0b:0d:4f:e0:98:ad:97:cd:5c:79:
        5b:eb:d6:40:bb:ec:1b:b1:04:2b:35:12:62:a9:55:08:cb:73:
        93:94:8e:a7
-----BEGIN CERTIFICATE-----
MIIFrDCCBJSgAwIBAgIIMjAwMDAwMTcwDQYJKoZIhvcNAQELBQAwZzELMAkGA1UE
BhMCSlAxHDAaBgNVBAoME0phcGFuZXNlIEdvdmVybm1lbnQxHzAdBgNVBAsMFk5h
dGlvbmFsIFBvbGljZSBBZ2VuY3kxGTAXBgNVBAsMEE5QQSBJQ0RMIFJvb3QgQ0Ew
HhcNMTUwMjAyMDUzMDM2WhcNMjUwMjAxMTQ1OTU5WjBnMQswCQYDVQQGEwJKUDEc
MBoGA1UECgwTSmFwYW5lc2UgR292ZXJubWVudDEfMB0GA1UECwwWTmF0aW9uYWwg
UG9saWNlIEFnZW5jeTEZMBcGA1UECwwQTlBBIElDREwgUm9vdCBDQTCCASIwDQYJ
KoZIhvcNAQEBBQADggEPADCCAQoCggEBAN0ItrOJycmsWsUq8LvWwGKQqFKJSlUJ
Chyyh+WYfK3MxsfTYMwn5KSCMVs8qp7GXiNhVjXuHEGkJmuC7HpSHhcYT9YojLZd
nmUlGPCC6aV8bUPHz7BpS+P4dqiVtT8F9QYzjC+9x8jffcWzWNcfn3vQ4dtHHkFN
JoRoWdaS0MPhZbL1F6J91HAKM8UKh55RtrMCRPA1qW8avK6KTJM4ribDcqNE0hi6
kuSjkyfuXJX8cWMBW45z2PMD/zXIUhafOvFfKZT5HPefkNskDrkw91IoRXJutH3V
cVoBjNBOVjkUtoUXF94hIYwK9pv2h+2UqymiCZaKRNcKvTbz9z2ilVkCAwEAAaOC
AlowggJWMIGYBgNVHSMEgZAwgY2AFBHNjmBER1dPT8vp58uhRt+6DlCLoWukaTBn
MQswCQYDVQQGEwJKUDEcMBoGA1UECgwTSmFwYW5lc2UgR292ZXJubWVudDEfMB0G
A1UECwwWTmF0aW9uYWwgUG9saWNlIEFnZW5jeTEZMBcGA1UECwwQTlBBIElDREwg
Um9vdCBDQYIIMjAwMDAwMTYwHQYDVR0OBBYEFJb9x1nMgPKU+RxkjYFSM/vnxQK7
MA4GA1UdDwEB/wQEAwIBBjARBgNVHSAECjAIMAYGBFUdIAAwdAYDVR0RBG0wa6Rp
MGcxCzAJBgNVBAYTAkpQMRgwFgYDVQQKDA/ml6XmnKzlm73mlL/lupwxEjAQBgNV
BAsMCeitpuWvn+W6gTEqMCgGA1UECwwh6K2m5a+f5bqB6YGL6Lui5YWN6Kix6Ki8
6KqN6Ki85bGAMHQGA1UdEgRtMGukaTBnMQswCQYDVQQGEwJKUDEYMBYGA1UECgwP
5pel5pys5Zu95pS/5bqcMRIwEAYDVQQLDAnorablr5/luoExKjAoBgNVBAsMIeit
puWvn+W6gemBi+i7ouWFjeioseiovOiqjeiovOWxgDB6BgNVHR8EczBxMG+gbaBr
pGkwZzELMAkGA1UEBhMCSlAxHDAaBgNVBAoME0phcGFuZXNlIEdvdmVybm1lbnQx
HzAdBgNVBAsMFk5hdGlvbmFsIFBvbGljZSBBZ2VuY3kxGTAXBgNVBAsMEE5QQSBJ
Q0RMIFJvb3QgQ0EwDwYDVR0TAQH/BAUwAwEB/zANBgkqhkiG9w0BAQsFAAOCAQEA
OBbTEfR0yOJW3r7nG7anwmh9pBkdYPe7ZEEwoO1tXo23Q2d3PfUpaGqgastQ+Dxs
qL86xW8anaHLdcYUYLV6DC/nQtRT/h9xlgY7HfPhRISceZ8uxh1BpIfh6h4Nglmt
so/htgjU8qJmSIZinth0zZ/MmWWNRdHseXpuYbQhJs97tq4FQQ2HmYO4h/6hCZxW
Via8aJ2JDbrBAgvlVluYCrOBW/PcBm4WpbXtA3WSriwxRYkGdneNtffrt6VeHNXL
C+Ws6cEAmAhnqvhrZaOdE8nEQ4WFbHB2bsw1498OGY8LDU/gmK2XzVx5W+vWQLvs
G7EEKzUSYqlVCMtzk5SOpw==
-----END CERTIFICATE-----
