Certificate:
    Data:
        Version: 3 (0x2)
        Serial Number:
            33:30:30:30:30:31:32:31
        Signature Algorithm: sha256WithRSAEncryption
        Issuer: C=JP, O=Japanese Government, OU=National Police Agency, OU=NPA ICDL Root CA
        Validity
            Not Before: Sep 17 07:50:45 2024 GMT
            Not After : Sep 16 14:59:59 2029 GMT
        Subject: C=JP, O=Japanese Government, OU=National Police Agency, OU=Prefectural Public Safety Commissions for ICDL, CN=Oita PPSC
        Subject Public Key Info:
            Public Key Algorithm: rsaEncryption
                Public-Key: (2048 bit)
                Modulus:
                    00:b7:bb:04:57:3b:e3:f1:e2:60:c8:6c:cf:bb:f0:
                    6c:ef:8a:d7:34:cd:63:7f:11:82:63:fc:34:e2:03:
                    38:ca:a7:30:01:65:a7:6f:60:00:04:6e:7d:d8:9e:
                    27:8c:bf:6f:65:11:d4:93:f8:c9:f6:04:5b:a2:50:
                    aa:37:2f:1b:69:6c:1e:85:f5:19:45:18:d0:92:97:
                    48:81:4e:85:b2:73:99:d5:43:54:2a:43:30:e3:85:
                    97:bd:60:d9:af:f0:ba:eb:ba:2d:f9:75:25:b3:e6:
                    57:42:ba:2e:4a:d5:cf:93:56:b7:63:be:78:db:d1:
                    35:41:08:58:c3:c9:3e:8a:56:91:a4:b4:fc:b9:6d:
                    93:09:5f:06:5a:01:bc:c5:47:59:8c:e2:0b:30:18:
                    c4:70:1a:56:85:73:f3:30:83:29:c8:10:8b:a8:22:
                    3f:ce:a2:60:6b:f2:27:ff:ca:9b:08:0b:9e:1b:1a:
                    d9:b2:be:c8:82:af:11:6e:2e:ac:fe:27:02:b4:65:
                    02:55:23:8d:54:05:62:88:96:3e:96:ce:6a:7c:73:
                    b4:73:b8:0c:62:d3:2d:12:22:95:ba:f8:dd:e0:1a:
                    a7:45:22:79:c6:3c:c9:ce:9b:e1:22:f2:c7:f6:f2:
                    8d:53:5a:44:aa:85:90:68:bc:94:3f:0c:5e:b4:1d:
                    a8:db
                Exponent: 65537 (0x10001)
        X509v3 extensions:
            X509v3 Authority Key Identifier: 
                keyid:11:CD:8E:60:44:47:57:4F:4F:CB:E9:E7:CB:A1:46:DF:BA:0E:50:8B
                DirName:/C=JP/O=Japanese Government/OU=National Police Agency/OU=NPA ICDL Root CA
                serial:32:30:30:30:30:30:31:36
            X509v3 Subject Key Identifier: 
                EA:E9:82:FF:B2:F7:10:8B:7B:6D:AF:F1:A2:FA:0E:74:C5:A0:51:0C
            X509v3 Key Usage: critical
                Digital Signature, Non Repudiation
            X509v3 Certificate Policies: critical
                Policy: 1.2.392.100120.7.5.1.1.10
                  CPS: http://www.npa.go.jp/
            X509v3 Subject Alternative Name: 
                DirName:/C=JP/O=\xE6\x97\xA5\xE6\x9C\xAC\xE5\x9B\xBD\xE6\x94\xBF\xE5\xBA\x9C/OU=\xE8\xAD\xA6\xE5\xAF\x9F\xE5\xBA\x81/OU=\xE9\x83\xBD\xE9\x81\x93\xE5\xBA\x9C\xE7\x9C\x8C\xE5\x85\xAC\xE5\xAE\x89\xE5\xA7\x94\xE5\x93\xA1\xE4\xBC\x9A
            X509v3 Issuer Alternative Name: 
                DirName:/C=JP/O=\xE6\x97\xA5\xE6\x9C\xAC\xE5\x9B\xBD\xE6\x94\xBF\xE5\xBA\x9C/OU=\xE8\xAD\xA6\xE5\xAF\x9F\xE5\xBA\x81/OU=\xE8\xAD\xA6\xE5\xAF\x9F\xE5\xBA\x81\xE9\x81\x8B\xE8\xBB\xA2\xE5\x85\x8D\xE8\xA8\xB1\xE8\xA8\xBC\xE8\xAA\x8D\xE8\xA8\xBC\xE5\xB1\x80
            X509v3 CRL Distribution Points: 
                Full Name:
                  DirName:C = JP, O = Japanese Government, OU = National Police Agency, OU = Prefectural Public Safety Commissions for ICDL
    Signature Algorithm: sha256WithRSAEncryption
    Signature Value:
        6a:7b:43:1e:ef:be:29:0f:15:73:73:5e:fa:69:6d:0c:7a:4a:
        27:74:86:6e:34:f7:06:8d:e7:7a:90:6c:59:1c:1e:bc:d6:ef:
        06:4f:4f:db:75:e7:9b:d1:5e:b2:f7:16:ed:13:5d:d2:2c:54:
        83:b2:ed:92:84:91:fd:5b:ca:6b:c2:a1:78:dc:70:89:dc:0c:
        55:a1:27:13:69:fb:3b:d4:f5:f2:5c:5c:32:62:d6:8e:44:4e:
        4f:07:a6:8b:98:03:24:bd:ad:f0:5e:61:4b:9c:15:c7:91:17:
        46:d8:33:c1:0d:d2:26:f8:5c:53:e2:85:87:f9:96:dc:a0:51:
        18:86:0d:29:df:89:20:85:5e:8c:62:41:20:2f:a9:52:3a:01:
        88:70:94:cb:45:7f:7c:04:bb:15:ff:22:b1:83:41:ba:ac:d5:
        77:d8:0c:cd:00:86:07:c3:3c:a4:00:32:13:55:be:0a:e0:12:
        ce:5b:cb:b4:79:a2:01:81:6e:87:17:b8:f5:79:b4:b6:26:68:
        cf:da:ed:c6:4e:d4:41:36:14:7d:9d:a9:c9:4d:c9:c4:61:4f:
        41:e5:52:3d:4c:a7:ae:4a:14:74:d6:bc:42:bf:26:54:a4:e4:
        21:d3:47:61:1c:cb:4b:fc:0d:a1:ae:81:6f:f4:56:06:72:31:
        9e:5a:4d:e0
-----BEGIN CERTIFICATE-----
MIIGRTCCBS2gAwIBAgIIMzAwMDAxMjEwDQYJKoZIhvcNAQELBQAwZzELMAkGA1UE
BhMCSlAxHDAaBgNVBAoME0phcGFuZXNlIEdvdmVybm1lbnQxHzAdBgNVBAsMFk5h
dGlvbmFsIFBvbGljZSBBZ2VuY3kxGTAXBgNVBAsMEE5QQSBJQ0RMIFJvb3QgQ0Ew
HhcNMjQwOTE3MDc1MDQ1WhcNMjkwOTE2MTQ1OTU5WjCBmTELMAkGA1UEBhMCSlAx
HDAaBgNVBAoME0phcGFuZXNlIEdvdmVybm1lbnQxHzAdBgNVBAsMFk5hdGlvbmFs
IFBvbGljZSBBZ2VuY3kxNzA1BgNVBAsMLlByZWZlY3R1cmFsIFB1YmxpYyBTYWZl
dHkgQ29tbWlzc2lvbnMgZm9yIElDREwxEjAQBgNVBAMMCU9pdGEgUFBTQzCCASIw
DQYJKoZIhvcNAQEBBQADggEPADCCAQoCggEBALe7BFc74/HiYMhsz7vwbO+K1zTN
Y38RgmP8NOIDOMqnMAFlp29gAARufdieJ4y/b2UR1JP4yfYEW6JQqjcvG2lsHoX1
GUUY0JKXSIFOhbJzmdVDVCpDMOOFl71g2a/wuuu6Lfl1JbPmV0K6LkrVz5NWt2O+
eNvRNUEIWMPJPopWkaS0/LltkwlfBloBvMVHWYziCzAYxHAaVoVz8zCDKcgQi6gi
P86iYGvyJ//KmwgLnhsa2bK+yIKvEW4urP4nArRlAlUjjVQFYoiWPpbOanxztHO4
DGLTLRIilbr43eAap0UiecY8yc6b4SLyx/byjVNaRKqFkGi8lD8MXrQdqNsCAwEA
AaOCAsAwggK8MIGYBgNVHSMEgZAwgY2AFBHNjmBER1dPT8vp58uhRt+6DlCLoWuk
aTBnMQswCQYDVQQGEwJKUDEcMBoGA1UECgwTSmFwYW5lc2UgR292ZXJubWVudDEf
MB0GA1UECwwWTmF0aW9uYWwgUG9saWNlIEFnZW5jeTEZMBcGA1UECwwQTlBBIElD
REwgUm9vdCBDQYIIMjAwMDAwMTYwHQYDVR0OBBYEFOrpgv+y9xCLe22v8aL6DnTF
oFEMMA4GA1UdDwEB/wQEAwIGwDBABgNVHSABAf8ENjA0MDIGCyqDCIaOGAcFAQEK
MCMwIQYIKwYBBQUHAgEWFWh0dHA6Ly93d3cubnBhLmdvLmpwLzCBlQYDVR0RBIGN
MIGKpIGHMIGEMQswCQYDVQQGEwJKUDEYMBYGA1UECgwP5pel5pys5Zu95pS/5bqc
MRIwEAYDVQQLDAnorablr5/luoExJDAiBgNVBAsMG+mDvemBk+W6nOecjOWFrOWu
ieWnlOWToeS8mjEhMB8GA1UEAwwY5aSn5YiG55yM5YWs5a6J5aeU5ZOh5LyaMHQG
A1UdEgRtMGukaTBnMQswCQYDVQQGEwJKUDEYMBYGA1UECgwP5pel5pys5Zu95pS/
5bqcMRIwEAYDVQQLDAnorablr5/luoExKjAoBgNVBAsMIeitpuWvn+W6gemBi+i7
ouWFjeioseiovOiqjeiovOWxgDCBnwYDVR0fBIGXMIGUMIGRoIGOoIGLpIGIMIGF
MQswCQYDVQQGEwJKUDEcMBoGA1UECgwTSmFwYW5lc2UgR292ZXJubWVudDEfMB0G
A1UECwwWTmF0aW9uYWwgUG9saWNlIEFnZW5jeTE3MDUGA1UECwwuUHJlZmVjdHVy
YWwgUHVibGljIFNhZmV0eSBDb21taXNzaW9ucyBmb3IgSUNETDANBgkqhkiG9w0B
AQsFAAOCAQEAantDHu++KQ8Vc3Ne+mltDHpKJ3SGbjT3Bo3nepBsWRwevNbvBk9P
23Xnm9FesvcW7RNd0ixUg7LtkoSR/VvKa8KheNxwidwMVaEnE2n7O9T18lxcMmLW
jkROTwemi5gDJL2t8F5hS5wVx5EXRtgzwQ3SJvhcU+KFh/mW3KBRGIYNKd+JIIVe
jGJBIC+pUjoBiHCUy0V/fAS7Ff8isYNBuqzVd9gMzQCGB8M8pAAyE1W+CuASzlvL
tHmiAYFuhxe49Xm0tiZoz9rtxk7UQTYUfZ2pyU3JxGFPQeVSPUynrkoUdNa8Qr8m
VKTkIdNHYRzLS/wNoa6Bb/RWBnIxnlpN4A==
-----END CERTIFICATE-----
