Certificate:
    Data:
        Version: 3 (0x2)
        Serial Number:
            33:30:30:30:30:30:35:33:af:46:ef:e3:94:18:7c:7b:dc:83
        Signature Algorithm: sha256WithRSAEncryption
        Issuer: C=JP, O=Japanese Government, OU=National Police Agency, OU=NPA ICDL Root CA
        Validity
            Not Before: Jun 19 06:22:20 2023 GMT
            Not After : Jun 18 14:59:59 2028 GMT
        Subject: C=JP, O=Japanese Government, OU=National Police Agency, OU=Prefectural Public Safety Commissions for ICDL, CN=Oita AltPPSC
        Subject Public Key Info:
            Public Key Algorithm: rsaEncryption
                Public-Key: (2048 bit)
                Modulus:
                    00:d1:88:1a:9b:eb:e9:2a:42:4e:26:83:13:51:6d:
                    67:5e:29:f4:42:9c:1b:57:d9:0b:9e:c0:6f:15:43:
                    73:27:90:d9:2f:7b:33:5d:32:41:33:97:cf:a3:be:
                    03:57:fa:9e:cc:81:65:7c:e2:76:e5:c6:44:86:4d:
                    bd:37:8b:1f:5a:c5:5d:fe:0a:c6:9b:bd:01:48:36:
                    c5:00:2c:84:50:7c:c6:7b:9b:8f:07:4d:4a:e5:f0:
                    bb:08:93:b8:77:1c:db:a0:33:fa:b7:37:65:a5:fa:
                    1c:27:b7:9d:a4:29:be:1c:4e:24:69:ff:46:80:51:
                    1a:ef:91:54:b2:9c:d3:7d:97:4d:be:c1:28:ac:85:
                    da:10:60:04:8a:5d:94:62:e2:4d:a4:0f:34:b7:99:
                    60:41:8d:f9:31:eb:55:24:60:3c:fb:d6:fc:09:97:
                    76:a1:54:c8:35:55:2d:62:bf:8c:e5:29:24:80:87:
                    0a:4d:a4:5d:87:22:10:a6:02:11:a9:02:c8:cb:a0:
                    38:57:51:06:2b:d1:c3:38:20:91:8c:2b:3c:67:cb:
                    2a:8d:9c:3d:f8:e5:24:83:5e:7f:23:51:12:9e:bc:
                    a1:dc:64:64:a4:2e:3b:0d:3d:ab:75:4d:96:fc:c2:
                    cf:08:e8:e5:27:bc:86:fa:3d:b6:1d:66:f5:01:72:
                    4e:97
                Exponent: 65537 (0x10001)
        X509v3 extensions:
            X509v3 Authority Key Identifier: 
                keyid:11:CD:8E:60:44:47:57:4F:4F:CB:E9:E7:CB:A1:46:DF:BA:0E:50:8B
                DirName:/C=JP/O=Japanese Government/OU=National Police Agency/OU=NPA ICDL Root CA
                serial:32:30:30:30:30:30:31:36
            X509v3 Subject Key Identifier: 
                1A:D8:77:B4:B9:0B:33:1B:C9:75:7D:E3:DE:95:FD:3D:DC:38:82:59
            X509v3 Key Usage: critical
                Digital Signature, Non Repudiation
            X509v3 Certificate Policies: critical
                Policy: 1.2.392.100120.7.5.1.1.10
                  CPS: http://www.npa.go.jp/
            X509v3 Issuer Alternative Name: 
                DirName:/C=JP/O=\xE6\x97\xA5\xE6\x9C\xAC\xE5\x9B\xBD\xE6\x94\xBF\xE5\xBA\x9C/OU=\xE8\xAD\xA6\xE5\xAF\x9F\xE5\xBA\x81/OU=\xE8\xAD\xA6\xE5\xAF\x9F\xE5\xBA\x81\xE9\x81\x8B\xE8\xBB\xA2\xE5\x85\x8D\xE8\xA8\xB1\xE8\xA8\xBC\xE8\xAA\x8D\xE8\xA8\xBC\xE5\xB1\x80
            X509v3 CRL Distribution Points: 
                Full Name:
                  DirName:C = JP, O = Japanese Government, OU = National Police Agency, OU = Prefectural Public Safety Commissions for ICDL
    Signature Algorithm: sha256WithRSAEncryption
    Signature Value:
        63:e6:ee:52:6e:b1:48:82:9d:6c:b7:71:1d:3e:21:e1:cd:77:
        d5:26:aa:db:72:44:10:28:24:1f:0e:45:29:f1:d9:c2:a2:34:
        e1:57:e7:fb:fd:8d:d3:63:aa:dc:fa:f7:35:f7:70:56:87:86:
        1b:a8:89:3c:ae:d7:80:1d:32:9b:54:dc:d8:ab:0d:65:bb:0c:
        96:23:20:1d:49:58:ab:d5:8e:b9:99:1b:08:64:c8:dd:10:8b:
        11:16:bc:db:8f:27:b7:eb:f4:8c:cb:00:2e:33:51:e4:63:dd:
        c7:87:72:e1:ab:17:a0:c4:d4:5a:83:3c:35:51:57:40:c0:a6:
        98:16:ed:54:54:35:1a:98:4e:46:f2:b2:35:60:5a:60:b4:0d:
        12:67:eb:09:e5:3a:aa:d9:02:b7:ce:ad:e6:63:37:0e:3d:6a:
        c1:c1:2b:c4:92:61:cc:65:c3:c8:c0:ce:a9:58:ed:f4:4a:15:
        24:87:e8:3f:18:5b:fc:2d:f2:ed:35:01:6b:af:6c:90:15:a8:
        aa:79:05:57:80:f1:e7:12:0f:e5:0c:b0:fc:7a:94:63:bb:b7:
        16:6d:b9:19:8d:08:06:eb:57:2e:81:e2:74:ec:e5:9e:46:d1:
        61:04:7a:72:ac:52:93:5e:d3:17:f0:31:26:77:cd:59:59:4b:
        24:cb:e4:12
-----BEGIN CERTIFICATE-----
MIIFujCCBKKgAwIBAgISMzAwMDAwNTOvRu/jlBh8e9yDMA0GCSqGSIb3DQEBCwUA
MGcxCzAJBgNVBAYTAkpQMRwwGgYDVQQKDBNKYXBhbmVzZSBHb3Zlcm5tZW50MR8w
HQYDVQQLDBZOYXRpb25hbCBQb2xpY2UgQWdlbmN5MRkwFwYDVQQLDBBOUEEgSUNE
TCBSb290IENBMB4XDTIzMDYxOTA2MjIyMFoXDTI4MDYxODE0NTk1OVowgZwxCzAJ
BgNVBAYTAkpQMRwwGgYDVQQKDBNKYXBhbmVzZSBHb3Zlcm5tZW50MR8wHQYDVQQL
DBZOYXRpb25hbCBQb2xpY2UgQWdlbmN5MTcwNQYDVQQLDC5QcmVmZWN0dXJhbCBQ
dWJsaWMgU2FmZXR5IENvbW1pc3Npb25zIGZvciBJQ0RMMRUwEwYDVQQDDAxPaXRh
IEFsdFBQU0MwggEiMA0GCSqGSIb3DQEBAQUAA4IBDwAwggEKAoIBAQDRiBqb6+kq
Qk4mgxNRbWdeKfRCnBtX2QuewG8VQ3MnkNkvezNdMkEzl8+jvgNX+p7MgWV84nbl
xkSGTb03ix9axV3+CsabvQFINsUALIRQfMZ7m48HTUrl8LsIk7h3HNugM/q3N2Wl
+hwnt52kKb4cTiRp/0aAURrvkVSynNN9l02+wSishdoQYASKXZRi4k2kDzS3mWBB
jfkx61UkYDz71vwJl3ahVMg1VS1iv4zlKSSAhwpNpF2HIhCmAhGpAsjLoDhXUQYr
0cM4IJGMKzxnyyqNnD345SSDXn8jURKevKHcZGSkLjsNPat1TZb8ws8I6OUnvIb6
PbYdZvUBck6XAgMBAAGjggIoMIICJDCBmAYDVR0jBIGQMIGNgBQRzY5gREdXT0/L
6efLoUbfug5Qi6FrpGkwZzELMAkGA1UEBhMCSlAxHDAaBgNVBAoME0phcGFuZXNl
IEdvdmVybm1lbnQxHzAdBgNVBAsMFk5hdGlvbmFsIFBvbGljZSBBZ2VuY3kxGTAX
BgNVBAsMEE5QQSBJQ0RMIFJvb3QgQ0GCCDIwMDAwMDE2MB0GA1UdDgQWBBQa2He0
uQszG8l1fePelf093DiCWTAOBgNVHQ8BAf8EBAMCBsAwQAYDVR0gAQH/BDYwNDAy
BgsqgwiGjhgHBQEBCjAjMCEGCCsGAQUFBwIBFhVodHRwOi8vd3d3Lm5wYS5nby5q
cC8wdAYDVR0SBG0wa6RpMGcxCzAJBgNVBAYTAkpQMRgwFgYDVQQKDA/ml6XmnKzl
m73mlL/lupwxEjAQBgNVBAsMCeitpuWvn+W6gTEqMCgGA1UECwwh6K2m5a+f5bqB
6YGL6Lui5YWN6Kix6Ki86KqN6Ki85bGAMIGfBgNVHR8EgZcwgZQwgZGggY6ggYuk
gYgwgYUxCzAJBgNVBAYTAkpQMRwwGgYDVQQKDBNKYXBhbmVzZSBHb3Zlcm5tZW50
MR8wHQYDVQQLDBZOYXRpb25hbCBQb2xpY2UgQWdlbmN5MTcwNQYDVQQLDC5QcmVm
ZWN0dXJhbCBQdWJsaWMgU2FmZXR5IENvbW1pc3Npb25zIGZvciBJQ0RMMA0GCSqG
SIb3DQEBCwUAA4IBAQBj5u5SbrFIgp1st3EdPiHhzXfVJqrbckQQKCQfDkUp8dnC
ojThV+f7/Y3TY6rc+vc193BWh4YbqIk8rteAHTKbVNzYqw1luwyWIyAdSVir1Y65
mRsIZMjdEIsRFrzbjye36/SMywAuM1HkY93Hh3LhqxegxNRagzw1UVdAwKaYFu1U
VDUamE5G8rI1YFpgtA0SZ+sJ5Tqq2QK3zq3mYzcOPWrBwSvEkmHMZcPIwM6pWO30
ShUkh+g/GFv8LfLtNQFrr2yQFaiqeQVXgPHnEg/lDLD8epRju7cWbbkZjQgG61cu
geJ07OWeRtFhBHpyrFKTXtMX8DEmd81ZWUsky+QS
-----END CERTIFICATE-----
