Certificate:
    Data:
        Version: 3 (0x2)
        Serial Number:
            32:30:30:30:30:30:37:38
        Signature Algorithm: sha256WithRSAEncryption
        Issuer: C=JP, O=Japanese Government, OU=National Police Agency, OU=NPA ICDL Root CA
        Validity
            Not Before: Feb  6 04:45:17 2023 GMT
            Not After : Feb  5 14:59:59 2028 GMT
        Subject: C=JP, O=Japanese Government, OU=National Police Agency, OU=Prefectural Public Safety Commissions for ICDL, CN=Oita PPSC
        Subject Public Key Info:
            Public Key Algorithm: rsaEncryption
                Public-Key: (2048 bit)
                Modulus:
                    00:a2:c9:ac:2c:cc:28:e1:a2:99:f7:67:35:56:29:
                    39:fc:96:9b:a1:01:0d:5e:ae:fe:91:6a:9c:27:b1:
                    b9:37:88:ae:17:39:2d:ae:36:eb:86:1f:d7:ae:c8:
                    68:ae:b7:73:24:5b:1c:50:04:f4:e9:26:59:e5:5f:
                    ad:f6:b4:7f:7f:9b:e7:ad:df:24:4e:4e:15:c9:22:
                    54:9b:83:23:ef:84:81:64:97:82:6c:0f:19:81:68:
                    fb:91:72:23:c1:5b:9e:b1:7c:83:dc:d8:f6:26:e5:
                    57:76:ac:26:38:76:86:73:ae:6f:ba:f5:93:da:5b:
                    7d:6a:1e:b5:5d:6a:98:37:2f:0f:8f:96:cd:db:72:
                    c5:c2:4a:6f:fc:d1:67:c4:f5:96:a6:25:8b:46:c6:
                    73:5c:3d:7f:bf:da:bc:b0:cc:27:bc:74:55:b2:c3:
                    05:d0:c7:b7:2d:ae:ef:75:d9:05:30:0c:52:15:ad:
                    c0:f1:c6:b4:70:af:c7:8b:b7:14:2d:ae:2e:2a:b0:
                    d9:96:4e:2d:05:eb:98:e7:63:c2:09:22:a8:29:cf:
                    2b:c1:96:b0:70:e9:bb:65:68:12:84:73:01:79:42:
                    cb:92:f3:99:73:a7:b6:52:12:9b:73:a3:50:e1:d5:
                    22:3e:cf:b3:22:b0:6d:d4:c0:4b:2f:e2:ae:da:7a:
                    0a:81
                Exponent: 65537 (0x10001)
        X509v3 extensions:
            X509v3 Authority Key Identifier: 
                keyid:11:CD:8E:60:44:47:57:4F:4F:CB:E9:E7:CB:A1:46:DF:BA:0E:50:8B
                DirName:/C=JP/O=Japanese Government/OU=National Police Agency/OU=NPA ICDL Root CA
                serial:32:30:30:30:30:30:31:36
            X509v3 Subject Key Identifier: 
                86:1E:94:E8:25:0D:0E:93:D6:78:03:50:B6:F4:D3:68:38:1A:04:D2
            X509v3 Key Usage: critical
                Digital Signature, Non Repudiation
            X509v3 Certificate Policies: critical
                Policy: 1.2.392.100120.7.5.1.1.10
                  CPS: http://www.npa.go.jp/
            X509v3 Subject Alternative Name: 
                DirName:/C=JP/O=\xE6\x97\xA5\xE6\x9C\xAC\xE5\x9B\xBD\xE6\x94\xBF\xE5\xBA\x9C/OU=\xE8\xAD\xA6\xE5\xAF\x9F\xE5\xBA\x81/OU=\xE9\x83\xBD\xE9\x81\x93\xE5\xBA\x9C\xE7\x9C\x8C\xE5\x85\xAC\xE5\xAE\x89\xE5\xA7\x94\xE5\x93\xA1\xE4\xBC\x9A
            X509v3 Issuer Alternative Name: 
                DirName:/C=JP/O=\xE6\x97\xA5\xE6\x9C\xAC\xE5\x9B\xBD\xE6\x94\xBF\xE5\xBA\x9C/OU=\xE8\xAD\xA6\xE5\xAF\x9F\xE5\xBA\x81/OU=\xE8\xAD\xA6\xE5\xAF\x9F\xE5\xBA\x81\xE9\x81\x8B\xE8\xBB\xA2\xE5\x85\x8D\xE8\xA8\xB1\xE8\xA8\xBC\xE8\xAA\x8D\xE8\xA8\xBC\xE5\xB1\x80
            X509v3 CRL Distribution Points: 
                Full Name:
                  DirName:C = JP, O = Japanese Government, OU = National Police Agency, OU = Prefectural Public Safety Commissions for ICDL
    Signature Algorithm: sha256WithRSAEncryption
    Signature Value:
        0d:ff:8a:10:19:5e:e3:94:fa:d0:b8:05:b8:85:5f:90:cd:03:
        c1:38:dc:c1:1c:5a:40:a6:b9:8f:17:31:ba:fb:e6:40:fb:08:
        2c:1e:4c:d1:8f:33:59:b4:a2:54:7a:ab:a1:b3:1c:bc:12:91:
        93:e0:00:d2:7c:2c:dc:62:fb:b8:ef:5b:4a:4d:18:35:fc:5d:
        38:ac:aa:bf:84:04:83:5e:e7:fd:17:16:de:9d:0c:58:6a:21:
        8a:b3:a1:3d:30:37:eb:82:15:ce:b5:75:a8:93:f1:36:74:97:
        67:3a:b9:e5:cc:02:30:56:32:a4:3c:23:bc:15:2e:65:98:47:
        82:ab:96:da:59:23:4d:3f:bf:25:61:71:13:ba:45:b3:ef:65:
        9f:17:09:9d:30:41:5f:a0:02:cd:3c:7f:3c:75:0d:05:c4:be:
        dc:45:6b:57:67:87:55:7f:0b:3d:08:52:f7:6b:97:68:a9:28:
        0c:a7:1d:ad:47:a5:6f:c5:95:34:23:9e:d0:d6:c5:06:ba:0c:
        81:e1:5d:a5:99:50:4f:b3:19:8f:c0:2a:41:ed:88:51:02:a7:
        d3:fb:db:fe:67:07:60:a9:68:89:76:b8:44:2d:b8:7c:a2:3c:
        94:06:35:82:5e:89:a1:e5:1f:8c:c8:35:44:31:a4:9c:22:43:
        42:37:fb:6e
-----BEGIN CERTIFICATE-----
MIIGRTCCBS2gAwIBAgIIMjAwMDAwNzgwDQYJKoZIhvcNAQELBQAwZzELMAkGA1UE
BhMCSlAxHDAaBgNVBAoME0phcGFuZXNlIEdvdmVybm1lbnQxHzAdBgNVBAsMFk5h
dGlvbmFsIFBvbGljZSBBZ2VuY3kxGTAXBgNVBAsMEE5QQSBJQ0RMIFJvb3QgQ0Ew
HhcNMjMwMjA2MDQ0NTE3WhcNMjgwMjA1MTQ1OTU5WjCBmTELMAkGA1UEBhMCSlAx
HDAaBgNVBAoME0phcGFuZXNlIEdvdmVybm1lbnQxHzAdBgNVBAsMFk5hdGlvbmFs
IFBvbGljZSBBZ2VuY3kxNzA1BgNVBAsMLlByZWZlY3R1cmFsIFB1YmxpYyBTYWZl
dHkgQ29tbWlzc2lvbnMgZm9yIElDREwxEjAQBgNVBAMMCU9pdGEgUFBTQzCCASIw
DQYJKoZIhvcNAQEBBQADggEPADCCAQoCggEBAKLJrCzMKOGimfdnNVYpOfyWm6EB
DV6u/pFqnCexuTeIrhc5La4264Yf167IaK63cyRbHFAE9OkmWeVfrfa0f3+b563f
JE5OFckiVJuDI++EgWSXgmwPGYFo+5FyI8FbnrF8g9zY9iblV3asJjh2hnOub7r1
k9pbfWoetV1qmDcvD4+WzdtyxcJKb/zRZ8T1lqYli0bGc1w9f7/avLDMJ7x0VbLD
BdDHty2u73XZBTAMUhWtwPHGtHCvx4u3FC2uLiqw2ZZOLQXrmOdjwgkiqCnPK8GW
sHDpu2VoEoRzAXlCy5LzmXOntlISm3OjUOHVIj7PsyKwbdTASy/irtp6CoECAwEA
AaOCAsAwggK8MIGYBgNVHSMEgZAwgY2AFBHNjmBER1dPT8vp58uhRt+6DlCLoWuk
aTBnMQswCQYDVQQGEwJKUDEcMBoGA1UECgwTSmFwYW5lc2UgR292ZXJubWVudDEf
MB0GA1UECwwWTmF0aW9uYWwgUG9saWNlIEFnZW5jeTEZMBcGA1UECwwQTlBBIElD
REwgUm9vdCBDQYIIMjAwMDAwMTYwHQYDVR0OBBYEFIYelOglDQ6T1ngDULb002g4
GgTSMA4GA1UdDwEB/wQEAwIGwDBABgNVHSABAf8ENjA0MDIGCyqDCIaOGAcFAQEK
MCMwIQYIKwYBBQUHAgEWFWh0dHA6Ly93d3cubnBhLmdvLmpwLzCBlQYDVR0RBIGN
MIGKpIGHMIGEMQswCQYDVQQGEwJKUDEYMBYGA1UECgwP5pel5pys5Zu95pS/5bqc
MRIwEAYDVQQLDAnorablr5/luoExJDAiBgNVBAsMG+mDvemBk+W6nOecjOWFrOWu
ieWnlOWToeS8mjEhMB8GA1UEAwwY5aSn5YiG55yM5YWs5a6J5aeU5ZOh5LyaMHQG
A1UdEgRtMGukaTBnMQswCQYDVQQGEwJKUDEYMBYGA1UECgwP5pel5pys5Zu95pS/
5bqcMRIwEAYDVQQLDAnorablr5/luoExKjAoBgNVBAsMIeitpuWvn+W6gemBi+i7
ouWFjeioseiovOiqjeiovOWxgDCBnwYDVR0fBIGXMIGUMIGRoIGOoIGLpIGIMIGF
MQswCQYDVQQGEwJKUDEcMBoGA1UECgwTSmFwYW5lc2UgR292ZXJubWVudDEfMB0G
A1UECwwWTmF0aW9uYWwgUG9saWNlIEFnZW5jeTE3MDUGA1UECwwuUHJlZmVjdHVy
YWwgUHVibGljIFNhZmV0eSBDb21taXNzaW9ucyBmb3IgSUNETDANBgkqhkiG9w0B
AQsFAAOCAQEADf+KEBle45T60LgFuIVfkM0DwTjcwRxaQKa5jxcxuvvmQPsILB5M
0Y8zWbSiVHqrobMcvBKRk+AA0nws3GL7uO9bSk0YNfxdOKyqv4QEg17n/RcW3p0M
WGohirOhPTA364IVzrV1qJPxNnSXZzq55cwCMFYypDwjvBUuZZhHgquW2lkjTT+/
JWFxE7pFs+9lnxcJnTBBX6ACzTx/PHUNBcS+3EVrV2eHVX8LPQhS92uXaKkoDKcd
rUelb8WVNCOe0NbFBroMgeFdpZlQT7MZj8AqQe2IUQKn0/vb/mcHYKloiXa4RC24
fKI8lAY1gl6JoeUfjMg1RDGknCJDQjf7bg==
-----END CERTIFICATE-----
