Certificate:
    Data:
        Version: 3 (0x2)
        Serial Number:
            32:30:30:30:30:30:33:34
        Signature Algorithm: sha256WithRSAEncryption
        Issuer: C=JP, O=Japanese Government, OU=National Police Agency, OU=NPA ICDL Root CA
        Validity
            Not Before: Dec 14 02:29:47 2022 GMT
            Not After : Dec 13 14:59:59 2027 GMT
        Subject: C=JP, O=Japanese Government, OU=National Police Agency, OU=Prefectural Public Safety Commissions for ICDL, CN=Okayama PPSC
        Subject Public Key Info:
            Public Key Algorithm: rsaEncryption
                Public-Key: (2048 bit)
                Modulus:
                    00:bb:54:94:39:0c:2e:2e:93:c8:4c:16:33:7f:e8:
                    2b:88:89:5f:c1:54:46:cc:5e:78:5d:ad:af:c2:c3:
                    c5:c2:ad:1d:30:0b:e7:a8:4b:2f:36:a2:d7:66:41:
                    72:22:71:38:ed:20:27:cf:00:ff:e5:1f:b8:c4:01:
                    0e:f0:f7:2f:27:86:70:11:f5:41:13:a1:af:77:02:
                    16:82:86:7c:9a:52:ec:3f:36:3c:ca:e4:7b:37:70:
                    b3:9d:47:01:d2:55:6a:14:c7:ab:8b:ad:72:56:14:
                    67:68:5d:70:c0:34:22:25:ff:e1:03:12:e9:5c:17:
                    05:69:ac:7c:5f:dd:6d:a3:f2:ff:7f:5c:3b:30:f5:
                    15:c1:e8:76:70:c9:20:0d:e3:a2:28:cb:8b:e8:60:
                    50:dd:12:21:a2:b6:78:d9:a2:d2:a3:6a:39:db:ec:
                    cb:45:dc:73:e9:5d:6b:40:f1:8d:bd:2c:a8:48:ed:
                    9e:a1:1f:55:54:63:3b:61:91:46:95:e7:5e:f4:65:
                    ba:57:72:26:b8:7d:01:0c:f3:63:90:86:bc:e7:5d:
                    0c:44:8f:b8:7a:f9:28:b8:16:89:c8:30:29:69:0e:
                    6b:be:4d:1f:4f:13:c1:12:65:7f:8c:62:98:9d:91:
                    9f:f5:07:a0:47:d4:d9:e5:7b:18:6d:ca:5e:69:ab:
                    f0:8d
                Exponent: 65537 (0x10001)
        X509v3 extensions:
            X509v3 Authority Key Identifier: 
                keyid:11:CD:8E:60:44:47:57:4F:4F:CB:E9:E7:CB:A1:46:DF:BA:0E:50:8B
                DirName:/C=JP/O=Japanese Government/OU=National Police Agency/OU=NPA ICDL Root CA
                serial:32:30:30:30:30:30:31:36
            X509v3 Subject Key Identifier: 
                D6:D3:CB:7D:4C:91:AE:3E:58:D9:6E:58:83:F6:B1:A0:E7:3A:F0:13
            X509v3 Key Usage: critical
                Digital Signature, Non Repudiation
            X509v3 Certificate Policies: critical
                Policy: 1.2.392.100120.7.5.1.1.10
                  CPS: http://www.npa.go.jp/
            X509v3 Subject Alternative Name: 
                DirName:/C=JP/O=\xE6\x97\xA5\xE6\x9C\xAC\xE5\x9B\xBD\xE6\x94\xBF\xE5\xBA\x9C/OU=\xE8\xAD\xA6\xE5\xAF\x9F\xE5\xBA\x81/OU=\xE9\x83\xBD\xE9\x81\x93\xE5\xBA\x9C\xE7\x9C\x8C\xE5\x85\xAC\xE5\xAE\x89\xE5\xA7\x94\xE5\x93\xA1\xE4\xBC\x9A
            X509v3 Issuer Alternative Name: 
                DirName:/C=JP/O=\xE6\x97\xA5\xE6\x9C\xAC\xE5\x9B\xBD\xE6\x94\xBF\xE5\xBA\x9C/OU=\xE8\xAD\xA6\xE5\xAF\x9F\xE5\xBA\x81/OU=\xE8\xAD\xA6\xE5\xAF\x9F\xE5\xBA\x81\xE9\x81\x8B\xE8\xBB\xA2\xE5\x85\x8D\xE8\xA8\xB1\xE8\xA8\xBC\xE8\xAA\x8D\xE8\xA8\xBC\xE5\xB1\x80
            X509v3 CRL Distribution Points: 
                Full Name:
                  DirName:C = JP, O = Japanese Government, OU = National Police Agency, OU = Prefectural Public Safety Commissions for ICDL
    Signature Algorithm: sha256WithRSAEncryption
    Signature Value:
        a9:20:8d:df:4c:06:48:71:53:0d:25:e0:82:f4:5c:fa:5c:de:
        e0:69:4b:b5:3a:16:56:c4:44:3d:29:c5:19:0f:71:ce:79:86:
        9c:7f:fd:00:2b:45:29:64:df:b2:9f:e5:6b:00:ba:2a:e0:80:
        06:0a:30:f0:2e:a3:47:a5:ee:74:17:29:36:d5:19:95:6c:1e:
        67:ac:a1:e8:69:88:87:fe:a1:b2:1e:eb:7c:18:ff:ee:74:6d:
        bc:28:87:71:e3:36:c4:2b:77:c0:a4:e8:16:1c:dd:9c:e9:7f:
        85:47:ca:82:86:ce:99:da:cd:9f:a1:f6:8b:ce:9d:e9:50:5d:
        0b:79:87:de:df:05:91:f9:b3:18:66:0f:20:eb:6b:31:71:17:
        bb:d4:ed:03:52:05:59:92:cb:29:44:e8:ca:2a:9d:33:5a:47:
        23:e8:3d:6e:0f:cf:fa:19:6d:37:51:b3:cd:d1:71:35:9e:cb:
        1e:f4:cd:1b:28:6e:3d:3f:2a:d6:e9:b7:6d:c9:7b:f0:7e:40:
        45:dc:b7:d5:57:bf:9f:bd:ee:9c:d2:a8:da:c2:b3:a0:c5:78:
        eb:b0:80:84:fd:aa:06:02:74:f4:c8:6c:74:5a:0d:a8:90:88:
        4b:be:7e:f9:52:46:f3:a1:f9:a3:31:57:b0:0b:82:6f:b2:58:
        04:2f:25:b2
-----BEGIN CERTIFICATE-----
MIIGSDCCBTCgAwIBAgIIMjAwMDAwMzQwDQYJKoZIhvcNAQELBQAwZzELMAkGA1UE
BhMCSlAxHDAaBgNVBAoME0phcGFuZXNlIEdvdmVybm1lbnQxHzAdBgNVBAsMFk5h
dGlvbmFsIFBvbGljZSBBZ2VuY3kxGTAXBgNVBAsMEE5QQSBJQ0RMIFJvb3QgQ0Ew
HhcNMjIxMjE0MDIyOTQ3WhcNMjcxMjEzMTQ1OTU5WjCBnDELMAkGA1UEBhMCSlAx
HDAaBgNVBAoME0phcGFuZXNlIEdvdmVybm1lbnQxHzAdBgNVBAsMFk5hdGlvbmFs
IFBvbGljZSBBZ2VuY3kxNzA1BgNVBAsMLlByZWZlY3R1cmFsIFB1YmxpYyBTYWZl
dHkgQ29tbWlzc2lvbnMgZm9yIElDREwxFTATBgNVBAMMDE9rYXlhbWEgUFBTQzCC
ASIwDQYJKoZIhvcNAQEBBQADggEPADCCAQoCggEBALtUlDkMLi6TyEwWM3/oK4iJ
X8FURsxeeF2tr8LDxcKtHTAL56hLLzai12ZBciJxOO0gJ88A/+UfuMQBDvD3LyeG
cBH1QROhr3cCFoKGfJpS7D82PMrkezdws51HAdJVahTHq4utclYUZ2hdcMA0IiX/
4QMS6VwXBWmsfF/dbaPy/39cOzD1FcHodnDJIA3joijLi+hgUN0SIaK2eNmi0qNq
Odvsy0Xcc+lda0Dxjb0sqEjtnqEfVVRjO2GRRpXnXvRluldyJrh9AQzzY5CGvOdd
DESPuHr5KLgWicgwKWkOa75NH08TwRJlf4ximJ2Rn/UHoEfU2eV7GG3KXmmr8I0C
AwEAAaOCAsAwggK8MIGYBgNVHSMEgZAwgY2AFBHNjmBER1dPT8vp58uhRt+6DlCL
oWukaTBnMQswCQYDVQQGEwJKUDEcMBoGA1UECgwTSmFwYW5lc2UgR292ZXJubWVu
dDEfMB0GA1UECwwWTmF0aW9uYWwgUG9saWNlIEFnZW5jeTEZMBcGA1UECwwQTlBB
IElDREwgUm9vdCBDQYIIMjAwMDAwMTYwHQYDVR0OBBYEFNbTy31Mka4+WNluWIP2
saDnOvATMA4GA1UdDwEB/wQEAwIGwDBABgNVHSABAf8ENjA0MDIGCyqDCIaOGAcF
AQEKMCMwIQYIKwYBBQUHAgEWFWh0dHA6Ly93d3cubnBhLmdvLmpwLzCBlQYDVR0R
BIGNMIGKpIGHMIGEMQswCQYDVQQGEwJKUDEYMBYGA1UECgwP5pel5pys5Zu95pS/
5bqcMRIwEAYDVQQLDAnorablr5/luoExJDAiBgNVBAsMG+mDvemBk+W6nOecjOWF
rOWuieWnlOWToeS8mjEhMB8GA1UEAwwY5bKh5bGx55yM5YWs5a6J5aeU5ZOh5Lya
MHQGA1UdEgRtMGukaTBnMQswCQYDVQQGEwJKUDEYMBYGA1UECgwP5pel5pys5Zu9
5pS/5bqcMRIwEAYDVQQLDAnorablr5/luoExKjAoBgNVBAsMIeitpuWvn+W6gemB
i+i7ouWFjeioseiovOiqjeiovOWxgDCBnwYDVR0fBIGXMIGUMIGRoIGOoIGLpIGI
MIGFMQswCQYDVQQGEwJKUDEcMBoGA1UECgwTSmFwYW5lc2UgR292ZXJubWVudDEf
MB0GA1UECwwWTmF0aW9uYWwgUG9saWNlIEFnZW5jeTE3MDUGA1UECwwuUHJlZmVj
dHVyYWwgUHVibGljIFNhZmV0eSBDb21taXNzaW9ucyBmb3IgSUNETDANBgkqhkiG
9w0BAQsFAAOCAQEAqSCN30wGSHFTDSXggvRc+lze4GlLtToWVsREPSnFGQ9xznmG
nH/9ACtFKWTfsp/lawC6KuCABgow8C6jR6XudBcpNtUZlWweZ6yh6GmIh/6hsh7r
fBj/7nRtvCiHceM2xCt3wKToFhzdnOl/hUfKgobOmdrNn6H2i86d6VBdC3mH3t8F
kfmzGGYPIOtrMXEXu9TtA1IFWZLLKUToyiqdM1pHI+g9bg/P+hltN1GzzdFxNZ7L
HvTNGyhuPT8q1um3bcl78H5ARdy31Ve/n73unNKo2sKzoMV467CAhP2qBgJ09Mhs
dFoNqJCIS75++VJG86H5ozFXsAuCb7JYBC8lsg==
-----END CERTIFICATE-----
