Certificate:
    Data:
        Version: 3 (0x2)
        Serial Number:
            33:30:30:30:30:30:34:32:c2:bd:32:67:4d:76:c5:f7:d0:1b
        Signature Algorithm: sha256WithRSAEncryption
        Issuer: C=JP, O=Japanese Government, OU=National Police Agency, OU=NPA ICDL Root CA
        Validity
            Not Before: Jun 19 06:07:34 2023 GMT
            Not After : Jun 18 14:59:59 2028 GMT
        Subject: C=JP, O=Japanese Government, OU=National Police Agency, OU=Prefectural Public Safety Commissions for ICDL, CN=Okayama AltPPSC
        Subject Public Key Info:
            Public Key Algorithm: rsaEncryption
                Public-Key: (2048 bit)
                Modulus:
                    00:83:51:b9:f3:dd:e2:1e:40:49:74:1d:df:b0:39:
                    67:05:b3:a1:2f:e7:e6:21:18:de:37:e1:bb:5b:45:
                    a3:62:74:0f:bb:06:df:e4:97:d3:71:bf:11:f8:f5:
                    80:75:25:01:a1:e3:67:7c:87:b2:85:c2:52:46:5a:
                    26:65:be:18:60:a2:95:cd:78:1f:e8:23:14:a0:ac:
                    a3:7a:13:61:06:92:f6:f0:38:4b:69:de:f7:a9:2f:
                    33:83:b7:9a:d8:1f:d4:8b:7c:fd:fb:29:8f:33:a9:
                    2c:b2:f6:55:92:ba:b5:a7:0c:a0:e2:43:c5:06:f4:
                    85:5f:96:e6:e6:f7:2a:08:84:6c:9c:5e:c0:37:d7:
                    4b:40:c7:6f:de:96:c5:2b:f0:ce:be:86:09:cf:29:
                    c5:02:fe:40:1b:32:cf:f4:5b:7f:e1:bb:45:9b:07:
                    0e:be:69:02:49:15:28:00:04:50:bd:af:78:e0:22:
                    70:0b:24:bf:4c:a6:88:7c:d5:06:2c:96:cf:70:43:
                    84:38:71:15:07:de:c0:60:80:07:d1:85:44:b7:b5:
                    bc:75:a3:0f:dc:44:af:04:02:2f:03:b1:08:84:fa:
                    6a:18:f0:41:e5:46:a2:4e:31:c1:2c:d0:a2:91:64:
                    3b:2f:87:f3:b0:a3:1e:d5:95:9e:e1:16:be:5c:3c:
                    2a:55
                Exponent: 65537 (0x10001)
        X509v3 extensions:
            X509v3 Authority Key Identifier: 
                keyid:11:CD:8E:60:44:47:57:4F:4F:CB:E9:E7:CB:A1:46:DF:BA:0E:50:8B
                DirName:/C=JP/O=Japanese Government/OU=National Police Agency/OU=NPA ICDL Root CA
                serial:32:30:30:30:30:30:31:36
            X509v3 Subject Key Identifier: 
                68:E9:59:23:FB:01:BB:6E:22:5D:38:69:8D:73:7D:60:DF:FF:DC:A9
            X509v3 Key Usage: critical
                Digital Signature, Non Repudiation
            X509v3 Certificate Policies: critical
                Policy: 1.2.392.100120.7.5.1.1.10
                  CPS: http://www.npa.go.jp/
            X509v3 Issuer Alternative Name: 
                DirName:/C=JP/O=\xE6\x97\xA5\xE6\x9C\xAC\xE5\x9B\xBD\xE6\x94\xBF\xE5\xBA\x9C/OU=\xE8\xAD\xA6\xE5\xAF\x9F\xE5\xBA\x81/OU=\xE8\xAD\xA6\xE5\xAF\x9F\xE5\xBA\x81\xE9\x81\x8B\xE8\xBB\xA2\xE5\x85\x8D\xE8\xA8\xB1\xE8\xA8\xBC\xE8\xAA\x8D\xE8\xA8\xBC\xE5\xB1\x80
            X509v3 CRL Distribution Points: 
                Full Name:
                  DirName:C = JP, O = Japanese Government, OU = National Police Agency, OU = Prefectural Public Safety Commissions for ICDL
    Signature Algorithm: sha256WithRSAEncryption
    Signature Value:
        28:6b:5b:ce:ca:af:92:5c:8e:22:1d:b0:70:be:8e:0e:fa:d2:
        47:d7:8b:5b:24:03:df:0f:c1:90:e8:68:dc:4e:d2:d4:7b:f2:
        15:19:b6:4a:90:a7:9c:32:46:ab:64:6e:db:54:9f:b8:8f:9c:
        a3:9e:fb:90:49:bf:8a:8e:08:28:f5:87:c1:db:90:5d:f6:74:
        70:64:9d:ac:52:4a:6b:6d:68:42:7b:54:78:d0:84:e0:b5:02:
        8a:03:f1:eb:89:93:8f:c8:ff:42:49:25:7e:20:0e:ec:af:27:
        b3:55:a5:eb:1c:df:3f:ec:22:8f:7d:93:29:57:e3:44:10:c9:
        9c:f1:ea:ea:36:16:23:5c:24:e8:f3:5a:7f:6a:f3:77:4b:86:
        be:8f:92:7e:8c:1d:57:d6:db:5c:ff:ec:9a:3f:28:81:72:a9:
        6d:ca:ad:91:3f:6a:07:7d:81:91:d9:1b:86:7f:6e:ba:82:82:
        a0:43:09:d7:f1:2b:0b:85:9c:e8:19:51:f9:98:db:66:c2:e6:
        7c:f2:e2:7d:75:4a:08:ad:fd:d1:70:c7:d7:58:d2:03:8b:35:
        41:c4:5c:36:51:96:b3:5d:2c:e5:5d:4f:42:f5:ec:33:1c:94:
        b8:0b:b1:e8:c1:7e:b7:0f:19:7b:41:f2:99:e6:6a:54:7d:cc:
        8c:4a:7e:6f
-----BEGIN CERTIFICATE-----
MIIFvTCCBKWgAwIBAgISMzAwMDAwNDLCvTJnTXbF99AbMA0GCSqGSIb3DQEBCwUA
MGcxCzAJBgNVBAYTAkpQMRwwGgYDVQQKDBNKYXBhbmVzZSBHb3Zlcm5tZW50MR8w
HQYDVQQLDBZOYXRpb25hbCBQb2xpY2UgQWdlbmN5MRkwFwYDVQQLDBBOUEEgSUNE
TCBSb290IENBMB4XDTIzMDYxOTA2MDczNFoXDTI4MDYxODE0NTk1OVowgZ8xCzAJ
BgNVBAYTAkpQMRwwGgYDVQQKDBNKYXBhbmVzZSBHb3Zlcm5tZW50MR8wHQYDVQQL
DBZOYXRpb25hbCBQb2xpY2UgQWdlbmN5MTcwNQYDVQQLDC5QcmVmZWN0dXJhbCBQ
dWJsaWMgU2FmZXR5IENvbW1pc3Npb25zIGZvciBJQ0RMMRgwFgYDVQQDDA9Pa2F5
YW1hIEFsdFBQU0MwggEiMA0GCSqGSIb3DQEBAQUAA4IBDwAwggEKAoIBAQCDUbnz
3eIeQEl0Hd+wOWcFs6Ev5+YhGN434btbRaNidA+7Bt/kl9NxvxH49YB1JQGh42d8
h7KFwlJGWiZlvhhgopXNeB/oIxSgrKN6E2EGkvbwOEtp3vepLzODt5rYH9SLfP37
KY8zqSyy9lWSurWnDKDiQ8UG9IVflubm9yoIhGycXsA310tAx2/elsUr8M6+hgnP
KcUC/kAbMs/0W3/hu0WbBw6+aQJJFSgABFC9r3jgInALJL9Mpoh81QYsls9wQ4Q4
cRUH3sBggAfRhUS3tbx1ow/cRK8EAi8DsQiE+moY8EHlRqJOMcEs0KKRZDsvh/Ow
ox7VlZ7hFr5cPCpVAgMBAAGjggIoMIICJDCBmAYDVR0jBIGQMIGNgBQRzY5gREdX
T0/L6efLoUbfug5Qi6FrpGkwZzELMAkGA1UEBhMCSlAxHDAaBgNVBAoME0phcGFu
ZXNlIEdvdmVybm1lbnQxHzAdBgNVBAsMFk5hdGlvbmFsIFBvbGljZSBBZ2VuY3kx
GTAXBgNVBAsMEE5QQSBJQ0RMIFJvb3QgQ0GCCDIwMDAwMDE2MB0GA1UdDgQWBBRo
6Vkj+wG7biJdOGmNc31g3//cqTAOBgNVHQ8BAf8EBAMCBsAwQAYDVR0gAQH/BDYw
NDAyBgsqgwiGjhgHBQEBCjAjMCEGCCsGAQUFBwIBFhVodHRwOi8vd3d3Lm5wYS5n
by5qcC8wdAYDVR0SBG0wa6RpMGcxCzAJBgNVBAYTAkpQMRgwFgYDVQQKDA/ml6Xm
nKzlm73mlL/lupwxEjAQBgNVBAsMCeitpuWvn+W6gTEqMCgGA1UECwwh6K2m5a+f
5bqB6YGL6Lui5YWN6Kix6Ki86KqN6Ki85bGAMIGfBgNVHR8EgZcwgZQwgZGggY6g
gYukgYgwgYUxCzAJBgNVBAYTAkpQMRwwGgYDVQQKDBNKYXBhbmVzZSBHb3Zlcm5t
ZW50MR8wHQYDVQQLDBZOYXRpb25hbCBQb2xpY2UgQWdlbmN5MTcwNQYDVQQLDC5Q
cmVmZWN0dXJhbCBQdWJsaWMgU2FmZXR5IENvbW1pc3Npb25zIGZvciBJQ0RMMA0G
CSqGSIb3DQEBCwUAA4IBAQAoa1vOyq+SXI4iHbBwvo4O+tJH14tbJAPfD8GQ6Gjc
TtLUe/IVGbZKkKecMkarZG7bVJ+4j5yjnvuQSb+Kjggo9YfB25Bd9nRwZJ2sUkpr
bWhCe1R40ITgtQKKA/HriZOPyP9CSSV+IA7sryezVaXrHN8/7CKPfZMpV+NEEMmc
8erqNhYjXCTo81p/avN3S4a+j5J+jB1X1ttc/+yaPyiBcqltyq2RP2oHfYGR2RuG
f266goKgQwnX8SsLhZzoGVH5mNtmwuZ88uJ9dUoIrf3RcMfXWNIDizVBxFw2UZaz
XSzlXU9C9ewzHJS4C7HowX63Dxl7QfKZ5mpUfcyMSn5v
-----END CERTIFICATE-----
