Certificate:
    Data:
        Version: 3 (0x2)
        Serial Number:
            32:30:30:30:30:30:38:31
        Signature Algorithm: sha256WithRSAEncryption
        Issuer: C=JP, O=Japanese Government, OU=National Police Agency, OU=NPA ICDL Root CA
        Validity
            Not Before: Feb  6 04:54:09 2023 GMT
            Not After : Feb  5 14:59:59 2028 GMT
        Subject: C=JP, O=Japanese Government, OU=National Police Agency, OU=Prefectural Public Safety Commissions for ICDL, CN=Okinawa PPSC
        Subject Public Key Info:
            Public Key Algorithm: rsaEncryption
                Public-Key: (2048 bit)
                Modulus:
                    00:b5:2c:5e:75:de:8a:bb:37:39:f9:99:9f:96:94:
                    d9:1c:68:7e:42:27:0f:f2:03:8f:65:7c:73:46:f4:
                    47:55:94:29:d4:db:f6:90:d7:a0:ae:63:b9:21:e8:
                    cf:32:65:ed:9e:ca:95:78:54:8e:5d:48:82:da:5e:
                    d1:b2:50:36:61:73:f1:cf:2e:d9:fd:5d:5b:3e:8b:
                    54:87:92:c8:59:9c:0d:7d:64:4e:a3:c1:a0:28:4d:
                    22:2c:7c:f5:86:b2:da:05:f1:ca:43:35:f0:b2:f2:
                    36:85:6f:3a:43:d8:13:0b:78:c7:2a:41:bd:7f:ef:
                    3c:8c:24:73:56:14:76:2e:8e:5e:6d:bd:fd:12:11:
                    f4:01:19:60:47:6a:5d:3f:01:d2:c9:6d:26:93:b0:
                    45:a8:6e:f6:60:f3:9a:3b:73:ef:04:f5:93:a9:71:
                    83:93:b8:49:ec:9b:89:df:6d:4c:fc:0a:5a:ee:82:
                    72:db:20:cd:39:5c:92:ec:f4:ab:e4:9f:7a:db:e3:
                    a1:78:12:59:97:14:6a:12:6b:f9:0a:45:01:94:f2:
                    07:db:44:be:11:29:25:71:75:43:e8:42:3d:60:bd:
                    f9:af:bf:7b:ba:7b:0c:23:18:50:45:4a:2c:57:d8:
                    a5:f1:ca:cc:e0:38:91:8c:2e:3b:3a:81:f6:8d:2f:
                    a1:93
                Exponent: 65537 (0x10001)
        X509v3 extensions:
            X509v3 Authority Key Identifier: 
                keyid:11:CD:8E:60:44:47:57:4F:4F:CB:E9:E7:CB:A1:46:DF:BA:0E:50:8B
                DirName:/C=JP/O=Japanese Government/OU=National Police Agency/OU=NPA ICDL Root CA
                serial:32:30:30:30:30:30:31:36
            X509v3 Subject Key Identifier: 
                7A:70:8F:C0:32:4E:53:BD:36:A5:1D:75:CE:11:9F:15:0B:EB:8F:69
            X509v3 Key Usage: critical
                Digital Signature, Non Repudiation
            X509v3 Certificate Policies: critical
                Policy: 1.2.392.100120.7.5.1.1.10
                  CPS: http://www.npa.go.jp/
            X509v3 Subject Alternative Name: 
                DirName:/C=JP/O=\xE6\x97\xA5\xE6\x9C\xAC\xE5\x9B\xBD\xE6\x94\xBF\xE5\xBA\x9C/OU=\xE8\xAD\xA6\xE5\xAF\x9F\xE5\xBA\x81/OU=\xE9\x83\xBD\xE9\x81\x93\xE5\xBA\x9C\xE7\x9C\x8C\xE5\x85\xAC\xE5\xAE\x89\xE5\xA7\x94\xE5\x93\xA1\xE4\xBC\x9A
            X509v3 Issuer Alternative Name: 
                DirName:/C=JP/O=\xE6\x97\xA5\xE6\x9C\xAC\xE5\x9B\xBD\xE6\x94\xBF\xE5\xBA\x9C/OU=\xE8\xAD\xA6\xE5\xAF\x9F\xE5\xBA\x81/OU=\xE8\xAD\xA6\xE5\xAF\x9F\xE5\xBA\x81\xE9\x81\x8B\xE8\xBB\xA2\xE5\x85\x8D\xE8\xA8\xB1\xE8\xA8\xBC\xE8\xAA\x8D\xE8\xA8\xBC\xE5\xB1\x80
            X509v3 CRL Distribution Points: 
                Full Name:
                  DirName:C = JP, O = Japanese Government, OU = National Police Agency, OU = Prefectural Public Safety Commissions for ICDL
    Signature Algorithm: sha256WithRSAEncryption
    Signature Value:
        1f:55:d3:04:77:7b:13:73:31:f9:eb:72:43:7e:19:d8:e4:75:
        08:b6:c4:db:70:78:64:fb:dc:f2:cb:54:40:27:40:e2:d7:ca:
        2a:e8:39:ab:78:b3:30:c3:fd:79:60:23:93:46:d8:a6:81:9a:
        35:43:06:fc:4b:ac:48:bc:a0:20:32:4d:0c:6d:15:a7:f4:4c:
        fb:12:65:85:1f:e0:bc:01:77:50:ad:83:6f:6e:98:ec:7c:4a:
        0a:0f:58:8d:1a:ac:03:85:b8:8f:ce:c8:bb:45:17:b5:34:8a:
        e9:98:c7:2d:9b:56:29:66:fa:37:d5:cc:ab:d6:be:67:70:ad:
        25:5d:6d:fe:26:43:7c:65:78:6a:5e:c1:8c:b0:db:d0:1f:db:
        22:31:89:81:45:20:a8:f6:95:08:64:42:b7:05:ce:5a:5e:07:
        7c:f7:b0:e7:4a:2a:27:0e:85:f0:25:69:68:f9:4a:68:e5:9e:
        12:fd:dd:82:ce:4a:08:8f:ee:82:48:be:6e:68:88:a2:63:8b:
        41:1a:5a:af:8a:41:27:a6:0c:a2:73:fd:ef:86:d8:2c:f8:10:
        d9:79:14:73:45:e9:74:df:35:93:83:9a:fd:21:14:dc:fa:0a:
        01:85:95:e8:fb:ce:32:f3:a7:fc:b1:fe:34:27:5a:a5:9e:93:
        35:69:d9:dd
-----BEGIN CERTIFICATE-----
MIIGSDCCBTCgAwIBAgIIMjAwMDAwODEwDQYJKoZIhvcNAQELBQAwZzELMAkGA1UE
BhMCSlAxHDAaBgNVBAoME0phcGFuZXNlIEdvdmVybm1lbnQxHzAdBgNVBAsMFk5h
dGlvbmFsIFBvbGljZSBBZ2VuY3kxGTAXBgNVBAsMEE5QQSBJQ0RMIFJvb3QgQ0Ew
HhcNMjMwMjA2MDQ1NDA5WhcNMjgwMjA1MTQ1OTU5WjCBnDELMAkGA1UEBhMCSlAx
HDAaBgNVBAoME0phcGFuZXNlIEdvdmVybm1lbnQxHzAdBgNVBAsMFk5hdGlvbmFs
IFBvbGljZSBBZ2VuY3kxNzA1BgNVBAsMLlByZWZlY3R1cmFsIFB1YmxpYyBTYWZl
dHkgQ29tbWlzc2lvbnMgZm9yIElDREwxFTATBgNVBAMMDE9raW5hd2EgUFBTQzCC
ASIwDQYJKoZIhvcNAQEBBQADggEPADCCAQoCggEBALUsXnXeirs3OfmZn5aU2Rxo
fkInD/IDj2V8c0b0R1WUKdTb9pDXoK5juSHozzJl7Z7KlXhUjl1Igtpe0bJQNmFz
8c8u2f1dWz6LVIeSyFmcDX1kTqPBoChNIix89Yay2gXxykM18LLyNoVvOkPYEwt4
xypBvX/vPIwkc1YUdi6OXm29/RIR9AEZYEdqXT8B0sltJpOwRahu9mDzmjtz7wT1
k6lxg5O4Seybid9tTPwKWu6CctsgzTlckuz0q+SfetvjoXgSWZcUahJr+QpFAZTy
B9tEvhEpJXF1Q+hCPWC9+a+/e7p7DCMYUEVKLFfYpfHKzOA4kYwuOzqB9o0voZMC
AwEAAaOCAsAwggK8MIGYBgNVHSMEgZAwgY2AFBHNjmBER1dPT8vp58uhRt+6DlCL
oWukaTBnMQswCQYDVQQGEwJKUDEcMBoGA1UECgwTSmFwYW5lc2UgR292ZXJubWVu
dDEfMB0GA1UECwwWTmF0aW9uYWwgUG9saWNlIEFnZW5jeTEZMBcGA1UECwwQTlBB
IElDREwgUm9vdCBDQYIIMjAwMDAwMTYwHQYDVR0OBBYEFHpwj8AyTlO9NqUddc4R
nxUL649pMA4GA1UdDwEB/wQEAwIGwDBABgNVHSABAf8ENjA0MDIGCyqDCIaOGAcF
AQEKMCMwIQYIKwYBBQUHAgEWFWh0dHA6Ly93d3cubnBhLmdvLmpwLzCBlQYDVR0R
BIGNMIGKpIGHMIGEMQswCQYDVQQGEwJKUDEYMBYGA1UECgwP5pel5pys5Zu95pS/
5bqcMRIwEAYDVQQLDAnorablr5/luoExJDAiBgNVBAsMG+mDvemBk+W6nOecjOWF
rOWuieWnlOWToeS8mjEhMB8GA1UEAwwY5rKW57iE55yM5YWs5a6J5aeU5ZOh5Lya
MHQGA1UdEgRtMGukaTBnMQswCQYDVQQGEwJKUDEYMBYGA1UECgwP5pel5pys5Zu9
5pS/5bqcMRIwEAYDVQQLDAnorablr5/luoExKjAoBgNVBAsMIeitpuWvn+W6gemB
i+i7ouWFjeioseiovOiqjeiovOWxgDCBnwYDVR0fBIGXMIGUMIGRoIGOoIGLpIGI
MIGFMQswCQYDVQQGEwJKUDEcMBoGA1UECgwTSmFwYW5lc2UgR292ZXJubWVudDEf
MB0GA1UECwwWTmF0aW9uYWwgUG9saWNlIEFnZW5jeTE3MDUGA1UECwwuUHJlZmVj
dHVyYWwgUHVibGljIFNhZmV0eSBDb21taXNzaW9ucyBmb3IgSUNETDANBgkqhkiG
9w0BAQsFAAOCAQEAH1XTBHd7E3Mx+etyQ34Z2OR1CLbE23B4ZPvc8stUQCdA4tfK
Kug5q3izMMP9eWAjk0bYpoGaNUMG/EusSLygIDJNDG0Vp/RM+xJlhR/gvAF3UK2D
b26Y7HxKCg9YjRqsA4W4j87Iu0UXtTSK6ZjHLZtWKWb6N9XMq9a+Z3CtJV1t/iZD
fGV4al7BjLDb0B/bIjGJgUUgqPaVCGRCtwXOWl4HfPew50oqJw6F8CVpaPlKaOWe
Ev3dgs5KCI/ugki+bmiIomOLQRpar4pBJ6YMonP974bYLPgQ2XkUc0XpdN81k4Oa
/SEU3PoKAYWV6PvOMvOn/LH+NCdapZ6TNWnZ3Q==
-----END CERTIFICATE-----
