Certificate:
    Data:
        Version: 3 (0x2)
        Serial Number:
            33:30:30:30:30:30:37:31
        Signature Algorithm: sha256WithRSAEncryption
        Issuer: C=JP, O=Japanese Government, OU=National Police Agency, OU=NPA ICDL Root CA
        Validity
            Not Before: Nov  1 05:00:57 2023 GMT
            Not After : Oct 31 14:59:59 2028 GMT
        Subject: C=JP, O=Japanese Government, OU=National Police Agency, OU=Prefectural Public Safety Commissions for ICDL, CN=Okinawa PPSC
        Subject Public Key Info:
            Public Key Algorithm: rsaEncryption
                Public-Key: (2048 bit)
                Modulus:
                    00:b0:93:6f:7c:87:58:12:d0:0b:6c:f3:9f:81:04:
                    7f:f8:5b:44:cc:69:25:fc:6c:6e:23:9b:ea:d5:09:
                    1f:ea:40:07:b6:9c:bd:ae:da:d0:59:78:a3:4a:ca:
                    3b:db:41:8f:4a:b6:8f:f9:f6:30:c3:15:6c:0b:d1:
                    12:18:84:90:e0:8b:10:28:0d:b7:f7:c6:93:60:8a:
                    61:43:c5:62:08:72:03:6b:c2:f6:36:ca:fd:41:fd:
                    ef:18:69:12:bd:aa:00:5b:1d:1d:0d:9c:36:8c:41:
                    f4:c6:6c:94:c6:3d:38:a5:9a:a1:ff:4b:9f:a3:2e:
                    ea:ef:fb:13:6d:29:5c:30:d7:d7:a0:7e:8e:33:9f:
                    80:26:17:a1:3f:1b:6f:bb:1b:08:2a:02:e3:98:bd:
                    44:49:6a:4a:f7:99:41:23:3b:64:af:cc:74:f3:b6:
                    de:68:1a:37:90:25:02:39:73:0b:da:84:76:54:bc:
                    c1:9c:25:bf:69:d2:15:83:75:b3:d0:d1:fc:70:37:
                    16:1d:08:16:12:c9:1d:b7:f9:50:1c:85:d2:b7:42:
                    a8:d8:5e:1f:41:22:32:3e:cb:ec:51:7b:64:9d:60:
                    ad:09:85:fd:09:37:14:61:eb:f3:e2:22:21:ab:75:
                    dd:85:52:1f:45:1a:65:cf:5d:96:f0:22:9c:f9:f9:
                    d5:ad
                Exponent: 65537 (0x10001)
        X509v3 extensions:
            X509v3 Authority Key Identifier: 
                keyid:11:CD:8E:60:44:47:57:4F:4F:CB:E9:E7:CB:A1:46:DF:BA:0E:50:8B
                DirName:/C=JP/O=Japanese Government/OU=National Police Agency/OU=NPA ICDL Root CA
                serial:32:30:30:30:30:30:31:36
            X509v3 Subject Key Identifier: 
                AB:8E:D2:8D:48:A4:3B:D0:7F:33:BA:7A:79:A2:E3:60:45:DD:B3:45
            X509v3 Key Usage: critical
                Digital Signature, Non Repudiation
            X509v3 Certificate Policies: critical
                Policy: 1.2.392.100120.7.5.1.1.10
                  CPS: http://www.npa.go.jp/
            X509v3 Subject Alternative Name: 
                DirName:/C=JP/O=\xE6\x97\xA5\xE6\x9C\xAC\xE5\x9B\xBD\xE6\x94\xBF\xE5\xBA\x9C/OU=\xE8\xAD\xA6\xE5\xAF\x9F\xE5\xBA\x81/OU=\xE9\x83\xBD\xE9\x81\x93\xE5\xBA\x9C\xE7\x9C\x8C\xE5\x85\xAC\xE5\xAE\x89\xE5\xA7\x94\xE5\x93\xA1\xE4\xBC\x9A
            X509v3 Issuer Alternative Name: 
                DirName:/C=JP/O=\xE6\x97\xA5\xE6\x9C\xAC\xE5\x9B\xBD\xE6\x94\xBF\xE5\xBA\x9C/OU=\xE8\xAD\xA6\xE5\xAF\x9F\xE5\xBA\x81/OU=\xE8\xAD\xA6\xE5\xAF\x9F\xE5\xBA\x81\xE9\x81\x8B\xE8\xBB\xA2\xE5\x85\x8D\xE8\xA8\xB1\xE8\xA8\xBC\xE8\xAA\x8D\xE8\xA8\xBC\xE5\xB1\x80
            X509v3 CRL Distribution Points: 
                Full Name:
                  DirName:C = JP, O = Japanese Government, OU = National Police Agency, OU = Prefectural Public Safety Commissions for ICDL
    Signature Algorithm: sha256WithRSAEncryption
    Signature Value:
        7d:dc:1c:9c:7d:cd:24:13:a1:64:3f:e9:d7:21:42:8e:5a:ea:
        98:2f:e2:1b:4d:77:11:bb:73:fa:04:a0:5a:2e:ab:06:f2:5b:
        b0:eb:30:b0:f2:be:41:4d:4f:2e:15:66:38:08:80:87:17:33:
        e4:8d:d6:1a:f7:52:a2:60:90:2c:38:88:11:40:b3:69:b0:be:
        06:98:c3:e6:59:f6:4a:cf:89:f5:f7:94:d0:07:4e:7f:f2:32:
        5f:f6:af:1f:6b:51:cb:02:57:34:54:72:e8:6d:2c:82:09:3d:
        66:79:23:4d:55:fe:8d:38:8b:f5:b1:17:4a:d0:5e:0c:03:42:
        a9:a0:76:5f:89:9b:2c:00:28:31:fd:24:06:2b:10:71:61:2a:
        62:1f:8e:cb:e5:eb:48:72:49:8f:d6:62:6e:53:13:11:a5:97:
        08:b1:1c:5a:77:aa:0a:f8:1e:50:05:17:e5:9b:3d:06:52:26:
        2e:d2:e1:db:a4:3d:2a:b2:33:26:99:1a:49:cf:3d:a8:df:92:
        18:19:7f:29:08:61:e3:3d:a1:39:be:e1:ba:de:81:be:fc:3c:
        87:db:29:a0:a9:98:e0:54:20:9f:3d:d6:6d:dc:1d:e5:8c:cf:
        64:43:96:dc:6b:86:e6:4b:67:58:43:f4:d1:be:b7:fa:9c:8c:
        06:a7:d0:6e
-----BEGIN CERTIFICATE-----
MIIGSDCCBTCgAwIBAgIIMzAwMDAwNzEwDQYJKoZIhvcNAQELBQAwZzELMAkGA1UE
BhMCSlAxHDAaBgNVBAoME0phcGFuZXNlIEdvdmVybm1lbnQxHzAdBgNVBAsMFk5h
dGlvbmFsIFBvbGljZSBBZ2VuY3kxGTAXBgNVBAsMEE5QQSBJQ0RMIFJvb3QgQ0Ew
HhcNMjMxMTAxMDUwMDU3WhcNMjgxMDMxMTQ1OTU5WjCBnDELMAkGA1UEBhMCSlAx
HDAaBgNVBAoME0phcGFuZXNlIEdvdmVybm1lbnQxHzAdBgNVBAsMFk5hdGlvbmFs
IFBvbGljZSBBZ2VuY3kxNzA1BgNVBAsMLlByZWZlY3R1cmFsIFB1YmxpYyBTYWZl
dHkgQ29tbWlzc2lvbnMgZm9yIElDREwxFTATBgNVBAMMDE9raW5hd2EgUFBTQzCC
ASIwDQYJKoZIhvcNAQEBBQADggEPADCCAQoCggEBALCTb3yHWBLQC2zzn4EEf/hb
RMxpJfxsbiOb6tUJH+pAB7acva7a0Fl4o0rKO9tBj0q2j/n2MMMVbAvREhiEkOCL
ECgNt/fGk2CKYUPFYghyA2vC9jbK/UH97xhpEr2qAFsdHQ2cNoxB9MZslMY9OKWa
of9Ln6Mu6u/7E20pXDDX16B+jjOfgCYXoT8bb7sbCCoC45i9RElqSveZQSM7ZK/M
dPO23mgaN5AlAjlzC9qEdlS8wZwlv2nSFYN1s9DR/HA3Fh0IFhLJHbf5UByF0rdC
qNheH0EiMj7L7FF7ZJ1grQmF/Qk3FGHr8+IiIat13YVSH0UaZc9dlvAinPn51a0C
AwEAAaOCAsAwggK8MIGYBgNVHSMEgZAwgY2AFBHNjmBER1dPT8vp58uhRt+6DlCL
oWukaTBnMQswCQYDVQQGEwJKUDEcMBoGA1UECgwTSmFwYW5lc2UgR292ZXJubWVu
dDEfMB0GA1UECwwWTmF0aW9uYWwgUG9saWNlIEFnZW5jeTEZMBcGA1UECwwQTlBB
IElDREwgUm9vdCBDQYIIMjAwMDAwMTYwHQYDVR0OBBYEFKuO0o1IpDvQfzO6enmi
42BF3bNFMA4GA1UdDwEB/wQEAwIGwDBABgNVHSABAf8ENjA0MDIGCyqDCIaOGAcF
AQEKMCMwIQYIKwYBBQUHAgEWFWh0dHA6Ly93d3cubnBhLmdvLmpwLzCBlQYDVR0R
BIGNMIGKpIGHMIGEMQswCQYDVQQGEwJKUDEYMBYGA1UECgwP5pel5pys5Zu95pS/
5bqcMRIwEAYDVQQLDAnorablr5/luoExJDAiBgNVBAsMG+mDvemBk+W6nOecjOWF
rOWuieWnlOWToeS8mjEhMB8GA1UEAwwY5rKW57iE55yM5YWs5a6J5aeU5ZOh5Lya
MHQGA1UdEgRtMGukaTBnMQswCQYDVQQGEwJKUDEYMBYGA1UECgwP5pel5pys5Zu9
5pS/5bqcMRIwEAYDVQQLDAnorablr5/luoExKjAoBgNVBAsMIeitpuWvn+W6gemB
i+i7ouWFjeioseiovOiqjeiovOWxgDCBnwYDVR0fBIGXMIGUMIGRoIGOoIGLpIGI
MIGFMQswCQYDVQQGEwJKUDEcMBoGA1UECgwTSmFwYW5lc2UgR292ZXJubWVudDEf
MB0GA1UECwwWTmF0aW9uYWwgUG9saWNlIEFnZW5jeTE3MDUGA1UECwwuUHJlZmVj
dHVyYWwgUHVibGljIFNhZmV0eSBDb21taXNzaW9ucyBmb3IgSUNETDANBgkqhkiG
9w0BAQsFAAOCAQEAfdwcnH3NJBOhZD/p1yFCjlrqmC/iG013Ebtz+gSgWi6rBvJb
sOswsPK+QU1PLhVmOAiAhxcz5I3WGvdSomCQLDiIEUCzabC+BpjD5ln2Ss+J9feU
0AdOf/IyX/avH2tRywJXNFRy6G0sggk9ZnkjTVX+jTiL9bEXStBeDANCqaB2X4mb
LAAoMf0kBisQcWEqYh+Oy+XrSHJJj9ZiblMTEaWXCLEcWneqCvgeUAUX5Zs9BlIm
LtLh26Q9KrIzJpkaSc89qN+SGBl/KQhh4z2hOb7hut6Bvvw8h9spoKmY4FQgnz3W
bdwd5YzPZEOW3GuG5ktnWEP00b63+pyMBqfQbg==
-----END CERTIFICATE-----
