Certificate:
    Data:
        Version: 3 (0x2)
        Serial Number:
            33:30:30:30:30:30:35:36:cb:45:3d:d7:68:e7:5a:7f:26:8d
        Signature Algorithm: sha256WithRSAEncryption
        Issuer: C=JP, O=Japanese Government, OU=National Police Agency, OU=NPA ICDL Root CA
        Validity
            Not Before: Jun 19 06:25:59 2023 GMT
            Not After : Jun 18 14:59:59 2028 GMT
        Subject: C=JP, O=Japanese Government, OU=National Police Agency, OU=Prefectural Public Safety Commissions for ICDL, CN=Okinawa AltPPSC
        Subject Public Key Info:
            Public Key Algorithm: rsaEncryption
                Public-Key: (2048 bit)
                Modulus:
                    00:a2:14:0c:d4:52:c4:70:ba:56:e6:e9:10:17:99:
                    7e:9c:f9:ef:7c:5b:de:1e:d5:23:b6:a1:83:c0:c1:
                    df:dc:ed:4a:8f:5c:c3:b1:24:b4:ed:e6:92:ec:4c:
                    b4:ec:a1:9a:8e:80:82:eb:11:e0:4a:a0:2b:08:be:
                    90:46:1e:67:0c:f0:9a:3c:fc:c1:8c:14:19:64:62:
                    b6:15:ae:05:33:f9:fe:fa:77:5e:9d:49:8f:51:e0:
                    94:f3:a9:f2:71:5f:8b:1f:e8:c5:5d:75:8b:45:d4:
                    dd:12:e8:be:60:22:ab:66:2f:43:40:78:e3:ff:e4:
                    89:ec:3e:74:7d:e0:d3:db:1c:97:1e:04:7b:92:32:
                    a6:a7:d1:fd:35:c2:c3:9f:cd:36:85:e0:41:b0:79:
                    a2:6a:e2:dc:3f:e6:61:ea:81:82:17:ad:18:bc:79:
                    f5:3c:e1:ce:99:32:3e:2f:bc:7b:1d:50:14:5a:c8:
                    0b:37:5c:ab:3c:2c:06:04:bb:eb:7d:d2:dc:18:3b:
                    80:c1:77:b3:32:74:51:cb:2b:c4:7a:c9:86:93:12:
                    c4:5f:88:57:1a:55:51:c3:04:67:24:c8:76:fe:c2:
                    bf:89:15:91:4b:a2:1f:38:c6:c2:d9:54:3d:cd:36:
                    45:42:f0:fc:9e:24:b9:ca:ee:e7:e5:e0:12:37:33:
                    0a:6d
                Exponent: 65537 (0x10001)
        X509v3 extensions:
            X509v3 Authority Key Identifier: 
                keyid:11:CD:8E:60:44:47:57:4F:4F:CB:E9:E7:CB:A1:46:DF:BA:0E:50:8B
                DirName:/C=JP/O=Japanese Government/OU=National Police Agency/OU=NPA ICDL Root CA
                serial:32:30:30:30:30:30:31:36
            X509v3 Subject Key Identifier: 
                92:BA:F5:9A:6C:81:C0:48:DE:66:55:B4:E0:34:63:2A:51:E4:98:87
            X509v3 Key Usage: critical
                Digital Signature, Non Repudiation
            X509v3 Certificate Policies: critical
                Policy: 1.2.392.100120.7.5.1.1.10
                  CPS: http://www.npa.go.jp/
            X509v3 Issuer Alternative Name: 
                DirName:/C=JP/O=\xE6\x97\xA5\xE6\x9C\xAC\xE5\x9B\xBD\xE6\x94\xBF\xE5\xBA\x9C/OU=\xE8\xAD\xA6\xE5\xAF\x9F\xE5\xBA\x81/OU=\xE8\xAD\xA6\xE5\xAF\x9F\xE5\xBA\x81\xE9\x81\x8B\xE8\xBB\xA2\xE5\x85\x8D\xE8\xA8\xB1\xE8\xA8\xBC\xE8\xAA\x8D\xE8\xA8\xBC\xE5\xB1\x80
            X509v3 CRL Distribution Points: 
                Full Name:
                  DirName:C = JP, O = Japanese Government, OU = National Police Agency, OU = Prefectural Public Safety Commissions for ICDL
    Signature Algorithm: sha256WithRSAEncryption
    Signature Value:
        31:92:a9:ba:01:af:2c:93:37:05:f1:76:52:fc:94:3b:6b:11:
        7f:d2:fa:05:70:64:4a:72:0b:dd:86:9d:c4:30:51:35:10:69:
        6e:c5:55:23:21:1d:02:0f:29:9f:e6:87:6f:98:2c:81:d2:4b:
        bb:10:28:01:ec:0a:05:d7:0a:f3:67:c0:06:af:ee:61:91:e7:
        7d:1c:40:45:c7:b7:c7:97:50:f9:60:66:87:42:cf:ef:63:25:
        08:35:85:af:fc:b7:d3:aa:9d:1b:96:1a:5f:cd:24:b5:83:3c:
        83:c3:97:0c:e0:74:1e:6a:7e:9a:ba:0a:cf:20:68:59:1f:bc:
        33:21:8f:ba:50:18:a3:7d:57:13:e2:cf:ab:0b:49:8d:3f:0d:
        24:1b:01:d2:01:25:e3:b5:bd:e5:5b:7a:b4:67:b1:5a:9e:ba:
        82:5e:ed:f4:7f:5d:69:0a:22:64:7c:10:cd:09:ba:3c:9e:83:
        64:e2:dc:1b:90:cf:50:d3:b0:56:6a:47:db:a7:5c:01:19:af:
        31:05:69:fd:bb:30:1c:ae:72:14:e4:33:2d:72:19:aa:08:58:
        45:81:7a:b1:6b:bf:fc:f4:4a:df:60:0f:81:da:31:c3:48:a4:
        69:22:67:b7:f4:d2:39:42:93:f4:03:24:dd:57:c1:c1:85:06:
        36:96:0b:0b
-----BEGIN CERTIFICATE-----
MIIFvTCCBKWgAwIBAgISMzAwMDAwNTbLRT3XaOdafyaNMA0GCSqGSIb3DQEBCwUA
MGcxCzAJBgNVBAYTAkpQMRwwGgYDVQQKDBNKYXBhbmVzZSBHb3Zlcm5tZW50MR8w
HQYDVQQLDBZOYXRpb25hbCBQb2xpY2UgQWdlbmN5MRkwFwYDVQQLDBBOUEEgSUNE
TCBSb290IENBMB4XDTIzMDYxOTA2MjU1OVoXDTI4MDYxODE0NTk1OVowgZ8xCzAJ
BgNVBAYTAkpQMRwwGgYDVQQKDBNKYXBhbmVzZSBHb3Zlcm5tZW50MR8wHQYDVQQL
DBZOYXRpb25hbCBQb2xpY2UgQWdlbmN5MTcwNQYDVQQLDC5QcmVmZWN0dXJhbCBQ
dWJsaWMgU2FmZXR5IENvbW1pc3Npb25zIGZvciBJQ0RMMRgwFgYDVQQDDA9Pa2lu
YXdhIEFsdFBQU0MwggEiMA0GCSqGSIb3DQEBAQUAA4IBDwAwggEKAoIBAQCiFAzU
UsRwulbm6RAXmX6c+e98W94e1SO2oYPAwd/c7UqPXMOxJLTt5pLsTLTsoZqOgILr
EeBKoCsIvpBGHmcM8Jo8/MGMFBlkYrYVrgUz+f76d16dSY9R4JTzqfJxX4sf6MVd
dYtF1N0S6L5gIqtmL0NAeOP/5InsPnR94NPbHJceBHuSMqan0f01wsOfzTaF4EGw
eaJq4tw/5mHqgYIXrRi8efU84c6ZMj4vvHsdUBRayAs3XKs8LAYEu+t90twYO4DB
d7MydFHLK8R6yYaTEsRfiFcaVVHDBGckyHb+wr+JFZFLoh84xsLZVD3NNkVC8Pye
JLnK7ufl4BI3MwptAgMBAAGjggIoMIICJDCBmAYDVR0jBIGQMIGNgBQRzY5gREdX
T0/L6efLoUbfug5Qi6FrpGkwZzELMAkGA1UEBhMCSlAxHDAaBgNVBAoME0phcGFu
ZXNlIEdvdmVybm1lbnQxHzAdBgNVBAsMFk5hdGlvbmFsIFBvbGljZSBBZ2VuY3kx
GTAXBgNVBAsMEE5QQSBJQ0RMIFJvb3QgQ0GCCDIwMDAwMDE2MB0GA1UdDgQWBBSS
uvWabIHASN5mVbTgNGMqUeSYhzAOBgNVHQ8BAf8EBAMCBsAwQAYDVR0gAQH/BDYw
NDAyBgsqgwiGjhgHBQEBCjAjMCEGCCsGAQUFBwIBFhVodHRwOi8vd3d3Lm5wYS5n
by5qcC8wdAYDVR0SBG0wa6RpMGcxCzAJBgNVBAYTAkpQMRgwFgYDVQQKDA/ml6Xm
nKzlm73mlL/lupwxEjAQBgNVBAsMCeitpuWvn+W6gTEqMCgGA1UECwwh6K2m5a+f
5bqB6YGL6Lui5YWN6Kix6Ki86KqN6Ki85bGAMIGfBgNVHR8EgZcwgZQwgZGggY6g
gYukgYgwgYUxCzAJBgNVBAYTAkpQMRwwGgYDVQQKDBNKYXBhbmVzZSBHb3Zlcm5t
ZW50MR8wHQYDVQQLDBZOYXRpb25hbCBQb2xpY2UgQWdlbmN5MTcwNQYDVQQLDC5Q
cmVmZWN0dXJhbCBQdWJsaWMgU2FmZXR5IENvbW1pc3Npb25zIGZvciBJQ0RMMA0G
CSqGSIb3DQEBCwUAA4IBAQAxkqm6Aa8skzcF8XZS/JQ7axF/0voFcGRKcgvdhp3E
MFE1EGluxVUjIR0CDymf5odvmCyB0ku7ECgB7AoF1wrzZ8AGr+5hked9HEBFx7fH
l1D5YGaHQs/vYyUINYWv/LfTqp0blhpfzSS1gzyDw5cM4HQean6augrPIGhZH7wz
IY+6UBijfVcT4s+rC0mNPw0kGwHSASXjtb3lW3q0Z7FanrqCXu30f11pCiJkfBDN
Cbo8noNk4twbkM9Q07BWakfbp1wBGa8xBWn9uzAcrnIU5DMtchmqCFhFgXqxa7/8
9ErfYA+B2jHDSKRpIme39NI5QpP0AyTdV8HBhQY2lgsL
-----END CERTIFICATE-----
