Certificate:
    Data:
        Version: 3 (0x2)
        Serial Number:
            33:30:30:30:30:30:39:31
        Signature Algorithm: sha256WithRSAEncryption
        Issuer: C=JP, O=Japanese Government, OU=National Police Agency, OU=NPA ICDL Root CA
        Validity
            Not Before: Mar 18 05:36:13 2024 GMT
            Not After : Mar 17 14:59:59 2029 GMT
        Subject: C=JP, O=Japanese Government, OU=National Police Agency, OU=Prefectural Public Safety Commissions for ICDL, CN=Okinawa AltPPSC
        Subject Public Key Info:
            Public Key Algorithm: rsaEncryption
                Public-Key: (2048 bit)
                Modulus:
                    00:b5:2c:5e:75:de:8a:bb:37:39:f9:99:9f:96:94:
                    d9:1c:68:7e:42:27:0f:f2:03:8f:65:7c:73:46:f4:
                    47:55:94:29:d4:db:f6:90:d7:a0:ae:63:b9:21:e8:
                    cf:32:65:ed:9e:ca:95:78:54:8e:5d:48:82:da:5e:
                    d1:b2:50:36:61:73:f1:cf:2e:d9:fd:5d:5b:3e:8b:
                    54:87:92:c8:59:9c:0d:7d:64:4e:a3:c1:a0:28:4d:
                    22:2c:7c:f5:86:b2:da:05:f1:ca:43:35:f0:b2:f2:
                    36:85:6f:3a:43:d8:13:0b:78:c7:2a:41:bd:7f:ef:
                    3c:8c:24:73:56:14:76:2e:8e:5e:6d:bd:fd:12:11:
                    f4:01:19:60:47:6a:5d:3f:01:d2:c9:6d:26:93:b0:
                    45:a8:6e:f6:60:f3:9a:3b:73:ef:04:f5:93:a9:71:
                    83:93:b8:49:ec:9b:89:df:6d:4c:fc:0a:5a:ee:82:
                    72:db:20:cd:39:5c:92:ec:f4:ab:e4:9f:7a:db:e3:
                    a1:78:12:59:97:14:6a:12:6b:f9:0a:45:01:94:f2:
                    07:db:44:be:11:29:25:71:75:43:e8:42:3d:60:bd:
                    f9:af:bf:7b:ba:7b:0c:23:18:50:45:4a:2c:57:d8:
                    a5:f1:ca:cc:e0:38:91:8c:2e:3b:3a:81:f6:8d:2f:
                    a1:93
                Exponent: 65537 (0x10001)
        X509v3 extensions:
            X509v3 Authority Key Identifier: 
                keyid:11:CD:8E:60:44:47:57:4F:4F:CB:E9:E7:CB:A1:46:DF:BA:0E:50:8B
                DirName:/C=JP/O=Japanese Government/OU=National Police Agency/OU=NPA ICDL Root CA
                serial:32:30:30:30:30:30:31:36
            X509v3 Subject Key Identifier: 
                7A:70:8F:C0:32:4E:53:BD:36:A5:1D:75:CE:11:9F:15:0B:EB:8F:69
            X509v3 Key Usage: critical
                Digital Signature, Non Repudiation
            X509v3 Certificate Policies: critical
                Policy: 1.2.392.100120.7.5.1.1.10
                  CPS: http://www.npa.go.jp/
            X509v3 Issuer Alternative Name: 
                DirName:/C=JP/O=\xE6\x97\xA5\xE6\x9C\xAC\xE5\x9B\xBD\xE6\x94\xBF\xE5\xBA\x9C/OU=\xE8\xAD\xA6\xE5\xAF\x9F\xE5\xBA\x81/OU=\xE8\xAD\xA6\xE5\xAF\x9F\xE5\xBA\x81\xE9\x81\x8B\xE8\xBB\xA2\xE5\x85\x8D\xE8\xA8\xB1\xE8\xA8\xBC\xE8\xAA\x8D\xE8\xA8\xBC\xE5\xB1\x80
            X509v3 CRL Distribution Points: 
                Full Name:
                  DirName:C = JP, O = Japanese Government, OU = National Police Agency, OU = Prefectural Public Safety Commissions for ICDL
    Signature Algorithm: sha256WithRSAEncryption
    Signature Value:
        4d:de:73:da:81:89:2b:e8:60:2b:c3:12:5f:1b:e0:68:da:15:
        c0:44:a2:54:be:6e:5f:38:e7:a0:a3:c8:a5:28:c1:4f:51:c3:
        31:b3:e1:a3:a9:ac:b1:b6:41:2f:40:29:ca:d4:6a:b5:84:43:
        e4:09:e1:07:69:35:6a:f7:f1:6e:c3:57:1f:a4:4d:44:98:b0:
        b0:6f:53:71:20:80:39:31:34:1b:11:2d:77:11:96:35:94:73:
        18:c5:ad:2a:95:a5:f6:16:c5:0a:45:ed:17:1d:53:9a:6b:bf:
        2d:64:f0:39:1a:05:40:0a:a7:af:62:c1:7b:4b:ff:67:34:a8:
        6f:4d:14:cf:43:90:5d:a1:92:33:ee:2d:e9:20:77:5b:78:47:
        7c:45:2f:67:f7:83:41:fc:f4:f4:18:fc:62:df:99:b3:4f:1f:
        2b:7a:9a:75:6e:bd:00:43:d8:af:7c:97:cc:50:66:c7:14:c1:
        75:e1:70:92:24:b2:5f:ae:87:54:2c:74:11:0e:7a:66:47:54:
        99:5b:4d:f0:39:1d:43:9d:29:ad:7b:e0:33:12:2a:ba:1f:7d:
        34:2f:c2:2a:08:8c:3c:3e:cf:92:60:b7:db:6b:78:d9:fe:63:
        75:1d:d7:22:c4:d7:36:56:c1:cb:e9:5e:5b:37:2a:b6:84:31:
        07:1f:85:40
-----BEGIN CERTIFICATE-----
MIIFszCCBJugAwIBAgIIMzAwMDAwOTEwDQYJKoZIhvcNAQELBQAwZzELMAkGA1UE
BhMCSlAxHDAaBgNVBAoME0phcGFuZXNlIEdvdmVybm1lbnQxHzAdBgNVBAsMFk5h
dGlvbmFsIFBvbGljZSBBZ2VuY3kxGTAXBgNVBAsMEE5QQSBJQ0RMIFJvb3QgQ0Ew
HhcNMjQwMzE4MDUzNjEzWhcNMjkwMzE3MTQ1OTU5WjCBnzELMAkGA1UEBhMCSlAx
HDAaBgNVBAoME0phcGFuZXNlIEdvdmVybm1lbnQxHzAdBgNVBAsMFk5hdGlvbmFs
IFBvbGljZSBBZ2VuY3kxNzA1BgNVBAsMLlByZWZlY3R1cmFsIFB1YmxpYyBTYWZl
dHkgQ29tbWlzc2lvbnMgZm9yIElDREwxGDAWBgNVBAMMD09raW5hd2EgQWx0UFBT
QzCCASIwDQYJKoZIhvcNAQEBBQADggEPADCCAQoCggEBALUsXnXeirs3OfmZn5aU
2RxofkInD/IDj2V8c0b0R1WUKdTb9pDXoK5juSHozzJl7Z7KlXhUjl1Igtpe0bJQ
NmFz8c8u2f1dWz6LVIeSyFmcDX1kTqPBoChNIix89Yay2gXxykM18LLyNoVvOkPY
Ewt4xypBvX/vPIwkc1YUdi6OXm29/RIR9AEZYEdqXT8B0sltJpOwRahu9mDzmjtz
7wT1k6lxg5O4Seybid9tTPwKWu6CctsgzTlckuz0q+SfetvjoXgSWZcUahJr+QpF
AZTyB9tEvhEpJXF1Q+hCPWC9+a+/e7p7DCMYUEVKLFfYpfHKzOA4kYwuOzqB9o0v
oZMCAwEAAaOCAigwggIkMIGYBgNVHSMEgZAwgY2AFBHNjmBER1dPT8vp58uhRt+6
DlCLoWukaTBnMQswCQYDVQQGEwJKUDEcMBoGA1UECgwTSmFwYW5lc2UgR292ZXJu
bWVudDEfMB0GA1UECwwWTmF0aW9uYWwgUG9saWNlIEFnZW5jeTEZMBcGA1UECwwQ
TlBBIElDREwgUm9vdCBDQYIIMjAwMDAwMTYwHQYDVR0OBBYEFHpwj8AyTlO9NqUd
dc4RnxUL649pMA4GA1UdDwEB/wQEAwIGwDBABgNVHSABAf8ENjA0MDIGCyqDCIaO
GAcFAQEKMCMwIQYIKwYBBQUHAgEWFWh0dHA6Ly93d3cubnBhLmdvLmpwLzB0BgNV
HRIEbTBrpGkwZzELMAkGA1UEBhMCSlAxGDAWBgNVBAoMD+aXpeacrOWbveaUv+W6
nDESMBAGA1UECwwJ6K2m5a+f5bqBMSowKAYDVQQLDCHorablr5/luoHpgYvou6Ll
hY3oqLHoqLzoqo3oqLzlsYAwgZ8GA1UdHwSBlzCBlDCBkaCBjqCBi6SBiDCBhTEL
MAkGA1UEBhMCSlAxHDAaBgNVBAoME0phcGFuZXNlIEdvdmVybm1lbnQxHzAdBgNV
BAsMFk5hdGlvbmFsIFBvbGljZSBBZ2VuY3kxNzA1BgNVBAsMLlByZWZlY3R1cmFs
IFB1YmxpYyBTYWZldHkgQ29tbWlzc2lvbnMgZm9yIElDREwwDQYJKoZIhvcNAQEL
BQADggEBAE3ec9qBiSvoYCvDEl8b4GjaFcBEolS+bl8456CjyKUowU9RwzGz4aOp
rLG2QS9AKcrUarWEQ+QJ4QdpNWr38W7DVx+kTUSYsLBvU3EggDkxNBsRLXcRljWU
cxjFrSqVpfYWxQpF7RcdU5prvy1k8DkaBUAKp69iwXtL/2c0qG9NFM9DkF2hkjPu
Lekgd1t4R3xFL2f3g0H89PQY/GLfmbNPHyt6mnVuvQBD2K98l8xQZscUwXXhcJIk
sl+uh1QsdBEOemZHVJlbTfA5HUOdKa174DMSKroffTQvwioIjDw+z5Jgt9treNn+
Y3Ud1yLE1zZWwcvpXls3KraEMQcfhUA=
-----END CERTIFICATE-----
