Certificate:
    Data:
        Version: 3 (0x2)
        Serial Number:
            32:30:30:30:30:30:33:33
        Signature Algorithm: sha256WithRSAEncryption
        Issuer: C=JP, O=Japanese Government, OU=National Police Agency, OU=NPA ICDL Root CA
        Validity
            Not Before: Dec 14 02:25:46 2022 GMT
            Not After : Dec 13 14:59:59 2027 GMT
        Subject: C=JP, O=Japanese Government, OU=National Police Agency, OU=Prefectural Public Safety Commissions for ICDL, CN=Osaka PPSC
        Subject Public Key Info:
            Public Key Algorithm: rsaEncryption
                Public-Key: (2048 bit)
                Modulus:
                    00:c7:55:d3:5a:ee:be:02:3f:f9:0d:21:bc:4a:8a:
                    0c:1a:b2:2c:ca:39:63:9b:ba:40:cf:c2:11:07:12:
                    d3:15:95:2d:bf:56:fa:c5:77:ff:4c:9f:c9:60:3e:
                    91:a6:06:39:8c:ef:14:37:ef:d0:03:36:3a:5e:dd:
                    81:a8:38:f3:74:12:89:e4:01:fc:34:e0:6d:7c:3f:
                    e0:60:43:b8:95:7c:22:b2:04:26:b9:54:ec:69:36:
                    67:8c:b5:16:79:51:11:b4:58:03:59:d9:7a:ef:b3:
                    19:68:a1:e8:7d:ce:34:f9:82:b7:24:ef:be:47:e8:
                    02:c4:ed:b9:9d:66:61:80:f1:86:02:e2:e6:57:cd:
                    95:e6:24:d2:e1:09:cd:a3:d9:43:ae:ee:52:f6:b5:
                    91:29:8d:85:ae:96:c3:61:5a:2a:54:29:06:d1:34:
                    e2:ef:cd:5c:78:21:45:4f:3e:ca:2f:88:8b:28:d1:
                    5f:fe:d4:e3:92:57:ca:91:aa:21:ca:92:08:55:46:
                    3b:d2:d5:98:d3:e5:f0:1c:16:0b:59:48:2c:23:fc:
                    e6:f8:3f:f6:01:91:0b:1c:6c:22:e1:f5:9e:60:a9:
                    f8:35:90:58:35:c5:ad:78:ce:9b:cd:bc:ef:27:6c:
                    96:91:2c:5d:a3:87:77:81:36:72:09:1f:e9:dc:c6:
                    d0:4b
                Exponent: 65537 (0x10001)
        X509v3 extensions:
            X509v3 Authority Key Identifier: 
                keyid:11:CD:8E:60:44:47:57:4F:4F:CB:E9:E7:CB:A1:46:DF:BA:0E:50:8B
                DirName:/C=JP/O=Japanese Government/OU=National Police Agency/OU=NPA ICDL Root CA
                serial:32:30:30:30:30:30:31:36
            X509v3 Subject Key Identifier: 
                5A:83:D2:6F:E4:2B:94:E0:05:DA:05:F4:1C:5C:6B:DF:8C:5F:D9:74
            X509v3 Key Usage: critical
                Digital Signature, Non Repudiation
            X509v3 Certificate Policies: critical
                Policy: 1.2.392.100120.7.5.1.1.10
                  CPS: http://www.npa.go.jp/
            X509v3 Subject Alternative Name: 
                DirName:/C=JP/O=\xE6\x97\xA5\xE6\x9C\xAC\xE5\x9B\xBD\xE6\x94\xBF\xE5\xBA\x9C/OU=\xE8\xAD\xA6\xE5\xAF\x9F\xE5\xBA\x81/OU=\xE9\x83\xBD\xE9\x81\x93\xE5\xBA\x9C\xE7\x9C\x8C\xE5\x85\xAC\xE5\xAE\x89\xE5\xA7\x94\xE5\x93\xA1\xE4\xBC\x9A
            X509v3 Issuer Alternative Name: 
                DirName:/C=JP/O=\xE6\x97\xA5\xE6\x9C\xAC\xE5\x9B\xBD\xE6\x94\xBF\xE5\xBA\x9C/OU=\xE8\xAD\xA6\xE5\xAF\x9F\xE5\xBA\x81/OU=\xE8\xAD\xA6\xE5\xAF\x9F\xE5\xBA\x81\xE9\x81\x8B\xE8\xBB\xA2\xE5\x85\x8D\xE8\xA8\xB1\xE8\xA8\xBC\xE8\xAA\x8D\xE8\xA8\xBC\xE5\xB1\x80
            X509v3 CRL Distribution Points: 
                Full Name:
                  DirName:C = JP, O = Japanese Government, OU = National Police Agency, OU = Prefectural Public Safety Commissions for ICDL
    Signature Algorithm: sha256WithRSAEncryption
    Signature Value:
        95:2f:30:da:e0:33:bb:60:93:0a:c1:2c:1e:dc:32:2c:f7:1e:
        9e:20:15:b2:fe:67:56:64:00:7a:c6:08:ce:76:7d:c0:19:a3:
        d8:a7:77:4f:79:39:39:f5:cc:e4:c2:73:73:0b:8a:cb:c8:16:
        df:7f:0f:06:32:eb:68:8f:dc:5c:73:c9:e0:7e:94:af:a8:5c:
        40:85:0a:b1:18:ac:67:c3:53:04:67:84:03:09:99:66:2e:88:
        a3:7c:42:fa:e1:7c:83:9b:2b:b3:c5:0e:36:8e:65:7b:37:6f:
        74:f9:63:3f:f4:0c:5c:d1:bf:26:d3:8d:42:3f:2b:de:05:28:
        0c:01:b6:6d:48:cc:1b:34:a7:80:17:06:d7:64:34:e4:7e:89:
        8f:63:86:06:ae:ac:c8:a3:a0:bf:79:a7:22:a3:63:4a:5d:34:
        21:01:de:34:70:a6:29:d5:69:c6:00:f5:8a:f6:0b:c9:ab:71:
        ca:7e:04:7a:b1:1d:69:1c:7d:82:13:c0:d5:8a:20:ea:d3:6f:
        33:51:50:ba:c9:a7:cd:b2:fa:3e:6e:66:49:df:da:be:27:c3:
        4b:78:ae:64:46:f5:03:90:8f:c3:4b:6f:b1:cc:13:f5:b4:37:
        7b:d1:22:3f:cf:4e:a2:4c:21:39:46:ca:ec:51:29:28:39:14:
        7b:02:9a:b2
-----BEGIN CERTIFICATE-----
MIIGRjCCBS6gAwIBAgIIMjAwMDAwMzMwDQYJKoZIhvcNAQELBQAwZzELMAkGA1UE
BhMCSlAxHDAaBgNVBAoME0phcGFuZXNlIEdvdmVybm1lbnQxHzAdBgNVBAsMFk5h
dGlvbmFsIFBvbGljZSBBZ2VuY3kxGTAXBgNVBAsMEE5QQSBJQ0RMIFJvb3QgQ0Ew
HhcNMjIxMjE0MDIyNTQ2WhcNMjcxMjEzMTQ1OTU5WjCBmjELMAkGA1UEBhMCSlAx
HDAaBgNVBAoME0phcGFuZXNlIEdvdmVybm1lbnQxHzAdBgNVBAsMFk5hdGlvbmFs
IFBvbGljZSBBZ2VuY3kxNzA1BgNVBAsMLlByZWZlY3R1cmFsIFB1YmxpYyBTYWZl
dHkgQ29tbWlzc2lvbnMgZm9yIElDREwxEzARBgNVBAMMCk9zYWthIFBQU0MwggEi
MA0GCSqGSIb3DQEBAQUAA4IBDwAwggEKAoIBAQDHVdNa7r4CP/kNIbxKigwasizK
OWObukDPwhEHEtMVlS2/VvrFd/9Mn8lgPpGmBjmM7xQ379ADNjpe3YGoOPN0Eonk
Afw04G18P+BgQ7iVfCKyBCa5VOxpNmeMtRZ5URG0WANZ2Xrvsxlooeh9zjT5grck
775H6ALE7bmdZmGA8YYC4uZXzZXmJNLhCc2j2UOu7lL2tZEpjYWulsNhWipUKQbR
NOLvzVx4IUVPPsoviIso0V/+1OOSV8qRqiHKkghVRjvS1ZjT5fAcFgtZSCwj/Ob4
P/YBkQscbCLh9Z5gqfg1kFg1xa14zpvNvO8nbJaRLF2jh3eBNnIJH+ncxtBLAgMB
AAGjggLAMIICvDCBmAYDVR0jBIGQMIGNgBQRzY5gREdXT0/L6efLoUbfug5Qi6Fr
pGkwZzELMAkGA1UEBhMCSlAxHDAaBgNVBAoME0phcGFuZXNlIEdvdmVybm1lbnQx
HzAdBgNVBAsMFk5hdGlvbmFsIFBvbGljZSBBZ2VuY3kxGTAXBgNVBAsMEE5QQSBJ
Q0RMIFJvb3QgQ0GCCDIwMDAwMDE2MB0GA1UdDgQWBBRag9Jv5CuU4AXaBfQcXGvf
jF/ZdDAOBgNVHQ8BAf8EBAMCBsAwQAYDVR0gAQH/BDYwNDAyBgsqgwiGjhgHBQEB
CjAjMCEGCCsGAQUFBwIBFhVodHRwOi8vd3d3Lm5wYS5nby5qcC8wgZUGA1UdEQSB
jTCBiqSBhzCBhDELMAkGA1UEBhMCSlAxGDAWBgNVBAoMD+aXpeacrOWbveaUv+W6
nDESMBAGA1UECwwJ6K2m5a+f5bqBMSQwIgYDVQQLDBvpg73pgZPlupznnIzlhazl
ronlp5Tlk6HkvJoxITAfBgNVBAMMGOWkp+mYquW6nOWFrOWuieWnlOWToeS8mjB0
BgNVHRIEbTBrpGkwZzELMAkGA1UEBhMCSlAxGDAWBgNVBAoMD+aXpeacrOWbveaU
v+W6nDESMBAGA1UECwwJ6K2m5a+f5bqBMSowKAYDVQQLDCHorablr5/luoHpgYvo
u6LlhY3oqLHoqLzoqo3oqLzlsYAwgZ8GA1UdHwSBlzCBlDCBkaCBjqCBi6SBiDCB
hTELMAkGA1UEBhMCSlAxHDAaBgNVBAoME0phcGFuZXNlIEdvdmVybm1lbnQxHzAd
BgNVBAsMFk5hdGlvbmFsIFBvbGljZSBBZ2VuY3kxNzA1BgNVBAsMLlByZWZlY3R1
cmFsIFB1YmxpYyBTYWZldHkgQ29tbWlzc2lvbnMgZm9yIElDREwwDQYJKoZIhvcN
AQELBQADggEBAJUvMNrgM7tgkwrBLB7cMiz3Hp4gFbL+Z1ZkAHrGCM52fcAZo9in
d095OTn1zOTCc3MLisvIFt9/DwYy62iP3FxzyeB+lK+oXECFCrEYrGfDUwRnhAMJ
mWYuiKN8QvrhfIObK7PFDjaOZXs3b3T5Yz/0DFzRvybTjUI/K94FKAwBtm1IzBs0
p4AXBtdkNOR+iY9jhgaurMijoL95pyKjY0pdNCEB3jRwpinVacYA9Yr2C8mrccp+
BHqxHWkcfYITwNWKIOrTbzNRULrJp82y+j5uZknf2r4nw0t4rmRG9QOQj8NLb7HM
E/W0N3vRIj/PTqJMITlGyuxRKSg5FHsCmrI=
-----END CERTIFICATE-----
