Certificate:
    Data:
        Version: 3 (0x2)
        Serial Number:
            33:30:30:30:30:30:33:36:d6:56:a9:9c:01:f4:de:2d:fa:88
        Signature Algorithm: sha256WithRSAEncryption
        Issuer: C=JP, O=Japanese Government, OU=National Police Agency, OU=NPA ICDL Root CA
        Validity
            Not Before: Jun 19 06:00:00 2023 GMT
            Not After : Jun 18 14:59:59 2028 GMT
        Subject: C=JP, O=Japanese Government, OU=National Police Agency, OU=Prefectural Public Safety Commissions for ICDL, CN=Osaka AltPPSC
        Subject Public Key Info:
            Public Key Algorithm: rsaEncryption
                Public-Key: (2048 bit)
                Modulus:
                    00:98:c6:fd:60:7d:13:c2:90:d4:d0:7b:ce:de:a5:
                    da:86:8d:dd:67:4b:0d:39:04:80:34:41:52:39:f6:
                    98:d1:51:11:fc:18:f8:6f:cd:0d:23:3f:02:45:79:
                    e4:d7:e8:74:4a:9f:3a:14:32:a3:cf:20:df:99:12:
                    57:45:d0:15:51:1f:99:4d:c3:6f:4a:64:5c:b1:5a:
                    ff:33:5c:45:90:43:13:14:72:94:38:85:5c:63:23:
                    97:c0:94:99:dc:e2:94:e0:14:e2:68:8d:0e:9e:fa:
                    10:7a:84:3c:af:07:86:d2:b1:8f:89:da:19:31:b8:
                    09:90:c0:d5:33:ca:41:44:32:a1:94:05:a0:32:57:
                    30:d4:00:09:41:74:86:10:8c:3b:91:40:39:63:76:
                    62:1d:8d:3a:a9:6a:85:91:bf:b6:ab:e5:df:4f:ce:
                    1a:18:38:9b:a9:36:66:95:32:59:66:ae:e9:ad:e1:
                    2b:e9:57:49:8a:0d:e1:86:29:4c:d1:72:ac:a0:05:
                    59:3e:12:5c:95:86:52:83:af:73:d0:ae:15:14:be:
                    5b:63:f4:72:ef:68:85:53:84:5d:25:58:96:5c:05:
                    f2:6c:77:eb:72:01:4f:83:4e:b1:30:96:4e:43:26:
                    7a:b8:d7:0f:b4:7b:48:12:66:3b:06:24:92:7c:58:
                    2c:f7
                Exponent: 65537 (0x10001)
        X509v3 extensions:
            X509v3 Authority Key Identifier: 
                keyid:11:CD:8E:60:44:47:57:4F:4F:CB:E9:E7:CB:A1:46:DF:BA:0E:50:8B
                DirName:/C=JP/O=Japanese Government/OU=National Police Agency/OU=NPA ICDL Root CA
                serial:32:30:30:30:30:30:31:36
            X509v3 Subject Key Identifier: 
                96:B3:A6:D9:6C:F6:33:5B:6D:65:57:85:F2:4D:EE:E1:6C:36:E0:DB
            X509v3 Key Usage: critical
                Digital Signature, Non Repudiation
            X509v3 Certificate Policies: critical
                Policy: 1.2.392.100120.7.5.1.1.10
                  CPS: http://www.npa.go.jp/
            X509v3 Issuer Alternative Name: 
                DirName:/C=JP/O=\xE6\x97\xA5\xE6\x9C\xAC\xE5\x9B\xBD\xE6\x94\xBF\xE5\xBA\x9C/OU=\xE8\xAD\xA6\xE5\xAF\x9F\xE5\xBA\x81/OU=\xE8\xAD\xA6\xE5\xAF\x9F\xE5\xBA\x81\xE9\x81\x8B\xE8\xBB\xA2\xE5\x85\x8D\xE8\xA8\xB1\xE8\xA8\xBC\xE8\xAA\x8D\xE8\xA8\xBC\xE5\xB1\x80
            X509v3 CRL Distribution Points: 
                Full Name:
                  DirName:C = JP, O = Japanese Government, OU = National Police Agency, OU = Prefectural Public Safety Commissions for ICDL
    Signature Algorithm: sha256WithRSAEncryption
    Signature Value:
        5f:0a:8a:53:9d:4e:68:fb:21:6a:ae:f0:0f:42:bb:21:99:c2:
        d7:5d:27:40:9d:e6:7f:05:8d:85:ea:fe:a4:1a:92:73:72:6e:
        b9:b7:9d:d4:ee:85:3a:de:fd:cf:d7:6b:27:6c:03:44:fc:b0:
        a0:23:9a:b8:b6:dd:fd:c9:6c:af:9e:74:09:fe:a8:2b:16:7f:
        15:38:ae:92:17:33:ef:ea:fe:59:30:de:82:bf:49:c5:a0:0d:
        53:50:82:96:25:f3:21:17:ee:b3:f4:58:0d:93:5e:cd:4d:fa:
        6e:71:c9:96:83:db:70:1c:b1:08:4a:cb:bd:dc:54:c6:f7:a7:
        6b:5b:a9:d1:c3:c6:23:f9:74:69:9a:38:e2:7f:97:a9:05:84:
        6d:dc:f9:46:a8:0d:24:de:92:fc:a9:76:f1:7b:13:f3:ea:6d:
        07:c4:db:25:35:70:cc:3e:29:b1:08:98:68:5c:d0:f7:c9:60:
        4c:23:d6:7b:ba:d4:c9:6d:37:64:f7:0c:27:cf:0a:a9:4f:a0:
        e9:88:2e:66:7d:e7:93:fb:b7:16:8f:e9:0a:c2:38:ea:3d:a4:
        d3:cd:ff:c9:03:38:af:4d:e1:21:8e:9f:ba:21:06:9e:f4:5c:
        ae:63:54:46:eb:31:3d:01:f0:30:34:43:d2:52:3c:77:0d:97:
        6f:06:24:dd
-----BEGIN CERTIFICATE-----
MIIFuzCCBKOgAwIBAgISMzAwMDAwMzbWVqmcAfTeLfqIMA0GCSqGSIb3DQEBCwUA
MGcxCzAJBgNVBAYTAkpQMRwwGgYDVQQKDBNKYXBhbmVzZSBHb3Zlcm5tZW50MR8w
HQYDVQQLDBZOYXRpb25hbCBQb2xpY2UgQWdlbmN5MRkwFwYDVQQLDBBOUEEgSUNE
TCBSb290IENBMB4XDTIzMDYxOTA2MDAwMFoXDTI4MDYxODE0NTk1OVowgZ0xCzAJ
BgNVBAYTAkpQMRwwGgYDVQQKDBNKYXBhbmVzZSBHb3Zlcm5tZW50MR8wHQYDVQQL
DBZOYXRpb25hbCBQb2xpY2UgQWdlbmN5MTcwNQYDVQQLDC5QcmVmZWN0dXJhbCBQ
dWJsaWMgU2FmZXR5IENvbW1pc3Npb25zIGZvciBJQ0RMMRYwFAYDVQQDDA1Pc2Fr
YSBBbHRQUFNDMIIBIjANBgkqhkiG9w0BAQEFAAOCAQ8AMIIBCgKCAQEAmMb9YH0T
wpDU0HvO3qXaho3dZ0sNOQSANEFSOfaY0VER/Bj4b80NIz8CRXnk1+h0Sp86FDKj
zyDfmRJXRdAVUR+ZTcNvSmRcsVr/M1xFkEMTFHKUOIVcYyOXwJSZ3OKU4BTiaI0O
nvoQeoQ8rweG0rGPidoZMbgJkMDVM8pBRDKhlAWgMlcw1AAJQXSGEIw7kUA5Y3Zi
HY06qWqFkb+2q+XfT84aGDibqTZmlTJZZq7preEr6VdJig3hhilM0XKsoAVZPhJc
lYZSg69z0K4VFL5bY/Ry72iFU4RdJViWXAXybHfrcgFPg06xMJZOQyZ6uNcPtHtI
EmY7BiSSfFgs9wIDAQABo4ICKDCCAiQwgZgGA1UdIwSBkDCBjYAUEc2OYERHV09P
y+nny6FG37oOUIuha6RpMGcxCzAJBgNVBAYTAkpQMRwwGgYDVQQKDBNKYXBhbmVz
ZSBHb3Zlcm5tZW50MR8wHQYDVQQLDBZOYXRpb25hbCBQb2xpY2UgQWdlbmN5MRkw
FwYDVQQLDBBOUEEgSUNETCBSb290IENBgggyMDAwMDAxNjAdBgNVHQ4EFgQUlrOm
2Wz2M1ttZVeF8k3u4Ww24NswDgYDVR0PAQH/BAQDAgbAMEAGA1UdIAEB/wQ2MDQw
MgYLKoMIho4YBwUBAQowIzAhBggrBgEFBQcCARYVaHR0cDovL3d3dy5ucGEuZ28u
anAvMHQGA1UdEgRtMGukaTBnMQswCQYDVQQGEwJKUDEYMBYGA1UECgwP5pel5pys
5Zu95pS/5bqcMRIwEAYDVQQLDAnorablr5/luoExKjAoBgNVBAsMIeitpuWvn+W6
gemBi+i7ouWFjeioseiovOiqjeiovOWxgDCBnwYDVR0fBIGXMIGUMIGRoIGOoIGL
pIGIMIGFMQswCQYDVQQGEwJKUDEcMBoGA1UECgwTSmFwYW5lc2UgR292ZXJubWVu
dDEfMB0GA1UECwwWTmF0aW9uYWwgUG9saWNlIEFnZW5jeTE3MDUGA1UECwwuUHJl
ZmVjdHVyYWwgUHVibGljIFNhZmV0eSBDb21taXNzaW9ucyBmb3IgSUNETDANBgkq
hkiG9w0BAQsFAAOCAQEAXwqKU51OaPshaq7wD0K7IZnC110nQJ3mfwWNher+pBqS
c3Juubed1O6FOt79z9drJ2wDRPywoCOauLbd/clsr550Cf6oKxZ/FTiukhcz7+r+
WTDegr9JxaANU1CCliXzIRfus/RYDZNezU36bnHJloPbcByxCErLvdxUxvena1up
0cPGI/l0aZo44n+XqQWEbdz5RqgNJN6S/Kl28XsT8+ptB8TbJTVwzD4psQiYaFzQ
98lgTCPWe7rUyW03ZPcMJ88KqU+g6YguZn3nk/u3Fo/pCsI46j2k083/yQM4r03h
IY6fuiEGnvRcrmNURusxPQHwMDRD0lI8dw2XbwYk3Q==
-----END CERTIFICATE-----
