Certificate:
    Data:
        Version: 3 (0x2)
        Serial Number:
            33:30:30:30:30:30:39:30
        Signature Algorithm: sha256WithRSAEncryption
        Issuer: C=JP, O=Japanese Government, OU=National Police Agency, OU=NPA ICDL Root CA
        Validity
            Not Before: Mar 18 05:33:37 2024 GMT
            Not After : Mar 17 14:59:59 2029 GMT
        Subject: C=JP, O=Japanese Government, OU=National Police Agency, OU=Prefectural Public Safety Commissions for ICDL, CN=Saga AltPPSC
        Subject Public Key Info:
            Public Key Algorithm: rsaEncryption
                Public-Key: (2048 bit)
                Modulus:
                    00:92:b3:d8:87:13:a7:a0:df:bb:2a:74:96:a9:99:
                    92:66:a2:72:58:fb:89:eb:4b:e1:75:79:14:27:f6:
                    9c:86:5e:14:7b:05:83:45:05:4b:5e:9f:d6:1d:25:
                    70:60:43:85:29:4a:e8:eb:21:65:23:91:f7:49:d1:
                    2c:60:0c:54:74:1f:b1:a4:7e:b7:85:e5:6f:7e:79:
                    35:35:79:ef:de:f8:d1:4b:b0:c5:4a:72:cf:03:ad:
                    c9:75:7c:c2:d8:d3:d8:03:fc:92:46:0d:1d:d3:c6:
                    ff:b5:23:35:a3:33:62:0d:99:56:ae:19:a5:87:bc:
                    b6:6e:b1:1e:f1:e4:42:13:ad:a0:91:ba:51:a4:4e:
                    e1:1f:c3:d0:37:17:e9:98:ea:95:e1:43:f8:d6:b0:
                    15:75:b8:92:48:93:cc:2a:fa:ea:81:17:08:bc:db:
                    87:e0:a0:b7:ff:77:b2:a4:60:3f:ad:47:de:bd:ad:
                    ac:41:15:43:44:a7:25:15:b0:71:af:91:6a:2d:0e:
                    97:af:b3:88:59:bc:bd:1b:9c:a6:5a:a9:94:e2:53:
                    8a:2b:a9:6e:d4:58:d7:3e:fc:f8:5a:1c:03:41:f4:
                    d5:c5:eb:d1:b9:5a:f3:54:61:f3:eb:06:9b:de:b5:
                    39:5b:01:0d:d0:7f:d4:b6:3c:ba:84:36:1a:70:2c:
                    58:17
                Exponent: 65537 (0x10001)
        X509v3 extensions:
            X509v3 Authority Key Identifier: 
                keyid:11:CD:8E:60:44:47:57:4F:4F:CB:E9:E7:CB:A1:46:DF:BA:0E:50:8B
                DirName:/C=JP/O=Japanese Government/OU=National Police Agency/OU=NPA ICDL Root CA
                serial:32:30:30:30:30:30:31:36
            X509v3 Subject Key Identifier: 
                4E:CA:FA:CF:9D:AA:D4:0B:A2:17:DA:13:1A:4A:3F:D4:50:11:15:05
            X509v3 Key Usage: critical
                Digital Signature, Non Repudiation
            X509v3 Certificate Policies: critical
                Policy: 1.2.392.100120.7.5.1.1.10
                  CPS: http://www.npa.go.jp/
            X509v3 Issuer Alternative Name: 
                DirName:/C=JP/O=\xE6\x97\xA5\xE6\x9C\xAC\xE5\x9B\xBD\xE6\x94\xBF\xE5\xBA\x9C/OU=\xE8\xAD\xA6\xE5\xAF\x9F\xE5\xBA\x81/OU=\xE8\xAD\xA6\xE5\xAF\x9F\xE5\xBA\x81\xE9\x81\x8B\xE8\xBB\xA2\xE5\x85\x8D\xE8\xA8\xB1\xE8\xA8\xBC\xE8\xAA\x8D\xE8\xA8\xBC\xE5\xB1\x80
            X509v3 CRL Distribution Points: 
                Full Name:
                  DirName:C = JP, O = Japanese Government, OU = National Police Agency, OU = Prefectural Public Safety Commissions for ICDL
    Signature Algorithm: sha256WithRSAEncryption
    Signature Value:
        a0:fa:7c:36:d3:d4:0e:1b:51:72:bd:6e:c5:42:b7:ba:a9:bd:
        18:e5:7d:54:52:92:cc:20:f6:3c:32:50:5d:18:af:73:c7:6d:
        48:26:b8:d8:ef:f1:23:cb:4b:cf:ca:84:9b:0a:5b:8f:ca:9b:
        a6:dc:34:34:51:34:fa:92:3b:11:13:b3:52:aa:f5:60:d5:76:
        ec:ff:97:d7:a6:cb:c9:d9:34:61:70:58:fd:26:3d:98:19:54:
        7f:c4:c4:1a:5f:9b:30:d7:7e:ed:06:f6:a4:a1:51:b8:b0:4f:
        90:25:2e:52:29:f3:7d:ac:3a:71:48:f0:56:30:b8:b5:9a:32:
        8f:ce:00:6b:11:33:cc:a4:3a:bc:97:b2:f0:3c:77:64:fb:cc:
        dd:d2:08:4f:45:1d:19:ef:5a:b4:35:cd:27:87:e5:13:ba:68:
        4d:31:83:bb:76:53:2e:1a:0a:d3:31:b8:29:46:4c:84:6a:a4:
        48:49:ca:7e:b8:72:d2:68:8c:1d:d6:8a:34:2c:fe:d4:bf:97:
        bc:96:84:48:2e:9d:0c:3c:61:79:70:03:04:34:58:11:24:0e:
        c6:3f:89:1a:78:30:89:0b:03:12:85:25:5d:5e:fc:c1:23:2f:
        0f:9d:30:81:ab:a9:6c:e9:48:bc:7b:6a:54:10:ea:ec:00:40:
        9e:b5:aa:95
-----BEGIN CERTIFICATE-----
MIIFsDCCBJigAwIBAgIIMzAwMDAwOTAwDQYJKoZIhvcNAQELBQAwZzELMAkGA1UE
BhMCSlAxHDAaBgNVBAoME0phcGFuZXNlIEdvdmVybm1lbnQxHzAdBgNVBAsMFk5h
dGlvbmFsIFBvbGljZSBBZ2VuY3kxGTAXBgNVBAsMEE5QQSBJQ0RMIFJvb3QgQ0Ew
HhcNMjQwMzE4MDUzMzM3WhcNMjkwMzE3MTQ1OTU5WjCBnDELMAkGA1UEBhMCSlAx
HDAaBgNVBAoME0phcGFuZXNlIEdvdmVybm1lbnQxHzAdBgNVBAsMFk5hdGlvbmFs
IFBvbGljZSBBZ2VuY3kxNzA1BgNVBAsMLlByZWZlY3R1cmFsIFB1YmxpYyBTYWZl
dHkgQ29tbWlzc2lvbnMgZm9yIElDREwxFTATBgNVBAMMDFNhZ2EgQWx0UFBTQzCC
ASIwDQYJKoZIhvcNAQEBBQADggEPADCCAQoCggEBAJKz2IcTp6Dfuyp0lqmZkmai
clj7ietL4XV5FCf2nIZeFHsFg0UFS16f1h0lcGBDhSlK6OshZSOR90nRLGAMVHQf
saR+t4Xlb355NTV579740UuwxUpyzwOtyXV8wtjT2AP8kkYNHdPG/7UjNaMzYg2Z
Vq4ZpYe8tm6xHvHkQhOtoJG6UaRO4R/D0DcX6ZjqleFD+NawFXW4kkiTzCr66oEX
CLzbh+Cgt/93sqRgP61H3r2trEEVQ0SnJRWwca+Rai0Ol6+ziFm8vRucplqplOJT
iiupbtRY1z78+FocA0H01cXr0bla81Rh8+sGm961OVsBDdB/1LY8uoQ2GnAsWBcC
AwEAAaOCAigwggIkMIGYBgNVHSMEgZAwgY2AFBHNjmBER1dPT8vp58uhRt+6DlCL
oWukaTBnMQswCQYDVQQGEwJKUDEcMBoGA1UECgwTSmFwYW5lc2UgR292ZXJubWVu
dDEfMB0GA1UECwwWTmF0aW9uYWwgUG9saWNlIEFnZW5jeTEZMBcGA1UECwwQTlBB
IElDREwgUm9vdCBDQYIIMjAwMDAwMTYwHQYDVR0OBBYEFE7K+s+dqtQLohfaExpK
P9RQERUFMA4GA1UdDwEB/wQEAwIGwDBABgNVHSABAf8ENjA0MDIGCyqDCIaOGAcF
AQEKMCMwIQYIKwYBBQUHAgEWFWh0dHA6Ly93d3cubnBhLmdvLmpwLzB0BgNVHRIE
bTBrpGkwZzELMAkGA1UEBhMCSlAxGDAWBgNVBAoMD+aXpeacrOWbveaUv+W6nDES
MBAGA1UECwwJ6K2m5a+f5bqBMSowKAYDVQQLDCHorablr5/luoHpgYvou6LlhY3o
qLHoqLzoqo3oqLzlsYAwgZ8GA1UdHwSBlzCBlDCBkaCBjqCBi6SBiDCBhTELMAkG
A1UEBhMCSlAxHDAaBgNVBAoME0phcGFuZXNlIEdvdmVybm1lbnQxHzAdBgNVBAsM
Fk5hdGlvbmFsIFBvbGljZSBBZ2VuY3kxNzA1BgNVBAsMLlByZWZlY3R1cmFsIFB1
YmxpYyBTYWZldHkgQ29tbWlzc2lvbnMgZm9yIElDREwwDQYJKoZIhvcNAQELBQAD
ggEBAKD6fDbT1A4bUXK9bsVCt7qpvRjlfVRSkswg9jwyUF0Yr3PHbUgmuNjv8SPL
S8/KhJsKW4/Km6bcNDRRNPqSOxETs1Kq9WDVduz/l9emy8nZNGFwWP0mPZgZVH/E
xBpfmzDXfu0G9qShUbiwT5AlLlIp832sOnFI8FYwuLWaMo/OAGsRM8ykOryXsvA8
d2T7zN3SCE9FHRnvWrQ1zSeH5RO6aE0xg7t2Uy4aCtMxuClGTIRqpEhJyn64ctJo
jB3WijQs/tS/l7yWhEgunQw8YXlwAwQ0WBEkDsY/iRp4MIkLAxKFJV1e/MEjLw+d
MIGrqWzpSLx7alQQ6uwAQJ61qpU=
-----END CERTIFICATE-----
