Certificate:
    Data:
        Version: 3 (0x2)
        Serial Number:
            33:30:30:30:30:30:37:30
        Signature Algorithm: sha256WithRSAEncryption
        Issuer: C=JP, O=Japanese Government, OU=National Police Agency, OU=NPA ICDL Root CA
        Validity
            Not Before: Nov  1 04:58:18 2023 GMT
            Not After : Oct 31 14:59:59 2028 GMT
        Subject: C=JP, O=Japanese Government, OU=National Police Agency, OU=Prefectural Public Safety Commissions for ICDL, CN=Saga PPSC
        Subject Public Key Info:
            Public Key Algorithm: rsaEncryption
                Public-Key: (2048 bit)
                Modulus:
                    00:b2:10:f7:8d:11:52:10:5f:e2:e0:99:06:bd:6c:
                    6b:ca:d3:dd:0a:5d:b4:62:fb:bb:15:74:c4:f9:b1:
                    19:92:52:67:5d:f1:da:4f:bd:49:19:23:8b:36:6f:
                    5d:cf:0c:c7:19:69:0e:7a:8c:54:95:31:7f:0a:b5:
                    85:1e:57:43:38:85:b1:06:6e:a9:4c:00:df:95:fa:
                    dd:d2:0f:b8:23:58:0a:4e:71:98:8b:b3:97:5f:b3:
                    97:a4:ec:2c:ba:00:72:2d:79:96:c0:72:89:46:99:
                    fd:0a:ff:3f:48:5c:33:8e:55:aa:7d:82:a0:28:48:
                    39:e5:3f:09:6c:3d:82:7f:9f:6e:72:41:68:f5:cb:
                    91:ea:c7:42:f6:8e:bd:eb:d6:13:75:a0:40:6a:56:
                    b4:25:7f:18:c7:e6:38:53:1b:29:43:db:01:53:60:
                    c0:ef:68:d3:59:77:bf:df:6c:30:5e:32:4e:cd:94:
                    f0:1e:66:7b:50:39:ce:40:d1:c8:02:6b:85:30:24:
                    9f:a8:0b:b2:c5:c5:0e:77:a8:86:99:37:c1:74:4c:
                    9b:9c:54:1f:50:9c:c9:b4:8a:aa:bd:78:fd:09:0c:
                    37:36:f0:69:c2:98:07:23:83:55:3e:a5:48:29:88:
                    e4:85:e3:0c:d7:70:be:91:ff:d4:58:7d:fd:6b:ab:
                    16:07
                Exponent: 65537 (0x10001)
        X509v3 extensions:
            X509v3 Authority Key Identifier: 
                keyid:11:CD:8E:60:44:47:57:4F:4F:CB:E9:E7:CB:A1:46:DF:BA:0E:50:8B
                DirName:/C=JP/O=Japanese Government/OU=National Police Agency/OU=NPA ICDL Root CA
                serial:32:30:30:30:30:30:31:36
            X509v3 Subject Key Identifier: 
                ED:88:64:35:E3:0E:90:CD:79:2F:7A:56:4D:5D:6E:D5:C2:9A:A2:EF
            X509v3 Key Usage: critical
                Digital Signature, Non Repudiation
            X509v3 Certificate Policies: critical
                Policy: 1.2.392.100120.7.5.1.1.10
                  CPS: http://www.npa.go.jp/
            X509v3 Subject Alternative Name: 
                DirName:/C=JP/O=\xE6\x97\xA5\xE6\x9C\xAC\xE5\x9B\xBD\xE6\x94\xBF\xE5\xBA\x9C/OU=\xE8\xAD\xA6\xE5\xAF\x9F\xE5\xBA\x81/OU=\xE9\x83\xBD\xE9\x81\x93\xE5\xBA\x9C\xE7\x9C\x8C\xE5\x85\xAC\xE5\xAE\x89\xE5\xA7\x94\xE5\x93\xA1\xE4\xBC\x9A
            X509v3 Issuer Alternative Name: 
                DirName:/C=JP/O=\xE6\x97\xA5\xE6\x9C\xAC\xE5\x9B\xBD\xE6\x94\xBF\xE5\xBA\x9C/OU=\xE8\xAD\xA6\xE5\xAF\x9F\xE5\xBA\x81/OU=\xE8\xAD\xA6\xE5\xAF\x9F\xE5\xBA\x81\xE9\x81\x8B\xE8\xBB\xA2\xE5\x85\x8D\xE8\xA8\xB1\xE8\xA8\xBC\xE8\xAA\x8D\xE8\xA8\xBC\xE5\xB1\x80
            X509v3 CRL Distribution Points: 
                Full Name:
                  DirName:C = JP, O = Japanese Government, OU = National Police Agency, OU = Prefectural Public Safety Commissions for ICDL
    Signature Algorithm: sha256WithRSAEncryption
    Signature Value:
        93:3f:e8:67:aa:75:50:f6:4a:32:38:c2:ad:81:f8:87:f5:c8:
        c5:78:c7:49:3b:2c:d6:53:d0:1d:86:48:ff:8c:ef:04:77:49:
        d0:3c:63:a8:39:8c:6c:a7:38:0a:16:4e:41:5a:9a:84:49:8a:
        cf:2d:c2:bc:21:c2:37:15:ce:4b:b5:43:31:e3:48:c3:93:1c:
        ae:4f:be:42:c4:07:30:16:98:4d:44:8c:69:f2:31:d6:18:3c:
        63:e4:73:f4:3a:18:6f:e8:33:2b:d2:ee:98:38:c4:d1:82:2c:
        89:3c:ba:1f:6d:7f:a8:26:6f:0e:91:da:31:93:37:3d:af:3c:
        f6:55:ff:97:57:54:87:d4:70:a9:b9:91:9c:d6:4e:e4:d2:13:
        49:3c:3b:ec:21:8e:8f:35:04:cb:37:0f:b3:08:2d:19:e4:d5:
        92:42:66:84:d5:f6:6a:a2:74:c3:81:38:d2:4c:d2:46:71:c1:
        74:54:65:46:0f:5e:1d:c9:48:38:38:94:00:29:c5:8a:ae:f3:
        3f:ad:60:11:6d:1a:8e:d1:56:03:ca:cd:20:a3:6e:04:48:4c:
        36:1f:35:d7:57:bd:3e:19:34:75:e8:9c:cc:c7:90:98:a2:3c:
        1b:5c:04:da:39:24:48:07:26:3f:c0:df:1b:5e:aa:30:37:63:
        4e:c0:c3:c6
-----BEGIN CERTIFICATE-----
MIIGRTCCBS2gAwIBAgIIMzAwMDAwNzAwDQYJKoZIhvcNAQELBQAwZzELMAkGA1UE
BhMCSlAxHDAaBgNVBAoME0phcGFuZXNlIEdvdmVybm1lbnQxHzAdBgNVBAsMFk5h
dGlvbmFsIFBvbGljZSBBZ2VuY3kxGTAXBgNVBAsMEE5QQSBJQ0RMIFJvb3QgQ0Ew
HhcNMjMxMTAxMDQ1ODE4WhcNMjgxMDMxMTQ1OTU5WjCBmTELMAkGA1UEBhMCSlAx
HDAaBgNVBAoME0phcGFuZXNlIEdvdmVybm1lbnQxHzAdBgNVBAsMFk5hdGlvbmFs
IFBvbGljZSBBZ2VuY3kxNzA1BgNVBAsMLlByZWZlY3R1cmFsIFB1YmxpYyBTYWZl
dHkgQ29tbWlzc2lvbnMgZm9yIElDREwxEjAQBgNVBAMMCVNhZ2EgUFBTQzCCASIw
DQYJKoZIhvcNAQEBBQADggEPADCCAQoCggEBALIQ940RUhBf4uCZBr1sa8rT3Qpd
tGL7uxV0xPmxGZJSZ13x2k+9SRkjizZvXc8MxxlpDnqMVJUxfwq1hR5XQziFsQZu
qUwA35X63dIPuCNYCk5xmIuzl1+zl6TsLLoAci15lsByiUaZ/Qr/P0hcM45Vqn2C
oChIOeU/CWw9gn+fbnJBaPXLkerHQvaOvevWE3WgQGpWtCV/GMfmOFMbKUPbAVNg
wO9o01l3v99sMF4yTs2U8B5me1A5zkDRyAJrhTAkn6gLssXFDneohpk3wXRMm5xU
H1CcybSKqr14/QkMNzbwacKYByODVT6lSCmI5IXjDNdwvpH/1Fh9/WurFgcCAwEA
AaOCAsAwggK8MIGYBgNVHSMEgZAwgY2AFBHNjmBER1dPT8vp58uhRt+6DlCLoWuk
aTBnMQswCQYDVQQGEwJKUDEcMBoGA1UECgwTSmFwYW5lc2UgR292ZXJubWVudDEf
MB0GA1UECwwWTmF0aW9uYWwgUG9saWNlIEFnZW5jeTEZMBcGA1UECwwQTlBBIElD
REwgUm9vdCBDQYIIMjAwMDAwMTYwHQYDVR0OBBYEFO2IZDXjDpDNeS96Vk1dbtXC
mqLvMA4GA1UdDwEB/wQEAwIGwDBABgNVHSABAf8ENjA0MDIGCyqDCIaOGAcFAQEK
MCMwIQYIKwYBBQUHAgEWFWh0dHA6Ly93d3cubnBhLmdvLmpwLzCBlQYDVR0RBIGN
MIGKpIGHMIGEMQswCQYDVQQGEwJKUDEYMBYGA1UECgwP5pel5pys5Zu95pS/5bqc
MRIwEAYDVQQLDAnorablr5/luoExJDAiBgNVBAsMG+mDvemBk+W6nOecjOWFrOWu
ieWnlOWToeS8mjEhMB8GA1UEAwwY5L2Q6LOA55yM5YWs5a6J5aeU5ZOh5LyaMHQG
A1UdEgRtMGukaTBnMQswCQYDVQQGEwJKUDEYMBYGA1UECgwP5pel5pys5Zu95pS/
5bqcMRIwEAYDVQQLDAnorablr5/luoExKjAoBgNVBAsMIeitpuWvn+W6gemBi+i7
ouWFjeioseiovOiqjeiovOWxgDCBnwYDVR0fBIGXMIGUMIGRoIGOoIGLpIGIMIGF
MQswCQYDVQQGEwJKUDEcMBoGA1UECgwTSmFwYW5lc2UgR292ZXJubWVudDEfMB0G
A1UECwwWTmF0aW9uYWwgUG9saWNlIEFnZW5jeTE3MDUGA1UECwwuUHJlZmVjdHVy
YWwgUHVibGljIFNhZmV0eSBDb21taXNzaW9ucyBmb3IgSUNETDANBgkqhkiG9w0B
AQsFAAOCAQEAkz/oZ6p1UPZKMjjCrYH4h/XIxXjHSTss1lPQHYZI/4zvBHdJ0Dxj
qDmMbKc4ChZOQVqahEmKzy3CvCHCNxXOS7VDMeNIw5Mcrk++QsQHMBaYTUSMafIx
1hg8Y+Rz9DoYb+gzK9LumDjE0YIsiTy6H21/qCZvDpHaMZM3Pa889lX/l1dUh9Rw
qbmRnNZO5NITSTw77CGOjzUEyzcPswgtGeTVkkJmhNX2aqJ0w4E40kzSRnHBdFRl
Rg9eHclIODiUACnFiq7zP61gEW0ajtFWA8rNIKNuBEhMNh8111e9Phk0deiczMeQ
mKI8G1wE2jkkSAcmP8DfG16qMDdjTsDDxg==
-----END CERTIFICATE-----
