Certificate:
    Data:
        Version: 3 (0x2)
        Serial Number:
            32:30:30:30:30:30:37:35
        Signature Algorithm: sha256WithRSAEncryption
        Issuer: C=JP, O=Japanese Government, OU=National Police Agency, OU=NPA ICDL Root CA
        Validity
            Not Before: Feb  6 04:37:04 2023 GMT
            Not After : Feb  5 14:59:59 2028 GMT
        Subject: C=JP, O=Japanese Government, OU=National Police Agency, OU=Prefectural Public Safety Commissions for ICDL, CN=Saga PPSC
        Subject Public Key Info:
            Public Key Algorithm: rsaEncryption
                Public-Key: (2048 bit)
                Modulus:
                    00:92:b3:d8:87:13:a7:a0:df:bb:2a:74:96:a9:99:
                    92:66:a2:72:58:fb:89:eb:4b:e1:75:79:14:27:f6:
                    9c:86:5e:14:7b:05:83:45:05:4b:5e:9f:d6:1d:25:
                    70:60:43:85:29:4a:e8:eb:21:65:23:91:f7:49:d1:
                    2c:60:0c:54:74:1f:b1:a4:7e:b7:85:e5:6f:7e:79:
                    35:35:79:ef:de:f8:d1:4b:b0:c5:4a:72:cf:03:ad:
                    c9:75:7c:c2:d8:d3:d8:03:fc:92:46:0d:1d:d3:c6:
                    ff:b5:23:35:a3:33:62:0d:99:56:ae:19:a5:87:bc:
                    b6:6e:b1:1e:f1:e4:42:13:ad:a0:91:ba:51:a4:4e:
                    e1:1f:c3:d0:37:17:e9:98:ea:95:e1:43:f8:d6:b0:
                    15:75:b8:92:48:93:cc:2a:fa:ea:81:17:08:bc:db:
                    87:e0:a0:b7:ff:77:b2:a4:60:3f:ad:47:de:bd:ad:
                    ac:41:15:43:44:a7:25:15:b0:71:af:91:6a:2d:0e:
                    97:af:b3:88:59:bc:bd:1b:9c:a6:5a:a9:94:e2:53:
                    8a:2b:a9:6e:d4:58:d7:3e:fc:f8:5a:1c:03:41:f4:
                    d5:c5:eb:d1:b9:5a:f3:54:61:f3:eb:06:9b:de:b5:
                    39:5b:01:0d:d0:7f:d4:b6:3c:ba:84:36:1a:70:2c:
                    58:17
                Exponent: 65537 (0x10001)
        X509v3 extensions:
            X509v3 Authority Key Identifier: 
                keyid:11:CD:8E:60:44:47:57:4F:4F:CB:E9:E7:CB:A1:46:DF:BA:0E:50:8B
                DirName:/C=JP/O=Japanese Government/OU=National Police Agency/OU=NPA ICDL Root CA
                serial:32:30:30:30:30:30:31:36
            X509v3 Subject Key Identifier: 
                4E:CA:FA:CF:9D:AA:D4:0B:A2:17:DA:13:1A:4A:3F:D4:50:11:15:05
            X509v3 Key Usage: critical
                Digital Signature, Non Repudiation
            X509v3 Certificate Policies: critical
                Policy: 1.2.392.100120.7.5.1.1.10
                  CPS: http://www.npa.go.jp/
            X509v3 Subject Alternative Name: 
                DirName:/C=JP/O=\xE6\x97\xA5\xE6\x9C\xAC\xE5\x9B\xBD\xE6\x94\xBF\xE5\xBA\x9C/OU=\xE8\xAD\xA6\xE5\xAF\x9F\xE5\xBA\x81/OU=\xE9\x83\xBD\xE9\x81\x93\xE5\xBA\x9C\xE7\x9C\x8C\xE5\x85\xAC\xE5\xAE\x89\xE5\xA7\x94\xE5\x93\xA1\xE4\xBC\x9A
            X509v3 Issuer Alternative Name: 
                DirName:/C=JP/O=\xE6\x97\xA5\xE6\x9C\xAC\xE5\x9B\xBD\xE6\x94\xBF\xE5\xBA\x9C/OU=\xE8\xAD\xA6\xE5\xAF\x9F\xE5\xBA\x81/OU=\xE8\xAD\xA6\xE5\xAF\x9F\xE5\xBA\x81\xE9\x81\x8B\xE8\xBB\xA2\xE5\x85\x8D\xE8\xA8\xB1\xE8\xA8\xBC\xE8\xAA\x8D\xE8\xA8\xBC\xE5\xB1\x80
            X509v3 CRL Distribution Points: 
                Full Name:
                  DirName:C = JP, O = Japanese Government, OU = National Police Agency, OU = Prefectural Public Safety Commissions for ICDL
    Signature Algorithm: sha256WithRSAEncryption
    Signature Value:
        16:f3:88:05:e6:26:09:a1:d5:8c:b6:86:29:a6:21:6c:09:55:
        ae:17:19:f1:0d:09:e4:45:98:da:3a:94:c7:bd:b1:7c:11:93:
        38:e6:52:d7:22:44:74:f6:28:ff:23:ad:53:75:41:7f:38:30:
        52:ee:b6:b9:94:99:56:89:2e:3c:3e:89:09:71:d8:27:9d:32:
        01:06:2e:63:b4:bc:59:d0:51:37:e3:b6:0c:c1:46:e1:8f:ae:
        86:3f:f2:95:64:cf:07:43:94:47:85:b2:75:73:10:79:c2:f5:
        a5:7a:f5:a3:59:a9:47:b7:2c:22:e4:dd:94:88:f5:7e:11:d1:
        71:bf:16:de:77:89:52:e2:83:13:66:48:5c:ce:60:cf:3b:eb:
        37:44:e5:70:c3:3a:9c:1b:3d:09:36:0b:0f:6c:ef:59:54:07:
        52:1b:1c:e6:0d:01:05:eb:fe:cc:7b:bc:cf:a0:bf:db:c1:17:
        6c:4d:7f:0a:6e:f4:7c:04:26:4e:7f:21:c1:4c:0a:57:4a:0a:
        55:0f:8d:5d:90:48:56:5c:32:60:a3:9c:15:ea:ce:8e:7b:79:
        53:db:1f:2e:d6:28:74:a3:cd:b0:87:25:5f:9d:f2:8e:39:df:
        d3:11:68:81:a3:6c:cb:07:76:5b:b1:4c:65:d0:63:09:08:9d:
        d8:6d:02:4a
-----BEGIN CERTIFICATE-----
MIIGRTCCBS2gAwIBAgIIMjAwMDAwNzUwDQYJKoZIhvcNAQELBQAwZzELMAkGA1UE
BhMCSlAxHDAaBgNVBAoME0phcGFuZXNlIEdvdmVybm1lbnQxHzAdBgNVBAsMFk5h
dGlvbmFsIFBvbGljZSBBZ2VuY3kxGTAXBgNVBAsMEE5QQSBJQ0RMIFJvb3QgQ0Ew
HhcNMjMwMjA2MDQzNzA0WhcNMjgwMjA1MTQ1OTU5WjCBmTELMAkGA1UEBhMCSlAx
HDAaBgNVBAoME0phcGFuZXNlIEdvdmVybm1lbnQxHzAdBgNVBAsMFk5hdGlvbmFs
IFBvbGljZSBBZ2VuY3kxNzA1BgNVBAsMLlByZWZlY3R1cmFsIFB1YmxpYyBTYWZl
dHkgQ29tbWlzc2lvbnMgZm9yIElDREwxEjAQBgNVBAMMCVNhZ2EgUFBTQzCCASIw
DQYJKoZIhvcNAQEBBQADggEPADCCAQoCggEBAJKz2IcTp6Dfuyp0lqmZkmaiclj7
ietL4XV5FCf2nIZeFHsFg0UFS16f1h0lcGBDhSlK6OshZSOR90nRLGAMVHQfsaR+
t4Xlb355NTV579740UuwxUpyzwOtyXV8wtjT2AP8kkYNHdPG/7UjNaMzYg2ZVq4Z
pYe8tm6xHvHkQhOtoJG6UaRO4R/D0DcX6ZjqleFD+NawFXW4kkiTzCr66oEXCLzb
h+Cgt/93sqRgP61H3r2trEEVQ0SnJRWwca+Rai0Ol6+ziFm8vRucplqplOJTiiup
btRY1z78+FocA0H01cXr0bla81Rh8+sGm961OVsBDdB/1LY8uoQ2GnAsWBcCAwEA
AaOCAsAwggK8MIGYBgNVHSMEgZAwgY2AFBHNjmBER1dPT8vp58uhRt+6DlCLoWuk
aTBnMQswCQYDVQQGEwJKUDEcMBoGA1UECgwTSmFwYW5lc2UgR292ZXJubWVudDEf
MB0GA1UECwwWTmF0aW9uYWwgUG9saWNlIEFnZW5jeTEZMBcGA1UECwwQTlBBIElD
REwgUm9vdCBDQYIIMjAwMDAwMTYwHQYDVR0OBBYEFE7K+s+dqtQLohfaExpKP9RQ
ERUFMA4GA1UdDwEB/wQEAwIGwDBABgNVHSABAf8ENjA0MDIGCyqDCIaOGAcFAQEK
MCMwIQYIKwYBBQUHAgEWFWh0dHA6Ly93d3cubnBhLmdvLmpwLzCBlQYDVR0RBIGN
MIGKpIGHMIGEMQswCQYDVQQGEwJKUDEYMBYGA1UECgwP5pel5pys5Zu95pS/5bqc
MRIwEAYDVQQLDAnorablr5/luoExJDAiBgNVBAsMG+mDvemBk+W6nOecjOWFrOWu
ieWnlOWToeS8mjEhMB8GA1UEAwwY5L2Q6LOA55yM5YWs5a6J5aeU5ZOh5LyaMHQG
A1UdEgRtMGukaTBnMQswCQYDVQQGEwJKUDEYMBYGA1UECgwP5pel5pys5Zu95pS/
5bqcMRIwEAYDVQQLDAnorablr5/luoExKjAoBgNVBAsMIeitpuWvn+W6gemBi+i7
ouWFjeioseiovOiqjeiovOWxgDCBnwYDVR0fBIGXMIGUMIGRoIGOoIGLpIGIMIGF
MQswCQYDVQQGEwJKUDEcMBoGA1UECgwTSmFwYW5lc2UgR292ZXJubWVudDEfMB0G
A1UECwwWTmF0aW9uYWwgUG9saWNlIEFnZW5jeTE3MDUGA1UECwwuUHJlZmVjdHVy
YWwgUHVibGljIFNhZmV0eSBDb21taXNzaW9ucyBmb3IgSUNETDANBgkqhkiG9w0B
AQsFAAOCAQEAFvOIBeYmCaHVjLaGKaYhbAlVrhcZ8Q0J5EWY2jqUx72xfBGTOOZS
1yJEdPYo/yOtU3VBfzgwUu62uZSZVokuPD6JCXHYJ50yAQYuY7S8WdBRN+O2DMFG
4Y+uhj/ylWTPB0OUR4WydXMQecL1pXr1o1mpR7csIuTdlIj1fhHRcb8W3neJUuKD
E2ZIXM5gzzvrN0TlcMM6nBs9CTYLD2zvWVQHUhsc5g0BBev+zHu8z6C/28EXbE1/
Cm70fAQmTn8hwUwKV0oKVQ+NXZBIVlwyYKOcFerOjnt5U9sfLtYodKPNsIclX53y
jjnf0xFogaNsywd2W7FMZdBjCQid2G0CSg==
-----END CERTIFICATE-----
