Certificate:
    Data:
        Version: 3 (0x2)
        Serial Number:
            33:30:30:30:30:30:35:30:0d:15:7a:53:0e:40:ee:ff:26:91
        Signature Algorithm: sha256WithRSAEncryption
        Issuer: C=JP, O=Japanese Government, OU=National Police Agency, OU=NPA ICDL Root CA
        Validity
            Not Before: Jun 19 06:18:08 2023 GMT
            Not After : Jun 18 14:59:59 2028 GMT
        Subject: C=JP, O=Japanese Government, OU=National Police Agency, OU=Prefectural Public Safety Commissions for ICDL, CN=Saga AltPPSC
        Subject Public Key Info:
            Public Key Algorithm: rsaEncryption
                Public-Key: (2048 bit)
                Modulus:
                    00:94:59:18:e0:36:73:0f:aa:0d:13:da:cb:e7:3c:
                    73:9f:e8:63:b2:1d:b0:60:d3:59:9e:24:20:aa:09:
                    c3:a6:99:66:24:13:de:8f:70:ca:e6:1d:de:df:0e:
                    9a:78:74:e8:53:34:1b:b3:ea:5e:4a:16:cc:b0:b4:
                    9c:db:59:ea:da:1c:a3:dd:81:02:c5:2e:31:6f:18:
                    d0:2d:66:70:d9:8b:c9:35:91:82:f2:7a:63:c0:37:
                    af:ac:bc:27:ed:a2:77:6f:91:15:60:ad:38:99:a3:
                    40:2b:2d:9c:2d:bf:07:77:a7:ca:6c:d3:f7:5a:d3:
                    45:b6:64:d7:8e:17:98:9b:1c:51:f4:b9:c7:b6:aa:
                    f9:25:29:3a:b0:78:b9:7e:6e:c0:0a:6e:18:39:5f:
                    34:80:fc:b2:f4:5b:8e:82:82:43:50:40:53:a3:3a:
                    68:2e:12:ff:e3:60:a8:3d:2f:de:a9:2d:18:ce:ed:
                    ee:9d:b4:c5:95:34:55:2a:96:b5:18:38:ff:ab:23:
                    ed:be:ce:e8:18:cd:4e:b8:7d:7f:ef:82:2c:1f:9f:
                    4d:4f:81:cd:98:af:c9:08:44:96:59:c2:58:7f:5c:
                    21:84:0a:8c:58:38:d9:c6:3c:9d:25:9f:b1:29:e9:
                    70:61:df:7b:ca:bb:7b:1f:59:eb:a8:e1:1a:2a:e5:
                    c9:01
                Exponent: 65537 (0x10001)
        X509v3 extensions:
            X509v3 Authority Key Identifier: 
                keyid:11:CD:8E:60:44:47:57:4F:4F:CB:E9:E7:CB:A1:46:DF:BA:0E:50:8B
                DirName:/C=JP/O=Japanese Government/OU=National Police Agency/OU=NPA ICDL Root CA
                serial:32:30:30:30:30:30:31:36
            X509v3 Subject Key Identifier: 
                4C:CC:3F:61:36:AE:A0:82:E7:E2:C4:26:2E:5B:E5:18:92:CE:C0:4A
            X509v3 Key Usage: critical
                Digital Signature, Non Repudiation
            X509v3 Certificate Policies: critical
                Policy: 1.2.392.100120.7.5.1.1.10
                  CPS: http://www.npa.go.jp/
            X509v3 Issuer Alternative Name: 
                DirName:/C=JP/O=\xE6\x97\xA5\xE6\x9C\xAC\xE5\x9B\xBD\xE6\x94\xBF\xE5\xBA\x9C/OU=\xE8\xAD\xA6\xE5\xAF\x9F\xE5\xBA\x81/OU=\xE8\xAD\xA6\xE5\xAF\x9F\xE5\xBA\x81\xE9\x81\x8B\xE8\xBB\xA2\xE5\x85\x8D\xE8\xA8\xB1\xE8\xA8\xBC\xE8\xAA\x8D\xE8\xA8\xBC\xE5\xB1\x80
            X509v3 CRL Distribution Points: 
                Full Name:
                  DirName:C = JP, O = Japanese Government, OU = National Police Agency, OU = Prefectural Public Safety Commissions for ICDL
    Signature Algorithm: sha256WithRSAEncryption
    Signature Value:
        44:34:f2:18:dc:ce:52:71:37:c5:27:a8:62:af:ad:7e:45:39:
        78:98:9f:73:6e:1b:2c:c2:4c:b5:be:af:d5:8e:fa:76:af:a2:
        d7:98:7e:c6:8f:fb:f8:fd:c4:cd:09:5f:70:95:fc:a8:df:b2:
        32:6c:bc:93:b8:f7:26:96:96:b5:1d:16:1d:5d:51:35:0f:a4:
        d5:5e:95:f1:33:18:51:6f:1a:ed:82:41:24:01:70:e3:ad:ff:
        5b:7c:e7:8a:0d:0c:03:17:5a:a9:a0:2e:1e:da:4b:c8:3d:43:
        99:a9:e8:e5:68:ec:47:3e:0a:73:0c:ac:d8:2c:1e:77:65:5b:
        ee:cd:87:f2:e1:8f:02:c1:a3:77:66:b3:30:f8:ee:28:f5:37:
        9d:04:a0:ba:1e:9f:10:b0:d1:b1:36:70:74:3c:71:2a:44:84:
        00:b8:fa:a5:81:f4:f8:57:f0:fd:d5:0d:c7:ef:4e:ef:0d:82:
        65:61:49:11:d0:f0:f1:65:7d:de:c2:7c:f1:a9:2a:97:9b:c4:
        e7:5d:4c:c7:83:04:36:63:92:97:e9:9b:22:8d:ac:ae:4e:e2:
        94:29:a2:02:6d:1e:44:1c:c8:44:f3:62:fa:0b:02:f9:80:b2:
        4b:2a:c5:fa:83:46:4a:fb:fa:ac:8a:ab:60:25:d4:2c:85:65:
        69:ba:8b:4c
-----BEGIN CERTIFICATE-----
MIIFujCCBKKgAwIBAgISMzAwMDAwNTANFXpTDkDu/yaRMA0GCSqGSIb3DQEBCwUA
MGcxCzAJBgNVBAYTAkpQMRwwGgYDVQQKDBNKYXBhbmVzZSBHb3Zlcm5tZW50MR8w
HQYDVQQLDBZOYXRpb25hbCBQb2xpY2UgQWdlbmN5MRkwFwYDVQQLDBBOUEEgSUNE
TCBSb290IENBMB4XDTIzMDYxOTA2MTgwOFoXDTI4MDYxODE0NTk1OVowgZwxCzAJ
BgNVBAYTAkpQMRwwGgYDVQQKDBNKYXBhbmVzZSBHb3Zlcm5tZW50MR8wHQYDVQQL
DBZOYXRpb25hbCBQb2xpY2UgQWdlbmN5MTcwNQYDVQQLDC5QcmVmZWN0dXJhbCBQ
dWJsaWMgU2FmZXR5IENvbW1pc3Npb25zIGZvciBJQ0RMMRUwEwYDVQQDDAxTYWdh
IEFsdFBQU0MwggEiMA0GCSqGSIb3DQEBAQUAA4IBDwAwggEKAoIBAQCUWRjgNnMP
qg0T2svnPHOf6GOyHbBg01meJCCqCcOmmWYkE96PcMrmHd7fDpp4dOhTNBuz6l5K
FsywtJzbWeraHKPdgQLFLjFvGNAtZnDZi8k1kYLyemPAN6+svCftondvkRVgrTiZ
o0ArLZwtvwd3p8ps0/da00W2ZNeOF5ibHFH0uce2qvklKTqweLl+bsAKbhg5XzSA
/LL0W46CgkNQQFOjOmguEv/jYKg9L96pLRjO7e6dtMWVNFUqlrUYOP+rI+2+zugY
zU64fX/vgiwfn01Pgc2Yr8kIRJZZwlh/XCGECoxYONnGPJ0ln7Ep6XBh33vKu3sf
Weuo4Roq5ckBAgMBAAGjggIoMIICJDCBmAYDVR0jBIGQMIGNgBQRzY5gREdXT0/L
6efLoUbfug5Qi6FrpGkwZzELMAkGA1UEBhMCSlAxHDAaBgNVBAoME0phcGFuZXNl
IEdvdmVybm1lbnQxHzAdBgNVBAsMFk5hdGlvbmFsIFBvbGljZSBBZ2VuY3kxGTAX
BgNVBAsMEE5QQSBJQ0RMIFJvb3QgQ0GCCDIwMDAwMDE2MB0GA1UdDgQWBBRMzD9h
Nq6ggufixCYuW+UYks7ASjAOBgNVHQ8BAf8EBAMCBsAwQAYDVR0gAQH/BDYwNDAy
BgsqgwiGjhgHBQEBCjAjMCEGCCsGAQUFBwIBFhVodHRwOi8vd3d3Lm5wYS5nby5q
cC8wdAYDVR0SBG0wa6RpMGcxCzAJBgNVBAYTAkpQMRgwFgYDVQQKDA/ml6XmnKzl
m73mlL/lupwxEjAQBgNVBAsMCeitpuWvn+W6gTEqMCgGA1UECwwh6K2m5a+f5bqB
6YGL6Lui5YWN6Kix6Ki86KqN6Ki85bGAMIGfBgNVHR8EgZcwgZQwgZGggY6ggYuk
gYgwgYUxCzAJBgNVBAYTAkpQMRwwGgYDVQQKDBNKYXBhbmVzZSBHb3Zlcm5tZW50
MR8wHQYDVQQLDBZOYXRpb25hbCBQb2xpY2UgQWdlbmN5MTcwNQYDVQQLDC5QcmVm
ZWN0dXJhbCBQdWJsaWMgU2FmZXR5IENvbW1pc3Npb25zIGZvciBJQ0RMMA0GCSqG
SIb3DQEBCwUAA4IBAQBENPIY3M5ScTfFJ6hir61+RTl4mJ9zbhsswky1vq/Vjvp2
r6LXmH7Gj/v4/cTNCV9wlfyo37IybLyTuPcmlpa1HRYdXVE1D6TVXpXxMxhRbxrt
gkEkAXDjrf9bfOeKDQwDF1qpoC4e2kvIPUOZqejlaOxHPgpzDKzYLB53ZVvuzYfy
4Y8CwaN3ZrMw+O4o9TedBKC6Hp8QsNGxNnB0PHEqRIQAuPqlgfT4V/D91Q3H707v
DYJlYUkR0PDxZX3ewnzxqSqXm8TnXUzHgwQ2Y5KX6ZsijayuTuKUKaICbR5EHMhE
82L6CwL5gLJLKsX6g0ZK+/qsiqtgJdQshWVpuotM
-----END CERTIFICATE-----
