Certificate:
    Data:
        Version: 3 (0x2)
        Serial Number:
            32:30:30:30:30:30:34:39
        Signature Algorithm: sha256WithRSAEncryption
        Issuer: C=JP, O=Japanese Government, OU=National Police Agency, OU=NPA ICDL Root CA
        Validity
            Not Before: Feb  6 01:56:33 2023 GMT
            Not After : Feb  5 14:59:59 2028 GMT
        Subject: C=JP, O=Japanese Government, OU=National Police Agency, OU=Prefectural Public Safety Commissions for ICDL, CN=Saitama PPSC
        Subject Public Key Info:
            Public Key Algorithm: rsaEncryption
                Public-Key: (2048 bit)
                Modulus:
                    00:b9:7a:45:62:1b:30:cc:06:a2:c5:55:2f:94:e2:
                    fa:a5:5b:25:78:a5:d9:4e:02:a6:74:13:10:cd:75:
                    67:c5:71:58:0e:76:42:35:89:b6:9f:84:4c:31:1f:
                    36:f9:6f:7f:af:a9:7a:ec:dc:7a:db:81:23:69:28:
                    af:a9:cb:29:c9:f1:0b:30:9a:cb:09:1c:0d:53:e7:
                    2e:26:88:57:6e:a3:fb:de:37:20:81:12:5a:bc:4a:
                    cd:eb:de:f3:60:d9:8a:8a:73:45:88:aa:1d:71:17:
                    d2:fb:eb:4a:da:b5:8f:63:a2:10:4f:da:7a:49:de:
                    8a:0d:2b:ca:1e:dd:ed:94:93:63:dd:ff:e6:51:0a:
                    55:9a:7b:01:0f:67:b0:8e:c6:56:a6:7a:e7:1f:19:
                    bb:77:2d:47:f0:e3:ff:ad:60:12:0a:10:72:86:24:
                    a1:95:0c:81:48:93:31:0e:74:35:11:3a:0d:a4:84:
                    2e:75:55:80:bf:6b:12:78:4b:ae:4d:cb:0f:4f:ef:
                    c6:6d:de:13:5f:7b:71:ff:bc:dc:fe:1f:c6:eb:f8:
                    47:a6:9b:19:bb:18:2f:71:fa:71:6c:45:cb:27:00:
                    21:37:5a:7e:70:1a:f5:96:e1:1d:cb:5f:08:a2:be:
                    22:81:ad:88:81:28:1f:80:cb:0d:18:d1:74:44:b0:
                    11:d1
                Exponent: 65537 (0x10001)
        X509v3 extensions:
            X509v3 Authority Key Identifier: 
                keyid:11:CD:8E:60:44:47:57:4F:4F:CB:E9:E7:CB:A1:46:DF:BA:0E:50:8B
                DirName:/C=JP/O=Japanese Government/OU=National Police Agency/OU=NPA ICDL Root CA
                serial:32:30:30:30:30:30:31:36
            X509v3 Subject Key Identifier: 
                39:AE:AB:89:16:89:D9:ED:6C:B0:12:11:3B:40:94:0B:86:EF:76:BA
            X509v3 Key Usage: critical
                Digital Signature, Non Repudiation
            X509v3 Certificate Policies: critical
                Policy: 1.2.392.100120.7.5.1.1.10
                  CPS: http://www.npa.go.jp/
            X509v3 Subject Alternative Name: 
                DirName:/C=JP/O=\xE6\x97\xA5\xE6\x9C\xAC\xE5\x9B\xBD\xE6\x94\xBF\xE5\xBA\x9C/OU=\xE8\xAD\xA6\xE5\xAF\x9F\xE5\xBA\x81/OU=\xE9\x83\xBD\xE9\x81\x93\xE5\xBA\x9C\xE7\x9C\x8C\xE5\x85\xAC\xE5\xAE\x89\xE5\xA7\x94\xE5\x93\xA1\xE4\xBC\x9A
            X509v3 Issuer Alternative Name: 
                DirName:/C=JP/O=\xE6\x97\xA5\xE6\x9C\xAC\xE5\x9B\xBD\xE6\x94\xBF\xE5\xBA\x9C/OU=\xE8\xAD\xA6\xE5\xAF\x9F\xE5\xBA\x81/OU=\xE8\xAD\xA6\xE5\xAF\x9F\xE5\xBA\x81\xE9\x81\x8B\xE8\xBB\xA2\xE5\x85\x8D\xE8\xA8\xB1\xE8\xA8\xBC\xE8\xAA\x8D\xE8\xA8\xBC\xE5\xB1\x80
            X509v3 CRL Distribution Points: 
                Full Name:
                  DirName:C = JP, O = Japanese Government, OU = National Police Agency, OU = Prefectural Public Safety Commissions for ICDL
    Signature Algorithm: sha256WithRSAEncryption
    Signature Value:
        a4:6c:c3:ed:e6:16:11:98:3e:5c:92:18:c1:89:b1:5c:f8:62:
        1b:e1:cf:25:35:de:18:20:af:7a:f2:77:51:0a:e2:74:1b:e6:
        02:8c:4a:86:4d:3d:c6:fb:59:57:69:b9:71:44:3f:f9:3e:b3:
        a9:b6:5b:32:b2:f8:1f:a3:0f:bb:ad:44:31:98:63:3e:23:e8:
        0c:05:df:f9:88:9b:5b:db:dd:cc:63:79:45:25:c0:17:45:7a:
        51:d9:f9:35:60:82:4d:05:ee:96:4f:1f:52:aa:59:98:f4:60:
        41:df:ba:8b:0e:33:99:5a:e2:82:9e:3d:1c:f4:10:f3:90:2f:
        b9:87:86:4b:bf:ad:4d:ee:19:0f:44:f5:1e:ba:50:e5:2c:d3:
        a0:e6:94:c6:a8:4d:3a:2c:f3:d6:90:ed:40:d4:94:9f:2e:41:
        1c:8a:d3:1d:96:02:a8:b5:21:b2:24:f8:37:8a:64:eb:b6:77:
        98:e1:35:df:9a:e1:dd:ea:e9:d2:1b:25:4a:19:a6:b7:e9:f8:
        2b:00:41:f1:e4:87:73:0f:d5:18:cb:d6:85:6f:4b:5e:0c:33:
        bc:fa:fc:24:32:3b:09:84:6b:f9:82:41:fd:6a:88:b3:2d:d8:
        ee:9a:de:cc:75:2a:40:60:27:59:bd:9d:05:ba:ea:e1:2a:37:
        de:0c:84:8a
-----BEGIN CERTIFICATE-----
MIIGSDCCBTCgAwIBAgIIMjAwMDAwNDkwDQYJKoZIhvcNAQELBQAwZzELMAkGA1UE
BhMCSlAxHDAaBgNVBAoME0phcGFuZXNlIEdvdmVybm1lbnQxHzAdBgNVBAsMFk5h
dGlvbmFsIFBvbGljZSBBZ2VuY3kxGTAXBgNVBAsMEE5QQSBJQ0RMIFJvb3QgQ0Ew
HhcNMjMwMjA2MDE1NjMzWhcNMjgwMjA1MTQ1OTU5WjCBnDELMAkGA1UEBhMCSlAx
HDAaBgNVBAoME0phcGFuZXNlIEdvdmVybm1lbnQxHzAdBgNVBAsMFk5hdGlvbmFs
IFBvbGljZSBBZ2VuY3kxNzA1BgNVBAsMLlByZWZlY3R1cmFsIFB1YmxpYyBTYWZl
dHkgQ29tbWlzc2lvbnMgZm9yIElDREwxFTATBgNVBAMMDFNhaXRhbWEgUFBTQzCC
ASIwDQYJKoZIhvcNAQEBBQADggEPADCCAQoCggEBALl6RWIbMMwGosVVL5Ti+qVb
JXil2U4CpnQTEM11Z8VxWA52QjWJtp+ETDEfNvlvf6+peuzcetuBI2kor6nLKcnx
CzCaywkcDVPnLiaIV26j+943IIESWrxKzeve82DZiopzRYiqHXEX0vvrStq1j2Oi
EE/aekneig0ryh7d7ZSTY93/5lEKVZp7AQ9nsI7GVqZ65x8Zu3ctR/Dj/61gEgoQ
coYkoZUMgUiTMQ50NRE6DaSELnVVgL9rEnhLrk3LD0/vxm3eE197cf+83P4fxuv4
R6abGbsYL3H6cWxFyycAITdafnAa9ZbhHctfCKK+IoGtiIEoH4DLDRjRdESwEdEC
AwEAAaOCAsAwggK8MIGYBgNVHSMEgZAwgY2AFBHNjmBER1dPT8vp58uhRt+6DlCL
oWukaTBnMQswCQYDVQQGEwJKUDEcMBoGA1UECgwTSmFwYW5lc2UgR292ZXJubWVu
dDEfMB0GA1UECwwWTmF0aW9uYWwgUG9saWNlIEFnZW5jeTEZMBcGA1UECwwQTlBB
IElDREwgUm9vdCBDQYIIMjAwMDAwMTYwHQYDVR0OBBYEFDmuq4kWidntbLASETtA
lAuG73a6MA4GA1UdDwEB/wQEAwIGwDBABgNVHSABAf8ENjA0MDIGCyqDCIaOGAcF
AQEKMCMwIQYIKwYBBQUHAgEWFWh0dHA6Ly93d3cubnBhLmdvLmpwLzCBlQYDVR0R
BIGNMIGKpIGHMIGEMQswCQYDVQQGEwJKUDEYMBYGA1UECgwP5pel5pys5Zu95pS/
5bqcMRIwEAYDVQQLDAnorablr5/luoExJDAiBgNVBAsMG+mDvemBk+W6nOecjOWF
rOWuieWnlOWToeS8mjEhMB8GA1UEAwwY5Z+8546J55yM5YWs5a6J5aeU5ZOh5Lya
MHQGA1UdEgRtMGukaTBnMQswCQYDVQQGEwJKUDEYMBYGA1UECgwP5pel5pys5Zu9
5pS/5bqcMRIwEAYDVQQLDAnorablr5/luoExKjAoBgNVBAsMIeitpuWvn+W6gemB
i+i7ouWFjeioseiovOiqjeiovOWxgDCBnwYDVR0fBIGXMIGUMIGRoIGOoIGLpIGI
MIGFMQswCQYDVQQGEwJKUDEcMBoGA1UECgwTSmFwYW5lc2UgR292ZXJubWVudDEf
MB0GA1UECwwWTmF0aW9uYWwgUG9saWNlIEFnZW5jeTE3MDUGA1UECwwuUHJlZmVj
dHVyYWwgUHVibGljIFNhZmV0eSBDb21taXNzaW9ucyBmb3IgSUNETDANBgkqhkiG
9w0BAQsFAAOCAQEApGzD7eYWEZg+XJIYwYmxXPhiG+HPJTXeGCCvevJ3UQridBvm
AoxKhk09xvtZV2m5cUQ/+T6zqbZbMrL4H6MPu61EMZhjPiPoDAXf+YibW9vdzGN5
RSXAF0V6Udn5NWCCTQXulk8fUqpZmPRgQd+6iw4zmVrigp49HPQQ85AvuYeGS7+t
Te4ZD0T1HrpQ5SzToOaUxqhNOizz1pDtQNSUny5BHIrTHZYCqLUhsiT4N4pk67Z3
mOE135rh3erp0hslShmmt+n4KwBB8eSHcw/VGMvWhW9LXgwzvPr8JDI7CYRr+YJB
/WqIsy3Y7prezHUqQGAnWb2dBbrq4So33gyEig==
-----END CERTIFICATE-----
