Certificate:
    Data:
        Version: 3 (0x2)
        Serial Number:
            33:30:30:30:30:30:32:31:6e:84:6c:29:48:b4:78:d3:04:9a
        Signature Algorithm: sha256WithRSAEncryption
        Issuer: C=JP, O=Japanese Government, OU=National Police Agency, OU=NPA ICDL Root CA
        Validity
            Not Before: Jun 19 05:37:39 2023 GMT
            Not After : Jun 18 14:59:59 2028 GMT
        Subject: C=JP, O=Japanese Government, OU=National Police Agency, OU=Prefectural Public Safety Commissions for ICDL, CN=Saitama AltPPSC
        Subject Public Key Info:
            Public Key Algorithm: rsaEncryption
                Public-Key: (2048 bit)
                Modulus:
                    00:99:5e:08:72:c7:2d:31:80:57:1f:0a:72:d0:6c:
                    b0:35:04:0e:9f:03:21:7a:bf:de:28:79:fa:8e:a3:
                    d4:d1:f3:ab:3e:61:29:1d:79:26:f4:da:d6:1f:66:
                    ac:75:89:ea:04:83:33:ca:c5:61:14:06:da:c8:a6:
                    93:95:f0:3f:2c:45:1b:49:32:e5:e7:1e:b3:c6:f1:
                    58:83:df:22:00:7f:55:ae:5d:1e:d5:5b:2d:b9:80:
                    84:a8:14:9d:be:e3:43:41:5b:7e:c6:96:26:a2:bc:
                    a4:2c:4f:cf:b2:df:8a:35:00:78:26:25:b4:1e:3e:
                    85:2d:b2:85:5d:a1:dd:90:14:b7:df:7c:28:40:f9:
                    02:14:4e:eb:1b:73:c8:97:ee:89:28:19:46:eb:0a:
                    21:b0:d5:13:80:01:a1:ec:08:eb:46:cb:fb:ee:26:
                    a3:0a:bd:d2:92:15:57:11:33:d6:98:b1:95:c2:00:
                    47:64:15:70:9e:51:81:bb:aa:75:9e:3b:f5:e8:64:
                    60:49:36:23:42:ec:8c:bf:f9:c4:1f:08:1d:c7:f0:
                    e8:87:f0:19:f7:8b:4e:5d:27:40:92:0e:77:c0:fd:
                    48:fd:e5:2c:2c:cd:15:73:ef:5e:56:18:de:4c:69:
                    53:88:d0:dc:0d:7b:ab:75:1a:35:e7:33:52:3d:3b:
                    61:bf
                Exponent: 65537 (0x10001)
        X509v3 extensions:
            X509v3 Authority Key Identifier: 
                keyid:11:CD:8E:60:44:47:57:4F:4F:CB:E9:E7:CB:A1:46:DF:BA:0E:50:8B
                DirName:/C=JP/O=Japanese Government/OU=National Police Agency/OU=NPA ICDL Root CA
                serial:32:30:30:30:30:30:31:36
            X509v3 Subject Key Identifier: 
                99:8E:37:8E:F1:D0:A6:FC:54:B2:AE:D3:DA:69:42:66:0C:7F:1E:B6
            X509v3 Key Usage: critical
                Digital Signature, Non Repudiation
            X509v3 Certificate Policies: critical
                Policy: 1.2.392.100120.7.5.1.1.10
                  CPS: http://www.npa.go.jp/
            X509v3 Issuer Alternative Name: 
                DirName:/C=JP/O=\xE6\x97\xA5\xE6\x9C\xAC\xE5\x9B\xBD\xE6\x94\xBF\xE5\xBA\x9C/OU=\xE8\xAD\xA6\xE5\xAF\x9F\xE5\xBA\x81/OU=\xE8\xAD\xA6\xE5\xAF\x9F\xE5\xBA\x81\xE9\x81\x8B\xE8\xBB\xA2\xE5\x85\x8D\xE8\xA8\xB1\xE8\xA8\xBC\xE8\xAA\x8D\xE8\xA8\xBC\xE5\xB1\x80
            X509v3 CRL Distribution Points: 
                Full Name:
                  DirName:C = JP, O = Japanese Government, OU = National Police Agency, OU = Prefectural Public Safety Commissions for ICDL
    Signature Algorithm: sha256WithRSAEncryption
    Signature Value:
        77:8a:9e:cd:15:f6:20:8e:3d:5a:33:b3:47:84:d6:d0:a0:75:
        05:4b:e4:72:e2:cb:ca:dd:cf:bb:b6:8e:fb:ad:9e:da:c3:19:
        1f:5d:93:c3:a2:7a:92:d5:af:ce:ce:43:42:b4:5b:5e:56:01:
        cd:89:1f:4f:7d:93:59:fe:9b:18:97:11:dc:85:0d:6c:1c:8a:
        53:7c:4f:37:de:0d:30:87:62:43:65:74:3f:f5:51:a8:b7:84:
        18:69:1c:ec:28:ce:f6:b3:7b:06:8a:ef:21:0c:68:81:87:3f:
        fb:7a:40:95:2c:04:57:37:e2:7f:2c:78:e5:6a:b2:3d:9a:c5:
        d4:49:86:a2:98:66:92:c9:d1:d9:a1:fa:a3:f8:be:f5:1e:ac:
        a4:54:82:e5:11:a5:2a:3d:95:06:7c:78:85:69:bd:24:9f:c7:
        85:2f:98:72:31:21:9a:73:e3:2a:f7:d0:19:42:d1:64:07:07:
        99:8d:25:f2:00:6f:fd:1f:6c:b3:03:07:d6:4c:77:aa:db:e2:
        45:d5:90:e9:47:04:2e:38:a5:a0:16:8c:74:38:47:6e:ce:c9:
        75:ab:ca:8d:47:1c:a9:6c:67:5d:45:46:43:23:f3:07:fa:4d:
        a4:16:f6:f7:29:cf:f9:7f:e6:d1:f5:48:62:b8:13:73:db:3e:
        8e:95:fb:00
-----BEGIN CERTIFICATE-----
MIIFvTCCBKWgAwIBAgISMzAwMDAwMjFuhGwpSLR40wSaMA0GCSqGSIb3DQEBCwUA
MGcxCzAJBgNVBAYTAkpQMRwwGgYDVQQKDBNKYXBhbmVzZSBHb3Zlcm5tZW50MR8w
HQYDVQQLDBZOYXRpb25hbCBQb2xpY2UgQWdlbmN5MRkwFwYDVQQLDBBOUEEgSUNE
TCBSb290IENBMB4XDTIzMDYxOTA1MzczOVoXDTI4MDYxODE0NTk1OVowgZ8xCzAJ
BgNVBAYTAkpQMRwwGgYDVQQKDBNKYXBhbmVzZSBHb3Zlcm5tZW50MR8wHQYDVQQL
DBZOYXRpb25hbCBQb2xpY2UgQWdlbmN5MTcwNQYDVQQLDC5QcmVmZWN0dXJhbCBQ
dWJsaWMgU2FmZXR5IENvbW1pc3Npb25zIGZvciBJQ0RMMRgwFgYDVQQDDA9TYWl0
YW1hIEFsdFBQU0MwggEiMA0GCSqGSIb3DQEBAQUAA4IBDwAwggEKAoIBAQCZXghy
xy0xgFcfCnLQbLA1BA6fAyF6v94oefqOo9TR86s+YSkdeSb02tYfZqx1ieoEgzPK
xWEUBtrIppOV8D8sRRtJMuXnHrPG8ViD3yIAf1WuXR7VWy25gISoFJ2+40NBW37G
liaivKQsT8+y34o1AHgmJbQePoUtsoVdod2QFLfffChA+QIUTusbc8iX7okoGUbr
CiGw1ROAAaHsCOtGy/vuJqMKvdKSFVcRM9aYsZXCAEdkFXCeUYG7qnWeO/XoZGBJ
NiNC7Iy/+cQfCB3H8OiH8Bn3i05dJ0CSDnfA/Uj95SwszRVz715WGN5MaVOI0NwN
e6t1GjXnM1I9O2G/AgMBAAGjggIoMIICJDCBmAYDVR0jBIGQMIGNgBQRzY5gREdX
T0/L6efLoUbfug5Qi6FrpGkwZzELMAkGA1UEBhMCSlAxHDAaBgNVBAoME0phcGFu
ZXNlIEdvdmVybm1lbnQxHzAdBgNVBAsMFk5hdGlvbmFsIFBvbGljZSBBZ2VuY3kx
GTAXBgNVBAsMEE5QQSBJQ0RMIFJvb3QgQ0GCCDIwMDAwMDE2MB0GA1UdDgQWBBSZ
jjeO8dCm/FSyrtPaaUJmDH8etjAOBgNVHQ8BAf8EBAMCBsAwQAYDVR0gAQH/BDYw
NDAyBgsqgwiGjhgHBQEBCjAjMCEGCCsGAQUFBwIBFhVodHRwOi8vd3d3Lm5wYS5n
by5qcC8wdAYDVR0SBG0wa6RpMGcxCzAJBgNVBAYTAkpQMRgwFgYDVQQKDA/ml6Xm
nKzlm73mlL/lupwxEjAQBgNVBAsMCeitpuWvn+W6gTEqMCgGA1UECwwh6K2m5a+f
5bqB6YGL6Lui5YWN6Kix6Ki86KqN6Ki85bGAMIGfBgNVHR8EgZcwgZQwgZGggY6g
gYukgYgwgYUxCzAJBgNVBAYTAkpQMRwwGgYDVQQKDBNKYXBhbmVzZSBHb3Zlcm5t
ZW50MR8wHQYDVQQLDBZOYXRpb25hbCBQb2xpY2UgQWdlbmN5MTcwNQYDVQQLDC5Q
cmVmZWN0dXJhbCBQdWJsaWMgU2FmZXR5IENvbW1pc3Npb25zIGZvciBJQ0RMMA0G
CSqGSIb3DQEBCwUAA4IBAQB3ip7NFfYgjj1aM7NHhNbQoHUFS+Ry4svK3c+7to77
rZ7awxkfXZPDonqS1a/OzkNCtFteVgHNiR9PfZNZ/psYlxHchQ1sHIpTfE833g0w
h2JDZXQ/9VGot4QYaRzsKM72s3sGiu8hDGiBhz/7ekCVLARXN+J/LHjlarI9msXU
SYaimGaSydHZofqj+L71HqykVILlEaUqPZUGfHiFab0kn8eFL5hyMSGac+Mq99AZ
QtFkBweZjSXyAG/9H2yzAwfWTHeq2+JF1ZDpRwQuOKWgFox0OEduzsl1q8qNRxyp
bGddRUZDI/MH+k2kFvb3Kc/5f+bR9UhiuBNz2z6OlfsA
-----END CERTIFICATE-----
