Certificate:
    Data:
        Version: 3 (0x2)
        Serial Number:
            33:30:30:30:30:31:30:31
        Signature Algorithm: sha256WithRSAEncryption
        Issuer: C=JP, O=Japanese Government, OU=National Police Agency, OU=NPA ICDL Root CA
        Validity
            Not Before: Sep 17 07:14:30 2024 GMT
            Not After : Sep 16 14:59:59 2029 GMT
        Subject: C=JP, O=Japanese Government, OU=National Police Agency, OU=Prefectural Public Safety Commissions for ICDL, CN=Saitama PPSC
        Subject Public Key Info:
            Public Key Algorithm: rsaEncryption
                Public-Key: (2048 bit)
                Modulus:
                    00:b4:db:2f:aa:64:4b:5e:30:24:dd:ac:91:ea:94:
                    19:97:94:2a:0a:a8:da:52:e4:fc:a2:a8:45:7f:99:
                    17:b0:83:2f:f9:39:24:3d:d0:60:97:b0:72:05:99:
                    0f:56:ca:af:02:d6:96:f2:40:64:f9:c9:ce:6b:3a:
                    fc:23:8b:f7:99:e8:e2:bb:a0:6b:14:10:be:5e:4e:
                    43:a3:36:a6:95:50:4d:95:b1:af:ee:a6:58:ea:6c:
                    af:e2:0b:aa:ce:4a:2c:ca:98:d3:cb:ce:12:f2:89:
                    7e:be:e3:55:62:24:04:52:0d:5d:22:1c:c3:19:9d:
                    4c:0c:59:f9:01:a6:36:e9:8e:99:e7:3c:31:95:ec:
                    02:28:1d:a6:a1:38:ef:e5:8a:a8:27:90:f0:19:7a:
                    b5:ef:f6:54:a9:29:b4:ff:ba:3d:49:0b:50:c4:83:
                    ee:8e:ae:db:30:aa:bf:e1:40:00:08:9c:95:34:1b:
                    0e:1b:3c:a4:c7:ba:dd:f5:17:22:e6:9d:0d:e6:7c:
                    c2:04:1d:14:82:c0:18:57:91:17:9a:fb:cb:35:4c:
                    83:66:66:54:e3:5c:fb:c8:a5:c1:be:9d:f9:cc:51:
                    e6:67:e3:48:6a:9b:ff:9d:c6:6c:3a:2c:fd:9a:51:
                    2c:36:29:ba:a2:cd:48:21:c6:a9:2c:b1:3f:35:59:
                    9f:3d
                Exponent: 65537 (0x10001)
        X509v3 extensions:
            X509v3 Authority Key Identifier: 
                keyid:11:CD:8E:60:44:47:57:4F:4F:CB:E9:E7:CB:A1:46:DF:BA:0E:50:8B
                DirName:/C=JP/O=Japanese Government/OU=National Police Agency/OU=NPA ICDL Root CA
                serial:32:30:30:30:30:30:31:36
            X509v3 Subject Key Identifier: 
                DD:2A:2F:C0:EC:71:B0:52:50:BB:8A:87:49:11:2C:9C:B8:6B:49:AE
            X509v3 Key Usage: critical
                Digital Signature, Non Repudiation
            X509v3 Certificate Policies: critical
                Policy: 1.2.392.100120.7.5.1.1.10
                  CPS: http://www.npa.go.jp/
            X509v3 Subject Alternative Name: 
                DirName:/C=JP/O=\xE6\x97\xA5\xE6\x9C\xAC\xE5\x9B\xBD\xE6\x94\xBF\xE5\xBA\x9C/OU=\xE8\xAD\xA6\xE5\xAF\x9F\xE5\xBA\x81/OU=\xE9\x83\xBD\xE9\x81\x93\xE5\xBA\x9C\xE7\x9C\x8C\xE5\x85\xAC\xE5\xAE\x89\xE5\xA7\x94\xE5\x93\xA1\xE4\xBC\x9A
            X509v3 Issuer Alternative Name: 
                DirName:/C=JP/O=\xE6\x97\xA5\xE6\x9C\xAC\xE5\x9B\xBD\xE6\x94\xBF\xE5\xBA\x9C/OU=\xE8\xAD\xA6\xE5\xAF\x9F\xE5\xBA\x81/OU=\xE8\xAD\xA6\xE5\xAF\x9F\xE5\xBA\x81\xE9\x81\x8B\xE8\xBB\xA2\xE5\x85\x8D\xE8\xA8\xB1\xE8\xA8\xBC\xE8\xAA\x8D\xE8\xA8\xBC\xE5\xB1\x80
            X509v3 CRL Distribution Points: 
                Full Name:
                  DirName:C = JP, O = Japanese Government, OU = National Police Agency, OU = Prefectural Public Safety Commissions for ICDL
    Signature Algorithm: sha256WithRSAEncryption
    Signature Value:
        a2:b8:e9:90:96:72:c4:24:33:d2:68:74:f6:9d:da:d2:d3:fe:
        1d:cf:ee:0d:44:4c:6a:b7:ea:c7:72:1e:65:b8:1f:69:3f:1a:
        d0:9a:73:a5:7a:a4:4c:76:2d:43:ac:26:6d:b5:17:f8:81:16:
        53:07:ce:8d:f9:03:43:2d:bc:18:bc:e5:89:45:12:57:b7:fe:
        eb:d2:6d:fb:6d:49:10:f1:ee:37:df:06:ff:71:4c:17:ee:a5:
        1a:11:0f:71:ce:de:0f:35:fc:f5:03:d7:a6:3d:39:0b:a0:23:
        6f:c7:0a:cd:34:e5:74:e9:74:40:ca:eb:05:56:28:26:d9:13:
        0f:bc:19:a0:21:ac:ff:50:96:c5:48:92:79:4e:b1:dc:2f:aa:
        bf:6d:09:7f:81:eb:6e:7a:a5:81:fd:61:40:e1:d3:e5:b4:ed:
        00:42:f0:5b:64:6f:9b:7e:63:57:e1:e4:36:75:ca:91:d6:92:
        b6:57:82:8c:bd:26:4a:88:2e:08:b5:c9:90:32:74:51:4d:83:
        60:4f:59:70:4a:1d:3c:cb:27:7d:2b:c8:8c:68:5e:9a:f2:c6:
        61:58:35:fd:e6:f7:be:d6:cf:9a:ac:43:80:97:b3:16:b6:c6:
        05:ae:6a:46:ae:89:da:7a:cb:6a:1c:57:f1:b9:42:89:56:87:
        ed:8c:ad:a7
-----BEGIN CERTIFICATE-----
MIIGSDCCBTCgAwIBAgIIMzAwMDAxMDEwDQYJKoZIhvcNAQELBQAwZzELMAkGA1UE
BhMCSlAxHDAaBgNVBAoME0phcGFuZXNlIEdvdmVybm1lbnQxHzAdBgNVBAsMFk5h
dGlvbmFsIFBvbGljZSBBZ2VuY3kxGTAXBgNVBAsMEE5QQSBJQ0RMIFJvb3QgQ0Ew
HhcNMjQwOTE3MDcxNDMwWhcNMjkwOTE2MTQ1OTU5WjCBnDELMAkGA1UEBhMCSlAx
HDAaBgNVBAoME0phcGFuZXNlIEdvdmVybm1lbnQxHzAdBgNVBAsMFk5hdGlvbmFs
IFBvbGljZSBBZ2VuY3kxNzA1BgNVBAsMLlByZWZlY3R1cmFsIFB1YmxpYyBTYWZl
dHkgQ29tbWlzc2lvbnMgZm9yIElDREwxFTATBgNVBAMMDFNhaXRhbWEgUFBTQzCC
ASIwDQYJKoZIhvcNAQEBBQADggEPADCCAQoCggEBALTbL6pkS14wJN2skeqUGZeU
Kgqo2lLk/KKoRX+ZF7CDL/k5JD3QYJewcgWZD1bKrwLWlvJAZPnJzms6/COL95no
4rugaxQQvl5OQ6M2ppVQTZWxr+6mWOpsr+ILqs5KLMqY08vOEvKJfr7jVWIkBFIN
XSIcwxmdTAxZ+QGmNumOmec8MZXsAigdpqE47+WKqCeQ8Bl6te/2VKkptP+6PUkL
UMSD7o6u2zCqv+FAAAiclTQbDhs8pMe63fUXIuadDeZ8wgQdFILAGFeRF5r7yzVM
g2ZmVONc+8ilwb6d+cxR5mfjSGqb/53GbDos/ZpRLDYpuqLNSCHGqSyxPzVZnz0C
AwEAAaOCAsAwggK8MIGYBgNVHSMEgZAwgY2AFBHNjmBER1dPT8vp58uhRt+6DlCL
oWukaTBnMQswCQYDVQQGEwJKUDEcMBoGA1UECgwTSmFwYW5lc2UgR292ZXJubWVu
dDEfMB0GA1UECwwWTmF0aW9uYWwgUG9saWNlIEFnZW5jeTEZMBcGA1UECwwQTlBB
IElDREwgUm9vdCBDQYIIMjAwMDAwMTYwHQYDVR0OBBYEFN0qL8DscbBSULuKh0kR
LJy4a0muMA4GA1UdDwEB/wQEAwIGwDBABgNVHSABAf8ENjA0MDIGCyqDCIaOGAcF
AQEKMCMwIQYIKwYBBQUHAgEWFWh0dHA6Ly93d3cubnBhLmdvLmpwLzCBlQYDVR0R
BIGNMIGKpIGHMIGEMQswCQYDVQQGEwJKUDEYMBYGA1UECgwP5pel5pys5Zu95pS/
5bqcMRIwEAYDVQQLDAnorablr5/luoExJDAiBgNVBAsMG+mDvemBk+W6nOecjOWF
rOWuieWnlOWToeS8mjEhMB8GA1UEAwwY5Z+8546J55yM5YWs5a6J5aeU5ZOh5Lya
MHQGA1UdEgRtMGukaTBnMQswCQYDVQQGEwJKUDEYMBYGA1UECgwP5pel5pys5Zu9
5pS/5bqcMRIwEAYDVQQLDAnorablr5/luoExKjAoBgNVBAsMIeitpuWvn+W6gemB
i+i7ouWFjeioseiovOiqjeiovOWxgDCBnwYDVR0fBIGXMIGUMIGRoIGOoIGLpIGI
MIGFMQswCQYDVQQGEwJKUDEcMBoGA1UECgwTSmFwYW5lc2UgR292ZXJubWVudDEf
MB0GA1UECwwWTmF0aW9uYWwgUG9saWNlIEFnZW5jeTE3MDUGA1UECwwuUHJlZmVj
dHVyYWwgUHVibGljIFNhZmV0eSBDb21taXNzaW9ucyBmb3IgSUNETDANBgkqhkiG
9w0BAQsFAAOCAQEAorjpkJZyxCQz0mh09p3a0tP+Hc/uDURMarfqx3IeZbgfaT8a
0JpzpXqkTHYtQ6wmbbUX+IEWUwfOjfkDQy28GLzliUUSV7f+69Jt+21JEPHuN98G
/3FMF+6lGhEPcc7eDzX89QPXpj05C6Ajb8cKzTTldOl0QMrrBVYoJtkTD7wZoCGs
/1CWxUiSeU6x3C+qv20Jf4Hrbnqlgf1hQOHT5bTtAELwW2Rvm35jV+HkNnXKkdaS
tleCjL0mSoguCLXJkDJ0UU2DYE9ZcEodPMsnfSvIjGhemvLGYVg1/eb3vtbPmqxD
gJezFrbGBa5qRq6J2nrLahxX8blCiVaH7Yytpw==
-----END CERTIFICATE-----
