Certificate:
    Data:
        Version: 3 (0x2)
        Serial Number:
            33:30:30:30:30:30:33:34:de:16:ae:1f:57:4b:b4:0d:21:df
        Signature Algorithm: sha256WithRSAEncryption
        Issuer: C=JP, O=Japanese Government, OU=National Police Agency, OU=NPA ICDL Root CA
        Validity
            Not Before: Jun 19 05:57:03 2023 GMT
            Not After : Jun 18 14:59:59 2028 GMT
        Subject: C=JP, O=Japanese Government, OU=National Police Agency, OU=Prefectural Public Safety Commissions for ICDL, CN=Shiga AltPPSC
        Subject Public Key Info:
            Public Key Algorithm: rsaEncryption
                Public-Key: (2048 bit)
                Modulus:
                    00:82:e5:92:89:42:10:76:99:ee:cd:db:f5:60:6c:
                    8f:58:c9:60:66:df:fc:bb:7a:ff:5a:54:bb:49:5c:
                    7c:c0:a9:19:77:f0:f3:36:df:2c:c8:8f:d8:c7:b1:
                    52:b5:c9:f1:dc:8f:c2:57:43:78:08:4d:bb:03:cb:
                    b5:58:ea:b9:55:b1:2e:f0:33:cd:29:45:08:08:ea:
                    70:4f:95:3d:db:fd:31:e6:5f:9e:1a:20:56:3c:68:
                    89:52:a0:54:c6:57:2a:8b:2b:b4:28:f0:06:f0:4a:
                    4e:92:b6:38:19:ae:63:00:3c:16:ab:e9:03:27:79:
                    2a:4e:38:2c:90:39:91:88:86:56:89:6e:8c:05:9b:
                    46:ba:b5:e3:a0:67:6b:3a:7b:3e:11:b4:b3:df:24:
                    50:52:91:62:36:e9:ac:67:50:38:65:a2:0c:25:33:
                    90:ff:c8:48:2f:83:ab:42:f1:13:ff:34:d8:5b:cb:
                    04:e7:df:7f:91:a4:c4:5f:8e:80:e7:c9:ca:72:76:
                    81:67:ad:dd:90:c6:c9:c1:41:4b:08:be:9e:58:4d:
                    e2:4d:78:5e:e1:a7:38:e0:b2:9d:74:93:98:08:91:
                    9e:ff:3a:70:df:9d:99:78:cc:fe:e2:d9:01:bd:4b:
                    79:94:20:ef:15:e3:d6:29:82:5b:2b:50:ec:f0:21:
                    d0:2b
                Exponent: 65537 (0x10001)
        X509v3 extensions:
            X509v3 Authority Key Identifier: 
                keyid:11:CD:8E:60:44:47:57:4F:4F:CB:E9:E7:CB:A1:46:DF:BA:0E:50:8B
                DirName:/C=JP/O=Japanese Government/OU=National Police Agency/OU=NPA ICDL Root CA
                serial:32:30:30:30:30:30:31:36
            X509v3 Subject Key Identifier: 
                27:9F:DB:B2:3A:27:9E:AB:8B:3D:87:C4:2C:02:5F:86:91:EC:14:B9
            X509v3 Key Usage: critical
                Digital Signature, Non Repudiation
            X509v3 Certificate Policies: critical
                Policy: 1.2.392.100120.7.5.1.1.10
                  CPS: http://www.npa.go.jp/
            X509v3 Issuer Alternative Name: 
                DirName:/C=JP/O=\xE6\x97\xA5\xE6\x9C\xAC\xE5\x9B\xBD\xE6\x94\xBF\xE5\xBA\x9C/OU=\xE8\xAD\xA6\xE5\xAF\x9F\xE5\xBA\x81/OU=\xE8\xAD\xA6\xE5\xAF\x9F\xE5\xBA\x81\xE9\x81\x8B\xE8\xBB\xA2\xE5\x85\x8D\xE8\xA8\xB1\xE8\xA8\xBC\xE8\xAA\x8D\xE8\xA8\xBC\xE5\xB1\x80
            X509v3 CRL Distribution Points: 
                Full Name:
                  DirName:C = JP, O = Japanese Government, OU = National Police Agency, OU = Prefectural Public Safety Commissions for ICDL
    Signature Algorithm: sha256WithRSAEncryption
    Signature Value:
        0a:4c:8d:2d:d7:06:17:a5:9e:8f:ba:4e:1f:76:c1:2e:56:c1:
        95:12:5a:5c:f9:9b:90:3a:8a:24:67:61:d3:94:b9:27:e0:82:
        c8:06:1e:6f:e8:49:e2:27:3f:73:38:af:2a:3f:cf:07:80:46:
        84:38:bf:f5:66:c0:e0:bd:a3:48:ed:f1:53:24:a7:e2:7d:d6:
        01:cb:82:9c:79:41:96:e1:47:04:b9:55:e7:6a:f6:9c:92:e6:
        f1:7a:b3:91:be:03:0e:51:1a:cd:43:84:1f:d2:a5:73:4e:96:
        10:51:01:77:dc:ec:dc:b3:fd:68:09:9c:a9:35:b5:41:bc:4f:
        2b:ed:ab:03:c0:61:d9:b7:02:b3:1e:90:fb:f0:18:61:92:02:
        0f:8a:f0:62:98:55:e7:93:82:61:4b:f0:0d:20:c2:24:65:fa:
        ef:5f:74:8d:aa:e1:c4:7d:76:e2:8d:39:0c:3b:9a:e1:0f:cb:
        69:9b:d9:2b:2f:07:6d:27:55:18:14:1e:4b:6f:1d:b5:0f:39:
        3a:7c:31:b7:aa:fa:c9:a6:bd:ac:0d:f5:f8:30:fd:c6:22:b8:
        b4:93:2c:d7:a4:5e:0e:18:0f:ea:cd:08:a0:6b:78:70:95:57:
        da:9a:66:fe:1c:36:72:4a:fc:e4:2f:dd:6b:7e:53:69:c9:af:
        38:02:0c:8e
-----BEGIN CERTIFICATE-----
MIIFuzCCBKOgAwIBAgISMzAwMDAwMzTeFq4fV0u0DSHfMA0GCSqGSIb3DQEBCwUA
MGcxCzAJBgNVBAYTAkpQMRwwGgYDVQQKDBNKYXBhbmVzZSBHb3Zlcm5tZW50MR8w
HQYDVQQLDBZOYXRpb25hbCBQb2xpY2UgQWdlbmN5MRkwFwYDVQQLDBBOUEEgSUNE
TCBSb290IENBMB4XDTIzMDYxOTA1NTcwM1oXDTI4MDYxODE0NTk1OVowgZ0xCzAJ
BgNVBAYTAkpQMRwwGgYDVQQKDBNKYXBhbmVzZSBHb3Zlcm5tZW50MR8wHQYDVQQL
DBZOYXRpb25hbCBQb2xpY2UgQWdlbmN5MTcwNQYDVQQLDC5QcmVmZWN0dXJhbCBQ
dWJsaWMgU2FmZXR5IENvbW1pc3Npb25zIGZvciBJQ0RMMRYwFAYDVQQDDA1TaGln
YSBBbHRQUFNDMIIBIjANBgkqhkiG9w0BAQEFAAOCAQ8AMIIBCgKCAQEAguWSiUIQ
dpnuzdv1YGyPWMlgZt/8u3r/WlS7SVx8wKkZd/DzNt8syI/Yx7FStcnx3I/CV0N4
CE27A8u1WOq5VbEu8DPNKUUICOpwT5U92/0x5l+eGiBWPGiJUqBUxlcqiyu0KPAG
8EpOkrY4Ga5jADwWq+kDJ3kqTjgskDmRiIZWiW6MBZtGurXjoGdrOns+EbSz3yRQ
UpFiNumsZ1A4ZaIMJTOQ/8hIL4OrQvET/zTYW8sE599/kaTEX46A58nKcnaBZ63d
kMbJwUFLCL6eWE3iTXhe4ac44LKddJOYCJGe/zpw352ZeMz+4tkBvUt5lCDvFePW
KYJbK1Ds8CHQKwIDAQABo4ICKDCCAiQwgZgGA1UdIwSBkDCBjYAUEc2OYERHV09P
y+nny6FG37oOUIuha6RpMGcxCzAJBgNVBAYTAkpQMRwwGgYDVQQKDBNKYXBhbmVz
ZSBHb3Zlcm5tZW50MR8wHQYDVQQLDBZOYXRpb25hbCBQb2xpY2UgQWdlbmN5MRkw
FwYDVQQLDBBOUEEgSUNETCBSb290IENBgggyMDAwMDAxNjAdBgNVHQ4EFgQUJ5/b
sjonnquLPYfELAJfhpHsFLkwDgYDVR0PAQH/BAQDAgbAMEAGA1UdIAEB/wQ2MDQw
MgYLKoMIho4YBwUBAQowIzAhBggrBgEFBQcCARYVaHR0cDovL3d3dy5ucGEuZ28u
anAvMHQGA1UdEgRtMGukaTBnMQswCQYDVQQGEwJKUDEYMBYGA1UECgwP5pel5pys
5Zu95pS/5bqcMRIwEAYDVQQLDAnorablr5/luoExKjAoBgNVBAsMIeitpuWvn+W6
gemBi+i7ouWFjeioseiovOiqjeiovOWxgDCBnwYDVR0fBIGXMIGUMIGRoIGOoIGL
pIGIMIGFMQswCQYDVQQGEwJKUDEcMBoGA1UECgwTSmFwYW5lc2UgR292ZXJubWVu
dDEfMB0GA1UECwwWTmF0aW9uYWwgUG9saWNlIEFnZW5jeTE3MDUGA1UECwwuUHJl
ZmVjdHVyYWwgUHVibGljIFNhZmV0eSBDb21taXNzaW9ucyBmb3IgSUNETDANBgkq
hkiG9w0BAQsFAAOCAQEACkyNLdcGF6Wej7pOH3bBLlbBlRJaXPmbkDqKJGdh05S5
J+CCyAYeb+hJ4ic/czivKj/PB4BGhDi/9WbA4L2jSO3xUySn4n3WAcuCnHlBluFH
BLlV52r2nJLm8Xqzkb4DDlEazUOEH9Klc06WEFEBd9zs3LP9aAmcqTW1QbxPK+2r
A8Bh2bcCsx6Q+/AYYZICD4rwYphV55OCYUvwDSDCJGX67190jarhxH124o05DDua
4Q/LaZvZKy8HbSdVGBQeS28dtQ85Onwxt6r6yaa9rA31+DD9xiK4tJMs16ReDhgP
6s0IoGt4cJVX2ppm/hw2ckr85C/da35TacmvOAIMjg==
-----END CERTIFICATE-----
