Certificate:
    Data:
        Version: 3 (0x2)
        Serial Number:
            33:30:30:30:30:31:30:39
        Signature Algorithm: sha256WithRSAEncryption
        Issuer: C=JP, O=Japanese Government, OU=National Police Agency, OU=NPA ICDL Root CA
        Validity
            Not Before: Sep 17 07:29:12 2024 GMT
            Not After : Sep 16 14:59:59 2029 GMT
        Subject: C=JP, O=Japanese Government, OU=National Police Agency, OU=Prefectural Public Safety Commissions for ICDL, CN=Shiga PPSC
        Subject Public Key Info:
            Public Key Algorithm: rsaEncryption
                Public-Key: (2048 bit)
                Modulus:
                    00:d4:98:cd:88:16:57:10:fc:dc:ce:1a:98:f2:7b:
                    b8:a4:6c:07:11:fd:6a:9c:38:25:ee:06:fb:75:ac:
                    f9:5d:fd:28:05:85:a8:29:7b:ec:55:93:ab:eb:ca:
                    8c:64:e8:78:b9:73:2d:f0:d7:c7:e1:92:80:14:41:
                    28:cc:44:e0:51:41:73:c5:32:d2:ad:a9:b0:3c:88:
                    6d:11:68:f1:59:86:74:b2:c3:d6:a1:a6:37:c0:d7:
                    25:15:a3:35:a5:98:6a:d7:e7:70:c9:c6:8a:87:65:
                    fc:62:4a:67:03:c6:42:39:e3:17:1f:a4:98:a1:df:
                    bb:1e:f9:68:53:74:7e:47:f8:ec:40:93:02:0c:87:
                    00:eb:85:55:63:ee:62:2d:c1:1f:d8:40:8c:dd:92:
                    70:30:32:3d:8a:e9:b6:06:11:f5:5b:29:d7:75:2c:
                    b0:24:b5:b0:b5:f7:96:52:71:c5:6d:26:0b:ea:c3:
                    cc:db:17:17:80:ea:50:03:63:47:02:56:ff:2c:05:
                    fd:11:9d:36:04:0b:6e:ba:e9:a9:08:bb:7d:a2:16:
                    e1:92:d1:c8:46:5d:70:3e:70:84:12:7f:56:a0:ad:
                    66:61:28:c9:ed:71:30:9b:b3:bf:79:1e:3d:76:34:
                    a0:98:65:21:61:c9:7e:87:16:06:99:24:e6:84:ed:
                    0d:7f
                Exponent: 65537 (0x10001)
        X509v3 extensions:
            X509v3 Authority Key Identifier: 
                keyid:11:CD:8E:60:44:47:57:4F:4F:CB:E9:E7:CB:A1:46:DF:BA:0E:50:8B
                DirName:/C=JP/O=Japanese Government/OU=National Police Agency/OU=NPA ICDL Root CA
                serial:32:30:30:30:30:30:31:36
            X509v3 Subject Key Identifier: 
                6A:FB:66:28:4D:B4:27:45:4A:6A:E8:90:A5:90:06:81:34:05:29:F8
            X509v3 Key Usage: critical
                Digital Signature, Non Repudiation
            X509v3 Certificate Policies: critical
                Policy: 1.2.392.100120.7.5.1.1.10
                  CPS: http://www.npa.go.jp/
            X509v3 Subject Alternative Name: 
                DirName:/C=JP/O=\xE6\x97\xA5\xE6\x9C\xAC\xE5\x9B\xBD\xE6\x94\xBF\xE5\xBA\x9C/OU=\xE8\xAD\xA6\xE5\xAF\x9F\xE5\xBA\x81/OU=\xE9\x83\xBD\xE9\x81\x93\xE5\xBA\x9C\xE7\x9C\x8C\xE5\x85\xAC\xE5\xAE\x89\xE5\xA7\x94\xE5\x93\xA1\xE4\xBC\x9A
            X509v3 Issuer Alternative Name: 
                DirName:/C=JP/O=\xE6\x97\xA5\xE6\x9C\xAC\xE5\x9B\xBD\xE6\x94\xBF\xE5\xBA\x9C/OU=\xE8\xAD\xA6\xE5\xAF\x9F\xE5\xBA\x81/OU=\xE8\xAD\xA6\xE5\xAF\x9F\xE5\xBA\x81\xE9\x81\x8B\xE8\xBB\xA2\xE5\x85\x8D\xE8\xA8\xB1\xE8\xA8\xBC\xE8\xAA\x8D\xE8\xA8\xBC\xE5\xB1\x80
            X509v3 CRL Distribution Points: 
                Full Name:
                  DirName:C = JP, O = Japanese Government, OU = National Police Agency, OU = Prefectural Public Safety Commissions for ICDL
    Signature Algorithm: sha256WithRSAEncryption
    Signature Value:
        72:b0:29:44:a2:ed:f1:08:bd:15:d3:68:88:fc:7a:49:8a:b3:
        0e:9b:3d:aa:bf:26:c8:30:75:0d:ec:22:c8:5b:5e:76:42:29:
        40:25:31:10:ed:ca:9a:05:49:46:3a:2e:bc:da:95:b4:2e:93:
        b5:ba:0b:74:61:73:3e:0c:02:03:f0:e1:fc:d5:a9:aa:48:3a:
        98:39:e3:27:b4:f9:87:8c:3e:da:8e:da:da:5d:32:7b:82:2b:
        3d:12:8a:9e:3f:bb:4f:6d:07:78:e2:55:94:97:67:57:14:a5:
        b3:10:91:97:af:fd:94:90:41:c7:8f:04:e4:c7:c4:0d:7c:c8:
        e5:a9:70:cf:49:67:b0:04:4c:cb:e7:62:53:c8:17:e9:bc:07:
        1a:e6:50:36:d8:22:e5:d1:34:7a:3e:6c:17:de:24:38:fa:3f:
        16:38:98:2f:36:32:bd:d5:06:c5:4c:87:f9:57:db:f9:69:c8:
        8c:f2:25:7a:93:c6:92:13:03:51:f2:63:f5:ce:80:4b:02:c0:
        c1:e1:28:80:59:10:d7:e1:7a:ff:20:9f:f6:8d:24:89:86:7a:
        f8:20:c5:d3:78:01:d7:8a:24:69:9a:33:62:38:4f:d0:db:9a:
        ed:5f:ca:7e:27:c4:b1:67:9d:22:3d:29:a4:6b:86:51:92:ec:
        54:ad:47:1b
-----BEGIN CERTIFICATE-----
MIIGRjCCBS6gAwIBAgIIMzAwMDAxMDkwDQYJKoZIhvcNAQELBQAwZzELMAkGA1UE
BhMCSlAxHDAaBgNVBAoME0phcGFuZXNlIEdvdmVybm1lbnQxHzAdBgNVBAsMFk5h
dGlvbmFsIFBvbGljZSBBZ2VuY3kxGTAXBgNVBAsMEE5QQSBJQ0RMIFJvb3QgQ0Ew
HhcNMjQwOTE3MDcyOTEyWhcNMjkwOTE2MTQ1OTU5WjCBmjELMAkGA1UEBhMCSlAx
HDAaBgNVBAoME0phcGFuZXNlIEdvdmVybm1lbnQxHzAdBgNVBAsMFk5hdGlvbmFs
IFBvbGljZSBBZ2VuY3kxNzA1BgNVBAsMLlByZWZlY3R1cmFsIFB1YmxpYyBTYWZl
dHkgQ29tbWlzc2lvbnMgZm9yIElDREwxEzARBgNVBAMMClNoaWdhIFBQU0MwggEi
MA0GCSqGSIb3DQEBAQUAA4IBDwAwggEKAoIBAQDUmM2IFlcQ/NzOGpjye7ikbAcR
/WqcOCXuBvt1rPld/SgFhagpe+xVk6vryoxk6Hi5cy3w18fhkoAUQSjMROBRQXPF
MtKtqbA8iG0RaPFZhnSyw9ahpjfA1yUVozWlmGrX53DJxoqHZfxiSmcDxkI54xcf
pJih37se+WhTdH5H+OxAkwIMhwDrhVVj7mItwR/YQIzdknAwMj2K6bYGEfVbKdd1
LLAktbC195ZSccVtJgvqw8zbFxeA6lADY0cCVv8sBf0RnTYEC2666akIu32iFuGS
0chGXXA+cIQSf1agrWZhKMntcTCbs795Hj12NKCYZSFhyX6HFgaZJOaE7Q1/AgMB
AAGjggLAMIICvDCBmAYDVR0jBIGQMIGNgBQRzY5gREdXT0/L6efLoUbfug5Qi6Fr
pGkwZzELMAkGA1UEBhMCSlAxHDAaBgNVBAoME0phcGFuZXNlIEdvdmVybm1lbnQx
HzAdBgNVBAsMFk5hdGlvbmFsIFBvbGljZSBBZ2VuY3kxGTAXBgNVBAsMEE5QQSBJ
Q0RMIFJvb3QgQ0GCCDIwMDAwMDE2MB0GA1UdDgQWBBRq+2YoTbQnRUpq6JClkAaB
NAUp+DAOBgNVHQ8BAf8EBAMCBsAwQAYDVR0gAQH/BDYwNDAyBgsqgwiGjhgHBQEB
CjAjMCEGCCsGAQUFBwIBFhVodHRwOi8vd3d3Lm5wYS5nby5qcC8wgZUGA1UdEQSB
jTCBiqSBhzCBhDELMAkGA1UEBhMCSlAxGDAWBgNVBAoMD+aXpeacrOWbveaUv+W6
nDESMBAGA1UECwwJ6K2m5a+f5bqBMSQwIgYDVQQLDBvpg73pgZPlupznnIzlhazl
ronlp5Tlk6HkvJoxITAfBgNVBAMMGOa7i+izgOecjOWFrOWuieWnlOWToeS8mjB0
BgNVHRIEbTBrpGkwZzELMAkGA1UEBhMCSlAxGDAWBgNVBAoMD+aXpeacrOWbveaU
v+W6nDESMBAGA1UECwwJ6K2m5a+f5bqBMSowKAYDVQQLDCHorablr5/luoHpgYvo
u6LlhY3oqLHoqLzoqo3oqLzlsYAwgZ8GA1UdHwSBlzCBlDCBkaCBjqCBi6SBiDCB
hTELMAkGA1UEBhMCSlAxHDAaBgNVBAoME0phcGFuZXNlIEdvdmVybm1lbnQxHzAd
BgNVBAsMFk5hdGlvbmFsIFBvbGljZSBBZ2VuY3kxNzA1BgNVBAsMLlByZWZlY3R1
cmFsIFB1YmxpYyBTYWZldHkgQ29tbWlzc2lvbnMgZm9yIElDREwwDQYJKoZIhvcN
AQELBQADggEBAHKwKUSi7fEIvRXTaIj8ekmKsw6bPaq/JsgwdQ3sIshbXnZCKUAl
MRDtypoFSUY6LrzalbQuk7W6C3Rhcz4MAgPw4fzVqapIOpg54ye0+YeMPtqO2tpd
MnuCKz0Sip4/u09tB3jiVZSXZ1cUpbMQkZev/ZSQQcePBOTHxA18yOWpcM9JZ7AE
TMvnYlPIF+m8BxrmUDbYIuXRNHo+bBfeJDj6PxY4mC82Mr3VBsVMh/lX2/lpyIzy
JXqTxpITA1HyY/XOgEsCwMHhKIBZENfhev8gn/aNJImGevggxdN4AdeKJGmaM2I4
T9Dbmu1fyn4nxLFnnSI9KaRrhlGS7FStRxs=
-----END CERTIFICATE-----
