Certificate:
    Data:
        Version: 3 (0x2)
        Serial Number:
            32:30:30:30:30:30:36:31
        Signature Algorithm: sha256WithRSAEncryption
        Issuer: C=JP, O=Japanese Government, OU=National Police Agency, OU=NPA ICDL Root CA
        Validity
            Not Before: Feb  6 02:31:46 2023 GMT
            Not After : Feb  5 14:59:59 2028 GMT
        Subject: C=JP, O=Japanese Government, OU=National Police Agency, OU=Prefectural Public Safety Commissions for ICDL, CN=Shiga PPSC
        Subject Public Key Info:
            Public Key Algorithm: rsaEncryption
                Public-Key: (2048 bit)
                Modulus:
                    00:a0:9c:9a:6d:b6:d9:53:4d:01:f2:7a:64:1e:7a:
                    cf:a1:29:e2:de:4b:90:81:bd:c4:f5:75:94:76:3a:
                    84:50:5a:a6:08:7f:3a:6a:e2:ac:3a:67:d9:c7:0e:
                    4c:58:21:9e:23:b6:94:5d:0e:a3:d6:01:65:90:3a:
                    ff:e0:a2:d5:57:29:47:e5:ea:cc:1c:8c:e3:b3:f5:
                    49:87:d6:c1:c9:63:a0:6b:b7:40:a3:a9:72:8f:45:
                    30:4e:25:ae:99:09:2d:f8:24:94:9e:bd:76:71:cd:
                    cb:ae:79:a6:d0:26:e5:df:8c:df:48:24:0e:60:19:
                    4f:fc:47:83:d5:6e:73:48:51:65:89:04:f4:0e:61:
                    ca:2a:b8:a8:91:c9:a6:a4:f8:01:e9:99:b6:e5:1b:
                    31:5f:6a:51:61:fb:eb:48:72:c3:06:1b:25:ad:e1:
                    82:22:00:23:15:79:93:f9:ad:7d:25:79:99:cf:37:
                    3e:93:bf:1f:d4:dd:a9:f2:10:01:57:ef:2b:2a:54:
                    f3:b4:08:05:07:ef:b1:9b:69:07:78:c5:7b:c3:84:
                    f8:2d:e4:fb:13:09:7a:ee:a1:c3:7d:9e:2a:0e:9b:
                    2d:1c:89:c1:cb:28:57:df:a1:d7:91:f6:6a:ae:20:
                    cb:e8:01:e7:08:59:0d:37:93:14:78:95:9a:0f:2b:
                    a7:83
                Exponent: 65537 (0x10001)
        X509v3 extensions:
            X509v3 Authority Key Identifier: 
                keyid:11:CD:8E:60:44:47:57:4F:4F:CB:E9:E7:CB:A1:46:DF:BA:0E:50:8B
                DirName:/C=JP/O=Japanese Government/OU=National Police Agency/OU=NPA ICDL Root CA
                serial:32:30:30:30:30:30:31:36
            X509v3 Subject Key Identifier: 
                84:6B:F6:A0:A8:BC:6E:E8:E4:28:35:42:D6:44:4F:EF:17:6B:ED:20
            X509v3 Key Usage: critical
                Digital Signature, Non Repudiation
            X509v3 Certificate Policies: critical
                Policy: 1.2.392.100120.7.5.1.1.10
                  CPS: http://www.npa.go.jp/
            X509v3 Subject Alternative Name: 
                DirName:/C=JP/O=\xE6\x97\xA5\xE6\x9C\xAC\xE5\x9B\xBD\xE6\x94\xBF\xE5\xBA\x9C/OU=\xE8\xAD\xA6\xE5\xAF\x9F\xE5\xBA\x81/OU=\xE9\x83\xBD\xE9\x81\x93\xE5\xBA\x9C\xE7\x9C\x8C\xE5\x85\xAC\xE5\xAE\x89\xE5\xA7\x94\xE5\x93\xA1\xE4\xBC\x9A
            X509v3 Issuer Alternative Name: 
                DirName:/C=JP/O=\xE6\x97\xA5\xE6\x9C\xAC\xE5\x9B\xBD\xE6\x94\xBF\xE5\xBA\x9C/OU=\xE8\xAD\xA6\xE5\xAF\x9F\xE5\xBA\x81/OU=\xE8\xAD\xA6\xE5\xAF\x9F\xE5\xBA\x81\xE9\x81\x8B\xE8\xBB\xA2\xE5\x85\x8D\xE8\xA8\xB1\xE8\xA8\xBC\xE8\xAA\x8D\xE8\xA8\xBC\xE5\xB1\x80
            X509v3 CRL Distribution Points: 
                Full Name:
                  DirName:C = JP, O = Japanese Government, OU = National Police Agency, OU = Prefectural Public Safety Commissions for ICDL
    Signature Algorithm: sha256WithRSAEncryption
    Signature Value:
        6f:f2:8e:6d:db:ae:81:3b:fa:d5:37:d7:1d:5d:9e:52:b7:f9:
        f4:0c:50:cd:94:b9:3c:5c:cc:5c:3a:d1:c8:9b:fb:5c:c4:3d:
        ec:84:3b:0e:9b:cf:06:7f:b2:00:dc:15:1a:44:24:9a:d8:04:
        b6:f3:1f:e0:d9:cc:80:fb:b1:8a:0f:ae:51:0e:9c:5d:34:d1:
        4f:80:d7:81:f5:17:ac:9a:ee:4b:98:f3:f3:a5:77:d2:7d:6f:
        5b:9a:a0:7c:d3:b8:6c:af:fd:14:c3:7e:34:31:d9:d2:45:6d:
        bb:d6:fa:a8:c1:db:d4:0e:50:fb:d8:a6:8a:f3:96:ea:54:df:
        23:58:4c:96:01:b9:28:a5:d5:24:5d:78:4f:ab:d2:18:71:44:
        29:0f:e3:8e:ab:5a:82:20:82:78:aa:7f:71:68:4e:36:1c:2b:
        ec:ec:a2:4a:d0:59:c3:1a:9d:e7:29:92:b9:3a:1c:06:68:8a:
        75:06:7b:c6:cd:2d:60:7e:86:44:ea:54:c0:03:71:c2:bf:fa:
        53:fc:2e:29:e7:5c:de:14:24:26:78:7a:9b:f4:ef:1a:0d:89:
        ef:ef:37:83:79:13:53:ba:a7:9e:0f:de:6f:01:9e:8f:7f:3f:
        b3:ec:93:4b:7f:2d:27:02:72:bf:3e:61:de:1c:40:96:5e:f5:
        51:7a:bb:ee
-----BEGIN CERTIFICATE-----
MIIGRjCCBS6gAwIBAgIIMjAwMDAwNjEwDQYJKoZIhvcNAQELBQAwZzELMAkGA1UE
BhMCSlAxHDAaBgNVBAoME0phcGFuZXNlIEdvdmVybm1lbnQxHzAdBgNVBAsMFk5h
dGlvbmFsIFBvbGljZSBBZ2VuY3kxGTAXBgNVBAsMEE5QQSBJQ0RMIFJvb3QgQ0Ew
HhcNMjMwMjA2MDIzMTQ2WhcNMjgwMjA1MTQ1OTU5WjCBmjELMAkGA1UEBhMCSlAx
HDAaBgNVBAoME0phcGFuZXNlIEdvdmVybm1lbnQxHzAdBgNVBAsMFk5hdGlvbmFs
IFBvbGljZSBBZ2VuY3kxNzA1BgNVBAsMLlByZWZlY3R1cmFsIFB1YmxpYyBTYWZl
dHkgQ29tbWlzc2lvbnMgZm9yIElDREwxEzARBgNVBAMMClNoaWdhIFBQU0MwggEi
MA0GCSqGSIb3DQEBAQUAA4IBDwAwggEKAoIBAQCgnJptttlTTQHyemQees+hKeLe
S5CBvcT1dZR2OoRQWqYIfzpq4qw6Z9nHDkxYIZ4jtpRdDqPWAWWQOv/gotVXKUfl
6swcjOOz9UmH1sHJY6Brt0CjqXKPRTBOJa6ZCS34JJSevXZxzcuueabQJuXfjN9I
JA5gGU/8R4PVbnNIUWWJBPQOYcoquKiRyaak+AHpmbblGzFfalFh++tIcsMGGyWt
4YIiACMVeZP5rX0leZnPNz6Tvx/U3anyEAFX7ysqVPO0CAUH77GbaQd4xXvDhPgt
5PsTCXruocN9nioOmy0cicHLKFffodeR9mquIMvoAecIWQ03kxR4lZoPK6eDAgMB
AAGjggLAMIICvDCBmAYDVR0jBIGQMIGNgBQRzY5gREdXT0/L6efLoUbfug5Qi6Fr
pGkwZzELMAkGA1UEBhMCSlAxHDAaBgNVBAoME0phcGFuZXNlIEdvdmVybm1lbnQx
HzAdBgNVBAsMFk5hdGlvbmFsIFBvbGljZSBBZ2VuY3kxGTAXBgNVBAsMEE5QQSBJ
Q0RMIFJvb3QgQ0GCCDIwMDAwMDE2MB0GA1UdDgQWBBSEa/agqLxu6OQoNULWRE/v
F2vtIDAOBgNVHQ8BAf8EBAMCBsAwQAYDVR0gAQH/BDYwNDAyBgsqgwiGjhgHBQEB
CjAjMCEGCCsGAQUFBwIBFhVodHRwOi8vd3d3Lm5wYS5nby5qcC8wgZUGA1UdEQSB
jTCBiqSBhzCBhDELMAkGA1UEBhMCSlAxGDAWBgNVBAoMD+aXpeacrOWbveaUv+W6
nDESMBAGA1UECwwJ6K2m5a+f5bqBMSQwIgYDVQQLDBvpg73pgZPlupznnIzlhazl
ronlp5Tlk6HkvJoxITAfBgNVBAMMGOa7i+izgOecjOWFrOWuieWnlOWToeS8mjB0
BgNVHRIEbTBrpGkwZzELMAkGA1UEBhMCSlAxGDAWBgNVBAoMD+aXpeacrOWbveaU
v+W6nDESMBAGA1UECwwJ6K2m5a+f5bqBMSowKAYDVQQLDCHorablr5/luoHpgYvo
u6LlhY3oqLHoqLzoqo3oqLzlsYAwgZ8GA1UdHwSBlzCBlDCBkaCBjqCBi6SBiDCB
hTELMAkGA1UEBhMCSlAxHDAaBgNVBAoME0phcGFuZXNlIEdvdmVybm1lbnQxHzAd
BgNVBAsMFk5hdGlvbmFsIFBvbGljZSBBZ2VuY3kxNzA1BgNVBAsMLlByZWZlY3R1
cmFsIFB1YmxpYyBTYWZldHkgQ29tbWlzc2lvbnMgZm9yIElDREwwDQYJKoZIhvcN
AQELBQADggEBAG/yjm3broE7+tU31x1dnlK3+fQMUM2UuTxczFw60cib+1zEPeyE
Ow6bzwZ/sgDcFRpEJJrYBLbzH+DZzID7sYoPrlEOnF000U+A14H1F6ya7kuY8/Ol
d9J9b1uaoHzTuGyv/RTDfjQx2dJFbbvW+qjB29QOUPvYporzlupU3yNYTJYBuSil
1SRdeE+r0hhxRCkP446rWoIggniqf3FoTjYcK+zsokrQWcManecpkrk6HAZoinUG
e8bNLWB+hkTqVMADccK/+lP8LinnXN4UJCZ4epv07xoNie/vN4N5E1O6p54P3m8B
no9/P7Psk0t/LScCcr8+Yd4cQJZe9VF6u+4=
-----END CERTIFICATE-----
