Certificate:
    Data:
        Version: 3 (0x2)
        Serial Number:
            33:30:30:30:30:30:38:37
        Signature Algorithm: sha256WithRSAEncryption
        Issuer: C=JP, O=Japanese Government, OU=National Police Agency, OU=NPA ICDL Root CA
        Validity
            Not Before: Mar 18 05:27:01 2024 GMT
            Not After : Mar 17 14:59:59 2029 GMT
        Subject: C=JP, O=Japanese Government, OU=National Police Agency, OU=Prefectural Public Safety Commissions for ICDL, CN=Shimane AltPPSC
        Subject Public Key Info:
            Public Key Algorithm: rsaEncryption
                Public-Key: (2048 bit)
                Modulus:
                    00:9d:dd:ad:d3:89:0e:56:97:7b:f5:0b:b4:37:99:
                    33:1e:3a:ca:01:b0:1a:7c:19:bb:86:73:a4:26:cd:
                    c6:32:c2:a6:f1:4b:cb:f0:fd:f7:fe:cc:90:47:cd:
                    47:bf:24:14:7d:07:6b:63:47:1a:91:c0:f1:a2:f2:
                    b7:2d:cc:99:db:b1:f8:e4:09:1b:c3:f1:21:8b:02:
                    f7:e0:e8:b1:55:48:d1:c0:5a:51:7b:fb:2a:18:6c:
                    55:4f:95:e0:37:06:d6:c7:0e:f0:93:ce:a6:c1:76:
                    df:b9:c0:34:58:10:ea:e6:30:28:7a:53:77:5e:65:
                    16:a1:98:d8:63:e4:09:80:85:ab:bb:0f:69:c7:da:
                    de:5e:6b:6d:e7:99:e4:25:82:06:51:46:7c:5d:30:
                    c4:a4:1a:b0:9d:e6:17:2a:4f:a5:cb:03:34:86:66:
                    84:4b:73:5f:f5:02:06:26:5f:01:77:6a:08:96:e7:
                    cc:0e:a8:86:ce:1e:83:77:4c:5c:4c:d5:4a:ad:24:
                    1f:35:78:35:ad:b5:6d:ff:a5:d9:31:37:fb:b3:cb:
                    d3:10:55:b0:de:06:80:53:06:09:e0:f6:dc:1b:07:
                    be:7c:d7:19:9e:0f:ec:7c:83:fd:cd:0f:7d:4e:7a:
                    b1:33:09:ef:da:21:a3:0e:2c:06:08:01:b9:4b:9a:
                    46:c5
                Exponent: 65537 (0x10001)
        X509v3 extensions:
            X509v3 Authority Key Identifier: 
                keyid:11:CD:8E:60:44:47:57:4F:4F:CB:E9:E7:CB:A1:46:DF:BA:0E:50:8B
                DirName:/C=JP/O=Japanese Government/OU=National Police Agency/OU=NPA ICDL Root CA
                serial:32:30:30:30:30:30:31:36
            X509v3 Subject Key Identifier: 
                98:30:F3:C2:6B:C1:65:38:4D:74:7C:6D:74:70:22:FD:91:8F:57:6F
            X509v3 Key Usage: critical
                Digital Signature, Non Repudiation
            X509v3 Certificate Policies: critical
                Policy: 1.2.392.100120.7.5.1.1.10
                  CPS: http://www.npa.go.jp/
            X509v3 Issuer Alternative Name: 
                DirName:/C=JP/O=\xE6\x97\xA5\xE6\x9C\xAC\xE5\x9B\xBD\xE6\x94\xBF\xE5\xBA\x9C/OU=\xE8\xAD\xA6\xE5\xAF\x9F\xE5\xBA\x81/OU=\xE8\xAD\xA6\xE5\xAF\x9F\xE5\xBA\x81\xE9\x81\x8B\xE8\xBB\xA2\xE5\x85\x8D\xE8\xA8\xB1\xE8\xA8\xBC\xE8\xAA\x8D\xE8\xA8\xBC\xE5\xB1\x80
            X509v3 CRL Distribution Points: 
                Full Name:
                  DirName:C = JP, O = Japanese Government, OU = National Police Agency, OU = Prefectural Public Safety Commissions for ICDL
    Signature Algorithm: sha256WithRSAEncryption
    Signature Value:
        9e:8d:07:10:6b:54:d5:8c:58:fb:2c:dd:07:0e:b6:15:99:91:
        18:62:a3:2e:ff:67:14:14:4d:a8:9d:fc:64:44:03:fc:12:2c:
        56:69:9a:10:b6:c8:12:1c:61:ab:23:bf:86:d2:33:ed:bc:f7:
        0f:68:06:f7:58:09:35:dc:12:dd:3f:82:0b:de:56:db:85:53:
        c0:0b:34:73:49:98:f6:7f:e6:c9:49:5c:cc:86:47:dd:80:50:
        2f:d5:c0:f5:0f:1c:51:55:8f:ba:c0:9d:31:a9:47:cd:7c:97:
        77:08:34:5d:e4:90:d5:67:a3:9e:99:5e:d9:37:b1:9d:aa:ed:
        a5:e2:03:ab:9e:1a:72:00:f1:e1:ff:2f:83:85:ee:dd:58:1e:
        9a:42:bb:3e:10:b7:ea:91:05:5d:2f:ba:fe:9e:a3:10:d4:f7:
        55:b5:80:c2:95:f2:4a:c0:01:32:e3:3c:26:b6:10:c6:0e:0e:
        29:aa:d8:e3:9b:bc:07:cc:f0:89:88:1f:0c:44:34:58:da:06:
        56:56:c5:3e:17:1b:0e:42:c1:4b:40:30:f3:61:71:3c:5d:ce:
        c2:ea:cf:c9:86:9b:0b:a5:97:b8:36:8e:ca:c1:db:41:b3:74:
        64:fc:63:cb:92:a5:f0:d0:26:dd:44:4a:5f:c8:ec:d2:dc:c2:
        05:00:76:a1
-----BEGIN CERTIFICATE-----
MIIFszCCBJugAwIBAgIIMzAwMDAwODcwDQYJKoZIhvcNAQELBQAwZzELMAkGA1UE
BhMCSlAxHDAaBgNVBAoME0phcGFuZXNlIEdvdmVybm1lbnQxHzAdBgNVBAsMFk5h
dGlvbmFsIFBvbGljZSBBZ2VuY3kxGTAXBgNVBAsMEE5QQSBJQ0RMIFJvb3QgQ0Ew
HhcNMjQwMzE4MDUyNzAxWhcNMjkwMzE3MTQ1OTU5WjCBnzELMAkGA1UEBhMCSlAx
HDAaBgNVBAoME0phcGFuZXNlIEdvdmVybm1lbnQxHzAdBgNVBAsMFk5hdGlvbmFs
IFBvbGljZSBBZ2VuY3kxNzA1BgNVBAsMLlByZWZlY3R1cmFsIFB1YmxpYyBTYWZl
dHkgQ29tbWlzc2lvbnMgZm9yIElDREwxGDAWBgNVBAMMD1NoaW1hbmUgQWx0UFBT
QzCCASIwDQYJKoZIhvcNAQEBBQADggEPADCCAQoCggEBAJ3drdOJDlaXe/ULtDeZ
Mx46ygGwGnwZu4ZzpCbNxjLCpvFLy/D99/7MkEfNR78kFH0Ha2NHGpHA8aLyty3M
mdux+OQJG8PxIYsC9+DosVVI0cBaUXv7KhhsVU+V4DcG1scO8JPOpsF237nANFgQ
6uYwKHpTd15lFqGY2GPkCYCFq7sPacfa3l5rbeeZ5CWCBlFGfF0wxKQasJ3mFypP
pcsDNIZmhEtzX/UCBiZfAXdqCJbnzA6ohs4eg3dMXEzVSq0kHzV4Na21bf+l2TE3
+7PL0xBVsN4GgFMGCeD23BsHvnzXGZ4P7HyD/c0PfU56sTMJ79ohow4sBggBuUua
RsUCAwEAAaOCAigwggIkMIGYBgNVHSMEgZAwgY2AFBHNjmBER1dPT8vp58uhRt+6
DlCLoWukaTBnMQswCQYDVQQGEwJKUDEcMBoGA1UECgwTSmFwYW5lc2UgR292ZXJu
bWVudDEfMB0GA1UECwwWTmF0aW9uYWwgUG9saWNlIEFnZW5jeTEZMBcGA1UECwwQ
TlBBIElDREwgUm9vdCBDQYIIMjAwMDAwMTYwHQYDVR0OBBYEFJgw88JrwWU4TXR8
bXRwIv2Rj1dvMA4GA1UdDwEB/wQEAwIGwDBABgNVHSABAf8ENjA0MDIGCyqDCIaO
GAcFAQEKMCMwIQYIKwYBBQUHAgEWFWh0dHA6Ly93d3cubnBhLmdvLmpwLzB0BgNV
HRIEbTBrpGkwZzELMAkGA1UEBhMCSlAxGDAWBgNVBAoMD+aXpeacrOWbveaUv+W6
nDESMBAGA1UECwwJ6K2m5a+f5bqBMSowKAYDVQQLDCHorablr5/luoHpgYvou6Ll
hY3oqLHoqLzoqo3oqLzlsYAwgZ8GA1UdHwSBlzCBlDCBkaCBjqCBi6SBiDCBhTEL
MAkGA1UEBhMCSlAxHDAaBgNVBAoME0phcGFuZXNlIEdvdmVybm1lbnQxHzAdBgNV
BAsMFk5hdGlvbmFsIFBvbGljZSBBZ2VuY3kxNzA1BgNVBAsMLlByZWZlY3R1cmFs
IFB1YmxpYyBTYWZldHkgQ29tbWlzc2lvbnMgZm9yIElDREwwDQYJKoZIhvcNAQEL
BQADggEBAJ6NBxBrVNWMWPss3QcOthWZkRhioy7/ZxQUTaid/GREA/wSLFZpmhC2
yBIcYasjv4bSM+289w9oBvdYCTXcEt0/ggveVtuFU8ALNHNJmPZ/5slJXMyGR92A
UC/VwPUPHFFVj7rAnTGpR818l3cINF3kkNVno56ZXtk3sZ2q7aXiA6ueGnIA8eH/
L4OF7t1YHppCuz4Qt+qRBV0vuv6eoxDU91W1gMKV8krAATLjPCa2EMYODimq2OOb
vAfM8ImIHwxENFjaBlZWxT4XGw5CwUtAMPNhcTxdzsLqz8mGmwull7g2jsrB20Gz
dGT8Y8uSpfDQJt1ESl/I7NLcwgUAdqE=
-----END CERTIFICATE-----
