Certificate:
    Data:
        Version: 3 (0x2)
        Serial Number:
            33:30:30:30:30:30:34:31:41:1e:52:e0:c6:7a:f2:d6:b0:86
        Signature Algorithm: sha256WithRSAEncryption
        Issuer: C=JP, O=Japanese Government, OU=National Police Agency, OU=NPA ICDL Root CA
        Validity
            Not Before: Jun 19 06:06:11 2023 GMT
            Not After : Jun 18 14:59:59 2028 GMT
        Subject: C=JP, O=Japanese Government, OU=National Police Agency, OU=Prefectural Public Safety Commissions for ICDL, CN=Shimane AltPPSC
        Subject Public Key Info:
            Public Key Algorithm: rsaEncryption
                Public-Key: (2048 bit)
                Modulus:
                    00:a3:25:a5:68:72:4b:1d:c8:7e:a7:50:e6:3e:05:
                    c0:de:1e:5f:ae:76:5f:bc:97:ce:35:28:10:4a:24:
                    5d:6c:d4:7d:92:19:00:ca:c1:2b:92:98:b2:23:3b:
                    f0:39:00:d7:50:5c:b6:ab:89:32:f5:77:ee:8b:52:
                    62:f3:86:5b:d8:5e:18:e8:23:ec:12:66:aa:42:db:
                    cc:30:99:d4:2d:26:75:0c:49:a7:d9:86:e4:45:ee:
                    b1:f2:90:88:12:c6:a8:62:d3:9b:e8:b6:5f:93:d0:
                    24:10:5b:65:e4:45:e4:ea:01:8c:b9:33:f8:0e:87:
                    78:fa:88:aa:d7:24:9f:07:0e:72:ac:63:17:d5:91:
                    bd:cf:ea:b6:06:7b:a1:c4:a4:9a:1b:87:31:6f:84:
                    55:77:52:2f:44:c3:97:a5:b6:84:1b:5e:34:d6:fc:
                    47:5a:a8:98:8e:55:92:e3:42:db:61:ba:56:15:d8:
                    fd:87:2c:5f:ef:07:85:70:3e:74:3a:6d:e0:ea:f3:
                    20:96:6e:55:80:95:7e:f4:c1:5c:01:49:09:c3:b8:
                    57:4d:2e:0f:13:2c:1b:78:5c:30:2f:d7:de:b8:6c:
                    18:1e:f7:f2:c9:61:be:15:52:82:52:6b:c6:e5:c8:
                    74:80:ad:b5:e0:4a:b1:d1:c0:31:c4:0c:f6:6e:fe:
                    8f:cf
                Exponent: 65537 (0x10001)
        X509v3 extensions:
            X509v3 Authority Key Identifier: 
                keyid:11:CD:8E:60:44:47:57:4F:4F:CB:E9:E7:CB:A1:46:DF:BA:0E:50:8B
                DirName:/C=JP/O=Japanese Government/OU=National Police Agency/OU=NPA ICDL Root CA
                serial:32:30:30:30:30:30:31:36
            X509v3 Subject Key Identifier: 
                67:1A:7E:03:20:05:E5:F5:AE:FE:E8:B9:C8:3F:F2:F8:CA:9F:BC:95
            X509v3 Key Usage: critical
                Digital Signature, Non Repudiation
            X509v3 Certificate Policies: critical
                Policy: 1.2.392.100120.7.5.1.1.10
                  CPS: http://www.npa.go.jp/
            X509v3 Issuer Alternative Name: 
                DirName:/C=JP/O=\xE6\x97\xA5\xE6\x9C\xAC\xE5\x9B\xBD\xE6\x94\xBF\xE5\xBA\x9C/OU=\xE8\xAD\xA6\xE5\xAF\x9F\xE5\xBA\x81/OU=\xE8\xAD\xA6\xE5\xAF\x9F\xE5\xBA\x81\xE9\x81\x8B\xE8\xBB\xA2\xE5\x85\x8D\xE8\xA8\xB1\xE8\xA8\xBC\xE8\xAA\x8D\xE8\xA8\xBC\xE5\xB1\x80
            X509v3 CRL Distribution Points: 
                Full Name:
                  DirName:C = JP, O = Japanese Government, OU = National Police Agency, OU = Prefectural Public Safety Commissions for ICDL
    Signature Algorithm: sha256WithRSAEncryption
    Signature Value:
        37:8f:bd:3b:80:b8:d0:07:74:78:eb:e4:2a:53:df:1b:20:5f:
        55:d4:74:0f:a1:15:0c:18:7c:4d:66:ec:57:bd:ec:0c:95:9f:
        05:63:2d:36:5a:dc:60:0f:ff:f7:32:d2:6f:2a:1b:82:24:ea:
        0e:f5:a7:d6:f8:f9:04:ad:c9:c5:92:1e:b5:c0:ff:57:8c:e4:
        fa:6c:b4:5d:f3:c8:4a:a3:76:c2:7b:7e:7b:12:6b:3d:3e:52:
        5b:12:d0:9c:cd:7e:c7:08:24:e4:ae:d7:0f:4b:0c:21:31:2a:
        c0:92:4d:2c:68:51:a7:ce:d5:90:69:6a:05:2b:4e:9e:dc:4c:
        0c:cc:a0:0d:3a:73:3b:37:81:86:5e:56:07:0a:81:95:e3:6b:
        49:2c:25:e8:82:b1:66:53:1a:7a:ac:55:19:68:9f:a5:5f:b6:
        18:f1:cd:57:06:d2:85:c5:9a:45:8f:6a:97:63:42:f2:00:a3:
        48:53:78:7b:9b:08:3d:ba:57:53:c7:7f:73:52:a2:1e:34:94:
        7a:39:d0:48:3b:88:e8:e0:f7:ea:f3:68:2b:18:9f:fe:ab:a6:
        af:9e:f1:c9:49:28:32:0f:d7:8b:98:41:01:f5:7e:5c:71:88:
        d3:6b:36:d9:2e:b5:bb:a2:e5:b7:77:c0:1e:78:b6:e2:a9:2b:
        c9:01:99:0b
-----BEGIN CERTIFICATE-----
MIIFvTCCBKWgAwIBAgISMzAwMDAwNDFBHlLgxnry1rCGMA0GCSqGSIb3DQEBCwUA
MGcxCzAJBgNVBAYTAkpQMRwwGgYDVQQKDBNKYXBhbmVzZSBHb3Zlcm5tZW50MR8w
HQYDVQQLDBZOYXRpb25hbCBQb2xpY2UgQWdlbmN5MRkwFwYDVQQLDBBOUEEgSUNE
TCBSb290IENBMB4XDTIzMDYxOTA2MDYxMVoXDTI4MDYxODE0NTk1OVowgZ8xCzAJ
BgNVBAYTAkpQMRwwGgYDVQQKDBNKYXBhbmVzZSBHb3Zlcm5tZW50MR8wHQYDVQQL
DBZOYXRpb25hbCBQb2xpY2UgQWdlbmN5MTcwNQYDVQQLDC5QcmVmZWN0dXJhbCBQ
dWJsaWMgU2FmZXR5IENvbW1pc3Npb25zIGZvciBJQ0RMMRgwFgYDVQQDDA9TaGlt
YW5lIEFsdFBQU0MwggEiMA0GCSqGSIb3DQEBAQUAA4IBDwAwggEKAoIBAQCjJaVo
cksdyH6nUOY+BcDeHl+udl+8l841KBBKJF1s1H2SGQDKwSuSmLIjO/A5ANdQXLar
iTL1d+6LUmLzhlvYXhjoI+wSZqpC28wwmdQtJnUMSafZhuRF7rHykIgSxqhi05vo
tl+T0CQQW2XkReTqAYy5M/gOh3j6iKrXJJ8HDnKsYxfVkb3P6rYGe6HEpJobhzFv
hFV3Ui9Ew5eltoQbXjTW/EdaqJiOVZLjQtthulYV2P2HLF/vB4VwPnQ6beDq8yCW
blWAlX70wVwBSQnDuFdNLg8TLBt4XDAv1964bBge9/LJYb4VUoJSa8blyHSArbXg
SrHRwDHEDPZu/o/PAgMBAAGjggIoMIICJDCBmAYDVR0jBIGQMIGNgBQRzY5gREdX
T0/L6efLoUbfug5Qi6FrpGkwZzELMAkGA1UEBhMCSlAxHDAaBgNVBAoME0phcGFu
ZXNlIEdvdmVybm1lbnQxHzAdBgNVBAsMFk5hdGlvbmFsIFBvbGljZSBBZ2VuY3kx
GTAXBgNVBAsMEE5QQSBJQ0RMIFJvb3QgQ0GCCDIwMDAwMDE2MB0GA1UdDgQWBBRn
Gn4DIAXl9a7+6LnIP/L4yp+8lTAOBgNVHQ8BAf8EBAMCBsAwQAYDVR0gAQH/BDYw
NDAyBgsqgwiGjhgHBQEBCjAjMCEGCCsGAQUFBwIBFhVodHRwOi8vd3d3Lm5wYS5n
by5qcC8wdAYDVR0SBG0wa6RpMGcxCzAJBgNVBAYTAkpQMRgwFgYDVQQKDA/ml6Xm
nKzlm73mlL/lupwxEjAQBgNVBAsMCeitpuWvn+W6gTEqMCgGA1UECwwh6K2m5a+f
5bqB6YGL6Lui5YWN6Kix6Ki86KqN6Ki85bGAMIGfBgNVHR8EgZcwgZQwgZGggY6g
gYukgYgwgYUxCzAJBgNVBAYTAkpQMRwwGgYDVQQKDBNKYXBhbmVzZSBHb3Zlcm5t
ZW50MR8wHQYDVQQLDBZOYXRpb25hbCBQb2xpY2UgQWdlbmN5MTcwNQYDVQQLDC5Q
cmVmZWN0dXJhbCBQdWJsaWMgU2FmZXR5IENvbW1pc3Npb25zIGZvciBJQ0RMMA0G
CSqGSIb3DQEBCwUAA4IBAQA3j707gLjQB3R46+QqU98bIF9V1HQPoRUMGHxNZuxX
vewMlZ8FYy02WtxgD//3MtJvKhuCJOoO9afW+PkErcnFkh61wP9XjOT6bLRd88hK
o3bCe357Ems9PlJbEtCczX7HCCTkrtcPSwwhMSrAkk0saFGnztWQaWoFK06e3EwM
zKANOnM7N4GGXlYHCoGV42tJLCXogrFmUxp6rFUZaJ+lX7YY8c1XBtKFxZpFj2qX
Y0LyAKNIU3h7mwg9uldTx39zUqIeNJR6OdBIO4jo4Pfq82grGJ/+q6avnvHJSSgy
D9eLmEEB9X5ccYjTazbZLrW7ouW3d8AeeLbiqSvJAZkL
-----END CERTIFICATE-----
