Certificate:
    Data:
        Version: 3 (0x2)
        Serial Number:
            32:30:30:30:30:30:36:37
        Signature Algorithm: sha256WithRSAEncryption
        Issuer: C=JP, O=Japanese Government, OU=National Police Agency, OU=NPA ICDL Root CA
        Validity
            Not Before: Feb  6 02:45:23 2023 GMT
            Not After : Feb  5 14:59:59 2028 GMT
        Subject: C=JP, O=Japanese Government, OU=National Police Agency, OU=Prefectural Public Safety Commissions for ICDL, CN=Shimane PPSC
        Subject Public Key Info:
            Public Key Algorithm: rsaEncryption
                Public-Key: (2048 bit)
                Modulus:
                    00:9d:dd:ad:d3:89:0e:56:97:7b:f5:0b:b4:37:99:
                    33:1e:3a:ca:01:b0:1a:7c:19:bb:86:73:a4:26:cd:
                    c6:32:c2:a6:f1:4b:cb:f0:fd:f7:fe:cc:90:47:cd:
                    47:bf:24:14:7d:07:6b:63:47:1a:91:c0:f1:a2:f2:
                    b7:2d:cc:99:db:b1:f8:e4:09:1b:c3:f1:21:8b:02:
                    f7:e0:e8:b1:55:48:d1:c0:5a:51:7b:fb:2a:18:6c:
                    55:4f:95:e0:37:06:d6:c7:0e:f0:93:ce:a6:c1:76:
                    df:b9:c0:34:58:10:ea:e6:30:28:7a:53:77:5e:65:
                    16:a1:98:d8:63:e4:09:80:85:ab:bb:0f:69:c7:da:
                    de:5e:6b:6d:e7:99:e4:25:82:06:51:46:7c:5d:30:
                    c4:a4:1a:b0:9d:e6:17:2a:4f:a5:cb:03:34:86:66:
                    84:4b:73:5f:f5:02:06:26:5f:01:77:6a:08:96:e7:
                    cc:0e:a8:86:ce:1e:83:77:4c:5c:4c:d5:4a:ad:24:
                    1f:35:78:35:ad:b5:6d:ff:a5:d9:31:37:fb:b3:cb:
                    d3:10:55:b0:de:06:80:53:06:09:e0:f6:dc:1b:07:
                    be:7c:d7:19:9e:0f:ec:7c:83:fd:cd:0f:7d:4e:7a:
                    b1:33:09:ef:da:21:a3:0e:2c:06:08:01:b9:4b:9a:
                    46:c5
                Exponent: 65537 (0x10001)
        X509v3 extensions:
            X509v3 Authority Key Identifier: 
                keyid:11:CD:8E:60:44:47:57:4F:4F:CB:E9:E7:CB:A1:46:DF:BA:0E:50:8B
                DirName:/C=JP/O=Japanese Government/OU=National Police Agency/OU=NPA ICDL Root CA
                serial:32:30:30:30:30:30:31:36
            X509v3 Subject Key Identifier: 
                98:30:F3:C2:6B:C1:65:38:4D:74:7C:6D:74:70:22:FD:91:8F:57:6F
            X509v3 Key Usage: critical
                Digital Signature, Non Repudiation
            X509v3 Certificate Policies: critical
                Policy: 1.2.392.100120.7.5.1.1.10
                  CPS: http://www.npa.go.jp/
            X509v3 Subject Alternative Name: 
                DirName:/C=JP/O=\xE6\x97\xA5\xE6\x9C\xAC\xE5\x9B\xBD\xE6\x94\xBF\xE5\xBA\x9C/OU=\xE8\xAD\xA6\xE5\xAF\x9F\xE5\xBA\x81/OU=\xE9\x83\xBD\xE9\x81\x93\xE5\xBA\x9C\xE7\x9C\x8C\xE5\x85\xAC\xE5\xAE\x89\xE5\xA7\x94\xE5\x93\xA1\xE4\xBC\x9A
            X509v3 Issuer Alternative Name: 
                DirName:/C=JP/O=\xE6\x97\xA5\xE6\x9C\xAC\xE5\x9B\xBD\xE6\x94\xBF\xE5\xBA\x9C/OU=\xE8\xAD\xA6\xE5\xAF\x9F\xE5\xBA\x81/OU=\xE8\xAD\xA6\xE5\xAF\x9F\xE5\xBA\x81\xE9\x81\x8B\xE8\xBB\xA2\xE5\x85\x8D\xE8\xA8\xB1\xE8\xA8\xBC\xE8\xAA\x8D\xE8\xA8\xBC\xE5\xB1\x80
            X509v3 CRL Distribution Points: 
                Full Name:
                  DirName:C = JP, O = Japanese Government, OU = National Police Agency, OU = Prefectural Public Safety Commissions for ICDL
    Signature Algorithm: sha256WithRSAEncryption
    Signature Value:
        62:87:32:6b:34:23:e5:e8:a9:ea:03:b7:b7:73:ab:96:40:bd:
        cd:4a:82:33:db:40:4c:52:e3:d2:4c:d6:6e:7b:2d:f3:8a:3a:
        8a:ef:1d:f7:39:33:f3:3e:c0:aa:36:3e:ee:63:d5:67:81:b9:
        49:af:d2:b7:98:be:48:f7:cc:0e:f9:fc:93:1f:de:80:02:f4:
        e8:02:59:ed:75:b4:b1:11:22:90:1e:3a:b9:40:bc:eb:11:f3:
        07:a5:66:9f:45:25:c2:4a:b7:68:cf:a6:ec:ba:ff:b4:f8:ce:
        84:52:8d:44:91:bc:c0:3e:f2:9a:26:d5:b0:32:8f:ab:41:08:
        5b:9f:47:8a:0a:bd:26:32:08:80:12:44:30:6c:d5:0e:53:61:
        97:84:6f:dd:44:96:8a:84:50:f1:b6:ce:ea:2a:68:84:e3:ac:
        4c:4d:6d:21:f5:dc:a2:a7:f6:87:8f:a4:ea:d3:f7:59:f6:34:
        58:7f:4e:c3:40:30:d6:c9:d8:71:4c:c4:eb:c3:c8:2d:e3:aa:
        d3:74:f1:ce:24:1f:f2:9a:96:42:32:ef:a4:73:4a:59:65:57:
        da:d8:58:27:17:59:66:d8:09:b0:6d:4c:be:99:d0:fb:b2:70:
        97:c1:2d:12:5d:27:aa:5d:e2:8f:de:a0:90:ab:55:5d:9d:a2:
        84:11:e1:8d
-----BEGIN CERTIFICATE-----
MIIGSDCCBTCgAwIBAgIIMjAwMDAwNjcwDQYJKoZIhvcNAQELBQAwZzELMAkGA1UE
BhMCSlAxHDAaBgNVBAoME0phcGFuZXNlIEdvdmVybm1lbnQxHzAdBgNVBAsMFk5h
dGlvbmFsIFBvbGljZSBBZ2VuY3kxGTAXBgNVBAsMEE5QQSBJQ0RMIFJvb3QgQ0Ew
HhcNMjMwMjA2MDI0NTIzWhcNMjgwMjA1MTQ1OTU5WjCBnDELMAkGA1UEBhMCSlAx
HDAaBgNVBAoME0phcGFuZXNlIEdvdmVybm1lbnQxHzAdBgNVBAsMFk5hdGlvbmFs
IFBvbGljZSBBZ2VuY3kxNzA1BgNVBAsMLlByZWZlY3R1cmFsIFB1YmxpYyBTYWZl
dHkgQ29tbWlzc2lvbnMgZm9yIElDREwxFTATBgNVBAMMDFNoaW1hbmUgUFBTQzCC
ASIwDQYJKoZIhvcNAQEBBQADggEPADCCAQoCggEBAJ3drdOJDlaXe/ULtDeZMx46
ygGwGnwZu4ZzpCbNxjLCpvFLy/D99/7MkEfNR78kFH0Ha2NHGpHA8aLyty3Mmdux
+OQJG8PxIYsC9+DosVVI0cBaUXv7KhhsVU+V4DcG1scO8JPOpsF237nANFgQ6uYw
KHpTd15lFqGY2GPkCYCFq7sPacfa3l5rbeeZ5CWCBlFGfF0wxKQasJ3mFypPpcsD
NIZmhEtzX/UCBiZfAXdqCJbnzA6ohs4eg3dMXEzVSq0kHzV4Na21bf+l2TE3+7PL
0xBVsN4GgFMGCeD23BsHvnzXGZ4P7HyD/c0PfU56sTMJ79ohow4sBggBuUuaRsUC
AwEAAaOCAsAwggK8MIGYBgNVHSMEgZAwgY2AFBHNjmBER1dPT8vp58uhRt+6DlCL
oWukaTBnMQswCQYDVQQGEwJKUDEcMBoGA1UECgwTSmFwYW5lc2UgR292ZXJubWVu
dDEfMB0GA1UECwwWTmF0aW9uYWwgUG9saWNlIEFnZW5jeTEZMBcGA1UECwwQTlBB
IElDREwgUm9vdCBDQYIIMjAwMDAwMTYwHQYDVR0OBBYEFJgw88JrwWU4TXR8bXRw
Iv2Rj1dvMA4GA1UdDwEB/wQEAwIGwDBABgNVHSABAf8ENjA0MDIGCyqDCIaOGAcF
AQEKMCMwIQYIKwYBBQUHAgEWFWh0dHA6Ly93d3cubnBhLmdvLmpwLzCBlQYDVR0R
BIGNMIGKpIGHMIGEMQswCQYDVQQGEwJKUDEYMBYGA1UECgwP5pel5pys5Zu95pS/
5bqcMRIwEAYDVQQLDAnorablr5/luoExJDAiBgNVBAsMG+mDvemBk+W6nOecjOWF
rOWuieWnlOWToeS8mjEhMB8GA1UEAwwY5bO25qC555yM5YWs5a6J5aeU5ZOh5Lya
MHQGA1UdEgRtMGukaTBnMQswCQYDVQQGEwJKUDEYMBYGA1UECgwP5pel5pys5Zu9
5pS/5bqcMRIwEAYDVQQLDAnorablr5/luoExKjAoBgNVBAsMIeitpuWvn+W6gemB
i+i7ouWFjeioseiovOiqjeiovOWxgDCBnwYDVR0fBIGXMIGUMIGRoIGOoIGLpIGI
MIGFMQswCQYDVQQGEwJKUDEcMBoGA1UECgwTSmFwYW5lc2UgR292ZXJubWVudDEf
MB0GA1UECwwWTmF0aW9uYWwgUG9saWNlIEFnZW5jeTE3MDUGA1UECwwuUHJlZmVj
dHVyYWwgUHVibGljIFNhZmV0eSBDb21taXNzaW9ucyBmb3IgSUNETDANBgkqhkiG
9w0BAQsFAAOCAQEAYocyazQj5eip6gO3t3OrlkC9zUqCM9tATFLj0kzWbnst84o6
iu8d9zkz8z7AqjY+7mPVZ4G5Sa/St5i+SPfMDvn8kx/egAL06AJZ7XW0sREikB46
uUC86xHzB6Vmn0Ulwkq3aM+m7Lr/tPjOhFKNRJG8wD7ymibVsDKPq0EIW59Higq9
JjIIgBJEMGzVDlNhl4Rv3USWioRQ8bbO6ipohOOsTE1tIfXcoqf2h4+k6tP3WfY0
WH9Ow0Aw1snYcUzE68PILeOq03TxziQf8pqWQjLvpHNKWWVX2thYJxdZZtgJsG1M
vpnQ+7Jwl8EtEl0nql3ij96gkKtVXZ2ihBHhjQ==
-----END CERTIFICATE-----
