Certificate:
    Data:
        Version: 3 (0x2)
        Serial Number:
            33:30:30:30:30:30:36:37
        Signature Algorithm: sha256WithRSAEncryption
        Issuer: C=JP, O=Japanese Government, OU=National Police Agency, OU=NPA ICDL Root CA
        Validity
            Not Before: Nov  1 04:45:42 2023 GMT
            Not After : Oct 31 14:59:59 2028 GMT
        Subject: C=JP, O=Japanese Government, OU=National Police Agency, OU=Prefectural Public Safety Commissions for ICDL, CN=Shimane PPSC
        Subject Public Key Info:
            Public Key Algorithm: rsaEncryption
                Public-Key: (2048 bit)
                Modulus:
                    00:b6:e9:48:b2:ef:e4:36:68:27:ff:50:c3:94:75:
                    bb:99:df:81:b4:d5:fc:de:20:59:86:1f:ca:6b:e5:
                    03:21:30:95:e1:79:9f:30:59:b3:40:c9:a0:9e:38:
                    78:ec:12:06:2a:39:4e:46:38:34:78:50:2b:35:50:
                    0f:47:cf:a6:2e:75:d5:1e:ff:e1:4f:bc:c2:91:9d:
                    59:71:89:30:49:02:f6:34:04:74:95:f7:79:0e:bd:
                    51:7b:95:f5:52:43:eb:dc:18:63:89:8f:c4:c8:78:
                    f7:2a:e6:a9:6e:02:52:92:2b:7c:2a:6e:37:06:e4:
                    b3:bb:bc:59:af:a4:4c:fe:c1:6b:e1:66:f1:5f:05:
                    f7:ea:b6:b0:a1:0a:65:46:b2:8b:72:82:fb:5e:71:
                    29:02:4a:60:84:e3:36:df:29:28:3a:59:3d:93:20:
                    46:1b:b9:13:59:39:df:39:3a:61:8c:07:df:44:66:
                    e3:80:14:3a:cf:d0:6f:b1:d0:e5:54:5c:2c:34:cc:
                    bd:90:6b:e4:a2:a6:c3:ae:50:13:a8:26:8d:59:36:
                    2c:13:60:97:f3:ea:9c:d2:58:d6:24:99:50:87:13:
                    02:8a:eb:43:c4:38:fa:28:7b:d0:ea:46:da:76:c4:
                    c8:b2:eb:4e:44:71:eb:54:f5:09:87:74:62:5a:0b:
                    77:ed
                Exponent: 65537 (0x10001)
        X509v3 extensions:
            X509v3 Authority Key Identifier: 
                keyid:11:CD:8E:60:44:47:57:4F:4F:CB:E9:E7:CB:A1:46:DF:BA:0E:50:8B
                DirName:/C=JP/O=Japanese Government/OU=National Police Agency/OU=NPA ICDL Root CA
                serial:32:30:30:30:30:30:31:36
            X509v3 Subject Key Identifier: 
                82:C1:72:A2:14:BF:E5:00:4E:0C:99:D3:84:4C:AC:CA:31:7B:A6:E8
            X509v3 Key Usage: critical
                Digital Signature, Non Repudiation
            X509v3 Certificate Policies: critical
                Policy: 1.2.392.100120.7.5.1.1.10
                  CPS: http://www.npa.go.jp/
            X509v3 Subject Alternative Name: 
                DirName:/C=JP/O=\xE6\x97\xA5\xE6\x9C\xAC\xE5\x9B\xBD\xE6\x94\xBF\xE5\xBA\x9C/OU=\xE8\xAD\xA6\xE5\xAF\x9F\xE5\xBA\x81/OU=\xE9\x83\xBD\xE9\x81\x93\xE5\xBA\x9C\xE7\x9C\x8C\xE5\x85\xAC\xE5\xAE\x89\xE5\xA7\x94\xE5\x93\xA1\xE4\xBC\x9A
            X509v3 Issuer Alternative Name: 
                DirName:/C=JP/O=\xE6\x97\xA5\xE6\x9C\xAC\xE5\x9B\xBD\xE6\x94\xBF\xE5\xBA\x9C/OU=\xE8\xAD\xA6\xE5\xAF\x9F\xE5\xBA\x81/OU=\xE8\xAD\xA6\xE5\xAF\x9F\xE5\xBA\x81\xE9\x81\x8B\xE8\xBB\xA2\xE5\x85\x8D\xE8\xA8\xB1\xE8\xA8\xBC\xE8\xAA\x8D\xE8\xA8\xBC\xE5\xB1\x80
            X509v3 CRL Distribution Points: 
                Full Name:
                  DirName:C = JP, O = Japanese Government, OU = National Police Agency, OU = Prefectural Public Safety Commissions for ICDL
    Signature Algorithm: sha256WithRSAEncryption
    Signature Value:
        91:3e:93:e2:f8:9b:59:3f:d2:7a:40:56:d8:d7:1d:4e:eb:e1:
        d5:c0:36:41:ca:2c:cf:6e:49:cf:d6:98:34:db:61:31:a8:56:
        1d:ad:05:51:28:3d:f6:cb:24:86:15:8d:e7:10:64:65:b2:f4:
        96:e0:01:60:b0:49:97:95:b6:56:5f:b7:c8:ab:d9:24:69:61:
        93:b3:65:62:73:12:cf:fa:2c:e2:ac:95:cd:05:a2:78:46:1d:
        fe:aa:0c:34:92:b5:13:d4:fd:2a:1c:44:38:80:6a:e4:b8:52:
        84:d4:dd:f8:e6:68:a9:46:cc:8d:75:38:d9:d2:44:0c:c7:ad:
        1a:c5:86:2b:7a:ef:9a:e2:6f:06:3a:a8:ae:7f:b8:69:86:99:
        b2:d1:e0:e5:22:d2:eb:e4:2d:11:a7:56:20:a8:07:a3:e2:0f:
        26:5e:d2:10:18:f2:d8:99:45:1e:ca:70:a3:70:91:b4:35:18:
        15:be:f4:43:1f:36:fe:48:11:b0:a2:44:22:1d:46:39:ea:25:
        d5:ad:d3:37:d2:0e:0d:57:a8:14:1f:bd:26:a2:1d:b2:e3:b6:
        a4:6f:95:cb:f7:ff:0e:d2:f4:f4:01:fe:81:80:e7:6c:8f:09:
        95:86:d8:c9:78:a6:1e:c7:36:a1:18:b1:26:8e:28:14:09:e2:
        a0:a6:8c:ae
-----BEGIN CERTIFICATE-----
MIIGSDCCBTCgAwIBAgIIMzAwMDAwNjcwDQYJKoZIhvcNAQELBQAwZzELMAkGA1UE
BhMCSlAxHDAaBgNVBAoME0phcGFuZXNlIEdvdmVybm1lbnQxHzAdBgNVBAsMFk5h
dGlvbmFsIFBvbGljZSBBZ2VuY3kxGTAXBgNVBAsMEE5QQSBJQ0RMIFJvb3QgQ0Ew
HhcNMjMxMTAxMDQ0NTQyWhcNMjgxMDMxMTQ1OTU5WjCBnDELMAkGA1UEBhMCSlAx
HDAaBgNVBAoME0phcGFuZXNlIEdvdmVybm1lbnQxHzAdBgNVBAsMFk5hdGlvbmFs
IFBvbGljZSBBZ2VuY3kxNzA1BgNVBAsMLlByZWZlY3R1cmFsIFB1YmxpYyBTYWZl
dHkgQ29tbWlzc2lvbnMgZm9yIElDREwxFTATBgNVBAMMDFNoaW1hbmUgUFBTQzCC
ASIwDQYJKoZIhvcNAQEBBQADggEPADCCAQoCggEBALbpSLLv5DZoJ/9Qw5R1u5nf
gbTV/N4gWYYfymvlAyEwleF5nzBZs0DJoJ44eOwSBio5TkY4NHhQKzVQD0fPpi51
1R7/4U+8wpGdWXGJMEkC9jQEdJX3eQ69UXuV9VJD69wYY4mPxMh49yrmqW4CUpIr
fCpuNwbks7u8Wa+kTP7Ba+Fm8V8F9+q2sKEKZUayi3KC+15xKQJKYITjNt8pKDpZ
PZMgRhu5E1k53zk6YYwH30Rm44AUOs/Qb7HQ5VRcLDTMvZBr5KKmw65QE6gmjVk2
LBNgl/PqnNJY1iSZUIcTAorrQ8Q4+ih70OpG2nbEyLLrTkRx61T1CYd0YloLd+0C
AwEAAaOCAsAwggK8MIGYBgNVHSMEgZAwgY2AFBHNjmBER1dPT8vp58uhRt+6DlCL
oWukaTBnMQswCQYDVQQGEwJKUDEcMBoGA1UECgwTSmFwYW5lc2UgR292ZXJubWVu
dDEfMB0GA1UECwwWTmF0aW9uYWwgUG9saWNlIEFnZW5jeTEZMBcGA1UECwwQTlBB
IElDREwgUm9vdCBDQYIIMjAwMDAwMTYwHQYDVR0OBBYEFILBcqIUv+UATgyZ04RM
rMoxe6boMA4GA1UdDwEB/wQEAwIGwDBABgNVHSABAf8ENjA0MDIGCyqDCIaOGAcF
AQEKMCMwIQYIKwYBBQUHAgEWFWh0dHA6Ly93d3cubnBhLmdvLmpwLzCBlQYDVR0R
BIGNMIGKpIGHMIGEMQswCQYDVQQGEwJKUDEYMBYGA1UECgwP5pel5pys5Zu95pS/
5bqcMRIwEAYDVQQLDAnorablr5/luoExJDAiBgNVBAsMG+mDvemBk+W6nOecjOWF
rOWuieWnlOWToeS8mjEhMB8GA1UEAwwY5bO25qC555yM5YWs5a6J5aeU5ZOh5Lya
MHQGA1UdEgRtMGukaTBnMQswCQYDVQQGEwJKUDEYMBYGA1UECgwP5pel5pys5Zu9
5pS/5bqcMRIwEAYDVQQLDAnorablr5/luoExKjAoBgNVBAsMIeitpuWvn+W6gemB
i+i7ouWFjeioseiovOiqjeiovOWxgDCBnwYDVR0fBIGXMIGUMIGRoIGOoIGLpIGI
MIGFMQswCQYDVQQGEwJKUDEcMBoGA1UECgwTSmFwYW5lc2UgR292ZXJubWVudDEf
MB0GA1UECwwWTmF0aW9uYWwgUG9saWNlIEFnZW5jeTE3MDUGA1UECwwuUHJlZmVj
dHVyYWwgUHVibGljIFNhZmV0eSBDb21taXNzaW9ucyBmb3IgSUNETDANBgkqhkiG
9w0BAQsFAAOCAQEAkT6T4vibWT/SekBW2NcdTuvh1cA2Qcosz25Jz9aYNNthMahW
Ha0FUSg99sskhhWN5xBkZbL0luABYLBJl5W2Vl+3yKvZJGlhk7NlYnMSz/os4qyV
zQWieEYd/qoMNJK1E9T9KhxEOIBq5LhShNTd+OZoqUbMjXU42dJEDMetGsWGK3rv
muJvBjqorn+4aYaZstHg5SLS6+QtEadWIKgHo+IPJl7SEBjy2JlFHspwo3CRtDUY
Fb70Qx82/kgRsKJEIh1GOeol1a3TN9IODVeoFB+9JqIdsuO2pG+Vy/f/DtL09AH+
gYDnbI8JlYbYyXimHsc2oRixJo4oFAnioKaMrg==
-----END CERTIFICATE-----
