Certificate:
    Data:
        Version: 3 (0x2)
        Serial Number:
            33:30:30:30:30:30:32:37:9d:21:ce:fc:ed:dc:14:21:47:51
        Signature Algorithm: sha256WithRSAEncryption
        Issuer: C=JP, O=Japanese Government, OU=National Police Agency, OU=NPA ICDL Root CA
        Validity
            Not Before: Jun 19 05:49:16 2023 GMT
            Not After : Jun 18 14:59:59 2028 GMT
        Subject: C=JP, O=Japanese Government, OU=National Police Agency, OU=Prefectural Public Safety Commissions for ICDL, CN=Shizuoka AltPPSC
        Subject Public Key Info:
            Public Key Algorithm: rsaEncryption
                Public-Key: (2048 bit)
                Modulus:
                    00:82:1b:0f:fc:8c:05:aa:2e:6d:4a:ad:58:2b:b2:
                    30:77:35:db:1d:d2:c4:d7:32:f9:5b:6e:c6:0d:9d:
                    65:3c:f4:a3:55:56:75:62:6d:49:70:a7:48:24:39:
                    b2:6d:dc:ca:2b:bb:0a:98:49:95:91:1d:57:3e:93:
                    11:5c:9f:fc:28:f2:69:a5:41:60:55:d6:90:bf:30:
                    2c:85:e6:46:61:82:1a:76:be:5b:2d:ab:78:f5:90:
                    90:35:b8:9d:9c:e0:01:71:db:65:36:c7:88:f5:d0:
                    73:be:92:00:3d:30:f7:0c:82:b8:08:2d:07:c5:a8:
                    52:b2:e6:66:0a:52:43:ce:00:bf:90:73:15:41:5e:
                    b4:ac:df:bc:28:79:63:e8:fa:71:cc:f7:00:48:26:
                    3b:df:e7:9a:0f:65:25:70:f5:b3:29:1b:34:db:88:
                    9a:01:ee:69:ee:38:e3:e0:cc:11:b2:a5:d7:a6:e1:
                    eb:3e:c6:01:ea:82:ae:ff:7b:62:ea:5c:40:be:68:
                    89:81:b2:a5:e8:d8:49:85:81:da:32:21:9b:7c:1c:
                    47:ce:0a:23:3c:8a:15:fb:fc:9e:69:3f:33:2a:d2:
                    96:d7:c4:a8:5f:b6:6d:bc:9b:2f:82:a9:89:48:4d:
                    d2:95:c4:c4:13:c3:52:93:8a:4c:de:ae:c4:7d:67:
                    35:1b
                Exponent: 65537 (0x10001)
        X509v3 extensions:
            X509v3 Authority Key Identifier: 
                keyid:11:CD:8E:60:44:47:57:4F:4F:CB:E9:E7:CB:A1:46:DF:BA:0E:50:8B
                DirName:/C=JP/O=Japanese Government/OU=National Police Agency/OU=NPA ICDL Root CA
                serial:32:30:30:30:30:30:31:36
            X509v3 Subject Key Identifier: 
                FC:D2:C7:5D:71:AC:C4:01:B6:96:EF:FB:93:82:E5:D8:24:76:B5:03
            X509v3 Key Usage: critical
                Digital Signature, Non Repudiation
            X509v3 Certificate Policies: critical
                Policy: 1.2.392.100120.7.5.1.1.10
                  CPS: http://www.npa.go.jp/
            X509v3 Issuer Alternative Name: 
                DirName:/C=JP/O=\xE6\x97\xA5\xE6\x9C\xAC\xE5\x9B\xBD\xE6\x94\xBF\xE5\xBA\x9C/OU=\xE8\xAD\xA6\xE5\xAF\x9F\xE5\xBA\x81/OU=\xE8\xAD\xA6\xE5\xAF\x9F\xE5\xBA\x81\xE9\x81\x8B\xE8\xBB\xA2\xE5\x85\x8D\xE8\xA8\xB1\xE8\xA8\xBC\xE8\xAA\x8D\xE8\xA8\xBC\xE5\xB1\x80
            X509v3 CRL Distribution Points: 
                Full Name:
                  DirName:C = JP, O = Japanese Government, OU = National Police Agency, OU = Prefectural Public Safety Commissions for ICDL
    Signature Algorithm: sha256WithRSAEncryption
    Signature Value:
        20:9d:17:57:22:66:85:a5:b6:0f:f6:7e:43:3f:0d:a3:55:da:
        21:36:13:3d:26:ae:a8:10:ad:8f:e1:9d:8a:51:46:ac:ba:87:
        37:1e:b0:be:d4:4b:3f:81:af:92:8f:e3:4d:7b:29:5d:d3:89:
        f6:06:92:d4:41:29:7f:5f:12:41:4d:b3:28:e3:39:07:77:3e:
        cc:f5:8e:0f:bc:66:69:65:85:4b:cf:cd:39:3e:56:49:87:ce:
        39:4a:da:48:01:bf:f7:ee:2a:1c:77:0f:ed:7e:3a:39:30:10:
        a0:da:5c:d5:df:60:90:c5:44:ee:78:67:96:61:47:fd:fe:d9:
        e4:16:28:20:16:ec:e7:33:29:5d:6d:48:44:70:69:66:73:96:
        5c:eb:fa:0b:cd:26:4a:e2:1f:ef:76:6a:18:5b:d7:7d:0f:d3:
        f5:bf:ab:0b:fc:e2:77:96:92:03:93:cc:92:04:52:a0:45:16:
        64:d1:c1:13:13:9b:82:ad:67:2d:ff:2c:59:61:c5:7b:21:40:
        ce:7a:c5:6a:66:94:37:24:78:49:8a:af:cc:40:10:b1:b9:1c:
        45:88:61:41:e3:d8:45:86:08:88:4a:6f:39:37:f1:2e:b2:7e:
        46:92:fb:dd:91:72:e3:35:d1:35:42:94:86:93:5f:ad:91:a2:
        fd:73:0c:2f
-----BEGIN CERTIFICATE-----
MIIFvjCCBKagAwIBAgISMzAwMDAwMjedIc787dwUIUdRMA0GCSqGSIb3DQEBCwUA
MGcxCzAJBgNVBAYTAkpQMRwwGgYDVQQKDBNKYXBhbmVzZSBHb3Zlcm5tZW50MR8w
HQYDVQQLDBZOYXRpb25hbCBQb2xpY2UgQWdlbmN5MRkwFwYDVQQLDBBOUEEgSUNE
TCBSb290IENBMB4XDTIzMDYxOTA1NDkxNloXDTI4MDYxODE0NTk1OVowgaAxCzAJ
BgNVBAYTAkpQMRwwGgYDVQQKDBNKYXBhbmVzZSBHb3Zlcm5tZW50MR8wHQYDVQQL
DBZOYXRpb25hbCBQb2xpY2UgQWdlbmN5MTcwNQYDVQQLDC5QcmVmZWN0dXJhbCBQ
dWJsaWMgU2FmZXR5IENvbW1pc3Npb25zIGZvciBJQ0RMMRkwFwYDVQQDDBBTaGl6
dW9rYSBBbHRQUFNDMIIBIjANBgkqhkiG9w0BAQEFAAOCAQ8AMIIBCgKCAQEAghsP
/IwFqi5tSq1YK7IwdzXbHdLE1zL5W27GDZ1lPPSjVVZ1Ym1JcKdIJDmybdzKK7sK
mEmVkR1XPpMRXJ/8KPJppUFgVdaQvzAsheZGYYIadr5bLat49ZCQNbidnOABcdtl
NseI9dBzvpIAPTD3DIK4CC0HxahSsuZmClJDzgC/kHMVQV60rN+8KHlj6PpxzPcA
SCY73+eaD2UlcPWzKRs024iaAe5p7jjj4MwRsqXXpuHrPsYB6oKu/3ti6lxAvmiJ
gbKl6NhJhYHaMiGbfBxHzgojPIoV+/yeaT8zKtKW18SoX7ZtvJsvgqmJSE3SlcTE
E8NSk4pM3q7EfWc1GwIDAQABo4ICKDCCAiQwgZgGA1UdIwSBkDCBjYAUEc2OYERH
V09Py+nny6FG37oOUIuha6RpMGcxCzAJBgNVBAYTAkpQMRwwGgYDVQQKDBNKYXBh
bmVzZSBHb3Zlcm5tZW50MR8wHQYDVQQLDBZOYXRpb25hbCBQb2xpY2UgQWdlbmN5
MRkwFwYDVQQLDBBOUEEgSUNETCBSb290IENBgggyMDAwMDAxNjAdBgNVHQ4EFgQU
/NLHXXGsxAG2lu/7k4Ll2CR2tQMwDgYDVR0PAQH/BAQDAgbAMEAGA1UdIAEB/wQ2
MDQwMgYLKoMIho4YBwUBAQowIzAhBggrBgEFBQcCARYVaHR0cDovL3d3dy5ucGEu
Z28uanAvMHQGA1UdEgRtMGukaTBnMQswCQYDVQQGEwJKUDEYMBYGA1UECgwP5pel
5pys5Zu95pS/5bqcMRIwEAYDVQQLDAnorablr5/luoExKjAoBgNVBAsMIeitpuWv
n+W6gemBi+i7ouWFjeioseiovOiqjeiovOWxgDCBnwYDVR0fBIGXMIGUMIGRoIGO
oIGLpIGIMIGFMQswCQYDVQQGEwJKUDEcMBoGA1UECgwTSmFwYW5lc2UgR292ZXJu
bWVudDEfMB0GA1UECwwWTmF0aW9uYWwgUG9saWNlIEFnZW5jeTE3MDUGA1UECwwu
UHJlZmVjdHVyYWwgUHVibGljIFNhZmV0eSBDb21taXNzaW9ucyBmb3IgSUNETDAN
BgkqhkiG9w0BAQsFAAOCAQEAIJ0XVyJmhaW2D/Z+Qz8No1XaITYTPSauqBCtj+Gd
ilFGrLqHNx6wvtRLP4Gvko/jTXspXdOJ9gaS1EEpf18SQU2zKOM5B3c+zPWOD7xm
aWWFS8/NOT5WSYfOOUraSAG/9+4qHHcP7X46OTAQoNpc1d9gkMVE7nhnlmFH/f7Z
5BYoIBbs5zMpXW1IRHBpZnOWXOv6C80mSuIf73ZqGFvXfQ/T9b+rC/zid5aSA5PM
kgRSoEUWZNHBExObgq1nLf8sWWHFeyFAznrFamaUNyR4SYqvzEAQsbkcRYhhQePY
RYYIiEpvOTfxLrJ+RpL73ZFy4zXRNUKUhpNfrZGi/XMMLw==
-----END CERTIFICATE-----
