Certificate:
    Data:
        Version: 3 (0x2)
        Serial Number:
            32:30:30:30:30:30:35:34
        Signature Algorithm: sha256WithRSAEncryption
        Issuer: C=JP, O=Japanese Government, OU=National Police Agency, OU=NPA ICDL Root CA
        Validity
            Not Before: Feb  6 02:11:28 2023 GMT
            Not After : Feb  5 14:59:59 2028 GMT
        Subject: C=JP, O=Japanese Government, OU=National Police Agency, OU=Prefectural Public Safety Commissions for ICDL, CN=Shizuoka PPSC
        Subject Public Key Info:
            Public Key Algorithm: rsaEncryption
                Public-Key: (2048 bit)
                Modulus:
                    00:8e:7a:13:e6:da:1c:1d:2d:87:f3:4c:06:16:97:
                    b8:a8:c7:e0:b4:d0:de:a4:9e:ec:c8:4f:ef:01:9b:
                    e0:81:1f:0e:72:f2:03:12:f7:9c:a6:8d:5c:a1:8d:
                    e9:38:cc:04:ec:f3:3c:6e:82:29:26:96:71:07:b5:
                    b6:b4:4a:6e:02:87:82:44:37:93:5f:30:e4:3d:fe:
                    e5:35:90:86:67:9c:1a:f5:b3:c9:63:05:07:b9:75:
                    2f:9a:b5:ed:ff:82:d6:b1:8c:af:d5:88:6f:c0:65:
                    22:6f:1c:bd:84:32:41:98:32:39:e3:84:61:ba:e4:
                    26:ee:c2:0a:d5:63:59:d6:f4:e7:f9:59:6a:a2:bf:
                    db:4a:91:cf:25:d1:1b:3c:6a:e7:59:c6:84:44:dd:
                    f0:00:e1:36:87:71:0c:99:6e:f9:63:62:6d:4d:2f:
                    0d:2c:11:6c:0a:c0:90:1d:f1:bc:13:eb:5a:6f:a4:
                    76:fc:a8:e3:44:6c:d4:3d:c4:ad:3f:87:cf:c1:a5:
                    b1:69:8f:3a:a3:c4:c5:7e:4e:4e:b8:34:a2:7a:9d:
                    48:6e:98:57:6d:63:d4:83:a5:77:77:90:3f:a5:fa:
                    af:17:5f:41:e5:d7:dd:73:e4:67:d5:55:79:52:62:
                    95:b3:f4:52:a8:8f:2a:b2:e5:9c:46:c6:80:32:da:
                    d0:23
                Exponent: 65537 (0x10001)
        X509v3 extensions:
            X509v3 Authority Key Identifier: 
                keyid:11:CD:8E:60:44:47:57:4F:4F:CB:E9:E7:CB:A1:46:DF:BA:0E:50:8B
                DirName:/C=JP/O=Japanese Government/OU=National Police Agency/OU=NPA ICDL Root CA
                serial:32:30:30:30:30:30:31:36
            X509v3 Subject Key Identifier: 
                12:44:B3:0F:46:FA:FA:8F:AB:D3:9D:0C:E5:D4:A6:BD:EC:67:39:16
            X509v3 Key Usage: critical
                Digital Signature, Non Repudiation
            X509v3 Certificate Policies: critical
                Policy: 1.2.392.100120.7.5.1.1.10
                  CPS: http://www.npa.go.jp/
            X509v3 Subject Alternative Name: 
                DirName:/C=JP/O=\xE6\x97\xA5\xE6\x9C\xAC\xE5\x9B\xBD\xE6\x94\xBF\xE5\xBA\x9C/OU=\xE8\xAD\xA6\xE5\xAF\x9F\xE5\xBA\x81/OU=\xE9\x83\xBD\xE9\x81\x93\xE5\xBA\x9C\xE7\x9C\x8C\xE5\x85\xAC\xE5\xAE\x89\xE5\xA7\x94\xE5\x93\xA1\xE4\xBC\x9A
            X509v3 Issuer Alternative Name: 
                DirName:/C=JP/O=\xE6\x97\xA5\xE6\x9C\xAC\xE5\x9B\xBD\xE6\x94\xBF\xE5\xBA\x9C/OU=\xE8\xAD\xA6\xE5\xAF\x9F\xE5\xBA\x81/OU=\xE8\xAD\xA6\xE5\xAF\x9F\xE5\xBA\x81\xE9\x81\x8B\xE8\xBB\xA2\xE5\x85\x8D\xE8\xA8\xB1\xE8\xA8\xBC\xE8\xAA\x8D\xE8\xA8\xBC\xE5\xB1\x80
            X509v3 CRL Distribution Points: 
                Full Name:
                  DirName:C = JP, O = Japanese Government, OU = National Police Agency, OU = Prefectural Public Safety Commissions for ICDL
    Signature Algorithm: sha256WithRSAEncryption
    Signature Value:
        9c:e2:79:be:5d:cb:05:22:42:98:7a:37:a8:5b:5f:60:ac:34:
        b5:4e:3e:d8:52:25:48:51:fe:42:71:69:e9:51:3d:96:cd:de:
        ea:8f:68:f7:bd:45:58:19:ab:90:35:7f:3a:dc:db:da:a8:ae:
        55:3a:87:52:73:08:5c:64:c0:9f:a0:db:cc:59:55:dd:09:37:
        f6:84:c1:2d:0e:54:55:14:57:ea:65:f3:85:6a:20:8b:80:28:
        40:09:26:aa:06:da:d6:1c:6b:ca:3e:95:47:08:9f:c5:9c:03:
        d0:78:02:b0:c3:29:f0:59:c0:b5:e1:db:25:6e:12:53:82:3c:
        84:97:ce:91:19:17:97:81:7c:99:b2:dd:2b:92:42:28:b6:ed:
        e3:a1:7a:57:2d:30:5d:b6:02:9e:54:71:51:5b:de:f6:8d:3c:
        81:ea:03:23:ce:0e:73:88:88:96:22:44:3b:07:b5:1a:e8:b7:
        d1:4b:74:ee:a7:03:a7:0f:d1:af:80:a9:1c:65:8d:2e:d2:d6:
        4c:15:9b:73:93:08:b4:d9:c0:51:26:f0:ae:16:04:10:6b:d0:
        9a:ad:02:4c:29:80:39:81:6b:76:1f:0a:a9:3d:1c:1a:03:b6:
        27:4e:4d:66:05:18:cf:c5:98:07:3a:ed:0d:fc:8d:7d:36:3c:
        72:87:43:59
-----BEGIN CERTIFICATE-----
MIIGSTCCBTGgAwIBAgIIMjAwMDAwNTQwDQYJKoZIhvcNAQELBQAwZzELMAkGA1UE
BhMCSlAxHDAaBgNVBAoME0phcGFuZXNlIEdvdmVybm1lbnQxHzAdBgNVBAsMFk5h
dGlvbmFsIFBvbGljZSBBZ2VuY3kxGTAXBgNVBAsMEE5QQSBJQ0RMIFJvb3QgQ0Ew
HhcNMjMwMjA2MDIxMTI4WhcNMjgwMjA1MTQ1OTU5WjCBnTELMAkGA1UEBhMCSlAx
HDAaBgNVBAoME0phcGFuZXNlIEdvdmVybm1lbnQxHzAdBgNVBAsMFk5hdGlvbmFs
IFBvbGljZSBBZ2VuY3kxNzA1BgNVBAsMLlByZWZlY3R1cmFsIFB1YmxpYyBTYWZl
dHkgQ29tbWlzc2lvbnMgZm9yIElDREwxFjAUBgNVBAMMDVNoaXp1b2thIFBQU0Mw
ggEiMA0GCSqGSIb3DQEBAQUAA4IBDwAwggEKAoIBAQCOehPm2hwdLYfzTAYWl7io
x+C00N6knuzIT+8Bm+CBHw5y8gMS95ymjVyhjek4zATs8zxugikmlnEHtba0Sm4C
h4JEN5NfMOQ9/uU1kIZnnBr1s8ljBQe5dS+ate3/gtaxjK/ViG/AZSJvHL2EMkGY
MjnjhGG65CbuwgrVY1nW9Of5WWqiv9tKkc8l0Rs8audZxoRE3fAA4TaHcQyZbvlj
Ym1NLw0sEWwKwJAd8bwT61pvpHb8qONEbNQ9xK0/h8/BpbFpjzqjxMV+Tk64NKJ6
nUhumFdtY9SDpXd3kD+l+q8XX0Hl191z5GfVVXlSYpWz9FKojyqy5ZxGxoAy2tAj
AgMBAAGjggLAMIICvDCBmAYDVR0jBIGQMIGNgBQRzY5gREdXT0/L6efLoUbfug5Q
i6FrpGkwZzELMAkGA1UEBhMCSlAxHDAaBgNVBAoME0phcGFuZXNlIEdvdmVybm1l
bnQxHzAdBgNVBAsMFk5hdGlvbmFsIFBvbGljZSBBZ2VuY3kxGTAXBgNVBAsMEE5Q
QSBJQ0RMIFJvb3QgQ0GCCDIwMDAwMDE2MB0GA1UdDgQWBBQSRLMPRvr6j6vTnQzl
1Ka97Gc5FjAOBgNVHQ8BAf8EBAMCBsAwQAYDVR0gAQH/BDYwNDAyBgsqgwiGjhgH
BQEBCjAjMCEGCCsGAQUFBwIBFhVodHRwOi8vd3d3Lm5wYS5nby5qcC8wgZUGA1Ud
EQSBjTCBiqSBhzCBhDELMAkGA1UEBhMCSlAxGDAWBgNVBAoMD+aXpeacrOWbveaU
v+W6nDESMBAGA1UECwwJ6K2m5a+f5bqBMSQwIgYDVQQLDBvpg73pgZPlupznnIzl
hazlronlp5Tlk6HkvJoxITAfBgNVBAMMGOmdmeWyoeecjOWFrOWuieWnlOWToeS8
mjB0BgNVHRIEbTBrpGkwZzELMAkGA1UEBhMCSlAxGDAWBgNVBAoMD+aXpeacrOWb
veaUv+W6nDESMBAGA1UECwwJ6K2m5a+f5bqBMSowKAYDVQQLDCHorablr5/luoHp
gYvou6LlhY3oqLHoqLzoqo3oqLzlsYAwgZ8GA1UdHwSBlzCBlDCBkaCBjqCBi6SB
iDCBhTELMAkGA1UEBhMCSlAxHDAaBgNVBAoME0phcGFuZXNlIEdvdmVybm1lbnQx
HzAdBgNVBAsMFk5hdGlvbmFsIFBvbGljZSBBZ2VuY3kxNzA1BgNVBAsMLlByZWZl
Y3R1cmFsIFB1YmxpYyBTYWZldHkgQ29tbWlzc2lvbnMgZm9yIElDREwwDQYJKoZI
hvcNAQELBQADggEBAJzieb5dywUiQph6N6hbX2CsNLVOPthSJUhR/kJxaelRPZbN
3uqPaPe9RVgZq5A1fzrc29qorlU6h1JzCFxkwJ+g28xZVd0JN/aEwS0OVFUUV+pl
84VqIIuAKEAJJqoG2tYca8o+lUcIn8WcA9B4ArDDKfBZwLXh2yVuElOCPISXzpEZ
F5eBfJmy3SuSQii27eOhelctMF22Ap5UcVFb3vaNPIHqAyPODnOIiJYiRDsHtRro
t9FLdO6nA6cP0a+AqRxljS7S1kwVm3OTCLTZwFEm8K4WBBBr0JqtAkwpgDmBa3Yf
Cqk9HBoDtidOTWYFGM/FmAc67Q38jX02PHKHQ1k=
-----END CERTIFICATE-----
