Certificate:
    Data:
        Version: 3 (0x2)
        Serial Number:
            33:30:30:30:30:31:30:33
        Signature Algorithm: sha256WithRSAEncryption
        Issuer: C=JP, O=Japanese Government, OU=National Police Agency, OU=NPA ICDL Root CA
        Validity
            Not Before: Sep 17 07:17:42 2024 GMT
            Not After : Sep 16 14:59:59 2029 GMT
        Subject: C=JP, O=Japanese Government, OU=National Police Agency, OU=Prefectural Public Safety Commissions for ICDL, CN=Shizuoka PPSC
        Subject Public Key Info:
            Public Key Algorithm: rsaEncryption
                Public-Key: (2048 bit)
                Modulus:
                    00:b1:03:96:81:76:23:4c:e4:08:e9:1d:cf:ba:82:
                    f5:b2:80:5f:94:b6:e2:58:a1:1d:e3:9b:d8:4b:f6:
                    0b:a2:c0:3c:ab:76:c2:59:7b:20:57:30:5d:95:5e:
                    35:12:0e:2e:86:47:57:3d:02:47:2d:ed:68:f7:09:
                    52:eb:16:44:1b:f2:2e:52:9a:9d:60:d4:8f:b0:ec:
                    4e:f9:a3:f4:f9:27:5b:17:cc:ce:4e:88:a6:a8:73:
                    63:4e:be:dc:5e:ec:fa:b7:01:b4:af:35:fa:d7:8d:
                    70:42:84:9d:19:0f:c8:52:91:36:d2:05:2f:00:13:
                    9e:bc:3e:e7:5e:78:f0:fa:12:bd:bf:10:2f:9a:5a:
                    f0:54:3c:41:c8:ed:f6:24:e0:43:cf:17:b7:a6:e1:
                    08:48:89:84:a9:13:98:11:bd:4d:3f:b3:74:19:08:
                    57:8c:61:30:13:45:55:a8:fe:25:a2:29:49:8a:80:
                    0f:6b:8e:48:6b:74:52:20:00:83:27:16:ce:2d:96:
                    ae:e9:63:00:53:2d:59:77:7a:9d:0e:48:17:64:3b:
                    be:99:d2:42:dc:f8:90:6d:36:b0:8f:96:80:24:05:
                    c5:22:e5:3e:61:81:88:da:89:74:74:4a:05:ae:e7:
                    74:e2:91:81:00:c2:17:9a:b0:73:6f:c0:ac:f2:a9:
                    0f:af
                Exponent: 65537 (0x10001)
        X509v3 extensions:
            X509v3 Authority Key Identifier: 
                keyid:11:CD:8E:60:44:47:57:4F:4F:CB:E9:E7:CB:A1:46:DF:BA:0E:50:8B
                DirName:/C=JP/O=Japanese Government/OU=National Police Agency/OU=NPA ICDL Root CA
                serial:32:30:30:30:30:30:31:36
            X509v3 Subject Key Identifier: 
                02:CE:67:1F:D5:4C:9F:5A:3C:88:E5:B9:A7:F7:D8:09:1E:53:9C:88
            X509v3 Key Usage: critical
                Digital Signature, Non Repudiation
            X509v3 Certificate Policies: critical
                Policy: 1.2.392.100120.7.5.1.1.10
                  CPS: http://www.npa.go.jp/
            X509v3 Subject Alternative Name: 
                DirName:/C=JP/O=\xE6\x97\xA5\xE6\x9C\xAC\xE5\x9B\xBD\xE6\x94\xBF\xE5\xBA\x9C/OU=\xE8\xAD\xA6\xE5\xAF\x9F\xE5\xBA\x81/OU=\xE9\x83\xBD\xE9\x81\x93\xE5\xBA\x9C\xE7\x9C\x8C\xE5\x85\xAC\xE5\xAE\x89\xE5\xA7\x94\xE5\x93\xA1\xE4\xBC\x9A
            X509v3 Issuer Alternative Name: 
                DirName:/C=JP/O=\xE6\x97\xA5\xE6\x9C\xAC\xE5\x9B\xBD\xE6\x94\xBF\xE5\xBA\x9C/OU=\xE8\xAD\xA6\xE5\xAF\x9F\xE5\xBA\x81/OU=\xE8\xAD\xA6\xE5\xAF\x9F\xE5\xBA\x81\xE9\x81\x8B\xE8\xBB\xA2\xE5\x85\x8D\xE8\xA8\xB1\xE8\xA8\xBC\xE8\xAA\x8D\xE8\xA8\xBC\xE5\xB1\x80
            X509v3 CRL Distribution Points: 
                Full Name:
                  DirName:C = JP, O = Japanese Government, OU = National Police Agency, OU = Prefectural Public Safety Commissions for ICDL
    Signature Algorithm: sha256WithRSAEncryption
    Signature Value:
        16:8f:8e:6c:5c:ce:bb:61:aa:f4:8d:40:a7:35:16:10:0b:38:
        a8:7e:3b:01:67:74:fd:b7:da:29:1b:86:ed:8a:46:88:a6:e1:
        de:5b:08:8e:cd:8e:7b:db:c0:b9:8b:63:4a:e4:a4:40:ba:e1:
        40:4a:b4:9a:96:d7:f2:9d:c5:38:82:38:4c:cd:d1:60:fe:b4:
        3d:17:60:f8:5f:93:3c:4b:6d:1a:56:9b:d2:b8:37:6f:5e:1c:
        22:fa:7c:4d:97:39:2a:a1:16:b7:d8:5f:ec:e3:bf:16:98:cb:
        4b:2f:2c:6e:ee:8b:39:78:af:33:ab:d9:31:50:66:a7:47:be:
        41:aa:cc:1c:f3:2a:ba:73:8a:2b:24:75:ef:98:60:8e:69:a2:
        da:4e:98:2e:89:3a:c4:9f:09:03:82:8e:15:e9:45:16:d3:93:
        cd:da:f2:3c:7d:91:d3:2c:16:27:21:9d:d6:b7:32:a0:9d:d7:
        ce:bd:10:7d:c0:98:f9:67:79:31:b8:cb:ce:b8:0e:d5:bd:26:
        7d:8a:40:73:fc:78:0a:c7:c5:35:2e:c6:86:0f:2d:37:ae:71:
        b3:9c:68:ed:b7:71:f4:bd:d1:1d:ff:e1:7c:7a:77:31:40:74:
        e3:b9:56:15:c5:67:2e:24:86:0e:b2:da:f2:44:00:e7:97:c8:
        34:a8:a4:7f
-----BEGIN CERTIFICATE-----
MIIGSTCCBTGgAwIBAgIIMzAwMDAxMDMwDQYJKoZIhvcNAQELBQAwZzELMAkGA1UE
BhMCSlAxHDAaBgNVBAoME0phcGFuZXNlIEdvdmVybm1lbnQxHzAdBgNVBAsMFk5h
dGlvbmFsIFBvbGljZSBBZ2VuY3kxGTAXBgNVBAsMEE5QQSBJQ0RMIFJvb3QgQ0Ew
HhcNMjQwOTE3MDcxNzQyWhcNMjkwOTE2MTQ1OTU5WjCBnTELMAkGA1UEBhMCSlAx
HDAaBgNVBAoME0phcGFuZXNlIEdvdmVybm1lbnQxHzAdBgNVBAsMFk5hdGlvbmFs
IFBvbGljZSBBZ2VuY3kxNzA1BgNVBAsMLlByZWZlY3R1cmFsIFB1YmxpYyBTYWZl
dHkgQ29tbWlzc2lvbnMgZm9yIElDREwxFjAUBgNVBAMMDVNoaXp1b2thIFBQU0Mw
ggEiMA0GCSqGSIb3DQEBAQUAA4IBDwAwggEKAoIBAQCxA5aBdiNM5AjpHc+6gvWy
gF+UtuJYoR3jm9hL9guiwDyrdsJZeyBXMF2VXjUSDi6GR1c9Akct7Wj3CVLrFkQb
8i5Smp1g1I+w7E75o/T5J1sXzM5OiKaoc2NOvtxe7Pq3AbSvNfrXjXBChJ0ZD8hS
kTbSBS8AE568PudeePD6Er2/EC+aWvBUPEHI7fYk4EPPF7em4QhIiYSpE5gRvU0/
s3QZCFeMYTATRVWo/iWiKUmKgA9rjkhrdFIgAIMnFs4tlq7pYwBTLVl3ep0OSBdk
O76Z0kLc+JBtNrCPloAkBcUi5T5hgYjaiXR0SgWu53TikYEAwheasHNvwKzyqQ+v
AgMBAAGjggLAMIICvDCBmAYDVR0jBIGQMIGNgBQRzY5gREdXT0/L6efLoUbfug5Q
i6FrpGkwZzELMAkGA1UEBhMCSlAxHDAaBgNVBAoME0phcGFuZXNlIEdvdmVybm1l
bnQxHzAdBgNVBAsMFk5hdGlvbmFsIFBvbGljZSBBZ2VuY3kxGTAXBgNVBAsMEE5Q
QSBJQ0RMIFJvb3QgQ0GCCDIwMDAwMDE2MB0GA1UdDgQWBBQCzmcf1UyfWjyI5bmn
99gJHlOciDAOBgNVHQ8BAf8EBAMCBsAwQAYDVR0gAQH/BDYwNDAyBgsqgwiGjhgH
BQEBCjAjMCEGCCsGAQUFBwIBFhVodHRwOi8vd3d3Lm5wYS5nby5qcC8wgZUGA1Ud
EQSBjTCBiqSBhzCBhDELMAkGA1UEBhMCSlAxGDAWBgNVBAoMD+aXpeacrOWbveaU
v+W6nDESMBAGA1UECwwJ6K2m5a+f5bqBMSQwIgYDVQQLDBvpg73pgZPlupznnIzl
hazlronlp5Tlk6HkvJoxITAfBgNVBAMMGOmdmeWyoeecjOWFrOWuieWnlOWToeS8
mjB0BgNVHRIEbTBrpGkwZzELMAkGA1UEBhMCSlAxGDAWBgNVBAoMD+aXpeacrOWb
veaUv+W6nDESMBAGA1UECwwJ6K2m5a+f5bqBMSowKAYDVQQLDCHorablr5/luoHp
gYvou6LlhY3oqLHoqLzoqo3oqLzlsYAwgZ8GA1UdHwSBlzCBlDCBkaCBjqCBi6SB
iDCBhTELMAkGA1UEBhMCSlAxHDAaBgNVBAoME0phcGFuZXNlIEdvdmVybm1lbnQx
HzAdBgNVBAsMFk5hdGlvbmFsIFBvbGljZSBBZ2VuY3kxNzA1BgNVBAsMLlByZWZl
Y3R1cmFsIFB1YmxpYyBTYWZldHkgQ29tbWlzc2lvbnMgZm9yIElDREwwDQYJKoZI
hvcNAQELBQADggEBABaPjmxczrthqvSNQKc1FhALOKh+OwFndP232ikbhu2KRoim
4d5bCI7NjnvbwLmLY0rkpEC64UBKtJqW1/KdxTiCOEzN0WD+tD0XYPhfkzxLbRpW
m9K4N29eHCL6fE2XOSqhFrfYX+zjvxaYy0svLG7uizl4rzOr2TFQZqdHvkGqzBzz
Krpziiskde+YYI5potpOmC6JOsSfCQOCjhXpRRbTk83a8jx9kdMsFichnda3MqCd
1869EH3AmPlneTG4y864DtW9Jn2KQHP8eArHxTUuxoYPLTeucbOcaO23cfS90R3/
4Xx6dzFAdOO5VhXFZy4khg6y2vJEAOeXyDSopH8=
-----END CERTIFICATE-----
