Certificate:
    Data:
        Version: 3 (0x2)
        Serial Number:
            33:30:30:30:30:30:31:39:69:8a:e6:c4:48:cf:4f:42:1d:cf
        Signature Algorithm: sha256WithRSAEncryption
        Issuer: C=JP, O=Japanese Government, OU=National Police Agency, OU=NPA ICDL Root CA
        Validity
            Not Before: Jun 19 05:35:10 2023 GMT
            Not After : Jun 18 14:59:59 2028 GMT
        Subject: C=JP, O=Japanese Government, OU=National Police Agency, OU=Prefectural Public Safety Commissions for ICDL, CN=Tochigi AltPPSC
        Subject Public Key Info:
            Public Key Algorithm: rsaEncryption
                Public-Key: (2048 bit)
                Modulus:
                    00:de:96:04:32:81:0e:91:64:2b:aa:1e:d4:a8:4a:
                    86:46:3a:94:97:77:92:13:b3:bd:b1:a6:e6:a6:3f:
                    75:51:ae:cc:e6:15:e0:04:b5:9d:53:72:8c:23:95:
                    e3:76:dd:68:93:c1:ad:5c:fa:a9:eb:b3:6b:03:d9:
                    89:bc:22:f5:73:92:a4:08:25:1e:cd:cf:d8:f1:94:
                    4d:b0:20:48:50:d5:86:31:54:cb:5e:17:4f:ec:e9:
                    5b:6f:4e:c7:4e:d8:54:23:88:c6:5f:42:81:b7:75:
                    01:dd:84:86:da:22:86:1c:a7:58:f0:7e:63:9c:95:
                    cc:22:dd:ac:5a:37:4a:8d:05:b0:81:a3:6f:98:06:
                    11:de:1c:11:dd:30:97:e6:ad:2a:9a:74:27:34:6f:
                    0f:12:42:cd:d8:d2:05:07:c5:42:d7:19:9f:d1:d6:
                    4b:22:78:65:c2:a2:04:b5:de:24:9f:e4:20:0c:ec:
                    10:3f:93:f4:bc:77:68:e5:ca:e4:b3:1a:c7:1b:5e:
                    dd:9c:5a:11:cb:44:20:3d:9f:57:be:9b:ff:21:26:
                    bb:d2:e1:80:d5:36:f2:be:57:67:2a:6c:ef:3e:74:
                    c3:3f:84:e0:1f:fc:5c:d9:58:4f:d7:bc:0e:5f:3b:
                    e3:b5:75:d3:b8:56:e8:81:34:cb:2b:1a:91:27:da:
                    58:ab
                Exponent: 65537 (0x10001)
        X509v3 extensions:
            X509v3 Authority Key Identifier: 
                keyid:11:CD:8E:60:44:47:57:4F:4F:CB:E9:E7:CB:A1:46:DF:BA:0E:50:8B
                DirName:/C=JP/O=Japanese Government/OU=National Police Agency/OU=NPA ICDL Root CA
                serial:32:30:30:30:30:30:31:36
            X509v3 Subject Key Identifier: 
                C2:91:7A:87:FD:1C:D3:6A:E6:25:3D:74:81:A6:F7:A1:62:03:EF:39
            X509v3 Key Usage: critical
                Digital Signature, Non Repudiation
            X509v3 Certificate Policies: critical
                Policy: 1.2.392.100120.7.5.1.1.10
                  CPS: http://www.npa.go.jp/
            X509v3 Issuer Alternative Name: 
                DirName:/C=JP/O=\xE6\x97\xA5\xE6\x9C\xAC\xE5\x9B\xBD\xE6\x94\xBF\xE5\xBA\x9C/OU=\xE8\xAD\xA6\xE5\xAF\x9F\xE5\xBA\x81/OU=\xE8\xAD\xA6\xE5\xAF\x9F\xE5\xBA\x81\xE9\x81\x8B\xE8\xBB\xA2\xE5\x85\x8D\xE8\xA8\xB1\xE8\xA8\xBC\xE8\xAA\x8D\xE8\xA8\xBC\xE5\xB1\x80
            X509v3 CRL Distribution Points: 
                Full Name:
                  DirName:C = JP, O = Japanese Government, OU = National Police Agency, OU = Prefectural Public Safety Commissions for ICDL
    Signature Algorithm: sha256WithRSAEncryption
    Signature Value:
        ab:e3:ef:ce:46:96:e7:c9:11:80:7d:25:ff:0c:c0:ca:9b:0a:
        c6:a0:ea:1a:47:a9:b2:51:c5:f0:13:6f:79:39:ea:be:11:8c:
        ed:1a:0b:57:77:f0:01:97:8b:2d:2e:97:d2:36:fd:0c:b3:05:
        ca:88:4d:2a:05:cb:8b:0c:c2:27:b1:31:86:d3:2c:6e:8e:a9:
        df:2f:fa:c9:f9:b9:6d:44:c6:d1:69:c1:b6:36:2c:32:36:32:
        a3:76:26:8d:bc:5d:3e:d2:77:cb:f4:d7:c3:ce:1b:55:5d:2b:
        1c:a4:42:af:06:8c:53:20:3f:15:a3:ad:cf:2a:fd:d0:0c:08:
        6b:07:c4:65:b3:58:f6:4b:e8:ae:2d:b3:a9:0d:bc:0c:97:63:
        28:75:bc:fa:cb:ce:1e:8a:f4:3f:c3:94:41:86:02:29:d5:c1:
        18:e9:84:c7:4b:6d:2a:5f:df:fd:b0:37:00:ef:78:f9:ff:9a:
        1b:6a:8b:11:5f:90:ee:b1:2b:3e:20:90:0d:c8:e9:9d:e5:25:
        9c:fc:d8:46:e7:cb:7d:18:2d:18:0c:cf:5b:26:70:c1:be:ad:
        62:fe:96:b4:47:b0:21:da:19:f9:d9:d6:fd:51:02:aa:64:e3:
        1f:4b:25:05:03:11:3d:f5:fe:c8:0b:c4:31:79:42:49:e1:aa:
        6d:c7:a0:0b
-----BEGIN CERTIFICATE-----
MIIFvTCCBKWgAwIBAgISMzAwMDAwMTlpiubESM9PQh3PMA0GCSqGSIb3DQEBCwUA
MGcxCzAJBgNVBAYTAkpQMRwwGgYDVQQKDBNKYXBhbmVzZSBHb3Zlcm5tZW50MR8w
HQYDVQQLDBZOYXRpb25hbCBQb2xpY2UgQWdlbmN5MRkwFwYDVQQLDBBOUEEgSUNE
TCBSb290IENBMB4XDTIzMDYxOTA1MzUxMFoXDTI4MDYxODE0NTk1OVowgZ8xCzAJ
BgNVBAYTAkpQMRwwGgYDVQQKDBNKYXBhbmVzZSBHb3Zlcm5tZW50MR8wHQYDVQQL
DBZOYXRpb25hbCBQb2xpY2UgQWdlbmN5MTcwNQYDVQQLDC5QcmVmZWN0dXJhbCBQ
dWJsaWMgU2FmZXR5IENvbW1pc3Npb25zIGZvciBJQ0RMMRgwFgYDVQQDDA9Ub2No
aWdpIEFsdFBQU0MwggEiMA0GCSqGSIb3DQEBAQUAA4IBDwAwggEKAoIBAQDelgQy
gQ6RZCuqHtSoSoZGOpSXd5ITs72xpuamP3VRrszmFeAEtZ1TcowjleN23WiTwa1c
+qnrs2sD2Ym8IvVzkqQIJR7Nz9jxlE2wIEhQ1YYxVMteF0/s6VtvTsdO2FQjiMZf
QoG3dQHdhIbaIoYcp1jwfmOclcwi3axaN0qNBbCBo2+YBhHeHBHdMJfmrSqadCc0
bw8SQs3Y0gUHxULXGZ/R1ksieGXCogS13iSf5CAM7BA/k/S8d2jlyuSzGscbXt2c
WhHLRCA9n1e+m/8hJrvS4YDVNvK+V2cqbO8+dMM/hOAf/FzZWE/XvA5fO+O1ddO4
VuiBNMsrGpEn2lirAgMBAAGjggIoMIICJDCBmAYDVR0jBIGQMIGNgBQRzY5gREdX
T0/L6efLoUbfug5Qi6FrpGkwZzELMAkGA1UEBhMCSlAxHDAaBgNVBAoME0phcGFu
ZXNlIEdvdmVybm1lbnQxHzAdBgNVBAsMFk5hdGlvbmFsIFBvbGljZSBBZ2VuY3kx
GTAXBgNVBAsMEE5QQSBJQ0RMIFJvb3QgQ0GCCDIwMDAwMDE2MB0GA1UdDgQWBBTC
kXqH/RzTauYlPXSBpvehYgPvOTAOBgNVHQ8BAf8EBAMCBsAwQAYDVR0gAQH/BDYw
NDAyBgsqgwiGjhgHBQEBCjAjMCEGCCsGAQUFBwIBFhVodHRwOi8vd3d3Lm5wYS5n
by5qcC8wdAYDVR0SBG0wa6RpMGcxCzAJBgNVBAYTAkpQMRgwFgYDVQQKDA/ml6Xm
nKzlm73mlL/lupwxEjAQBgNVBAsMCeitpuWvn+W6gTEqMCgGA1UECwwh6K2m5a+f
5bqB6YGL6Lui5YWN6Kix6Ki86KqN6Ki85bGAMIGfBgNVHR8EgZcwgZQwgZGggY6g
gYukgYgwgYUxCzAJBgNVBAYTAkpQMRwwGgYDVQQKDBNKYXBhbmVzZSBHb3Zlcm5t
ZW50MR8wHQYDVQQLDBZOYXRpb25hbCBQb2xpY2UgQWdlbmN5MTcwNQYDVQQLDC5Q
cmVmZWN0dXJhbCBQdWJsaWMgU2FmZXR5IENvbW1pc3Npb25zIGZvciBJQ0RMMA0G
CSqGSIb3DQEBCwUAA4IBAQCr4+/ORpbnyRGAfSX/DMDKmwrGoOoaR6myUcXwE295
Oeq+EYztGgtXd/ABl4stLpfSNv0MswXKiE0qBcuLDMInsTGG0yxujqnfL/rJ+blt
RMbRacG2NiwyNjKjdiaNvF0+0nfL9NfDzhtVXSscpEKvBoxTID8Vo63PKv3QDAhr
B8Rls1j2S+iuLbOpDbwMl2Modbz6y84eivQ/w5RBhgIp1cEY6YTHS20qX9/9sDcA
73j5/5obaosRX5DusSs+IJANyOmd5SWc/NhG58t9GC0YDM9bJnDBvq1i/pa0R7Ah
2hn52db9UQKqZOMfSyUFAxE99f7IC8QxeUJJ4aptx6AL
-----END CERTIFICATE-----
