Certificate:
    Data:
        Version: 3 (0x2)
        Serial Number:
            33:30:30:30:30:31:30:30
        Signature Algorithm: sha256WithRSAEncryption
        Issuer: C=JP, O=Japanese Government, OU=National Police Agency, OU=NPA ICDL Root CA
        Validity
            Not Before: Sep 17 07:12:48 2024 GMT
            Not After : Sep 16 14:59:59 2029 GMT
        Subject: C=JP, O=Japanese Government, OU=National Police Agency, OU=Prefectural Public Safety Commissions for ICDL, CN=Tochigi PPSC
        Subject Public Key Info:
            Public Key Algorithm: rsaEncryption
                Public-Key: (2048 bit)
                Modulus:
                    00:c2:0a:f0:f8:b1:2e:1c:8e:e3:52:be:cb:f6:c4:
                    d4:4d:ca:76:5e:19:7c:1a:40:67:84:42:2f:63:5b:
                    85:59:78:a7:fc:8f:f4:87:ff:b1:11:d3:d3:37:ac:
                    94:84:51:d9:f2:7f:78:4f:7a:ae:5f:c4:45:28:e7:
                    78:de:1f:22:c6:e8:15:19:bb:89:52:61:5e:c5:8c:
                    02:d3:9b:03:5d:a7:76:b8:53:16:02:4f:f2:f2:cf:
                    ff:2c:b1:67:5b:42:de:37:4b:8e:3a:09:55:45:68:
                    59:5c:89:36:6e:8e:93:ea:67:c7:dd:a3:81:f3:c1:
                    f5:19:a3:f7:c3:82:9d:d3:d5:ab:f1:b7:b7:a5:aa:
                    10:34:bd:69:01:9b:f0:54:1b:67:57:aa:98:eb:3c:
                    62:fd:61:d2:48:44:f0:d7:1c:65:53:d2:b2:76:a9:
                    06:71:e0:2c:e6:46:47:d5:79:1b:01:80:c8:fc:ee:
                    dc:76:af:50:b6:ce:e1:d9:ee:fb:38:8e:3e:16:48:
                    8e:ee:90:ce:d4:fc:e3:dd:45:15:a0:bc:e3:68:96:
                    fc:69:72:ab:a2:ec:6b:12:23:f6:56:82:b9:40:b4:
                    d8:08:77:2f:7c:6a:c2:15:07:12:02:ed:d7:ab:13:
                    3e:08:25:78:a5:ad:c6:cc:95:cf:2a:e9:a5:ca:83:
                    3f:9d
                Exponent: 65537 (0x10001)
        X509v3 extensions:
            X509v3 Authority Key Identifier: 
                keyid:11:CD:8E:60:44:47:57:4F:4F:CB:E9:E7:CB:A1:46:DF:BA:0E:50:8B
                DirName:/C=JP/O=Japanese Government/OU=National Police Agency/OU=NPA ICDL Root CA
                serial:32:30:30:30:30:30:31:36
            X509v3 Subject Key Identifier: 
                24:EE:BE:E7:99:EF:CD:B8:0C:BE:7F:2F:5E:C6:23:CF:BF:47:EB:C4
            X509v3 Key Usage: critical
                Digital Signature, Non Repudiation
            X509v3 Certificate Policies: critical
                Policy: 1.2.392.100120.7.5.1.1.10
                  CPS: http://www.npa.go.jp/
            X509v3 Subject Alternative Name: 
                DirName:/C=JP/O=\xE6\x97\xA5\xE6\x9C\xAC\xE5\x9B\xBD\xE6\x94\xBF\xE5\xBA\x9C/OU=\xE8\xAD\xA6\xE5\xAF\x9F\xE5\xBA\x81/OU=\xE9\x83\xBD\xE9\x81\x93\xE5\xBA\x9C\xE7\x9C\x8C\xE5\x85\xAC\xE5\xAE\x89\xE5\xA7\x94\xE5\x93\xA1\xE4\xBC\x9A
            X509v3 Issuer Alternative Name: 
                DirName:/C=JP/O=\xE6\x97\xA5\xE6\x9C\xAC\xE5\x9B\xBD\xE6\x94\xBF\xE5\xBA\x9C/OU=\xE8\xAD\xA6\xE5\xAF\x9F\xE5\xBA\x81/OU=\xE8\xAD\xA6\xE5\xAF\x9F\xE5\xBA\x81\xE9\x81\x8B\xE8\xBB\xA2\xE5\x85\x8D\xE8\xA8\xB1\xE8\xA8\xBC\xE8\xAA\x8D\xE8\xA8\xBC\xE5\xB1\x80
            X509v3 CRL Distribution Points: 
                Full Name:
                  DirName:C = JP, O = Japanese Government, OU = National Police Agency, OU = Prefectural Public Safety Commissions for ICDL
    Signature Algorithm: sha256WithRSAEncryption
    Signature Value:
        60:3c:05:1c:3d:aa:99:9b:74:14:3e:07:d5:9f:7f:07:bc:1f:
        9e:2d:98:7e:e7:c8:39:11:46:0f:fe:a8:51:7e:90:f1:bb:a0:
        1c:76:44:be:8b:0b:e0:76:df:4d:92:2d:9c:27:4d:49:2e:a3:
        8d:41:0b:66:8c:be:00:2c:85:24:27:9a:c7:f5:57:c0:f3:e0:
        cd:89:8a:5b:d7:6e:6f:ac:01:3a:ef:4c:e6:e8:a0:95:56:05:
        60:80:fa:67:da:93:e0:e8:f2:86:ac:82:7f:62:cc:51:ac:c7:
        40:c5:77:e2:51:72:1a:3b:df:f7:7a:47:39:7f:e8:1a:aa:38:
        2a:02:a5:59:3c:bd:09:13:95:72:cd:6d:e4:3f:bb:4b:2c:2a:
        b6:96:47:12:0c:fd:63:aa:ef:a5:62:6e:0c:e1:04:af:96:e3:
        b0:33:f8:c8:c6:6c:e6:a3:9b:99:71:87:aa:cb:4c:64:e2:65:
        e3:25:cf:da:b8:52:c6:20:e4:cc:7e:cd:eb:04:8e:64:37:ce:
        24:86:63:cc:a0:9b:9f:e2:81:7c:c0:01:57:19:a4:c4:0a:65:
        ae:80:07:dd:f3:7d:64:ed:b9:4f:f6:67:23:47:f5:ec:54:16:
        cf:68:e0:31:ab:ec:bc:79:11:2c:93:76:8d:1f:26:b4:f0:3f:
        ce:7a:f8:8b
-----BEGIN CERTIFICATE-----
MIIGSDCCBTCgAwIBAgIIMzAwMDAxMDAwDQYJKoZIhvcNAQELBQAwZzELMAkGA1UE
BhMCSlAxHDAaBgNVBAoME0phcGFuZXNlIEdvdmVybm1lbnQxHzAdBgNVBAsMFk5h
dGlvbmFsIFBvbGljZSBBZ2VuY3kxGTAXBgNVBAsMEE5QQSBJQ0RMIFJvb3QgQ0Ew
HhcNMjQwOTE3MDcxMjQ4WhcNMjkwOTE2MTQ1OTU5WjCBnDELMAkGA1UEBhMCSlAx
HDAaBgNVBAoME0phcGFuZXNlIEdvdmVybm1lbnQxHzAdBgNVBAsMFk5hdGlvbmFs
IFBvbGljZSBBZ2VuY3kxNzA1BgNVBAsMLlByZWZlY3R1cmFsIFB1YmxpYyBTYWZl
dHkgQ29tbWlzc2lvbnMgZm9yIElDREwxFTATBgNVBAMMDFRvY2hpZ2kgUFBTQzCC
ASIwDQYJKoZIhvcNAQEBBQADggEPADCCAQoCggEBAMIK8PixLhyO41K+y/bE1E3K
dl4ZfBpAZ4RCL2NbhVl4p/yP9If/sRHT0zeslIRR2fJ/eE96rl/ERSjneN4fIsbo
FRm7iVJhXsWMAtObA12ndrhTFgJP8vLP/yyxZ1tC3jdLjjoJVUVoWVyJNm6Ok+pn
x92jgfPB9Rmj98OCndPVq/G3t6WqEDS9aQGb8FQbZ1eqmOs8Yv1h0khE8NccZVPS
snapBnHgLOZGR9V5GwGAyPzu3HavULbO4dnu+ziOPhZIju6QztT8491FFaC842iW
/Glyq6LsaxIj9laCuUC02Ah3L3xqwhUHEgLt16sTPggleKWtxsyVzyrppcqDP50C
AwEAAaOCAsAwggK8MIGYBgNVHSMEgZAwgY2AFBHNjmBER1dPT8vp58uhRt+6DlCL
oWukaTBnMQswCQYDVQQGEwJKUDEcMBoGA1UECgwTSmFwYW5lc2UgR292ZXJubWVu
dDEfMB0GA1UECwwWTmF0aW9uYWwgUG9saWNlIEFnZW5jeTEZMBcGA1UECwwQTlBB
IElDREwgUm9vdCBDQYIIMjAwMDAwMTYwHQYDVR0OBBYEFCTuvueZ7824DL5/L17G
I8+/R+vEMA4GA1UdDwEB/wQEAwIGwDBABgNVHSABAf8ENjA0MDIGCyqDCIaOGAcF
AQEKMCMwIQYIKwYBBQUHAgEWFWh0dHA6Ly93d3cubnBhLmdvLmpwLzCBlQYDVR0R
BIGNMIGKpIGHMIGEMQswCQYDVQQGEwJKUDEYMBYGA1UECgwP5pel5pys5Zu95pS/
5bqcMRIwEAYDVQQLDAnorablr5/luoExJDAiBgNVBAsMG+mDvemBk+W6nOecjOWF
rOWuieWnlOWToeS8mjEhMB8GA1UEAwwY5qCD5pyo55yM5YWs5a6J5aeU5ZOh5Lya
MHQGA1UdEgRtMGukaTBnMQswCQYDVQQGEwJKUDEYMBYGA1UECgwP5pel5pys5Zu9
5pS/5bqcMRIwEAYDVQQLDAnorablr5/luoExKjAoBgNVBAsMIeitpuWvn+W6gemB
i+i7ouWFjeioseiovOiqjeiovOWxgDCBnwYDVR0fBIGXMIGUMIGRoIGOoIGLpIGI
MIGFMQswCQYDVQQGEwJKUDEcMBoGA1UECgwTSmFwYW5lc2UgR292ZXJubWVudDEf
MB0GA1UECwwWTmF0aW9uYWwgUG9saWNlIEFnZW5jeTE3MDUGA1UECwwuUHJlZmVj
dHVyYWwgUHVibGljIFNhZmV0eSBDb21taXNzaW9ucyBmb3IgSUNETDANBgkqhkiG
9w0BAQsFAAOCAQEAYDwFHD2qmZt0FD4H1Z9/B7wfni2YfufIORFGD/6oUX6Q8bug
HHZEvosL4HbfTZItnCdNSS6jjUELZoy+ACyFJCeax/VXwPPgzYmKW9dub6wBOu9M
5uiglVYFYID6Z9qT4OjyhqyCf2LMUazHQMV34lFyGjvf93pHOX/oGqo4KgKlWTy9
CROVcs1t5D+7SywqtpZHEgz9Y6rvpWJuDOEEr5bjsDP4yMZs5qObmXGHqstMZOJl
4yXP2rhSxiDkzH7N6wSOZDfOJIZjzKCbn+KBfMABVxmkxAplroAH3fN9ZO25T/Zn
I0f17FQWz2jgMavsvHkRLJN2jR8mtPA/znr4iw==
-----END CERTIFICATE-----
