Certificate:
    Data:
        Version: 3 (0x2)
        Serial Number:
            32:30:30:30:30:30:34:38
        Signature Algorithm: sha256WithRSAEncryption
        Issuer: C=JP, O=Japanese Government, OU=National Police Agency, OU=NPA ICDL Root CA
        Validity
            Not Before: Feb  6 01:53:24 2023 GMT
            Not After : Feb  5 14:59:59 2028 GMT
        Subject: C=JP, O=Japanese Government, OU=National Police Agency, OU=Prefectural Public Safety Commissions for ICDL, CN=Tochigi PPSC
        Subject Public Key Info:
            Public Key Algorithm: rsaEncryption
                Public-Key: (2048 bit)
                Modulus:
                    00:9d:55:72:cb:8c:e8:14:26:68:ea:ec:36:0e:40:
                    ba:00:46:e2:c8:f7:a4:ec:1b:ad:4c:82:01:d7:06:
                    a5:20:7d:42:60:35:b6:06:a1:4f:47:a7:ae:ce:fd:
                    00:39:da:ca:8d:45:9c:17:6a:32:56:59:98:a2:3f:
                    ae:22:43:f6:51:62:be:77:ef:ae:be:e6:1c:22:f0:
                    08:55:8a:61:4b:9b:d3:04:df:f9:7c:97:0e:a7:36:
                    ec:9f:21:05:03:4a:49:21:ba:21:84:5c:07:49:03:
                    f4:83:42:9d:eb:93:cb:cc:e5:e8:70:12:6a:1f:cb:
                    5e:1a:60:85:dd:c9:58:4b:91:5d:30:7f:dd:83:d9:
                    75:58:b5:df:e1:8b:fd:ab:d0:1d:23:3c:1e:da:a9:
                    82:a5:e3:8c:c7:31:34:04:b6:92:e9:a9:77:d5:6f:
                    14:18:36:6f:5d:5f:9b:fa:cd:e8:af:b2:1e:4b:3f:
                    90:5f:8e:c9:cb:f2:e8:a6:01:0d:61:a9:a3:26:d8:
                    d3:4c:da:d0:eb:8f:e1:45:0b:1a:44:f8:65:ef:7b:
                    da:b3:4a:d1:2f:42:7c:40:11:24:58:13:8c:53:07:
                    eb:3b:26:8a:44:3b:cc:17:0e:2d:0d:bf:50:f2:31:
                    2d:f5:e3:fe:69:de:b4:eb:e0:f9:02:6a:01:3a:76:
                    d3:f5
                Exponent: 65537 (0x10001)
        X509v3 extensions:
            X509v3 Authority Key Identifier: 
                keyid:11:CD:8E:60:44:47:57:4F:4F:CB:E9:E7:CB:A1:46:DF:BA:0E:50:8B
                DirName:/C=JP/O=Japanese Government/OU=National Police Agency/OU=NPA ICDL Root CA
                serial:32:30:30:30:30:30:31:36
            X509v3 Subject Key Identifier: 
                B2:99:DF:64:1C:B9:D3:EA:60:9C:7F:52:46:EC:0D:AA:DB:E4:03:7D
            X509v3 Key Usage: critical
                Digital Signature, Non Repudiation
            X509v3 Certificate Policies: critical
                Policy: 1.2.392.100120.7.5.1.1.10
                  CPS: http://www.npa.go.jp/
            X509v3 Subject Alternative Name: 
                DirName:/C=JP/O=\xE6\x97\xA5\xE6\x9C\xAC\xE5\x9B\xBD\xE6\x94\xBF\xE5\xBA\x9C/OU=\xE8\xAD\xA6\xE5\xAF\x9F\xE5\xBA\x81/OU=\xE9\x83\xBD\xE9\x81\x93\xE5\xBA\x9C\xE7\x9C\x8C\xE5\x85\xAC\xE5\xAE\x89\xE5\xA7\x94\xE5\x93\xA1\xE4\xBC\x9A
            X509v3 Issuer Alternative Name: 
                DirName:/C=JP/O=\xE6\x97\xA5\xE6\x9C\xAC\xE5\x9B\xBD\xE6\x94\xBF\xE5\xBA\x9C/OU=\xE8\xAD\xA6\xE5\xAF\x9F\xE5\xBA\x81/OU=\xE8\xAD\xA6\xE5\xAF\x9F\xE5\xBA\x81\xE9\x81\x8B\xE8\xBB\xA2\xE5\x85\x8D\xE8\xA8\xB1\xE8\xA8\xBC\xE8\xAA\x8D\xE8\xA8\xBC\xE5\xB1\x80
            X509v3 CRL Distribution Points: 
                Full Name:
                  DirName:C = JP, O = Japanese Government, OU = National Police Agency, OU = Prefectural Public Safety Commissions for ICDL
    Signature Algorithm: sha256WithRSAEncryption
    Signature Value:
        3f:da:d8:46:46:dd:70:3a:a4:dd:c0:0c:f9:e8:a3:fb:08:0b:
        aa:56:5c:fb:df:55:05:d7:fd:ea:46:3e:0c:e2:10:f2:1f:d1:
        d4:13:a9:d1:93:50:9d:4e:3d:a6:a3:eb:bd:df:60:2f:e8:f2:
        0d:eb:4e:e6:4b:15:24:d1:f9:07:e6:0c:c1:b1:48:12:26:a9:
        a6:41:25:9b:fa:6f:ff:d2:8f:03:e4:cc:3e:cd:4d:30:a5:ff:
        ab:f5:8a:6f:39:b1:ae:57:e1:33:de:e4:9c:11:55:f3:68:ea:
        6b:fc:e3:9f:35:b3:87:06:b3:0a:1e:b9:42:a9:a8:29:ed:df:
        20:31:a3:70:40:25:f3:8a:12:b5:5a:df:eb:e3:2c:c6:f7:1c:
        8c:9a:05:dd:6b:ce:f0:fc:07:f8:52:a6:e3:c4:a5:b6:0a:f8:
        3c:a4:7e:a1:d3:0e:2f:09:c7:6c:67:1b:ed:ed:4d:f7:f0:6b:
        67:61:ae:32:c1:3f:12:4b:c0:76:12:89:90:14:0e:c8:28:20:
        69:e3:26:7e:68:82:42:80:48:ac:7a:8e:6c:66:a1:33:fb:fe:
        c6:37:8b:13:2c:9b:a8:3a:11:2f:90:9f:1c:49:ee:0c:20:ce:
        bd:92:80:11:26:fd:b7:31:74:5f:83:ac:63:b8:1f:e9:a0:e5:
        26:2a:99:60
-----BEGIN CERTIFICATE-----
MIIGSDCCBTCgAwIBAgIIMjAwMDAwNDgwDQYJKoZIhvcNAQELBQAwZzELMAkGA1UE
BhMCSlAxHDAaBgNVBAoME0phcGFuZXNlIEdvdmVybm1lbnQxHzAdBgNVBAsMFk5h
dGlvbmFsIFBvbGljZSBBZ2VuY3kxGTAXBgNVBAsMEE5QQSBJQ0RMIFJvb3QgQ0Ew
HhcNMjMwMjA2MDE1MzI0WhcNMjgwMjA1MTQ1OTU5WjCBnDELMAkGA1UEBhMCSlAx
HDAaBgNVBAoME0phcGFuZXNlIEdvdmVybm1lbnQxHzAdBgNVBAsMFk5hdGlvbmFs
IFBvbGljZSBBZ2VuY3kxNzA1BgNVBAsMLlByZWZlY3R1cmFsIFB1YmxpYyBTYWZl
dHkgQ29tbWlzc2lvbnMgZm9yIElDREwxFTATBgNVBAMMDFRvY2hpZ2kgUFBTQzCC
ASIwDQYJKoZIhvcNAQEBBQADggEPADCCAQoCggEBAJ1VcsuM6BQmaOrsNg5AugBG
4sj3pOwbrUyCAdcGpSB9QmA1tgahT0enrs79ADnayo1FnBdqMlZZmKI/riJD9lFi
vnfvrr7mHCLwCFWKYUub0wTf+XyXDqc27J8hBQNKSSG6IYRcB0kD9INCneuTy8zl
6HASah/LXhpghd3JWEuRXTB/3YPZdVi13+GL/avQHSM8HtqpgqXjjMcxNAS2kump
d9VvFBg2b11fm/rN6K+yHks/kF+Oycvy6KYBDWGpoybY00za0OuP4UULGkT4Ze97
2rNK0S9CfEARJFgTjFMH6zsmikQ7zBcOLQ2/UPIxLfXj/mnetOvg+QJqATp20/UC
AwEAAaOCAsAwggK8MIGYBgNVHSMEgZAwgY2AFBHNjmBER1dPT8vp58uhRt+6DlCL
oWukaTBnMQswCQYDVQQGEwJKUDEcMBoGA1UECgwTSmFwYW5lc2UgR292ZXJubWVu
dDEfMB0GA1UECwwWTmF0aW9uYWwgUG9saWNlIEFnZW5jeTEZMBcGA1UECwwQTlBB
IElDREwgUm9vdCBDQYIIMjAwMDAwMTYwHQYDVR0OBBYEFLKZ32QcudPqYJx/Ukbs
Darb5AN9MA4GA1UdDwEB/wQEAwIGwDBABgNVHSABAf8ENjA0MDIGCyqDCIaOGAcF
AQEKMCMwIQYIKwYBBQUHAgEWFWh0dHA6Ly93d3cubnBhLmdvLmpwLzCBlQYDVR0R
BIGNMIGKpIGHMIGEMQswCQYDVQQGEwJKUDEYMBYGA1UECgwP5pel5pys5Zu95pS/
5bqcMRIwEAYDVQQLDAnorablr5/luoExJDAiBgNVBAsMG+mDvemBk+W6nOecjOWF
rOWuieWnlOWToeS8mjEhMB8GA1UEAwwY5qCD5pyo55yM5YWs5a6J5aeU5ZOh5Lya
MHQGA1UdEgRtMGukaTBnMQswCQYDVQQGEwJKUDEYMBYGA1UECgwP5pel5pys5Zu9
5pS/5bqcMRIwEAYDVQQLDAnorablr5/luoExKjAoBgNVBAsMIeitpuWvn+W6gemB
i+i7ouWFjeioseiovOiqjeiovOWxgDCBnwYDVR0fBIGXMIGUMIGRoIGOoIGLpIGI
MIGFMQswCQYDVQQGEwJKUDEcMBoGA1UECgwTSmFwYW5lc2UgR292ZXJubWVudDEf
MB0GA1UECwwWTmF0aW9uYWwgUG9saWNlIEFnZW5jeTE3MDUGA1UECwwuUHJlZmVj
dHVyYWwgUHVibGljIFNhZmV0eSBDb21taXNzaW9ucyBmb3IgSUNETDANBgkqhkiG
9w0BAQsFAAOCAQEAP9rYRkbdcDqk3cAM+eij+wgLqlZc+99VBdf96kY+DOIQ8h/R
1BOp0ZNQnU49pqPrvd9gL+jyDetO5ksVJNH5B+YMwbFIEiappkElm/pv/9KPA+TM
Ps1NMKX/q/WKbzmxrlfhM97knBFV82jqa/zjnzWzhwazCh65QqmoKe3fIDGjcEAl
84oStVrf6+MsxvccjJoF3WvO8PwH+FKm48Sltgr4PKR+odMOLwnHbGcb7e1N9/Br
Z2GuMsE/EkvAdhKJkBQOyCggaeMmfmiCQoBIrHqObGahM/v+xjeLEyybqDoRL5Cf
HEnuDCDOvZKAESb9tzF0X4OsY7gf6aDlJiqZYA==
-----END CERTIFICATE-----
