Certificate:
    Data:
        Version: 3 (0x2)
        Serial Number:
            32:30:30:30:30:30:37:30
        Signature Algorithm: sha256WithRSAEncryption
        Issuer: C=JP, O=Japanese Government, OU=National Police Agency, OU=NPA ICDL Root CA
        Validity
            Not Before: Feb  6 04:19:34 2023 GMT
            Not After : Feb  5 14:59:59 2028 GMT
        Subject: C=JP, O=Japanese Government, OU=National Police Agency, OU=Prefectural Public Safety Commissions for ICDL, CN=Tokushima PPSC
        Subject Public Key Info:
            Public Key Algorithm: rsaEncryption
                Public-Key: (2048 bit)
                Modulus:
                    00:ab:80:02:46:63:d8:0d:6a:da:5b:08:bc:ac:fe:
                    f3:eb:b3:72:83:11:d3:c1:0d:e6:3d:01:d8:b7:3f:
                    85:54:9f:e8:5e:fb:77:63:c9:6a:71:00:1b:75:26:
                    95:e9:1f:6a:1a:a9:e8:7e:e8:bc:3b:92:6b:db:41:
                    77:ed:7b:61:32:3c:02:ee:4e:a2:e5:aa:fb:13:a2:
                    35:59:27:bf:3a:6b:44:49:5f:43:c9:7f:7b:ca:03:
                    f5:81:93:f6:78:7a:91:79:f9:6b:01:4e:fe:eb:44:
                    24:70:62:1e:88:53:33:99:56:b6:96:25:bf:76:bb:
                    63:bb:42:89:e2:3f:c6:d4:55:bc:7d:b2:50:52:8b:
                    49:89:02:b0:43:29:b7:c9:c0:f2:a3:32:06:89:ec:
                    ad:c3:97:03:55:00:b0:e3:3d:51:23:39:57:2b:48:
                    45:a2:ba:3a:aa:71:44:e9:10:9a:5a:7d:52:19:ed:
                    f6:a8:5d:fc:d1:8e:3e:36:ae:c8:c4:24:7a:c2:ba:
                    7f:95:59:2b:8a:d2:d1:8b:ce:95:fb:f6:99:be:84:
                    38:ba:0e:15:de:3d:37:9b:2a:d4:6c:8c:e8:e1:10:
                    0a:86:58:8b:50:42:60:0e:14:dd:a5:23:e5:1f:79:
                    ea:d5:4b:cd:e3:53:47:c2:e0:f4:f9:6e:b6:f3:05:
                    6a:7b
                Exponent: 65537 (0x10001)
        X509v3 extensions:
            X509v3 Authority Key Identifier: 
                keyid:11:CD:8E:60:44:47:57:4F:4F:CB:E9:E7:CB:A1:46:DF:BA:0E:50:8B
                DirName:/C=JP/O=Japanese Government/OU=National Police Agency/OU=NPA ICDL Root CA
                serial:32:30:30:30:30:30:31:36
            X509v3 Subject Key Identifier: 
                EF:68:5D:5F:76:9F:E8:43:5D:0B:68:21:1B:91:F9:FF:A6:75:35:D7
            X509v3 Key Usage: critical
                Digital Signature, Non Repudiation
            X509v3 Certificate Policies: critical
                Policy: 1.2.392.100120.7.5.1.1.10
                  CPS: http://www.npa.go.jp/
            X509v3 Subject Alternative Name: 
                DirName:/C=JP/O=\xE6\x97\xA5\xE6\x9C\xAC\xE5\x9B\xBD\xE6\x94\xBF\xE5\xBA\x9C/OU=\xE8\xAD\xA6\xE5\xAF\x9F\xE5\xBA\x81/OU=\xE9\x83\xBD\xE9\x81\x93\xE5\xBA\x9C\xE7\x9C\x8C\xE5\x85\xAC\xE5\xAE\x89\xE5\xA7\x94\xE5\x93\xA1\xE4\xBC\x9A
            X509v3 Issuer Alternative Name: 
                DirName:/C=JP/O=\xE6\x97\xA5\xE6\x9C\xAC\xE5\x9B\xBD\xE6\x94\xBF\xE5\xBA\x9C/OU=\xE8\xAD\xA6\xE5\xAF\x9F\xE5\xBA\x81/OU=\xE8\xAD\xA6\xE5\xAF\x9F\xE5\xBA\x81\xE9\x81\x8B\xE8\xBB\xA2\xE5\x85\x8D\xE8\xA8\xB1\xE8\xA8\xBC\xE8\xAA\x8D\xE8\xA8\xBC\xE5\xB1\x80
            X509v3 CRL Distribution Points: 
                Full Name:
                  DirName:C = JP, O = Japanese Government, OU = National Police Agency, OU = Prefectural Public Safety Commissions for ICDL
    Signature Algorithm: sha256WithRSAEncryption
    Signature Value:
        3e:14:f0:a5:c7:8e:3f:6e:da:e3:43:5a:ff:05:ee:2b:78:92:
        a5:e3:9b:07:33:8d:b3:31:a2:68:6b:92:98:8f:96:17:75:5c:
        b7:50:3f:bb:b2:c0:09:55:89:a7:1a:8b:c4:a5:15:71:67:b3:
        e0:1e:26:da:37:4d:d7:10:ae:9c:b1:c8:43:20:99:0a:98:1a:
        7a:cf:e9:39:2b:1e:96:c2:be:08:63:63:ab:37:57:85:58:5c:
        6c:82:40:64:0e:67:8e:d3:57:9f:39:84:e4:cb:b6:f9:0b:16:
        68:2b:ae:23:5c:e5:2d:ae:7e:64:7e:79:a6:e1:3b:63:6c:3f:
        fc:31:a0:9d:02:4f:2c:6d:57:45:d5:9d:44:56:1c:b2:c8:b0:
        bf:dc:27:c5:4c:0e:64:3d:0a:52:8e:96:c6:96:09:4a:7d:fa:
        0b:3b:4a:60:b3:b2:dd:0b:13:db:68:da:c7:46:7a:0e:cb:55:
        9d:03:f7:a6:6b:2d:81:d8:b9:40:10:fb:2d:a3:43:bd:1a:c4:
        71:93:80:89:90:b4:3b:ee:57:f8:bd:b3:60:f1:10:2a:cb:93:
        a3:3d:88:4f:2a:22:64:5a:05:d1:3c:f8:73:86:75:01:17:6a:
        a6:88:5e:48:08:d9:74:c2:2f:e8:ff:a3:33:9b:b9:6f:bc:70:
        b3:86:0e:c3
-----BEGIN CERTIFICATE-----
MIIGSjCCBTKgAwIBAgIIMjAwMDAwNzAwDQYJKoZIhvcNAQELBQAwZzELMAkGA1UE
BhMCSlAxHDAaBgNVBAoME0phcGFuZXNlIEdvdmVybm1lbnQxHzAdBgNVBAsMFk5h
dGlvbmFsIFBvbGljZSBBZ2VuY3kxGTAXBgNVBAsMEE5QQSBJQ0RMIFJvb3QgQ0Ew
HhcNMjMwMjA2MDQxOTM0WhcNMjgwMjA1MTQ1OTU5WjCBnjELMAkGA1UEBhMCSlAx
HDAaBgNVBAoME0phcGFuZXNlIEdvdmVybm1lbnQxHzAdBgNVBAsMFk5hdGlvbmFs
IFBvbGljZSBBZ2VuY3kxNzA1BgNVBAsMLlByZWZlY3R1cmFsIFB1YmxpYyBTYWZl
dHkgQ29tbWlzc2lvbnMgZm9yIElDREwxFzAVBgNVBAMMDlRva3VzaGltYSBQUFND
MIIBIjANBgkqhkiG9w0BAQEFAAOCAQ8AMIIBCgKCAQEAq4ACRmPYDWraWwi8rP7z
67NygxHTwQ3mPQHYtz+FVJ/oXvt3Y8lqcQAbdSaV6R9qGqnofui8O5Jr20F37Xth
MjwC7k6i5ar7E6I1WSe/OmtESV9DyX97ygP1gZP2eHqReflrAU7+60QkcGIeiFMz
mVa2liW/drtju0KJ4j/G1FW8fbJQUotJiQKwQym3ycDyozIGieytw5cDVQCw4z1R
IzlXK0hForo6qnFE6RCaWn1SGe32qF380Y4+Nq7IxCR6wrp/lVkritLRi86V+/aZ
voQ4ug4V3j03myrUbIzo4RAKhliLUEJgDhTdpSPlH3nq1UvN41NHwuD0+W628wVq
ewIDAQABo4ICwDCCArwwgZgGA1UdIwSBkDCBjYAUEc2OYERHV09Py+nny6FG37oO
UIuha6RpMGcxCzAJBgNVBAYTAkpQMRwwGgYDVQQKDBNKYXBhbmVzZSBHb3Zlcm5t
ZW50MR8wHQYDVQQLDBZOYXRpb25hbCBQb2xpY2UgQWdlbmN5MRkwFwYDVQQLDBBO
UEEgSUNETCBSb290IENBgggyMDAwMDAxNjAdBgNVHQ4EFgQU72hdX3af6ENdC2gh
G5H5/6Z1NdcwDgYDVR0PAQH/BAQDAgbAMEAGA1UdIAEB/wQ2MDQwMgYLKoMIho4Y
BwUBAQowIzAhBggrBgEFBQcCARYVaHR0cDovL3d3dy5ucGEuZ28uanAvMIGVBgNV
HREEgY0wgYqkgYcwgYQxCzAJBgNVBAYTAkpQMRgwFgYDVQQKDA/ml6XmnKzlm73m
lL/lupwxEjAQBgNVBAsMCeitpuWvn+W6gTEkMCIGA1UECwwb6YO96YGT5bqc55yM
5YWs5a6J5aeU5ZOh5LyaMSEwHwYDVQQDDBjlvrPls7bnnIzlhazlronlp5Tlk6Hk
vJowdAYDVR0SBG0wa6RpMGcxCzAJBgNVBAYTAkpQMRgwFgYDVQQKDA/ml6XmnKzl
m73mlL/lupwxEjAQBgNVBAsMCeitpuWvn+W6gTEqMCgGA1UECwwh6K2m5a+f5bqB
6YGL6Lui5YWN6Kix6Ki86KqN6Ki85bGAMIGfBgNVHR8EgZcwgZQwgZGggY6ggYuk
gYgwgYUxCzAJBgNVBAYTAkpQMRwwGgYDVQQKDBNKYXBhbmVzZSBHb3Zlcm5tZW50
MR8wHQYDVQQLDBZOYXRpb25hbCBQb2xpY2UgQWdlbmN5MTcwNQYDVQQLDC5QcmVm
ZWN0dXJhbCBQdWJsaWMgU2FmZXR5IENvbW1pc3Npb25zIGZvciBJQ0RMMA0GCSqG
SIb3DQEBCwUAA4IBAQA+FPClx44/btrjQ1r/Be4reJKl45sHM42zMaJoa5KYj5YX
dVy3UD+7ssAJVYmnGovEpRVxZ7PgHibaN03XEK6cschDIJkKmBp6z+k5Kx6Wwr4I
Y2OrN1eFWFxsgkBkDmeO01efOYTky7b5CxZoK64jXOUtrn5kfnmm4TtjbD/8MaCd
Ak8sbVdF1Z1EVhyyyLC/3CfFTA5kPQpSjpbGlglKffoLO0pgs7LdCxPbaNrHRnoO
y1WdA/emay2B2LlAEPsto0O9GsRxk4CJkLQ77lf4vbNg8RAqy5OjPYhPKiJkWgXR
PPhzhnUBF2qmiF5ICNl0wi/o/6Mzm7lvvHCzhg7D
-----END CERTIFICATE-----
