Certificate:
    Data:
        Version: 3 (0x2)
        Serial Number:
            33:30:30:30:30:31:31:36
        Signature Algorithm: sha256WithRSAEncryption
        Issuer: C=JP, O=Japanese Government, OU=National Police Agency, OU=NPA ICDL Root CA
        Validity
            Not Before: Sep 17 07:41:19 2024 GMT
            Not After : Sep 16 14:59:59 2029 GMT
        Subject: C=JP, O=Japanese Government, OU=National Police Agency, OU=Prefectural Public Safety Commissions for ICDL, CN=Tokushima PPSC
        Subject Public Key Info:
            Public Key Algorithm: rsaEncryption
                Public-Key: (2048 bit)
                Modulus:
                    00:c4:08:8a:57:5b:41:cb:2d:ce:da:d6:a0:b6:87:
                    cb:40:3a:f7:a7:93:ee:74:fe:04:4c:0d:97:18:04:
                    16:c0:cd:72:18:e8:e9:76:8a:cd:cc:74:ef:80:fb:
                    ea:6b:67:cd:70:cc:c6:62:d9:20:e2:2c:69:66:db:
                    f1:a3:72:b5:57:d9:d3:5f:31:ff:e3:8a:51:51:92:
                    ab:ec:9e:71:52:fd:fc:0d:ae:25:c3:e0:50:74:37:
                    74:dd:5d:43:5f:e7:4f:c5:64:4c:3d:08:7e:d1:4f:
                    ad:61:a2:22:b6:47:ef:10:6c:94:13:6a:c2:48:31:
                    5f:6c:f3:5a:19:ea:a1:fd:e9:47:36:38:c6:fc:4d:
                    8d:e8:d0:bc:08:ff:54:0d:8c:db:9b:55:33:a9:07:
                    ad:5a:f6:af:33:91:fd:62:94:a4:8a:b2:90:35:a2:
                    18:80:10:aa:19:4c:09:91:ed:ff:23:91:cd:59:48:
                    91:a8:7d:9c:a0:b6:be:99:bb:87:0d:a8:d8:f6:6e:
                    89:ac:2f:8b:12:ef:f2:ba:77:53:17:d1:fc:6e:e5:
                    5c:50:65:ea:9b:6e:1e:12:bc:f7:a2:3f:3c:42:04:
                    3f:bd:67:21:2c:e9:7f:51:d0:97:83:1c:8d:06:3e:
                    f7:f7:4d:79:2e:57:fd:2a:68:45:7b:61:24:22:85:
                    ea:9f
                Exponent: 65537 (0x10001)
        X509v3 extensions:
            X509v3 Authority Key Identifier: 
                keyid:11:CD:8E:60:44:47:57:4F:4F:CB:E9:E7:CB:A1:46:DF:BA:0E:50:8B
                DirName:/C=JP/O=Japanese Government/OU=National Police Agency/OU=NPA ICDL Root CA
                serial:32:30:30:30:30:30:31:36
            X509v3 Subject Key Identifier: 
                FE:AD:18:4C:B8:C5:0A:F6:B6:63:3B:C3:FF:34:93:79:C4:DD:D2:55
            X509v3 Key Usage: critical
                Digital Signature, Non Repudiation
            X509v3 Certificate Policies: critical
                Policy: 1.2.392.100120.7.5.1.1.10
                  CPS: http://www.npa.go.jp/
            X509v3 Subject Alternative Name: 
                DirName:/C=JP/O=\xE6\x97\xA5\xE6\x9C\xAC\xE5\x9B\xBD\xE6\x94\xBF\xE5\xBA\x9C/OU=\xE8\xAD\xA6\xE5\xAF\x9F\xE5\xBA\x81/OU=\xE9\x83\xBD\xE9\x81\x93\xE5\xBA\x9C\xE7\x9C\x8C\xE5\x85\xAC\xE5\xAE\x89\xE5\xA7\x94\xE5\x93\xA1\xE4\xBC\x9A
            X509v3 Issuer Alternative Name: 
                DirName:/C=JP/O=\xE6\x97\xA5\xE6\x9C\xAC\xE5\x9B\xBD\xE6\x94\xBF\xE5\xBA\x9C/OU=\xE8\xAD\xA6\xE5\xAF\x9F\xE5\xBA\x81/OU=\xE8\xAD\xA6\xE5\xAF\x9F\xE5\xBA\x81\xE9\x81\x8B\xE8\xBB\xA2\xE5\x85\x8D\xE8\xA8\xB1\xE8\xA8\xBC\xE8\xAA\x8D\xE8\xA8\xBC\xE5\xB1\x80
            X509v3 CRL Distribution Points: 
                Full Name:
                  DirName:C = JP, O = Japanese Government, OU = National Police Agency, OU = Prefectural Public Safety Commissions for ICDL
    Signature Algorithm: sha256WithRSAEncryption
    Signature Value:
        74:d4:39:78:6b:2b:fc:e5:d8:fb:40:3b:a9:b7:fd:0d:94:a8:
        76:ee:b8:01:f2:05:18:e4:27:b7:f7:b0:7c:82:3c:a4:67:18:
        24:50:6b:af:36:c7:dd:03:52:82:76:da:89:c5:bb:0f:5e:d8:
        87:7b:2d:1f:91:26:20:1b:83:cb:fd:8f:75:ea:b1:29:8c:bb:
        68:34:a9:8c:d8:fc:68:74:72:55:80:7d:07:4c:a3:d5:d6:97:
        41:f3:f1:6d:a2:eb:2a:ba:7f:03:04:04:c3:0b:d6:10:9a:03:
        37:c2:ca:ef:3c:a4:1b:40:7e:e8:66:99:c2:32:ea:2d:6e:c6:
        5a:cb:cc:22:46:6d:e3:d7:32:11:74:87:1d:85:64:2f:ab:24:
        66:c4:06:dd:b9:7a:d9:39:ee:b2:0b:5b:9c:95:66:29:8c:96:
        f7:09:15:b6:3f:ff:a9:96:88:66:2f:3e:63:e2:dd:5a:f5:8c:
        30:7d:15:0b:75:b3:20:23:99:f6:a3:fd:96:5f:01:82:7d:45:
        92:e5:f2:11:dc:9a:01:6a:7c:b3:be:cd:a9:ae:d1:e1:22:d9:
        44:e8:91:d3:1a:05:52:6f:07:f5:b5:cc:bd:a4:ae:96:27:0f:
        2a:ed:91:f8:57:d5:0c:86:ea:a9:66:41:06:5e:70:26:30:31:
        c5:e7:7f:9d
-----BEGIN CERTIFICATE-----
MIIGSjCCBTKgAwIBAgIIMzAwMDAxMTYwDQYJKoZIhvcNAQELBQAwZzELMAkGA1UE
BhMCSlAxHDAaBgNVBAoME0phcGFuZXNlIEdvdmVybm1lbnQxHzAdBgNVBAsMFk5h
dGlvbmFsIFBvbGljZSBBZ2VuY3kxGTAXBgNVBAsMEE5QQSBJQ0RMIFJvb3QgQ0Ew
HhcNMjQwOTE3MDc0MTE5WhcNMjkwOTE2MTQ1OTU5WjCBnjELMAkGA1UEBhMCSlAx
HDAaBgNVBAoME0phcGFuZXNlIEdvdmVybm1lbnQxHzAdBgNVBAsMFk5hdGlvbmFs
IFBvbGljZSBBZ2VuY3kxNzA1BgNVBAsMLlByZWZlY3R1cmFsIFB1YmxpYyBTYWZl
dHkgQ29tbWlzc2lvbnMgZm9yIElDREwxFzAVBgNVBAMMDlRva3VzaGltYSBQUFND
MIIBIjANBgkqhkiG9w0BAQEFAAOCAQ8AMIIBCgKCAQEAxAiKV1tByy3O2tagtofL
QDr3p5PudP4ETA2XGAQWwM1yGOjpdorNzHTvgPvqa2fNcMzGYtkg4ixpZtvxo3K1
V9nTXzH/44pRUZKr7J5xUv38Da4lw+BQdDd03V1DX+dPxWRMPQh+0U+tYaIitkfv
EGyUE2rCSDFfbPNaGeqh/elHNjjG/E2N6NC8CP9UDYzbm1UzqQetWvavM5H9YpSk
irKQNaIYgBCqGUwJke3/I5HNWUiRqH2coLa+mbuHDajY9m6JrC+LEu/yundTF9H8
buVcUGXqm24eErz3oj88QgQ/vWchLOl/UdCXgxyNBj739015Llf9KmhFe2EkIoXq
nwIDAQABo4ICwDCCArwwgZgGA1UdIwSBkDCBjYAUEc2OYERHV09Py+nny6FG37oO
UIuha6RpMGcxCzAJBgNVBAYTAkpQMRwwGgYDVQQKDBNKYXBhbmVzZSBHb3Zlcm5t
ZW50MR8wHQYDVQQLDBZOYXRpb25hbCBQb2xpY2UgQWdlbmN5MRkwFwYDVQQLDBBO
UEEgSUNETCBSb290IENBgggyMDAwMDAxNjAdBgNVHQ4EFgQU/q0YTLjFCva2YzvD
/zSTecTd0lUwDgYDVR0PAQH/BAQDAgbAMEAGA1UdIAEB/wQ2MDQwMgYLKoMIho4Y
BwUBAQowIzAhBggrBgEFBQcCARYVaHR0cDovL3d3dy5ucGEuZ28uanAvMIGVBgNV
HREEgY0wgYqkgYcwgYQxCzAJBgNVBAYTAkpQMRgwFgYDVQQKDA/ml6XmnKzlm73m
lL/lupwxEjAQBgNVBAsMCeitpuWvn+W6gTEkMCIGA1UECwwb6YO96YGT5bqc55yM
5YWs5a6J5aeU5ZOh5LyaMSEwHwYDVQQDDBjlvrPls7bnnIzlhazlronlp5Tlk6Hk
vJowdAYDVR0SBG0wa6RpMGcxCzAJBgNVBAYTAkpQMRgwFgYDVQQKDA/ml6XmnKzl
m73mlL/lupwxEjAQBgNVBAsMCeitpuWvn+W6gTEqMCgGA1UECwwh6K2m5a+f5bqB
6YGL6Lui5YWN6Kix6Ki86KqN6Ki85bGAMIGfBgNVHR8EgZcwgZQwgZGggY6ggYuk
gYgwgYUxCzAJBgNVBAYTAkpQMRwwGgYDVQQKDBNKYXBhbmVzZSBHb3Zlcm5tZW50
MR8wHQYDVQQLDBZOYXRpb25hbCBQb2xpY2UgQWdlbmN5MTcwNQYDVQQLDC5QcmVm
ZWN0dXJhbCBQdWJsaWMgU2FmZXR5IENvbW1pc3Npb25zIGZvciBJQ0RMMA0GCSqG
SIb3DQEBCwUAA4IBAQB01Dl4ayv85dj7QDupt/0NlKh27rgB8gUY5Ce397B8gjyk
ZxgkUGuvNsfdA1KCdtqJxbsPXtiHey0fkSYgG4PL/Y916rEpjLtoNKmM2PxodHJV
gH0HTKPV1pdB8/Ftousqun8DBATDC9YQmgM3wsrvPKQbQH7oZpnCMuotbsZay8wi
Rm3j1zIRdIcdhWQvqyRmxAbduXrZOe6yC1uclWYpjJb3CRW2P/+plohmLz5j4t1a
9YwwfRULdbMgI5n2o/2WXwGCfUWS5fIR3JoBanyzvs2prtHhItlE6JHTGgVSbwf1
tcy9pK6WJw8q7ZH4V9UMhuqpZkEGXnAmMDHF53+d
-----END CERTIFICATE-----
