Certificate:
    Data:
        Version: 3 (0x2)
        Serial Number:
            33:30:30:30:30:30:34:35:1a:e5:d4:78:9e:7d:9a:01:4c:e1
        Signature Algorithm: sha256WithRSAEncryption
        Issuer: C=JP, O=Japanese Government, OU=National Police Agency, OU=NPA ICDL Root CA
        Validity
            Not Before: Jun 19 06:11:46 2023 GMT
            Not After : Jun 18 14:59:59 2028 GMT
        Subject: C=JP, O=Japanese Government, OU=National Police Agency, OU=Prefectural Public Safety Commissions for ICDL, CN=Tokushima AltPPSC
        Subject Public Key Info:
            Public Key Algorithm: rsaEncryption
                Public-Key: (2048 bit)
                Modulus:
                    00:c6:b0:be:65:bd:e4:d2:97:16:f7:55:87:de:98:
                    2b:30:12:2b:e2:96:0f:90:32:30:53:77:5c:f6:72:
                    a0:4c:6a:e6:a9:aa:3e:02:a4:41:ac:43:27:ca:72:
                    b7:13:a4:7a:d4:ab:d8:ad:f9:c8:65:f1:e0:d9:a9:
                    ec:0e:8d:5f:d6:a8:1f:c9:98:3e:32:03:de:86:11:
                    3a:c6:5a:41:53:d6:32:56:01:8d:94:05:54:76:2a:
                    fb:fe:21:61:0b:39:b5:94:b8:fa:4f:a2:2a:5a:93:
                    4c:09:92:92:35:31:07:6f:0e:81:d0:1d:d7:cf:29:
                    e4:d2:50:62:18:80:08:a6:82:4e:7c:02:b0:24:08:
                    4f:84:b0:f9:77:e3:86:d5:73:d0:0b:8c:db:7a:2c:
                    7b:92:83:b6:82:4a:ad:31:6c:46:5f:08:c3:17:6c:
                    b4:6f:d7:db:62:ec:38:0a:a3:1f:bf:b6:f0:83:11:
                    ba:4c:c2:18:a0:7c:29:13:c2:13:d9:0f:8b:4c:63:
                    e8:36:05:4a:fe:23:e7:b1:0c:2a:23:60:a1:dc:ff:
                    9a:be:a2:69:d9:8b:4f:d7:24:b7:8e:85:30:fd:4a:
                    1f:b9:0d:ac:99:b8:9a:94:2d:b0:76:22:a9:08:f5:
                    b6:85:63:7c:22:36:8c:a9:98:4f:91:9e:54:40:16:
                    eb:9d
                Exponent: 65537 (0x10001)
        X509v3 extensions:
            X509v3 Authority Key Identifier: 
                keyid:11:CD:8E:60:44:47:57:4F:4F:CB:E9:E7:CB:A1:46:DF:BA:0E:50:8B
                DirName:/C=JP/O=Japanese Government/OU=National Police Agency/OU=NPA ICDL Root CA
                serial:32:30:30:30:30:30:31:36
            X509v3 Subject Key Identifier: 
                EC:8E:B0:6F:A6:17:9D:C0:DA:B6:B5:36:C2:B8:90:7C:E5:62:FE:0D
            X509v3 Key Usage: critical
                Digital Signature, Non Repudiation
            X509v3 Certificate Policies: critical
                Policy: 1.2.392.100120.7.5.1.1.10
                  CPS: http://www.npa.go.jp/
            X509v3 Issuer Alternative Name: 
                DirName:/C=JP/O=\xE6\x97\xA5\xE6\x9C\xAC\xE5\x9B\xBD\xE6\x94\xBF\xE5\xBA\x9C/OU=\xE8\xAD\xA6\xE5\xAF\x9F\xE5\xBA\x81/OU=\xE8\xAD\xA6\xE5\xAF\x9F\xE5\xBA\x81\xE9\x81\x8B\xE8\xBB\xA2\xE5\x85\x8D\xE8\xA8\xB1\xE8\xA8\xBC\xE8\xAA\x8D\xE8\xA8\xBC\xE5\xB1\x80
            X509v3 CRL Distribution Points: 
                Full Name:
                  DirName:C = JP, O = Japanese Government, OU = National Police Agency, OU = Prefectural Public Safety Commissions for ICDL
    Signature Algorithm: sha256WithRSAEncryption
    Signature Value:
        86:f9:8d:1b:ca:05:53:c6:b5:c5:71:73:46:e3:58:36:e3:01:
        1d:4d:e5:6a:47:c5:0b:18:c4:30:81:88:7b:3d:aa:b5:c6:16:
        d1:2c:4a:ba:4d:79:6f:43:52:8d:95:84:f2:af:b8:dd:48:2f:
        2b:a5:83:cd:8b:08:0c:fa:bd:72:a1:bf:55:f2:a6:1e:79:60:
        d3:40:ff:5b:07:17:77:21:8e:d7:f0:b9:64:a2:55:38:13:a3:
        40:30:45:96:7f:3e:ff:48:b2:20:aa:73:a2:da:84:b7:05:0c:
        9e:01:6a:2d:1e:4a:41:92:1d:ac:d9:e7:5b:cb:fc:07:bb:79:
        60:be:1d:16:46:37:81:a8:73:d5:ba:16:3b:b2:1b:ec:0f:24:
        f6:26:df:1e:c0:5f:f2:f1:65:81:d1:d9:1c:ee:e7:b1:ce:57:
        05:62:ac:11:c8:66:0d:cd:79:fb:83:53:65:aa:aa:95:3f:64:
        5c:ce:7a:19:b1:bf:19:f0:e7:aa:0b:07:5c:73:f4:8d:a2:56:
        28:23:27:9d:3b:2c:7b:e3:48:85:89:b5:15:a6:7c:94:96:15:
        b5:42:99:a3:ed:dc:c1:78:6d:60:4b:14:b7:4e:f6:10:b4:47:
        ea:ff:92:d7:84:45:a6:ee:24:1f:f3:48:56:9c:af:a2:e4:70:
        e9:99:74:ad
-----BEGIN CERTIFICATE-----
MIIFvzCCBKegAwIBAgISMzAwMDAwNDUa5dR4nn2aAUzhMA0GCSqGSIb3DQEBCwUA
MGcxCzAJBgNVBAYTAkpQMRwwGgYDVQQKDBNKYXBhbmVzZSBHb3Zlcm5tZW50MR8w
HQYDVQQLDBZOYXRpb25hbCBQb2xpY2UgQWdlbmN5MRkwFwYDVQQLDBBOUEEgSUNE
TCBSb290IENBMB4XDTIzMDYxOTA2MTE0NloXDTI4MDYxODE0NTk1OVowgaExCzAJ
BgNVBAYTAkpQMRwwGgYDVQQKDBNKYXBhbmVzZSBHb3Zlcm5tZW50MR8wHQYDVQQL
DBZOYXRpb25hbCBQb2xpY2UgQWdlbmN5MTcwNQYDVQQLDC5QcmVmZWN0dXJhbCBQ
dWJsaWMgU2FmZXR5IENvbW1pc3Npb25zIGZvciBJQ0RMMRowGAYDVQQDDBFUb2t1
c2hpbWEgQWx0UFBTQzCCASIwDQYJKoZIhvcNAQEBBQADggEPADCCAQoCggEBAMaw
vmW95NKXFvdVh96YKzASK+KWD5AyMFN3XPZyoExq5qmqPgKkQaxDJ8pytxOketSr
2K35yGXx4Nmp7A6NX9aoH8mYPjID3oYROsZaQVPWMlYBjZQFVHYq+/4hYQs5tZS4
+k+iKlqTTAmSkjUxB28OgdAd188p5NJQYhiACKaCTnwCsCQIT4Sw+XfjhtVz0AuM
23ose5KDtoJKrTFsRl8IwxdstG/X22LsOAqjH7+28IMRukzCGKB8KRPCE9kPi0xj
6DYFSv4j57EMKiNgodz/mr6iadmLT9ckt46FMP1KH7kNrJm4mpQtsHYiqQj1toVj
fCI2jKmYT5GeVEAW650CAwEAAaOCAigwggIkMIGYBgNVHSMEgZAwgY2AFBHNjmBE
R1dPT8vp58uhRt+6DlCLoWukaTBnMQswCQYDVQQGEwJKUDEcMBoGA1UECgwTSmFw
YW5lc2UgR292ZXJubWVudDEfMB0GA1UECwwWTmF0aW9uYWwgUG9saWNlIEFnZW5j
eTEZMBcGA1UECwwQTlBBIElDREwgUm9vdCBDQYIIMjAwMDAwMTYwHQYDVR0OBBYE
FOyOsG+mF53A2ra1NsK4kHzlYv4NMA4GA1UdDwEB/wQEAwIGwDBABgNVHSABAf8E
NjA0MDIGCyqDCIaOGAcFAQEKMCMwIQYIKwYBBQUHAgEWFWh0dHA6Ly93d3cubnBh
LmdvLmpwLzB0BgNVHRIEbTBrpGkwZzELMAkGA1UEBhMCSlAxGDAWBgNVBAoMD+aX
peacrOWbveaUv+W6nDESMBAGA1UECwwJ6K2m5a+f5bqBMSowKAYDVQQLDCHorabl
r5/luoHpgYvou6LlhY3oqLHoqLzoqo3oqLzlsYAwgZ8GA1UdHwSBlzCBlDCBkaCB
jqCBi6SBiDCBhTELMAkGA1UEBhMCSlAxHDAaBgNVBAoME0phcGFuZXNlIEdvdmVy
bm1lbnQxHzAdBgNVBAsMFk5hdGlvbmFsIFBvbGljZSBBZ2VuY3kxNzA1BgNVBAsM
LlByZWZlY3R1cmFsIFB1YmxpYyBTYWZldHkgQ29tbWlzc2lvbnMgZm9yIElDREww
DQYJKoZIhvcNAQELBQADggEBAIb5jRvKBVPGtcVxc0bjWDbjAR1N5WpHxQsYxDCB
iHs9qrXGFtEsSrpNeW9DUo2VhPKvuN1ILyulg82LCAz6vXKhv1Xyph55YNNA/1sH
F3chjtfwuWSiVTgTo0AwRZZ/Pv9IsiCqc6LahLcFDJ4Bai0eSkGSHazZ51vL/Ae7
eWC+HRZGN4Goc9W6FjuyG+wPJPYm3x7AX/LxZYHR2Rzu57HOVwVirBHIZg3NefuD
U2WqqpU/ZFzOehmxvxnw56oLB1xz9I2iVigjJ507LHvjSIWJtRWmfJSWFbVCmaPt
3MF4bWBLFLdO9hC0R+r/kteERabuJB/zSFacr6LkcOmZdK0=
-----END CERTIFICATE-----
