Certificate:
    Data:
        Version: 3 (0x2)
        Serial Number:
            33:30:30:30:30:30:38:30
        Signature Algorithm: sha256WithRSAEncryption
        Issuer: C=JP, O=Japanese Government, OU=National Police Agency, OU=NPA ICDL Root CA
        Validity
            Not Before: Mar 18 05:15:46 2024 GMT
            Not After : Mar 17 14:59:59 2029 GMT
        Subject: C=JP, O=Japanese Government, OU=National Police Agency, OU=Prefectural Public Safety Commissions for ICDL, CN=Tokyo AltMPSC
        Subject Public Key Info:
            Public Key Algorithm: rsaEncryption
                Public-Key: (2048 bit)
                Modulus:
                    00:96:84:ca:92:b5:10:48:22:91:d5:75:1b:2f:ba:
                    8c:05:0a:b9:52:85:5f:39:e2:47:a2:47:a2:3b:7c:
                    cc:e4:99:d3:2b:ef:b5:f1:e4:22:a7:5b:5c:09:b7:
                    6c:2a:76:8c:e8:da:86:ba:50:4f:9a:b1:88:47:89:
                    e6:84:db:2d:51:71:0b:85:77:56:66:6b:76:d1:b7:
                    8b:36:85:d8:c1:f7:8a:63:5b:d1:2f:3c:77:a0:f2:
                    f2:f3:84:4a:84:70:44:63:67:59:1a:61:17:6a:7f:
                    8b:ed:11:f5:5b:58:15:75:f5:75:7a:43:18:43:24:
                    29:af:82:9f:6a:7a:f3:79:51:01:6f:71:e4:bf:42:
                    c5:49:3c:f6:f1:14:9b:2a:00:de:fc:1e:ea:5a:6a:
                    37:03:fc:fe:ed:79:53:d4:aa:08:98:55:b2:a2:ae:
                    74:80:08:a0:16:2f:8f:11:8f:e9:3e:2a:d6:0e:73:
                    63:60:45:b8:19:4b:6d:1e:23:35:47:e1:8e:3f:ce:
                    3e:1b:b0:cc:65:dd:15:b6:73:5f:4f:2a:bc:1b:9a:
                    b6:cf:45:e3:c8:fd:16:54:45:0b:f5:c3:e0:9e:ce:
                    8b:10:c1:af:b4:db:21:6d:84:a8:22:b2:95:4f:18:
                    19:fc:2b:e5:a0:3b:aa:b5:7e:49:e5:a9:10:35:81:
                    ad:7b
                Exponent: 65537 (0x10001)
        X509v3 extensions:
            X509v3 Authority Key Identifier: 
                keyid:11:CD:8E:60:44:47:57:4F:4F:CB:E9:E7:CB:A1:46:DF:BA:0E:50:8B
                DirName:/C=JP/O=Japanese Government/OU=National Police Agency/OU=NPA ICDL Root CA
                serial:32:30:30:30:30:30:31:36
            X509v3 Subject Key Identifier: 
                10:8E:32:9B:EF:C9:34:B6:AC:9A:DD:21:6B:B4:10:E1:EE:4A:AA:5F
            X509v3 Key Usage: critical
                Digital Signature, Non Repudiation
            X509v3 Certificate Policies: critical
                Policy: 1.2.392.100120.7.5.1.1.10
                  CPS: http://www.npa.go.jp/
            X509v3 Issuer Alternative Name: 
                DirName:/C=JP/O=\xE6\x97\xA5\xE6\x9C\xAC\xE5\x9B\xBD\xE6\x94\xBF\xE5\xBA\x9C/OU=\xE8\xAD\xA6\xE5\xAF\x9F\xE5\xBA\x81/OU=\xE8\xAD\xA6\xE5\xAF\x9F\xE5\xBA\x81\xE9\x81\x8B\xE8\xBB\xA2\xE5\x85\x8D\xE8\xA8\xB1\xE8\xA8\xBC\xE8\xAA\x8D\xE8\xA8\xBC\xE5\xB1\x80
            X509v3 CRL Distribution Points: 
                Full Name:
                  DirName:C = JP, O = Japanese Government, OU = National Police Agency, OU = Prefectural Public Safety Commissions for ICDL
    Signature Algorithm: sha256WithRSAEncryption
    Signature Value:
        5e:c9:c5:3c:a8:38:3d:bc:9e:70:12:19:c4:38:e7:e1:4b:9e:
        c3:9c:14:70:17:d8:01:3a:49:10:84:f2:72:56:1f:68:16:b3:
        39:0b:85:9a:75:f5:b6:b9:63:70:0a:f5:21:8f:02:a6:83:76:
        34:d7:ea:cc:ca:2e:cd:81:c5:78:10:1e:f0:d5:ff:61:9b:82:
        46:8d:0f:8e:5d:3c:d6:7a:93:7c:42:06:33:b4:14:50:79:ac:
        a9:75:29:fb:fb:04:0a:00:82:f6:9b:96:4f:4b:41:61:6a:63:
        cc:6e:34:8a:0c:28:9b:44:61:65:9c:49:d3:69:c8:7a:19:89:
        ba:20:1c:64:35:e4:2c:91:1f:82:50:83:c5:d2:63:73:90:b7:
        c0:64:e1:a5:46:19:2c:32:34:82:83:e0:76:56:0a:08:4d:d1:
        71:24:d4:f4:21:59:d6:36:ed:23:78:c6:23:55:08:2a:b3:a5:
        9b:cc:e3:6e:6f:67:60:e6:d2:49:d5:a6:d7:97:c8:5b:20:78:
        ef:9a:28:42:ce:31:3a:45:36:6f:f4:b5:27:c7:43:57:f9:ff:
        f1:7b:7e:ee:02:5a:93:ef:1e:7d:1b:86:19:36:0f:dd:28:78:
        22:a3:ce:3b:ec:92:10:b0:a2:5f:23:eb:ad:8e:3c:d7:d9:db:
        42:0e:1a:c2
-----BEGIN CERTIFICATE-----
MIIFsTCCBJmgAwIBAgIIMzAwMDAwODAwDQYJKoZIhvcNAQELBQAwZzELMAkGA1UE
BhMCSlAxHDAaBgNVBAoME0phcGFuZXNlIEdvdmVybm1lbnQxHzAdBgNVBAsMFk5h
dGlvbmFsIFBvbGljZSBBZ2VuY3kxGTAXBgNVBAsMEE5QQSBJQ0RMIFJvb3QgQ0Ew
HhcNMjQwMzE4MDUxNTQ2WhcNMjkwMzE3MTQ1OTU5WjCBnTELMAkGA1UEBhMCSlAx
HDAaBgNVBAoME0phcGFuZXNlIEdvdmVybm1lbnQxHzAdBgNVBAsMFk5hdGlvbmFs
IFBvbGljZSBBZ2VuY3kxNzA1BgNVBAsMLlByZWZlY3R1cmFsIFB1YmxpYyBTYWZl
dHkgQ29tbWlzc2lvbnMgZm9yIElDREwxFjAUBgNVBAMMDVRva3lvIEFsdE1QU0Mw
ggEiMA0GCSqGSIb3DQEBAQUAA4IBDwAwggEKAoIBAQCWhMqStRBIIpHVdRsvuowF
CrlShV854keiR6I7fMzkmdMr77Xx5CKnW1wJt2wqdozo2oa6UE+asYhHieaE2y1R
cQuFd1Zma3bRt4s2hdjB94pjW9EvPHeg8vLzhEqEcERjZ1kaYRdqf4vtEfVbWBV1
9XV6QxhDJCmvgp9qevN5UQFvceS/QsVJPPbxFJsqAN78HupaajcD/P7teVPUqgiY
VbKirnSACKAWL48Rj+k+KtYOc2NgRbgZS20eIzVH4Y4/zj4bsMxl3RW2c19PKrwb
mrbPRePI/RZURQv1w+CezosQwa+02yFthKgispVPGBn8K+WgO6q1fknlqRA1ga17
AgMBAAGjggIoMIICJDCBmAYDVR0jBIGQMIGNgBQRzY5gREdXT0/L6efLoUbfug5Q
i6FrpGkwZzELMAkGA1UEBhMCSlAxHDAaBgNVBAoME0phcGFuZXNlIEdvdmVybm1l
bnQxHzAdBgNVBAsMFk5hdGlvbmFsIFBvbGljZSBBZ2VuY3kxGTAXBgNVBAsMEE5Q
QSBJQ0RMIFJvb3QgQ0GCCDIwMDAwMDE2MB0GA1UdDgQWBBQQjjKb78k0tqya3SFr
tBDh7kqqXzAOBgNVHQ8BAf8EBAMCBsAwQAYDVR0gAQH/BDYwNDAyBgsqgwiGjhgH
BQEBCjAjMCEGCCsGAQUFBwIBFhVodHRwOi8vd3d3Lm5wYS5nby5qcC8wdAYDVR0S
BG0wa6RpMGcxCzAJBgNVBAYTAkpQMRgwFgYDVQQKDA/ml6XmnKzlm73mlL/lupwx
EjAQBgNVBAsMCeitpuWvn+W6gTEqMCgGA1UECwwh6K2m5a+f5bqB6YGL6Lui5YWN
6Kix6Ki86KqN6Ki85bGAMIGfBgNVHR8EgZcwgZQwgZGggY6ggYukgYgwgYUxCzAJ
BgNVBAYTAkpQMRwwGgYDVQQKDBNKYXBhbmVzZSBHb3Zlcm5tZW50MR8wHQYDVQQL
DBZOYXRpb25hbCBQb2xpY2UgQWdlbmN5MTcwNQYDVQQLDC5QcmVmZWN0dXJhbCBQ
dWJsaWMgU2FmZXR5IENvbW1pc3Npb25zIGZvciBJQ0RMMA0GCSqGSIb3DQEBCwUA
A4IBAQBeycU8qDg9vJ5wEhnEOOfhS57DnBRwF9gBOkkQhPJyVh9oFrM5C4WadfW2
uWNwCvUhjwKmg3Y01+rMyi7NgcV4EB7w1f9hm4JGjQ+OXTzWepN8QgYztBRQeayp
dSn7+wQKAIL2m5ZPS0FhamPMbjSKDCibRGFlnEnTach6GYm6IBxkNeQskR+CUIPF
0mNzkLfAZOGlRhksMjSCg+B2VgoITdFxJNT0IVnWNu0jeMYjVQgqs6WbzONub2dg
5tJJ1abXl8hbIHjvmihCzjE6RTZv9LUnx0NX+f/xe37uAlqT7x59G4YZNg/dKHgi
o8477JIQsKJfI+utjjzX2dtCDhrC
-----END CERTIFICATE-----
