Certificate:
    Data:
        Version: 3 (0x2)
        Serial Number:
            33:30:30:30:30:30:36:30
        Signature Algorithm: sha256WithRSAEncryption
        Issuer: C=JP, O=Japanese Government, OU=National Police Agency, OU=NPA ICDL Root CA
        Validity
            Not Before: Nov  1 04:22:39 2023 GMT
            Not After : Oct 31 14:59:59 2028 GMT
        Subject: C=JP, O=Japanese Government, OU=National Police Agency, OU=Prefectural Public Safety Commissions for ICDL, CN=Tokyo MPSC
        Subject Public Key Info:
            Public Key Algorithm: rsaEncryption
                Public-Key: (2048 bit)
                Modulus:
                    00:c9:1d:19:b5:8a:76:65:27:78:c7:45:0d:f9:92:
                    2a:9c:05:c2:3b:2f:63:d6:a3:ee:2a:c0:8f:2f:99:
                    71:fd:1f:aa:3a:4d:94:23:84:39:35:c3:e8:14:fe:
                    6b:92:b7:71:40:ef:12:f1:27:9d:53:87:0d:78:4c:
                    3d:1f:f7:71:31:0a:fc:44:ca:7c:35:20:d3:61:eb:
                    e8:52:89:b4:fc:be:c0:a4:12:18:f2:b5:de:b0:6c:
                    5b:cf:9a:58:6b:a6:46:31:39:ff:31:56:5b:08:03:
                    fc:93:8b:dc:ed:40:4a:60:10:de:0a:5b:18:74:8c:
                    3f:0d:d2:a4:8c:4d:d9:f4:8a:63:73:0f:24:56:c2:
                    6b:5c:d6:72:4d:66:e7:4a:44:10:30:fd:36:16:20:
                    b4:04:fc:86:e8:0f:1b:6d:5b:0e:cf:dc:c9:a0:99:
                    0b:04:0d:28:58:be:57:4b:8b:6f:ad:20:ba:c0:c9:
                    33:57:c1:90:79:6d:ad:75:6c:a8:5e:a7:a9:9b:3a:
                    39:2c:65:fe:9d:2b:30:f2:97:4d:13:52:6a:93:27:
                    5f:86:bf:9a:ef:34:5f:a3:dc:e7:c6:72:f8:cc:93:
                    c4:51:e8:43:51:a8:cf:15:9e:95:97:2a:5a:6d:77:
                    3c:d8:d3:63:ec:cb:d0:0b:8d:a1:60:98:f7:f5:27:
                    01:b1
                Exponent: 65537 (0x10001)
        X509v3 extensions:
            X509v3 Authority Key Identifier: 
                keyid:11:CD:8E:60:44:47:57:4F:4F:CB:E9:E7:CB:A1:46:DF:BA:0E:50:8B
                DirName:/C=JP/O=Japanese Government/OU=National Police Agency/OU=NPA ICDL Root CA
                serial:32:30:30:30:30:30:31:36
            X509v3 Subject Key Identifier: 
                36:5E:74:A7:15:98:2B:6B:DB:EB:3B:A5:0F:9B:84:44:8A:B2:C6:28
            X509v3 Key Usage: critical
                Digital Signature, Non Repudiation
            X509v3 Certificate Policies: critical
                Policy: 1.2.392.100120.7.5.1.1.10
                  CPS: http://www.npa.go.jp/
            X509v3 Subject Alternative Name: 
                DirName:/C=JP/O=\xE6\x97\xA5\xE6\x9C\xAC\xE5\x9B\xBD\xE6\x94\xBF\xE5\xBA\x9C/OU=\xE8\xAD\xA6\xE5\xAF\x9F\xE5\xBA\x81/OU=\xE9\x83\xBD\xE9\x81\x93\xE5\xBA\x9C\xE7\x9C\x8C\xE5\x85\xAC\xE5\xAE\x89\xE5\xA7\x94\xE5\x93\xA1\xE4\xBC\x9A
            X509v3 Issuer Alternative Name: 
                DirName:/C=JP/O=\xE6\x97\xA5\xE6\x9C\xAC\xE5\x9B\xBD\xE6\x94\xBF\xE5\xBA\x9C/OU=\xE8\xAD\xA6\xE5\xAF\x9F\xE5\xBA\x81/OU=\xE8\xAD\xA6\xE5\xAF\x9F\xE5\xBA\x81\xE9\x81\x8B\xE8\xBB\xA2\xE5\x85\x8D\xE8\xA8\xB1\xE8\xA8\xBC\xE8\xAA\x8D\xE8\xA8\xBC\xE5\xB1\x80
            X509v3 CRL Distribution Points: 
                Full Name:
                  DirName:C = JP, O = Japanese Government, OU = National Police Agency, OU = Prefectural Public Safety Commissions for ICDL
    Signature Algorithm: sha256WithRSAEncryption
    Signature Value:
        1e:7f:ba:1e:e6:5b:e2:f8:db:50:53:43:56:db:9f:57:38:dc:
        f1:1d:e1:5a:ae:87:49:7a:66:0d:7d:23:bd:45:54:b5:eb:c0:
        a8:0b:c6:ad:1d:90:38:ea:08:ec:ea:5d:20:20:d7:81:76:21:
        d9:66:86:52:c3:18:89:e4:05:82:55:21:b9:58:5e:3a:13:6b:
        d9:58:64:49:aa:a6:a2:9f:30:7a:7a:d8:97:6c:e6:53:a9:4a:
        e5:cd:79:f7:d8:bf:d1:60:6e:23:08:ec:c2:bb:df:7a:99:db:
        ed:59:b4:61:87:48:34:30:59:31:dc:dd:cd:17:3d:98:af:2c:
        4f:56:7b:ae:55:23:1d:57:73:5f:9e:02:4c:2e:66:95:33:52:
        de:1c:f7:94:24:45:4b:3e:b2:02:02:3c:7f:80:45:4e:0d:25:
        d9:f9:51:f4:52:68:c5:77:c4:1f:a2:ba:69:9d:75:6c:d8:73:
        fc:37:d7:31:d9:10:43:69:7a:0f:8f:84:27:84:48:51:f5:50:
        3c:a4:e9:2d:94:6f:9f:78:39:6f:d6:fd:3d:a0:3b:01:bb:fc:
        9f:3b:81:38:70:6a:06:fc:4f:c2:d4:e0:63:7f:34:59:33:68:
        86:da:34:bb:b7:8b:8f:c7:a5:d8:af:8c:4a:34:68:04:10:85:
        4a:c0:69:22
-----BEGIN CERTIFICATE-----
MIIGRjCCBS6gAwIBAgIIMzAwMDAwNjAwDQYJKoZIhvcNAQELBQAwZzELMAkGA1UE
BhMCSlAxHDAaBgNVBAoME0phcGFuZXNlIEdvdmVybm1lbnQxHzAdBgNVBAsMFk5h
dGlvbmFsIFBvbGljZSBBZ2VuY3kxGTAXBgNVBAsMEE5QQSBJQ0RMIFJvb3QgQ0Ew
HhcNMjMxMTAxMDQyMjM5WhcNMjgxMDMxMTQ1OTU5WjCBmjELMAkGA1UEBhMCSlAx
HDAaBgNVBAoME0phcGFuZXNlIEdvdmVybm1lbnQxHzAdBgNVBAsMFk5hdGlvbmFs
IFBvbGljZSBBZ2VuY3kxNzA1BgNVBAsMLlByZWZlY3R1cmFsIFB1YmxpYyBTYWZl
dHkgQ29tbWlzc2lvbnMgZm9yIElDREwxEzARBgNVBAMMClRva3lvIE1QU0MwggEi
MA0GCSqGSIb3DQEBAQUAA4IBDwAwggEKAoIBAQDJHRm1inZlJ3jHRQ35kiqcBcI7
L2PWo+4qwI8vmXH9H6o6TZQjhDk1w+gU/muSt3FA7xLxJ51Thw14TD0f93ExCvxE
ynw1INNh6+hSibT8vsCkEhjytd6wbFvPmlhrpkYxOf8xVlsIA/yTi9ztQEpgEN4K
Wxh0jD8N0qSMTdn0imNzDyRWwmtc1nJNZudKRBAw/TYWILQE/IboDxttWw7P3Mmg
mQsEDShYvldLi2+tILrAyTNXwZB5ba11bKhep6mbOjksZf6dKzDyl00TUmqTJ1+G
v5rvNF+j3OfGcvjMk8RR6ENRqM8VnpWXKlptdzzY02Psy9ALjaFgmPf1JwGxAgMB
AAGjggLAMIICvDCBmAYDVR0jBIGQMIGNgBQRzY5gREdXT0/L6efLoUbfug5Qi6Fr
pGkwZzELMAkGA1UEBhMCSlAxHDAaBgNVBAoME0phcGFuZXNlIEdvdmVybm1lbnQx
HzAdBgNVBAsMFk5hdGlvbmFsIFBvbGljZSBBZ2VuY3kxGTAXBgNVBAsMEE5QQSBJ
Q0RMIFJvb3QgQ0GCCDIwMDAwMDE2MB0GA1UdDgQWBBQ2XnSnFZgra9vrO6UPm4RE
irLGKDAOBgNVHQ8BAf8EBAMCBsAwQAYDVR0gAQH/BDYwNDAyBgsqgwiGjhgHBQEB
CjAjMCEGCCsGAQUFBwIBFhVodHRwOi8vd3d3Lm5wYS5nby5qcC8wgZUGA1UdEQSB
jTCBiqSBhzCBhDELMAkGA1UEBhMCSlAxGDAWBgNVBAoMD+aXpeacrOWbveaUv+W6
nDESMBAGA1UECwwJ6K2m5a+f5bqBMSQwIgYDVQQLDBvpg73pgZPlupznnIzlhazl
ronlp5Tlk6HkvJoxITAfBgNVBAMMGOadseS6rOmDveWFrOWuieWnlOWToeS8mjB0
BgNVHRIEbTBrpGkwZzELMAkGA1UEBhMCSlAxGDAWBgNVBAoMD+aXpeacrOWbveaU
v+W6nDESMBAGA1UECwwJ6K2m5a+f5bqBMSowKAYDVQQLDCHorablr5/luoHpgYvo
u6LlhY3oqLHoqLzoqo3oqLzlsYAwgZ8GA1UdHwSBlzCBlDCBkaCBjqCBi6SBiDCB
hTELMAkGA1UEBhMCSlAxHDAaBgNVBAoME0phcGFuZXNlIEdvdmVybm1lbnQxHzAd
BgNVBAsMFk5hdGlvbmFsIFBvbGljZSBBZ2VuY3kxNzA1BgNVBAsMLlByZWZlY3R1
cmFsIFB1YmxpYyBTYWZldHkgQ29tbWlzc2lvbnMgZm9yIElDREwwDQYJKoZIhvcN
AQELBQADggEBAB5/uh7mW+L421BTQ1bbn1c43PEd4Vquh0l6Zg19I71FVLXrwKgL
xq0dkDjqCOzqXSAg14F2IdlmhlLDGInkBYJVIblYXjoTa9lYZEmqpqKfMHp62Jds
5lOpSuXNeffYv9FgbiMI7MK733qZ2+1ZtGGHSDQwWTHc3c0XPZivLE9We65VIx1X
c1+eAkwuZpUzUt4c95QkRUs+sgICPH+ARU4NJdn5UfRSaMV3xB+iummddWzYc/w3
1zHZEENpeg+PhCeESFH1UDyk6S2Ub594OW/W/T2gOwG7/J87gThwagb8T8LU4GN/
NFkzaIbaNLu3i4/HpdivjEo0aAQQhUrAaSI=
-----END CERTIFICATE-----
