Certificate:
    Data:
        Version: 3 (0x2)
        Serial Number:
            32:30:30:30:30:30:34:36
        Signature Algorithm: sha256WithRSAEncryption
        Issuer: C=JP, O=Japanese Government, OU=National Police Agency, OU=NPA ICDL Root CA
        Validity
            Not Before: Feb  6 01:46:13 2023 GMT
            Not After : Feb  5 14:59:59 2028 GMT
        Subject: C=JP, O=Japanese Government, OU=National Police Agency, OU=Prefectural Public Safety Commissions for ICDL, CN=Tokyo MPSC
        Subject Public Key Info:
            Public Key Algorithm: rsaEncryption
                Public-Key: (2048 bit)
                Modulus:
                    00:96:84:ca:92:b5:10:48:22:91:d5:75:1b:2f:ba:
                    8c:05:0a:b9:52:85:5f:39:e2:47:a2:47:a2:3b:7c:
                    cc:e4:99:d3:2b:ef:b5:f1:e4:22:a7:5b:5c:09:b7:
                    6c:2a:76:8c:e8:da:86:ba:50:4f:9a:b1:88:47:89:
                    e6:84:db:2d:51:71:0b:85:77:56:66:6b:76:d1:b7:
                    8b:36:85:d8:c1:f7:8a:63:5b:d1:2f:3c:77:a0:f2:
                    f2:f3:84:4a:84:70:44:63:67:59:1a:61:17:6a:7f:
                    8b:ed:11:f5:5b:58:15:75:f5:75:7a:43:18:43:24:
                    29:af:82:9f:6a:7a:f3:79:51:01:6f:71:e4:bf:42:
                    c5:49:3c:f6:f1:14:9b:2a:00:de:fc:1e:ea:5a:6a:
                    37:03:fc:fe:ed:79:53:d4:aa:08:98:55:b2:a2:ae:
                    74:80:08:a0:16:2f:8f:11:8f:e9:3e:2a:d6:0e:73:
                    63:60:45:b8:19:4b:6d:1e:23:35:47:e1:8e:3f:ce:
                    3e:1b:b0:cc:65:dd:15:b6:73:5f:4f:2a:bc:1b:9a:
                    b6:cf:45:e3:c8:fd:16:54:45:0b:f5:c3:e0:9e:ce:
                    8b:10:c1:af:b4:db:21:6d:84:a8:22:b2:95:4f:18:
                    19:fc:2b:e5:a0:3b:aa:b5:7e:49:e5:a9:10:35:81:
                    ad:7b
                Exponent: 65537 (0x10001)
        X509v3 extensions:
            X509v3 Authority Key Identifier: 
                keyid:11:CD:8E:60:44:47:57:4F:4F:CB:E9:E7:CB:A1:46:DF:BA:0E:50:8B
                DirName:/C=JP/O=Japanese Government/OU=National Police Agency/OU=NPA ICDL Root CA
                serial:32:30:30:30:30:30:31:36
            X509v3 Subject Key Identifier: 
                10:8E:32:9B:EF:C9:34:B6:AC:9A:DD:21:6B:B4:10:E1:EE:4A:AA:5F
            X509v3 Key Usage: critical
                Digital Signature, Non Repudiation
            X509v3 Certificate Policies: critical
                Policy: 1.2.392.100120.7.5.1.1.10
                  CPS: http://www.npa.go.jp/
            X509v3 Subject Alternative Name: 
                DirName:/C=JP/O=\xE6\x97\xA5\xE6\x9C\xAC\xE5\x9B\xBD\xE6\x94\xBF\xE5\xBA\x9C/OU=\xE8\xAD\xA6\xE5\xAF\x9F\xE5\xBA\x81/OU=\xE9\x83\xBD\xE9\x81\x93\xE5\xBA\x9C\xE7\x9C\x8C\xE5\x85\xAC\xE5\xAE\x89\xE5\xA7\x94\xE5\x93\xA1\xE4\xBC\x9A
            X509v3 Issuer Alternative Name: 
                DirName:/C=JP/O=\xE6\x97\xA5\xE6\x9C\xAC\xE5\x9B\xBD\xE6\x94\xBF\xE5\xBA\x9C/OU=\xE8\xAD\xA6\xE5\xAF\x9F\xE5\xBA\x81/OU=\xE8\xAD\xA6\xE5\xAF\x9F\xE5\xBA\x81\xE9\x81\x8B\xE8\xBB\xA2\xE5\x85\x8D\xE8\xA8\xB1\xE8\xA8\xBC\xE8\xAA\x8D\xE8\xA8\xBC\xE5\xB1\x80
            X509v3 CRL Distribution Points: 
                Full Name:
                  DirName:C = JP, O = Japanese Government, OU = National Police Agency, OU = Prefectural Public Safety Commissions for ICDL
    Signature Algorithm: sha256WithRSAEncryption
    Signature Value:
        6e:c7:55:5e:a3:99:a2:76:43:60:2d:ce:da:e5:1c:31:e6:55:
        48:53:c2:2a:bf:48:83:78:fb:ec:25:f0:ba:c5:ee:6b:d3:70:
        73:03:5e:61:ba:be:e8:aa:7b:ff:10:ab:4c:ea:87:bf:a6:4e:
        4c:d9:ad:cb:46:ab:9b:0a:cb:8e:4f:64:aa:96:eb:b0:53:59:
        90:21:db:f6:51:8c:8e:83:7b:cf:98:51:8c:87:4f:ba:fe:0b:
        6a:d5:e1:11:f5:26:d8:fd:cb:d3:77:68:9a:1d:da:b0:40:16:
        75:fd:5c:09:8e:83:fb:50:4e:ca:c3:46:ca:7b:01:4d:a2:07:
        01:bd:3a:9f:b9:b0:4c:6d:c4:64:05:1e:d9:ce:bc:c8:e7:cb:
        c7:85:99:9c:85:92:07:3a:be:fb:57:4b:c1:b9:84:a4:94:3d:
        53:f7:a0:be:d0:d1:99:3d:fd:6f:b1:50:8a:34:98:cf:fe:a9:
        ee:9b:fe:76:32:e5:bf:b9:7a:b7:de:c6:6c:4c:4c:da:8e:bb:
        2a:54:4c:f8:3c:9a:a8:32:44:88:f3:0b:4d:e1:bf:85:dd:4f:
        42:a6:92:e0:cb:27:33:07:9f:c0:5c:5c:82:71:45:3a:95:9d:
        d9:2b:85:4c:83:3c:00:4a:bf:cd:7c:36:0f:f2:29:56:40:4d:
        72:db:19:c0
-----BEGIN CERTIFICATE-----
MIIGRjCCBS6gAwIBAgIIMjAwMDAwNDYwDQYJKoZIhvcNAQELBQAwZzELMAkGA1UE
BhMCSlAxHDAaBgNVBAoME0phcGFuZXNlIEdvdmVybm1lbnQxHzAdBgNVBAsMFk5h
dGlvbmFsIFBvbGljZSBBZ2VuY3kxGTAXBgNVBAsMEE5QQSBJQ0RMIFJvb3QgQ0Ew
HhcNMjMwMjA2MDE0NjEzWhcNMjgwMjA1MTQ1OTU5WjCBmjELMAkGA1UEBhMCSlAx
HDAaBgNVBAoME0phcGFuZXNlIEdvdmVybm1lbnQxHzAdBgNVBAsMFk5hdGlvbmFs
IFBvbGljZSBBZ2VuY3kxNzA1BgNVBAsMLlByZWZlY3R1cmFsIFB1YmxpYyBTYWZl
dHkgQ29tbWlzc2lvbnMgZm9yIElDREwxEzARBgNVBAMMClRva3lvIE1QU0MwggEi
MA0GCSqGSIb3DQEBAQUAA4IBDwAwggEKAoIBAQCWhMqStRBIIpHVdRsvuowFCrlS
hV854keiR6I7fMzkmdMr77Xx5CKnW1wJt2wqdozo2oa6UE+asYhHieaE2y1RcQuF
d1Zma3bRt4s2hdjB94pjW9EvPHeg8vLzhEqEcERjZ1kaYRdqf4vtEfVbWBV19XV6
QxhDJCmvgp9qevN5UQFvceS/QsVJPPbxFJsqAN78HupaajcD/P7teVPUqgiYVbKi
rnSACKAWL48Rj+k+KtYOc2NgRbgZS20eIzVH4Y4/zj4bsMxl3RW2c19PKrwbmrbP
RePI/RZURQv1w+CezosQwa+02yFthKgispVPGBn8K+WgO6q1fknlqRA1ga17AgMB
AAGjggLAMIICvDCBmAYDVR0jBIGQMIGNgBQRzY5gREdXT0/L6efLoUbfug5Qi6Fr
pGkwZzELMAkGA1UEBhMCSlAxHDAaBgNVBAoME0phcGFuZXNlIEdvdmVybm1lbnQx
HzAdBgNVBAsMFk5hdGlvbmFsIFBvbGljZSBBZ2VuY3kxGTAXBgNVBAsMEE5QQSBJ
Q0RMIFJvb3QgQ0GCCDIwMDAwMDE2MB0GA1UdDgQWBBQQjjKb78k0tqya3SFrtBDh
7kqqXzAOBgNVHQ8BAf8EBAMCBsAwQAYDVR0gAQH/BDYwNDAyBgsqgwiGjhgHBQEB
CjAjMCEGCCsGAQUFBwIBFhVodHRwOi8vd3d3Lm5wYS5nby5qcC8wgZUGA1UdEQSB
jTCBiqSBhzCBhDELMAkGA1UEBhMCSlAxGDAWBgNVBAoMD+aXpeacrOWbveaUv+W6
nDESMBAGA1UECwwJ6K2m5a+f5bqBMSQwIgYDVQQLDBvpg73pgZPlupznnIzlhazl
ronlp5Tlk6HkvJoxITAfBgNVBAMMGOadseS6rOmDveWFrOWuieWnlOWToeS8mjB0
BgNVHRIEbTBrpGkwZzELMAkGA1UEBhMCSlAxGDAWBgNVBAoMD+aXpeacrOWbveaU
v+W6nDESMBAGA1UECwwJ6K2m5a+f5bqBMSowKAYDVQQLDCHorablr5/luoHpgYvo
u6LlhY3oqLHoqLzoqo3oqLzlsYAwgZ8GA1UdHwSBlzCBlDCBkaCBjqCBi6SBiDCB
hTELMAkGA1UEBhMCSlAxHDAaBgNVBAoME0phcGFuZXNlIEdvdmVybm1lbnQxHzAd
BgNVBAsMFk5hdGlvbmFsIFBvbGljZSBBZ2VuY3kxNzA1BgNVBAsMLlByZWZlY3R1
cmFsIFB1YmxpYyBTYWZldHkgQ29tbWlzc2lvbnMgZm9yIElDREwwDQYJKoZIhvcN
AQELBQADggEBAG7HVV6jmaJ2Q2AtztrlHDHmVUhTwiq/SIN4++wl8LrF7mvTcHMD
XmG6vuiqe/8Qq0zqh7+mTkzZrctGq5sKy45PZKqW67BTWZAh2/ZRjI6De8+YUYyH
T7r+C2rV4RH1Jtj9y9N3aJod2rBAFnX9XAmOg/tQTsrDRsp7AU2iBwG9Op+5sExt
xGQFHtnOvMjny8eFmZyFkgc6vvtXS8G5hKSUPVP3oL7Q0Zk9/W+xUIo0mM/+qe6b
/nYy5b+5erfexmxMTNqOuypUTPg8mqgyRIjzC03hv4XdT0KmkuDLJzMHn8BcXIJx
RTqVndkrhUyDPABKv818Ng/yKVZATXLbGcA=
-----END CERTIFICATE-----
