Certificate:
    Data:
        Version: 3 (0x2)
        Serial Number:
            33:30:30:30:30:30:31:37:81:1e:3a:1f:19:40:82:d9:b3:fb
        Signature Algorithm: sha256WithRSAEncryption
        Issuer: C=JP, O=Japanese Government, OU=National Police Agency, OU=NPA ICDL Root CA
        Validity
            Not Before: Jun 19 05:32:19 2023 GMT
            Not After : Jun 18 14:59:59 2028 GMT
        Subject: C=JP, O=Japanese Government, OU=National Police Agency, OU=Prefectural Public Safety Commissions for ICDL, CN=Tokyo AltMPSC
        Subject Public Key Info:
            Public Key Algorithm: rsaEncryption
                Public-Key: (2048 bit)
                Modulus:
                    00:a3:a2:ec:04:1e:61:0e:7d:52:f8:f1:6b:f5:8b:
                    24:df:7a:2d:3a:c1:fa:73:98:b7:31:b3:ba:93:a9:
                    ae:01:4d:ac:12:a0:14:7f:b2:79:0f:dc:c0:0a:eb:
                    26:d6:44:11:6a:fc:3f:18:43:47:8f:57:55:c2:77:
                    bf:f1:83:cc:9d:ae:9e:e4:c5:a5:0e:d8:0e:fa:d1:
                    73:29:22:97:cf:9a:6f:c1:47:ef:60:a2:09:db:1f:
                    59:b4:0c:ec:4a:9e:f6:85:78:d6:f7:31:5b:03:b2:
                    44:a3:7f:db:bd:8c:0a:5f:ee:de:fa:00:8e:00:e0:
                    52:fe:72:7f:1c:a9:4d:91:32:45:03:97:53:17:f9:
                    33:6d:d8:d6:45:a8:9a:18:61:2b:69:b1:89:f1:95:
                    56:a8:b2:40:80:18:36:35:23:03:b4:89:7b:3e:82:
                    b5:42:8d:47:95:39:90:8d:1a:69:bb:bd:56:d8:51:
                    2b:d5:ad:28:4f:6b:72:e3:ba:af:e4:0d:29:89:fd:
                    b6:2b:dd:b3:45:92:e0:cf:2c:78:47:b1:59:fe:47:
                    cd:8c:46:db:dc:ba:44:be:9f:7d:0a:06:f9:2d:da:
                    05:85:06:53:e2:21:32:e5:64:1d:30:9a:35:a4:64:
                    d4:90:be:e9:b8:1c:6c:b3:36:43:d5:6b:c8:dc:e2:
                    a1:45
                Exponent: 65537 (0x10001)
        X509v3 extensions:
            X509v3 Authority Key Identifier: 
                keyid:11:CD:8E:60:44:47:57:4F:4F:CB:E9:E7:CB:A1:46:DF:BA:0E:50:8B
                DirName:/C=JP/O=Japanese Government/OU=National Police Agency/OU=NPA ICDL Root CA
                serial:32:30:30:30:30:30:31:36
            X509v3 Subject Key Identifier: 
                4C:15:12:87:D3:22:FC:6D:1E:71:0F:1B:DA:30:38:E5:BD:F4:A2:FE
            X509v3 Key Usage: critical
                Digital Signature, Non Repudiation
            X509v3 Certificate Policies: critical
                Policy: 1.2.392.100120.7.5.1.1.10
                  CPS: http://www.npa.go.jp/
            X509v3 Issuer Alternative Name: 
                DirName:/C=JP/O=\xE6\x97\xA5\xE6\x9C\xAC\xE5\x9B\xBD\xE6\x94\xBF\xE5\xBA\x9C/OU=\xE8\xAD\xA6\xE5\xAF\x9F\xE5\xBA\x81/OU=\xE8\xAD\xA6\xE5\xAF\x9F\xE5\xBA\x81\xE9\x81\x8B\xE8\xBB\xA2\xE5\x85\x8D\xE8\xA8\xB1\xE8\xA8\xBC\xE8\xAA\x8D\xE8\xA8\xBC\xE5\xB1\x80
            X509v3 CRL Distribution Points: 
                Full Name:
                  DirName:C = JP, O = Japanese Government, OU = National Police Agency, OU = Prefectural Public Safety Commissions for ICDL
    Signature Algorithm: sha256WithRSAEncryption
    Signature Value:
        61:a1:a2:86:8f:d8:a8:8e:4b:93:78:0e:c5:cc:5c:62:89:c5:
        c0:18:4f:19:94:c7:1b:7b:ed:dc:49:7b:32:28:5f:8c:83:b2:
        dd:ae:50:f3:b4:7e:8c:46:56:9e:c1:00:bb:ab:88:98:0b:0c:
        db:3c:51:a1:f1:e0:4d:0c:19:cc:f8:6a:57:76:a8:1f:9e:fa:
        9c:e4:b3:fe:21:8b:1a:9d:7c:98:ad:2c:cc:c7:ad:63:ce:48:
        ed:bb:9c:1b:9a:4b:28:90:f6:7f:85:fd:56:44:f5:46:ad:d5:
        26:c8:b1:09:7b:e4:c6:93:ba:16:e0:15:02:67:f5:65:a9:3e:
        33:7a:0d:50:03:e1:62:94:1f:1a:7a:78:59:59:b4:85:24:43:
        0b:4c:46:e0:4a:ac:31:30:4f:a1:7e:44:2d:12:bc:d7:07:75:
        d9:ad:8b:1c:53:1c:7c:22:92:66:fd:84:9c:91:3f:49:f6:95:
        74:b6:56:c7:82:5d:27:b8:8c:4a:f1:12:e9:c1:22:64:bf:b9:
        f7:79:50:47:b5:1f:fe:57:1e:1d:01:55:54:50:06:f5:d8:5d:
        a9:2f:fc:c6:ba:eb:6f:4e:da:35:0a:9d:03:61:ee:62:85:a4:
        f6:eb:34:c6:0f:68:ec:9f:e1:cb:9a:58:fb:72:d6:fb:5a:1b:
        a2:a2:d9:14
-----BEGIN CERTIFICATE-----
MIIFuzCCBKOgAwIBAgISMzAwMDAwMTeBHjofGUCC2bP7MA0GCSqGSIb3DQEBCwUA
MGcxCzAJBgNVBAYTAkpQMRwwGgYDVQQKDBNKYXBhbmVzZSBHb3Zlcm5tZW50MR8w
HQYDVQQLDBZOYXRpb25hbCBQb2xpY2UgQWdlbmN5MRkwFwYDVQQLDBBOUEEgSUNE
TCBSb290IENBMB4XDTIzMDYxOTA1MzIxOVoXDTI4MDYxODE0NTk1OVowgZ0xCzAJ
BgNVBAYTAkpQMRwwGgYDVQQKDBNKYXBhbmVzZSBHb3Zlcm5tZW50MR8wHQYDVQQL
DBZOYXRpb25hbCBQb2xpY2UgQWdlbmN5MTcwNQYDVQQLDC5QcmVmZWN0dXJhbCBQ
dWJsaWMgU2FmZXR5IENvbW1pc3Npb25zIGZvciBJQ0RMMRYwFAYDVQQDDA1Ub2t5
byBBbHRNUFNDMIIBIjANBgkqhkiG9w0BAQEFAAOCAQ8AMIIBCgKCAQEAo6LsBB5h
Dn1S+PFr9Ysk33otOsH6c5i3MbO6k6muAU2sEqAUf7J5D9zACusm1kQRavw/GENH
j1dVwne/8YPMna6e5MWlDtgO+tFzKSKXz5pvwUfvYKIJ2x9ZtAzsSp72hXjW9zFb
A7JEo3/bvYwKX+7e+gCOAOBS/nJ/HKlNkTJFA5dTF/kzbdjWRaiaGGErabGJ8ZVW
qLJAgBg2NSMDtIl7PoK1Qo1HlTmQjRppu71W2FEr1a0oT2ty47qv5A0pif22K92z
RZLgzyx4R7FZ/kfNjEbb3LpEvp99Cgb5LdoFhQZT4iEy5WQdMJo1pGTUkL7puBxs
szZD1WvI3OKhRQIDAQABo4ICKDCCAiQwgZgGA1UdIwSBkDCBjYAUEc2OYERHV09P
y+nny6FG37oOUIuha6RpMGcxCzAJBgNVBAYTAkpQMRwwGgYDVQQKDBNKYXBhbmVz
ZSBHb3Zlcm5tZW50MR8wHQYDVQQLDBZOYXRpb25hbCBQb2xpY2UgQWdlbmN5MRkw
FwYDVQQLDBBOUEEgSUNETCBSb290IENBgggyMDAwMDAxNjAdBgNVHQ4EFgQUTBUS
h9Mi/G0ecQ8b2jA45b30ov4wDgYDVR0PAQH/BAQDAgbAMEAGA1UdIAEB/wQ2MDQw
MgYLKoMIho4YBwUBAQowIzAhBggrBgEFBQcCARYVaHR0cDovL3d3dy5ucGEuZ28u
anAvMHQGA1UdEgRtMGukaTBnMQswCQYDVQQGEwJKUDEYMBYGA1UECgwP5pel5pys
5Zu95pS/5bqcMRIwEAYDVQQLDAnorablr5/luoExKjAoBgNVBAsMIeitpuWvn+W6
gemBi+i7ouWFjeioseiovOiqjeiovOWxgDCBnwYDVR0fBIGXMIGUMIGRoIGOoIGL
pIGIMIGFMQswCQYDVQQGEwJKUDEcMBoGA1UECgwTSmFwYW5lc2UgR292ZXJubWVu
dDEfMB0GA1UECwwWTmF0aW9uYWwgUG9saWNlIEFnZW5jeTE3MDUGA1UECwwuUHJl
ZmVjdHVyYWwgUHVibGljIFNhZmV0eSBDb21taXNzaW9ucyBmb3IgSUNETDANBgkq
hkiG9w0BAQsFAAOCAQEAYaGiho/YqI5Lk3gOxcxcYonFwBhPGZTHG3vt3El7Mihf
jIOy3a5Q87R+jEZWnsEAu6uImAsM2zxRofHgTQwZzPhqV3aoH576nOSz/iGLGp18
mK0szMetY85I7bucG5pLKJD2f4X9VkT1Rq3VJsixCXvkxpO6FuAVAmf1Zak+M3oN
UAPhYpQfGnp4WVm0hSRDC0xG4EqsMTBPoX5ELRK81wd12a2LHFMcfCKSZv2EnJE/
SfaVdLZWx4JdJ7iMSvES6cEiZL+593lQR7Uf/lceHQFVVFAG9dhdqS/8xrrrb07a
NQqdA2HuYoWk9us0xg9o7J/hy5pY+3LW+1oboqLZFA==
-----END CERTIFICATE-----
