Certificate:
    Data:
        Version: 3 (0x2)
        Serial Number:
            32:30:30:30:30:30:38:32
        Signature Algorithm: sha256WithRSAEncryption
        Issuer: C=JP, O=Japanese Government, OU=National Police Agency, OU=NPA ICDL Root CA
        Validity
            Not Before: Mar 15 04:23:29 2023 GMT
            Not After : Mar 14 14:59:59 2028 GMT
        Subject: C=JP, O=Japanese Government, OU=National Police Agency, OU=Prefectural Public Safety Commissions for ICDL, CN=Tottori PPSC
        Subject Public Key Info:
            Public Key Algorithm: rsaEncryption
                Public-Key: (2048 bit)
                Modulus:
                    00:85:ac:a0:25:39:b3:7a:bd:60:bc:3f:ee:cc:85:
                    f6:f8:07:68:c2:b0:b2:18:2e:cb:6d:db:27:57:a4:
                    08:e0:78:d6:17:73:7a:b7:77:2d:a1:fd:2e:f1:f6:
                    d6:47:72:2a:e0:75:70:35:28:06:36:02:ff:5c:1f:
                    a6:06:e7:31:c3:cf:03:5c:75:00:ca:ca:6a:e4:c2:
                    7a:3b:8f:27:d4:3d:82:cf:4d:51:90:a3:be:8b:6f:
                    6b:23:85:36:51:42:45:b7:7c:a3:89:9d:19:80:7f:
                    8a:27:21:5f:3f:df:98:d2:eb:2f:c7:5c:3c:85:43:
                    09:ec:de:43:7c:e1:15:d6:c9:61:e3:4c:20:5c:4b:
                    93:4a:7c:8c:d9:64:05:57:3f:f1:5f:20:29:29:78:
                    7b:bb:f7:44:71:11:0b:ed:d3:54:87:17:cf:8a:1b:
                    e4:3d:df:84:bd:55:be:3e:8d:92:72:90:d2:79:d5:
                    c2:37:48:d1:d6:5e:eb:b9:36:8f:78:df:7f:11:37:
                    5b:53:fc:c7:70:ee:4e:8e:59:d1:1a:93:dd:3f:ba:
                    eb:93:57:2f:77:3f:98:c1:17:27:4f:b3:7b:5b:08:
                    b8:fc:ca:45:fe:6c:60:ed:7a:4a:c5:a2:c9:5f:68:
                    bc:68:e2:3d:ad:9f:b7:d5:5a:88:a7:e8:77:14:2e:
                    c8:d3
                Exponent: 65537 (0x10001)
        X509v3 extensions:
            X509v3 Authority Key Identifier: 
                keyid:11:CD:8E:60:44:47:57:4F:4F:CB:E9:E7:CB:A1:46:DF:BA:0E:50:8B
                DirName:/C=JP/O=Japanese Government/OU=National Police Agency/OU=NPA ICDL Root CA
                serial:32:30:30:30:30:30:31:36
            X509v3 Subject Key Identifier: 
                23:85:EA:17:DC:E8:24:8E:AC:1B:4E:E1:3E:24:31:DA:EF:4B:03:2C
            X509v3 Key Usage: critical
                Digital Signature, Non Repudiation
            X509v3 Certificate Policies: critical
                Policy: 1.2.392.100120.7.5.1.1.10
                  CPS: http://www.npa.go.jp/
            X509v3 Subject Alternative Name: 
                DirName:/C=JP/O=\xE6\x97\xA5\xE6\x9C\xAC\xE5\x9B\xBD\xE6\x94\xBF\xE5\xBA\x9C/OU=\xE8\xAD\xA6\xE5\xAF\x9F\xE5\xBA\x81/OU=\xE9\x83\xBD\xE9\x81\x93\xE5\xBA\x9C\xE7\x9C\x8C\xE5\x85\xAC\xE5\xAE\x89\xE5\xA7\x94\xE5\x93\xA1\xE4\xBC\x9A
            X509v3 Issuer Alternative Name: 
                DirName:/C=JP/O=\xE6\x97\xA5\xE6\x9C\xAC\xE5\x9B\xBD\xE6\x94\xBF\xE5\xBA\x9C/OU=\xE8\xAD\xA6\xE5\xAF\x9F\xE5\xBA\x81/OU=\xE8\xAD\xA6\xE5\xAF\x9F\xE5\xBA\x81\xE9\x81\x8B\xE8\xBB\xA2\xE5\x85\x8D\xE8\xA8\xB1\xE8\xA8\xBC\xE8\xAA\x8D\xE8\xA8\xBC\xE5\xB1\x80
            X509v3 CRL Distribution Points: 
                Full Name:
                  DirName:C = JP, O = Japanese Government, OU = National Police Agency, OU = Prefectural Public Safety Commissions for ICDL
    Signature Algorithm: sha256WithRSAEncryption
    Signature Value:
        82:b1:97:07:2f:be:df:c3:9a:c6:9d:f8:51:e7:d1:e0:80:69:
        71:f1:bc:e0:30:fc:75:64:ad:24:52:8a:e9:4d:d2:0c:b2:cf:
        04:7f:37:82:e0:6d:fd:bc:8c:81:01:9e:9a:b6:15:a0:25:a7:
        b3:55:7c:0c:51:06:a6:c2:34:37:01:0d:0d:97:d5:d3:cd:94:
        e4:4d:dd:6b:c7:64:55:f2:a1:eb:83:52:75:de:d8:9c:93:b7:
        de:b4:b2:2f:b9:37:3d:fe:70:d7:c9:b5:de:ac:33:f2:98:e5:
        39:96:5f:17:77:49:34:ed:18:24:2f:3f:41:fc:cb:f2:df:6e:
        22:f3:b2:d9:46:21:fe:90:db:fa:53:1f:e8:91:af:a9:cb:5c:
        ee:c6:41:e7:b2:6f:bc:a6:cd:6f:21:54:7b:54:62:52:fb:a6:
        47:0b:5d:40:53:55:a4:e0:d6:88:91:44:2d:13:82:80:13:18:
        66:dd:85:92:50:b4:be:c1:e2:a1:55:4d:56:17:40:d9:1f:05:
        e8:d3:d4:5f:49:fa:cc:12:9c:8f:69:ff:1c:6a:af:0b:80:b6:
        7e:80:d9:4e:fe:76:5e:e2:8c:fd:5e:8c:d6:57:6e:8f:a1:e6:
        a4:af:42:d0:27:2e:69:f5:89:cf:27:c2:25:07:29:89:71:db:
        e8:20:74:3f
-----BEGIN CERTIFICATE-----
MIIGSDCCBTCgAwIBAgIIMjAwMDAwODIwDQYJKoZIhvcNAQELBQAwZzELMAkGA1UE
BhMCSlAxHDAaBgNVBAoME0phcGFuZXNlIEdvdmVybm1lbnQxHzAdBgNVBAsMFk5h
dGlvbmFsIFBvbGljZSBBZ2VuY3kxGTAXBgNVBAsMEE5QQSBJQ0RMIFJvb3QgQ0Ew
HhcNMjMwMzE1MDQyMzI5WhcNMjgwMzE0MTQ1OTU5WjCBnDELMAkGA1UEBhMCSlAx
HDAaBgNVBAoME0phcGFuZXNlIEdvdmVybm1lbnQxHzAdBgNVBAsMFk5hdGlvbmFs
IFBvbGljZSBBZ2VuY3kxNzA1BgNVBAsMLlByZWZlY3R1cmFsIFB1YmxpYyBTYWZl
dHkgQ29tbWlzc2lvbnMgZm9yIElDREwxFTATBgNVBAMMDFRvdHRvcmkgUFBTQzCC
ASIwDQYJKoZIhvcNAQEBBQADggEPADCCAQoCggEBAIWsoCU5s3q9YLw/7syF9vgH
aMKwshguy23bJ1ekCOB41hdzerd3LaH9LvH21kdyKuB1cDUoBjYC/1wfpgbnMcPP
A1x1AMrKauTCejuPJ9Q9gs9NUZCjvotvayOFNlFCRbd8o4mdGYB/iichXz/fmNLr
L8dcPIVDCezeQ3zhFdbJYeNMIFxLk0p8jNlkBVc/8V8gKSl4e7v3RHERC+3TVIcX
z4ob5D3fhL1Vvj6NknKQ0nnVwjdI0dZe67k2j3jffxE3W1P8x3DuTo5Z0RqT3T+6
65NXL3c/mMEXJ0+ze1sIuPzKRf5sYO16SsWiyV9ovGjiPa2ft9VaiKfodxQuyNMC
AwEAAaOCAsAwggK8MIGYBgNVHSMEgZAwgY2AFBHNjmBER1dPT8vp58uhRt+6DlCL
oWukaTBnMQswCQYDVQQGEwJKUDEcMBoGA1UECgwTSmFwYW5lc2UgR292ZXJubWVu
dDEfMB0GA1UECwwWTmF0aW9uYWwgUG9saWNlIEFnZW5jeTEZMBcGA1UECwwQTlBB
IElDREwgUm9vdCBDQYIIMjAwMDAwMTYwHQYDVR0OBBYEFCOF6hfc6CSOrBtO4T4k
MdrvSwMsMA4GA1UdDwEB/wQEAwIGwDBABgNVHSABAf8ENjA0MDIGCyqDCIaOGAcF
AQEKMCMwIQYIKwYBBQUHAgEWFWh0dHA6Ly93d3cubnBhLmdvLmpwLzCBlQYDVR0R
BIGNMIGKpIGHMIGEMQswCQYDVQQGEwJKUDEYMBYGA1UECgwP5pel5pys5Zu95pS/
5bqcMRIwEAYDVQQLDAnorablr5/luoExJDAiBgNVBAsMG+mDvemBk+W6nOecjOWF
rOWuieWnlOWToeS8mjEhMB8GA1UEAwwY6bOl5Y+W55yM5YWs5a6J5aeU5ZOh5Lya
MHQGA1UdEgRtMGukaTBnMQswCQYDVQQGEwJKUDEYMBYGA1UECgwP5pel5pys5Zu9
5pS/5bqcMRIwEAYDVQQLDAnorablr5/luoExKjAoBgNVBAsMIeitpuWvn+W6gemB
i+i7ouWFjeioseiovOiqjeiovOWxgDCBnwYDVR0fBIGXMIGUMIGRoIGOoIGLpIGI
MIGFMQswCQYDVQQGEwJKUDEcMBoGA1UECgwTSmFwYW5lc2UgR292ZXJubWVudDEf
MB0GA1UECwwWTmF0aW9uYWwgUG9saWNlIEFnZW5jeTE3MDUGA1UECwwuUHJlZmVj
dHVyYWwgUHVibGljIFNhZmV0eSBDb21taXNzaW9ucyBmb3IgSUNETDANBgkqhkiG
9w0BAQsFAAOCAQEAgrGXBy++38Oaxp34UefR4IBpcfG84DD8dWStJFKK6U3SDLLP
BH83guBt/byMgQGemrYVoCWns1V8DFEGpsI0NwENDZfV082U5E3da8dkVfKh64NS
dd7YnJO33rSyL7k3Pf5w18m13qwz8pjlOZZfF3dJNO0YJC8/QfzL8t9uIvOy2UYh
/pDb+lMf6JGvqctc7sZB57JvvKbNbyFUe1RiUvumRwtdQFNVpODWiJFELROCgBMY
Zt2FklC0vsHioVVNVhdA2R8F6NPUX0n6zBKcj2n/HGqvC4C2foDZTv52XuKM/V6M
1lduj6HmpK9C0CcuafWJzyfCJQcpiXHb6CB0Pw==
-----END CERTIFICATE-----
