Certificate:
    Data:
        Version: 3 (0x2)
        Serial Number:
            33:30:30:30:30:30:38:36
        Signature Algorithm: sha256WithRSAEncryption
        Issuer: C=JP, O=Japanese Government, OU=National Police Agency, OU=NPA ICDL Root CA
        Validity
            Not Before: Mar 18 05:25:24 2024 GMT
            Not After : Mar 17 14:59:59 2029 GMT
        Subject: C=JP, O=Japanese Government, OU=National Police Agency, OU=Prefectural Public Safety Commissions for ICDL, CN=Tottori AltPPSC
        Subject Public Key Info:
            Public Key Algorithm: rsaEncryption
                Public-Key: (2048 bit)
                Modulus:
                    00:85:ac:a0:25:39:b3:7a:bd:60:bc:3f:ee:cc:85:
                    f6:f8:07:68:c2:b0:b2:18:2e:cb:6d:db:27:57:a4:
                    08:e0:78:d6:17:73:7a:b7:77:2d:a1:fd:2e:f1:f6:
                    d6:47:72:2a:e0:75:70:35:28:06:36:02:ff:5c:1f:
                    a6:06:e7:31:c3:cf:03:5c:75:00:ca:ca:6a:e4:c2:
                    7a:3b:8f:27:d4:3d:82:cf:4d:51:90:a3:be:8b:6f:
                    6b:23:85:36:51:42:45:b7:7c:a3:89:9d:19:80:7f:
                    8a:27:21:5f:3f:df:98:d2:eb:2f:c7:5c:3c:85:43:
                    09:ec:de:43:7c:e1:15:d6:c9:61:e3:4c:20:5c:4b:
                    93:4a:7c:8c:d9:64:05:57:3f:f1:5f:20:29:29:78:
                    7b:bb:f7:44:71:11:0b:ed:d3:54:87:17:cf:8a:1b:
                    e4:3d:df:84:bd:55:be:3e:8d:92:72:90:d2:79:d5:
                    c2:37:48:d1:d6:5e:eb:b9:36:8f:78:df:7f:11:37:
                    5b:53:fc:c7:70:ee:4e:8e:59:d1:1a:93:dd:3f:ba:
                    eb:93:57:2f:77:3f:98:c1:17:27:4f:b3:7b:5b:08:
                    b8:fc:ca:45:fe:6c:60:ed:7a:4a:c5:a2:c9:5f:68:
                    bc:68:e2:3d:ad:9f:b7:d5:5a:88:a7:e8:77:14:2e:
                    c8:d3
                Exponent: 65537 (0x10001)
        X509v3 extensions:
            X509v3 Authority Key Identifier: 
                keyid:11:CD:8E:60:44:47:57:4F:4F:CB:E9:E7:CB:A1:46:DF:BA:0E:50:8B
                DirName:/C=JP/O=Japanese Government/OU=National Police Agency/OU=NPA ICDL Root CA
                serial:32:30:30:30:30:30:31:36
            X509v3 Subject Key Identifier: 
                23:85:EA:17:DC:E8:24:8E:AC:1B:4E:E1:3E:24:31:DA:EF:4B:03:2C
            X509v3 Key Usage: critical
                Digital Signature, Non Repudiation
            X509v3 Certificate Policies: critical
                Policy: 1.2.392.100120.7.5.1.1.10
                  CPS: http://www.npa.go.jp/
            X509v3 Issuer Alternative Name: 
                DirName:/C=JP/O=\xE6\x97\xA5\xE6\x9C\xAC\xE5\x9B\xBD\xE6\x94\xBF\xE5\xBA\x9C/OU=\xE8\xAD\xA6\xE5\xAF\x9F\xE5\xBA\x81/OU=\xE8\xAD\xA6\xE5\xAF\x9F\xE5\xBA\x81\xE9\x81\x8B\xE8\xBB\xA2\xE5\x85\x8D\xE8\xA8\xB1\xE8\xA8\xBC\xE8\xAA\x8D\xE8\xA8\xBC\xE5\xB1\x80
            X509v3 CRL Distribution Points: 
                Full Name:
                  DirName:C = JP, O = Japanese Government, OU = National Police Agency, OU = Prefectural Public Safety Commissions for ICDL
    Signature Algorithm: sha256WithRSAEncryption
    Signature Value:
        8a:b8:81:8e:a1:fc:32:1f:71:74:86:f1:fb:ea:a7:76:55:16:
        18:1a:fc:13:ad:55:11:6a:da:c7:94:b1:7c:aa:0b:78:ef:4a:
        cd:ab:6b:0e:3a:53:3b:e4:06:f8:46:23:c5:54:2f:8c:65:66:
        ee:40:9d:4e:19:61:56:8d:f1:73:21:b3:7b:aa:47:7f:1c:22:
        5a:39:16:ab:63:c5:f2:67:4f:b8:f2:11:18:63:54:8c:b6:11:
        fa:f9:ff:eb:e0:af:70:87:ec:1a:5f:1d:b5:3c:e0:88:76:e0:
        17:55:ce:d9:85:b0:f8:f1:8c:e6:4d:6b:a9:ac:f3:49:1c:77:
        94:3b:7d:0a:52:ad:5e:19:22:43:3c:0d:92:bb:7b:d3:87:85:
        41:15:e5:84:87:25:51:1d:14:5d:73:f4:9d:7b:f0:f8:f3:21:
        63:37:84:73:28:50:d3:bd:f8:a1:11:57:bd:f2:08:66:f5:f0:
        77:6e:c1:4e:48:11:88:73:dd:42:55:c2:19:40:24:26:54:65:
        89:ed:6c:32:7f:5d:7d:af:67:d7:8a:d5:b8:17:83:7e:0b:86:
        a9:7f:97:81:c0:6d:2e:7f:6c:70:e6:fa:3a:69:0a:42:32:82:
        7b:21:e5:46:75:aa:2f:c5:06:06:d8:12:ea:f8:98:a8:b7:a0:
        bd:52:27:02
-----BEGIN CERTIFICATE-----
MIIFszCCBJugAwIBAgIIMzAwMDAwODYwDQYJKoZIhvcNAQELBQAwZzELMAkGA1UE
BhMCSlAxHDAaBgNVBAoME0phcGFuZXNlIEdvdmVybm1lbnQxHzAdBgNVBAsMFk5h
dGlvbmFsIFBvbGljZSBBZ2VuY3kxGTAXBgNVBAsMEE5QQSBJQ0RMIFJvb3QgQ0Ew
HhcNMjQwMzE4MDUyNTI0WhcNMjkwMzE3MTQ1OTU5WjCBnzELMAkGA1UEBhMCSlAx
HDAaBgNVBAoME0phcGFuZXNlIEdvdmVybm1lbnQxHzAdBgNVBAsMFk5hdGlvbmFs
IFBvbGljZSBBZ2VuY3kxNzA1BgNVBAsMLlByZWZlY3R1cmFsIFB1YmxpYyBTYWZl
dHkgQ29tbWlzc2lvbnMgZm9yIElDREwxGDAWBgNVBAMMD1RvdHRvcmkgQWx0UFBT
QzCCASIwDQYJKoZIhvcNAQEBBQADggEPADCCAQoCggEBAIWsoCU5s3q9YLw/7syF
9vgHaMKwshguy23bJ1ekCOB41hdzerd3LaH9LvH21kdyKuB1cDUoBjYC/1wfpgbn
McPPA1x1AMrKauTCejuPJ9Q9gs9NUZCjvotvayOFNlFCRbd8o4mdGYB/iichXz/f
mNLrL8dcPIVDCezeQ3zhFdbJYeNMIFxLk0p8jNlkBVc/8V8gKSl4e7v3RHERC+3T
VIcXz4ob5D3fhL1Vvj6NknKQ0nnVwjdI0dZe67k2j3jffxE3W1P8x3DuTo5Z0RqT
3T+665NXL3c/mMEXJ0+ze1sIuPzKRf5sYO16SsWiyV9ovGjiPa2ft9VaiKfodxQu
yNMCAwEAAaOCAigwggIkMIGYBgNVHSMEgZAwgY2AFBHNjmBER1dPT8vp58uhRt+6
DlCLoWukaTBnMQswCQYDVQQGEwJKUDEcMBoGA1UECgwTSmFwYW5lc2UgR292ZXJu
bWVudDEfMB0GA1UECwwWTmF0aW9uYWwgUG9saWNlIEFnZW5jeTEZMBcGA1UECwwQ
TlBBIElDREwgUm9vdCBDQYIIMjAwMDAwMTYwHQYDVR0OBBYEFCOF6hfc6CSOrBtO
4T4kMdrvSwMsMA4GA1UdDwEB/wQEAwIGwDBABgNVHSABAf8ENjA0MDIGCyqDCIaO
GAcFAQEKMCMwIQYIKwYBBQUHAgEWFWh0dHA6Ly93d3cubnBhLmdvLmpwLzB0BgNV
HRIEbTBrpGkwZzELMAkGA1UEBhMCSlAxGDAWBgNVBAoMD+aXpeacrOWbveaUv+W6
nDESMBAGA1UECwwJ6K2m5a+f5bqBMSowKAYDVQQLDCHorablr5/luoHpgYvou6Ll
hY3oqLHoqLzoqo3oqLzlsYAwgZ8GA1UdHwSBlzCBlDCBkaCBjqCBi6SBiDCBhTEL
MAkGA1UEBhMCSlAxHDAaBgNVBAoME0phcGFuZXNlIEdvdmVybm1lbnQxHzAdBgNV
BAsMFk5hdGlvbmFsIFBvbGljZSBBZ2VuY3kxNzA1BgNVBAsMLlByZWZlY3R1cmFs
IFB1YmxpYyBTYWZldHkgQ29tbWlzc2lvbnMgZm9yIElDREwwDQYJKoZIhvcNAQEL
BQADggEBAIq4gY6h/DIfcXSG8fvqp3ZVFhga/BOtVRFq2seUsXyqC3jvSs2raw46
UzvkBvhGI8VUL4xlZu5AnU4ZYVaN8XMhs3uqR38cIlo5FqtjxfJnT7jyERhjVIy2
Efr5/+vgr3CH7BpfHbU84Ih24BdVztmFsPjxjOZNa6ms80kcd5Q7fQpSrV4ZIkM8
DZK7e9OHhUEV5YSHJVEdFF1z9J178PjzIWM3hHMoUNO9+KERV73yCGb18HduwU5I
EYhz3UJVwhlAJCZUZYntbDJ/XX2vZ9eK1bgXg34Lhql/l4HAbS5/bHDm+jppCkIy
gnsh5UZ1qi/FBgbYEur4mKi3oL1SJwI=
-----END CERTIFICATE-----
