Certificate:
    Data:
        Version: 3 (0x2)
        Serial Number:
            33:30:30:30:30:30:34:30:99:9b:22:1c:aa:eb:cc:4f:2b:60
        Signature Algorithm: sha256WithRSAEncryption
        Issuer: C=JP, O=Japanese Government, OU=National Police Agency, OU=NPA ICDL Root CA
        Validity
            Not Before: Jun 19 06:04:39 2023 GMT
            Not After : Jun 18 14:59:59 2028 GMT
        Subject: C=JP, O=Japanese Government, OU=National Police Agency, OU=Prefectural Public Safety Commissions for ICDL, CN=Tottori AltPPSC
        Subject Public Key Info:
            Public Key Algorithm: rsaEncryption
                Public-Key: (2048 bit)
                Modulus:
                    00:c6:f6:5c:00:fb:63:67:eb:51:32:e5:5a:55:38:
                    cd:77:30:d3:fd:09:dd:b9:57:12:be:87:15:d7:3a:
                    d4:51:0d:62:33:11:08:a8:a6:47:c3:0a:af:c4:0a:
                    fe:15:c4:15:e4:58:ba:fc:99:fa:24:33:bd:5d:51:
                    51:02:6f:50:95:b1:7f:e3:2d:f9:8b:4b:e2:9b:f6:
                    2c:c6:9a:cc:b7:62:59:d9:0a:b7:d5:eb:9d:39:ca:
                    a0:3c:f6:d5:1e:e1:56:6b:d0:c6:5d:c3:b6:4c:be:
                    f0:9a:59:9f:42:3f:43:fd:51:16:7f:4e:06:51:96:
                    d2:ee:41:a6:59:e3:db:bc:0b:6a:6b:a8:48:0f:98:
                    3b:e1:94:92:a0:dd:01:25:d4:aa:19:12:2f:25:d6:
                    33:8d:69:d0:c7:0e:0a:fd:97:d2:d2:69:8a:fb:dc:
                    d3:87:f5:9f:e8:00:86:94:23:e7:ee:4a:a1:62:cc:
                    5f:22:d5:e2:9c:30:01:4d:2b:55:26:ee:17:f8:01:
                    1a:51:e6:f4:f6:33:bd:a0:fa:c8:29:91:1b:fb:79:
                    99:fb:37:d0:e1:6d:ad:7c:e8:f3:af:e3:8b:9a:ee:
                    e2:5a:b8:63:f6:44:e1:82:d9:48:8f:17:12:66:c9:
                    09:aa:21:71:8c:33:14:f2:58:f9:9f:cb:a6:07:cf:
                    58:c9
                Exponent: 65537 (0x10001)
        X509v3 extensions:
            X509v3 Authority Key Identifier: 
                keyid:11:CD:8E:60:44:47:57:4F:4F:CB:E9:E7:CB:A1:46:DF:BA:0E:50:8B
                DirName:/C=JP/O=Japanese Government/OU=National Police Agency/OU=NPA ICDL Root CA
                serial:32:30:30:30:30:30:31:36
            X509v3 Subject Key Identifier: 
                D0:59:C7:29:79:41:46:3C:5D:B1:0C:88:47:FD:69:7E:C4:39:21:CB
            X509v3 Key Usage: critical
                Digital Signature, Non Repudiation
            X509v3 Certificate Policies: critical
                Policy: 1.2.392.100120.7.5.1.1.10
                  CPS: http://www.npa.go.jp/
            X509v3 Issuer Alternative Name: 
                DirName:/C=JP/O=\xE6\x97\xA5\xE6\x9C\xAC\xE5\x9B\xBD\xE6\x94\xBF\xE5\xBA\x9C/OU=\xE8\xAD\xA6\xE5\xAF\x9F\xE5\xBA\x81/OU=\xE8\xAD\xA6\xE5\xAF\x9F\xE5\xBA\x81\xE9\x81\x8B\xE8\xBB\xA2\xE5\x85\x8D\xE8\xA8\xB1\xE8\xA8\xBC\xE8\xAA\x8D\xE8\xA8\xBC\xE5\xB1\x80
            X509v3 CRL Distribution Points: 
                Full Name:
                  DirName:C = JP, O = Japanese Government, OU = National Police Agency, OU = Prefectural Public Safety Commissions for ICDL
    Signature Algorithm: sha256WithRSAEncryption
    Signature Value:
        88:99:c8:e6:15:64:c5:b3:ff:e1:92:8c:88:fd:f3:d3:56:28:
        d7:e5:9e:8f:11:ed:cc:44:d8:ac:8c:11:1a:f2:93:07:33:86:
        a9:48:50:56:ba:4b:e5:43:49:22:1a:16:68:3a:ff:f2:3c:06:
        56:c8:5d:15:54:99:c4:df:25:09:ab:3d:3d:e9:88:9a:ac:30:
        bd:73:80:89:ba:ae:3d:0d:76:90:67:e7:f1:4e:dd:24:04:29:
        53:76:a4:11:2c:7b:ba:65:d8:bf:3e:0f:5d:24:41:74:ad:64:
        ca:dc:13:bd:e3:17:25:3b:fe:77:d3:69:41:6e:b6:35:09:18:
        26:8f:17:7a:67:4a:6b:07:4f:b0:bd:08:86:fc:ca:0b:f3:67:
        bf:47:7b:04:ee:15:00:7a:8b:e0:61:f5:f3:74:05:2c:6d:c2:
        9b:1f:91:51:c6:14:ff:ec:75:5d:35:13:33:f9:47:22:7e:86:
        ed:88:7b:d5:26:6d:cf:27:7b:d4:a2:cb:4f:9b:f9:29:38:a7:
        84:e8:b5:e4:ee:d4:22:e7:09:08:67:2c:64:8f:0b:66:13:cf:
        8f:35:70:65:0c:dc:f7:26:8d:bf:15:58:a8:d2:86:d1:de:63:
        08:33:9a:c8:13:ff:75:5f:ab:00:89:9d:78:4a:e0:30:bc:5f:
        9c:6b:78:ea
-----BEGIN CERTIFICATE-----
MIIFvTCCBKWgAwIBAgISMzAwMDAwNDCZmyIcquvMTytgMA0GCSqGSIb3DQEBCwUA
MGcxCzAJBgNVBAYTAkpQMRwwGgYDVQQKDBNKYXBhbmVzZSBHb3Zlcm5tZW50MR8w
HQYDVQQLDBZOYXRpb25hbCBQb2xpY2UgQWdlbmN5MRkwFwYDVQQLDBBOUEEgSUNE
TCBSb290IENBMB4XDTIzMDYxOTA2MDQzOVoXDTI4MDYxODE0NTk1OVowgZ8xCzAJ
BgNVBAYTAkpQMRwwGgYDVQQKDBNKYXBhbmVzZSBHb3Zlcm5tZW50MR8wHQYDVQQL
DBZOYXRpb25hbCBQb2xpY2UgQWdlbmN5MTcwNQYDVQQLDC5QcmVmZWN0dXJhbCBQ
dWJsaWMgU2FmZXR5IENvbW1pc3Npb25zIGZvciBJQ0RMMRgwFgYDVQQDDA9Ub3R0
b3JpIEFsdFBQU0MwggEiMA0GCSqGSIb3DQEBAQUAA4IBDwAwggEKAoIBAQDG9lwA
+2Nn61Ey5VpVOM13MNP9Cd25VxK+hxXXOtRRDWIzEQiopkfDCq/ECv4VxBXkWLr8
mfokM71dUVECb1CVsX/jLfmLS+Kb9izGmsy3YlnZCrfV6505yqA89tUe4VZr0MZd
w7ZMvvCaWZ9CP0P9URZ/TgZRltLuQaZZ49u8C2prqEgPmDvhlJKg3QEl1KoZEi8l
1jONadDHDgr9l9LSaYr73NOH9Z/oAIaUI+fuSqFizF8i1eKcMAFNK1Um7hf4ARpR
5vT2M72g+sgpkRv7eZn7N9Dhba186POv44ua7uJauGP2ROGC2UiPFxJmyQmqIXGM
MxTyWPmfy6YHz1jJAgMBAAGjggIoMIICJDCBmAYDVR0jBIGQMIGNgBQRzY5gREdX
T0/L6efLoUbfug5Qi6FrpGkwZzELMAkGA1UEBhMCSlAxHDAaBgNVBAoME0phcGFu
ZXNlIEdvdmVybm1lbnQxHzAdBgNVBAsMFk5hdGlvbmFsIFBvbGljZSBBZ2VuY3kx
GTAXBgNVBAsMEE5QQSBJQ0RMIFJvb3QgQ0GCCDIwMDAwMDE2MB0GA1UdDgQWBBTQ
WccpeUFGPF2xDIhH/Wl+xDkhyzAOBgNVHQ8BAf8EBAMCBsAwQAYDVR0gAQH/BDYw
NDAyBgsqgwiGjhgHBQEBCjAjMCEGCCsGAQUFBwIBFhVodHRwOi8vd3d3Lm5wYS5n
by5qcC8wdAYDVR0SBG0wa6RpMGcxCzAJBgNVBAYTAkpQMRgwFgYDVQQKDA/ml6Xm
nKzlm73mlL/lupwxEjAQBgNVBAsMCeitpuWvn+W6gTEqMCgGA1UECwwh6K2m5a+f
5bqB6YGL6Lui5YWN6Kix6Ki86KqN6Ki85bGAMIGfBgNVHR8EgZcwgZQwgZGggY6g
gYukgYgwgYUxCzAJBgNVBAYTAkpQMRwwGgYDVQQKDBNKYXBhbmVzZSBHb3Zlcm5t
ZW50MR8wHQYDVQQLDBZOYXRpb25hbCBQb2xpY2UgQWdlbmN5MTcwNQYDVQQLDC5Q
cmVmZWN0dXJhbCBQdWJsaWMgU2FmZXR5IENvbW1pc3Npb25zIGZvciBJQ0RMMA0G
CSqGSIb3DQEBCwUAA4IBAQCImcjmFWTFs//hkoyI/fPTVijX5Z6PEe3MRNisjBEa
8pMHM4apSFBWukvlQ0kiGhZoOv/yPAZWyF0VVJnE3yUJqz096YiarDC9c4CJuq49
DXaQZ+fxTt0kBClTdqQRLHu6Zdi/Pg9dJEF0rWTK3BO94xclO/5302lBbrY1CRgm
jxd6Z0prB0+wvQiG/MoL82e/R3sE7hUAeovgYfXzdAUsbcKbH5FRxhT/7HVdNRMz
+UcifobtiHvVJm3PJ3vUostPm/kpOKeE6LXk7tQi5wkIZyxkjwtmE8+PNXBlDNz3
Jo2/FVio0obR3mMIM5rIE/91X6sAiZ14SuAwvF+ca3jq
-----END CERTIFICATE-----
