Certificate:
    Data:
        Version: 3 (0x2)
        Serial Number:
            33:30:30:30:30:30:36:36
        Signature Algorithm: sha256WithRSAEncryption
        Issuer: C=JP, O=Japanese Government, OU=National Police Agency, OU=NPA ICDL Root CA
        Validity
            Not Before: Nov  1 04:41:49 2023 GMT
            Not After : Oct 31 14:59:59 2028 GMT
        Subject: C=JP, O=Japanese Government, OU=National Police Agency, OU=Prefectural Public Safety Commissions for ICDL, CN=Tottori PPSC
        Subject Public Key Info:
            Public Key Algorithm: rsaEncryption
                Public-Key: (2048 bit)
                Modulus:
                    00:9b:af:d4:83:da:21:45:3e:f5:59:4b:ce:76:be:
                    f7:91:e7:11:31:33:2c:86:35:58:9c:da:be:52:05:
                    1e:b4:b6:36:c3:25:d3:d0:f8:17:2c:87:fb:50:73:
                    57:2b:6b:b2:56:25:08:72:9b:1e:9d:91:e9:84:f5:
                    39:00:ba:e3:8a:09:4e:3b:81:3c:a9:70:cb:6b:5e:
                    76:ed:89:97:b6:1b:ec:90:cb:c5:80:6b:39:d7:08:
                    fc:32:32:82:0e:32:9c:82:25:03:31:bc:18:ed:8e:
                    12:e1:e7:17:01:00:44:e5:9a:0e:95:23:40:0d:22:
                    e5:d7:fa:45:7b:5c:be:03:aa:af:18:12:e6:be:31:
                    ff:4a:12:83:04:6e:36:d7:bd:ce:e8:3f:61:c9:eb:
                    b1:ba:36:7b:8f:a2:de:cf:c6:fa:00:70:9d:8b:05:
                    7d:f1:7c:90:09:b9:9c:03:92:ec:9b:5d:94:4a:c1:
                    ec:75:cf:e6:90:d3:81:a7:42:4f:f8:dc:43:47:07:
                    cd:e3:bf:0c:dd:57:60:d7:25:43:a1:9a:69:3e:d9:
                    b7:a4:61:b0:4c:2c:49:09:79:ed:53:f0:2b:71:2a:
                    00:67:bf:0a:18:48:2c:85:a3:6a:a2:c2:9d:50:a7:
                    a1:13:45:39:0e:ed:fe:87:65:74:13:51:2e:f0:1d:
                    5a:9f
                Exponent: 65537 (0x10001)
        X509v3 extensions:
            X509v3 Authority Key Identifier: 
                keyid:11:CD:8E:60:44:47:57:4F:4F:CB:E9:E7:CB:A1:46:DF:BA:0E:50:8B
                DirName:/C=JP/O=Japanese Government/OU=National Police Agency/OU=NPA ICDL Root CA
                serial:32:30:30:30:30:30:31:36
            X509v3 Subject Key Identifier: 
                09:BB:B6:0B:49:94:BE:E6:01:5E:04:3D:CC:49:E2:BF:C5:5E:82:16
            X509v3 Key Usage: critical
                Digital Signature, Non Repudiation
            X509v3 Certificate Policies: critical
                Policy: 1.2.392.100120.7.5.1.1.10
                  CPS: http://www.npa.go.jp/
            X509v3 Subject Alternative Name: 
                DirName:/C=JP/O=\xE6\x97\xA5\xE6\x9C\xAC\xE5\x9B\xBD\xE6\x94\xBF\xE5\xBA\x9C/OU=\xE8\xAD\xA6\xE5\xAF\x9F\xE5\xBA\x81/OU=\xE9\x83\xBD\xE9\x81\x93\xE5\xBA\x9C\xE7\x9C\x8C\xE5\x85\xAC\xE5\xAE\x89\xE5\xA7\x94\xE5\x93\xA1\xE4\xBC\x9A
            X509v3 Issuer Alternative Name: 
                DirName:/C=JP/O=\xE6\x97\xA5\xE6\x9C\xAC\xE5\x9B\xBD\xE6\x94\xBF\xE5\xBA\x9C/OU=\xE8\xAD\xA6\xE5\xAF\x9F\xE5\xBA\x81/OU=\xE8\xAD\xA6\xE5\xAF\x9F\xE5\xBA\x81\xE9\x81\x8B\xE8\xBB\xA2\xE5\x85\x8D\xE8\xA8\xB1\xE8\xA8\xBC\xE8\xAA\x8D\xE8\xA8\xBC\xE5\xB1\x80
            X509v3 CRL Distribution Points: 
                Full Name:
                  DirName:C = JP, O = Japanese Government, OU = National Police Agency, OU = Prefectural Public Safety Commissions for ICDL
    Signature Algorithm: sha256WithRSAEncryption
    Signature Value:
        a6:9b:25:db:9c:af:8c:3d:78:41:5f:56:60:63:7c:f4:83:73:
        6e:33:84:2a:ba:8a:a8:5d:82:7a:26:e3:b3:d2:3b:7c:2b:48:
        41:43:d4:11:54:db:e4:a7:47:78:02:2b:58:1c:0e:b9:3e:d0:
        c1:2f:ec:2c:37:99:04:09:d4:2b:a9:38:e5:00:c9:62:ce:4b:
        f3:ce:d0:21:fe:c2:b6:3b:f3:9f:92:8c:03:06:ce:0d:25:29:
        4c:2b:a2:8e:24:13:7a:8a:92:21:75:d5:f0:f0:e6:c8:69:a1:
        2f:b7:f1:a6:04:bd:81:47:f8:aa:ca:44:da:38:96:b3:90:30:
        ce:b0:b0:f8:68:47:c0:37:45:d6:8c:d8:63:76:84:1b:7f:ec:
        ed:61:bb:2b:90:ce:6f:24:a7:6c:61:5b:78:50:47:af:c9:80:
        86:ba:ad:5e:e3:bb:d3:52:7c:df:e2:12:96:53:0a:98:f6:96:
        43:83:1b:d9:e8:b7:88:34:96:58:8b:17:1b:28:ad:95:89:8e:
        19:86:c3:ba:85:97:ac:70:79:1c:c9:f1:87:0e:5c:fe:be:1c:
        82:56:d9:2f:f0:9d:d8:95:a0:3c:d7:6e:42:27:29:9f:fd:81:
        7c:b4:88:83:21:70:2c:b3:f0:46:c2:86:a7:2e:08:96:b3:d6:
        ae:05:79:e6
-----BEGIN CERTIFICATE-----
MIIGSDCCBTCgAwIBAgIIMzAwMDAwNjYwDQYJKoZIhvcNAQELBQAwZzELMAkGA1UE
BhMCSlAxHDAaBgNVBAoME0phcGFuZXNlIEdvdmVybm1lbnQxHzAdBgNVBAsMFk5h
dGlvbmFsIFBvbGljZSBBZ2VuY3kxGTAXBgNVBAsMEE5QQSBJQ0RMIFJvb3QgQ0Ew
HhcNMjMxMTAxMDQ0MTQ5WhcNMjgxMDMxMTQ1OTU5WjCBnDELMAkGA1UEBhMCSlAx
HDAaBgNVBAoME0phcGFuZXNlIEdvdmVybm1lbnQxHzAdBgNVBAsMFk5hdGlvbmFs
IFBvbGljZSBBZ2VuY3kxNzA1BgNVBAsMLlByZWZlY3R1cmFsIFB1YmxpYyBTYWZl
dHkgQ29tbWlzc2lvbnMgZm9yIElDREwxFTATBgNVBAMMDFRvdHRvcmkgUFBTQzCC
ASIwDQYJKoZIhvcNAQEBBQADggEPADCCAQoCggEBAJuv1IPaIUU+9VlLzna+95Hn
ETEzLIY1WJzavlIFHrS2NsMl09D4FyyH+1BzVytrslYlCHKbHp2R6YT1OQC644oJ
TjuBPKlwy2tedu2Jl7Yb7JDLxYBrOdcI/DIygg4ynIIlAzG8GO2OEuHnFwEAROWa
DpUjQA0i5df6RXtcvgOqrxgS5r4x/0oSgwRuNte9zug/Ycnrsbo2e4+i3s/G+gBw
nYsFffF8kAm5nAOS7JtdlErB7HXP5pDTgadCT/jcQ0cHzeO/DN1XYNclQ6GaaT7Z
t6RhsEwsSQl57VPwK3EqAGe/ChhILIWjaqLCnVCnoRNFOQ7t/odldBNRLvAdWp8C
AwEAAaOCAsAwggK8MIGYBgNVHSMEgZAwgY2AFBHNjmBER1dPT8vp58uhRt+6DlCL
oWukaTBnMQswCQYDVQQGEwJKUDEcMBoGA1UECgwTSmFwYW5lc2UgR292ZXJubWVu
dDEfMB0GA1UECwwWTmF0aW9uYWwgUG9saWNlIEFnZW5jeTEZMBcGA1UECwwQTlBB
IElDREwgUm9vdCBDQYIIMjAwMDAwMTYwHQYDVR0OBBYEFAm7tgtJlL7mAV4EPcxJ
4r/FXoIWMA4GA1UdDwEB/wQEAwIGwDBABgNVHSABAf8ENjA0MDIGCyqDCIaOGAcF
AQEKMCMwIQYIKwYBBQUHAgEWFWh0dHA6Ly93d3cubnBhLmdvLmpwLzCBlQYDVR0R
BIGNMIGKpIGHMIGEMQswCQYDVQQGEwJKUDEYMBYGA1UECgwP5pel5pys5Zu95pS/
5bqcMRIwEAYDVQQLDAnorablr5/luoExJDAiBgNVBAsMG+mDvemBk+W6nOecjOWF
rOWuieWnlOWToeS8mjEhMB8GA1UEAwwY6bOl5Y+W55yM5YWs5a6J5aeU5ZOh5Lya
MHQGA1UdEgRtMGukaTBnMQswCQYDVQQGEwJKUDEYMBYGA1UECgwP5pel5pys5Zu9
5pS/5bqcMRIwEAYDVQQLDAnorablr5/luoExKjAoBgNVBAsMIeitpuWvn+W6gemB
i+i7ouWFjeioseiovOiqjeiovOWxgDCBnwYDVR0fBIGXMIGUMIGRoIGOoIGLpIGI
MIGFMQswCQYDVQQGEwJKUDEcMBoGA1UECgwTSmFwYW5lc2UgR292ZXJubWVudDEf
MB0GA1UECwwWTmF0aW9uYWwgUG9saWNlIEFnZW5jeTE3MDUGA1UECwwuUHJlZmVj
dHVyYWwgUHVibGljIFNhZmV0eSBDb21taXNzaW9ucyBmb3IgSUNETDANBgkqhkiG
9w0BAQsFAAOCAQEAppsl25yvjD14QV9WYGN89INzbjOEKrqKqF2Ceibjs9I7fCtI
QUPUEVTb5KdHeAIrWBwOuT7QwS/sLDeZBAnUK6k45QDJYs5L887QIf7Ctjvzn5KM
AwbODSUpTCuijiQTeoqSIXXV8PDmyGmhL7fxpgS9gUf4qspE2jiWs5AwzrCw+GhH
wDdF1ozYY3aEG3/s7WG7K5DObySnbGFbeFBHr8mAhrqtXuO701J83+ISllMKmPaW
Q4Mb2ei3iDSWWIsXGyitlYmOGYbDuoWXrHB5HMnxhw5c/r4cglbZL/Cd2JWgPNdu
Qicpn/2BfLSIgyFwLLPwRsKGpy4IlrPWrgV55g==
-----END CERTIFICATE-----
