Certificate:
    Data:
        Version: 3 (0x2)
        Serial Number:
            33:30:30:30:30:30:32:38:2a:87:b6:fa:5d:f9:62:2d:cb:59
        Signature Algorithm: sha256WithRSAEncryption
        Issuer: C=JP, O=Japanese Government, OU=National Police Agency, OU=NPA ICDL Root CA
        Validity
            Not Before: Jun 19 05:50:30 2023 GMT
            Not After : Jun 18 14:59:59 2028 GMT
        Subject: C=JP, O=Japanese Government, OU=National Police Agency, OU=Prefectural Public Safety Commissions for ICDL, CN=Toyama AltPPSC
        Subject Public Key Info:
            Public Key Algorithm: rsaEncryption
                Public-Key: (2048 bit)
                Modulus:
                    00:8d:2c:fc:aa:bf:4c:aa:cb:8d:e2:ea:82:c7:16:
                    6e:53:b2:f9:70:e3:74:f2:fe:01:01:a8:ae:f8:88:
                    1f:62:90:98:d2:e4:9f:b5:56:7e:8c:e9:53:32:e3:
                    f6:e8:37:77:d3:30:50:51:8d:14:89:60:ae:a3:69:
                    6d:eb:79:40:a0:ec:02:da:fa:ed:a0:11:d4:e6:30:
                    b4:e6:9a:fe:52:a8:f4:ce:d1:8e:7b:73:78:6d:5f:
                    db:60:e9:7a:af:59:c5:95:a4:05:8e:7d:98:81:50:
                    7b:31:5a:06:3a:d3:fc:35:cc:16:0e:22:ed:00:f0:
                    4e:f2:72:25:57:b5:96:bb:dd:70:9e:8b:e7:45:41:
                    7f:71:2e:ed:ca:ff:73:d3:bb:a7:4d:92:5d:e0:f4:
                    c1:0c:45:e8:61:17:05:da:3b:e1:0a:c2:8e:f6:d8:
                    3f:59:43:a2:7a:43:67:63:08:68:62:4f:c3:06:dc:
                    d9:2b:53:6c:c7:c0:8b:27:7c:d1:c7:cc:af:fc:a7:
                    7c:01:fc:a8:98:c6:fb:ad:0d:85:f5:29:99:2d:c1:
                    f4:df:f6:ac:75:7b:bc:98:db:e0:28:e0:bc:68:48:
                    1c:a9:ad:50:de:0b:c3:01:28:d5:5b:14:54:7a:f5:
                    41:f9:f1:07:09:5d:27:9e:ac:c0:1d:15:05:12:2f:
                    98:e1
                Exponent: 65537 (0x10001)
        X509v3 extensions:
            X509v3 Authority Key Identifier: 
                keyid:11:CD:8E:60:44:47:57:4F:4F:CB:E9:E7:CB:A1:46:DF:BA:0E:50:8B
                DirName:/C=JP/O=Japanese Government/OU=National Police Agency/OU=NPA ICDL Root CA
                serial:32:30:30:30:30:30:31:36
            X509v3 Subject Key Identifier: 
                B8:CB:9F:9D:21:10:AB:37:21:2A:B1:99:6D:3E:0B:CD:6F:9B:1B:E5
            X509v3 Key Usage: critical
                Digital Signature, Non Repudiation
            X509v3 Certificate Policies: critical
                Policy: 1.2.392.100120.7.5.1.1.10
                  CPS: http://www.npa.go.jp/
            X509v3 Issuer Alternative Name: 
                DirName:/C=JP/O=\xE6\x97\xA5\xE6\x9C\xAC\xE5\x9B\xBD\xE6\x94\xBF\xE5\xBA\x9C/OU=\xE8\xAD\xA6\xE5\xAF\x9F\xE5\xBA\x81/OU=\xE8\xAD\xA6\xE5\xAF\x9F\xE5\xBA\x81\xE9\x81\x8B\xE8\xBB\xA2\xE5\x85\x8D\xE8\xA8\xB1\xE8\xA8\xBC\xE8\xAA\x8D\xE8\xA8\xBC\xE5\xB1\x80
            X509v3 CRL Distribution Points: 
                Full Name:
                  DirName:C = JP, O = Japanese Government, OU = National Police Agency, OU = Prefectural Public Safety Commissions for ICDL
    Signature Algorithm: sha256WithRSAEncryption
    Signature Value:
        44:db:f7:a8:b3:87:ba:65:85:31:b1:2e:65:01:3c:f8:f6:f9:
        53:fa:a5:81:53:1c:f3:11:64:26:1e:72:f3:2c:1f:16:f2:32:
        b0:06:5e:84:d4:82:3c:01:da:6e:3c:8f:db:04:25:1f:f5:58:
        2c:1a:64:40:f5:34:95:6d:ad:f0:b9:1c:c4:02:39:0c:22:5b:
        b2:28:02:35:d0:f1:61:0f:de:65:ed:fc:df:d8:d8:af:86:f8:
        28:4e:fb:00:0a:06:5a:e0:ad:d1:27:d4:0e:f1:2e:88:41:77:
        f6:92:e4:a1:23:8e:13:f2:95:5a:ff:96:02:c7:a1:6c:dc:0b:
        bd:4f:38:8a:1b:81:0f:2b:04:14:7f:c6:b4:dc:ee:4d:46:52:
        f9:bd:22:c2:c6:43:8e:29:6d:61:90:8e:b0:e3:24:dc:72:98:
        2f:29:a1:ec:98:02:98:a6:b7:c4:8d:e9:dd:0e:8b:50:5f:9c:
        8a:13:3b:ad:d7:e0:16:05:fa:dd:bb:d1:9a:db:98:2b:a5:c6:
        a3:98:c9:38:1d:ae:8d:fe:38:40:b4:6e:12:c8:0c:46:5a:53:
        5b:cf:d9:55:a5:d6:5b:b5:bc:eb:bf:50:b5:87:02:b8:ad:63:
        88:9b:fc:85:b8:ec:d3:9a:05:87:9a:63:23:36:67:37:ad:e6:
        a5:b1:25:e5
-----BEGIN CERTIFICATE-----
MIIFvDCCBKSgAwIBAgISMzAwMDAwMjgqh7b6XfliLctZMA0GCSqGSIb3DQEBCwUA
MGcxCzAJBgNVBAYTAkpQMRwwGgYDVQQKDBNKYXBhbmVzZSBHb3Zlcm5tZW50MR8w
HQYDVQQLDBZOYXRpb25hbCBQb2xpY2UgQWdlbmN5MRkwFwYDVQQLDBBOUEEgSUNE
TCBSb290IENBMB4XDTIzMDYxOTA1NTAzMFoXDTI4MDYxODE0NTk1OVowgZ4xCzAJ
BgNVBAYTAkpQMRwwGgYDVQQKDBNKYXBhbmVzZSBHb3Zlcm5tZW50MR8wHQYDVQQL
DBZOYXRpb25hbCBQb2xpY2UgQWdlbmN5MTcwNQYDVQQLDC5QcmVmZWN0dXJhbCBQ
dWJsaWMgU2FmZXR5IENvbW1pc3Npb25zIGZvciBJQ0RMMRcwFQYDVQQDDA5Ub3lh
bWEgQWx0UFBTQzCCASIwDQYJKoZIhvcNAQEBBQADggEPADCCAQoCggEBAI0s/Kq/
TKrLjeLqgscWblOy+XDjdPL+AQGorviIH2KQmNLkn7VWfozpUzLj9ug3d9MwUFGN
FIlgrqNpbet5QKDsAtr67aAR1OYwtOaa/lKo9M7RjntzeG1f22Dpeq9ZxZWkBY59
mIFQezFaBjrT/DXMFg4i7QDwTvJyJVe1lrvdcJ6L50VBf3Eu7cr/c9O7p02SXeD0
wQxF6GEXBdo74QrCjvbYP1lDonpDZ2MIaGJPwwbc2StTbMfAiyd80cfMr/ynfAH8
qJjG+60NhfUpmS3B9N/2rHV7vJjb4CjgvGhIHKmtUN4LwwEo1VsUVHr1QfnxBwld
J56swB0VBRIvmOECAwEAAaOCAigwggIkMIGYBgNVHSMEgZAwgY2AFBHNjmBER1dP
T8vp58uhRt+6DlCLoWukaTBnMQswCQYDVQQGEwJKUDEcMBoGA1UECgwTSmFwYW5l
c2UgR292ZXJubWVudDEfMB0GA1UECwwWTmF0aW9uYWwgUG9saWNlIEFnZW5jeTEZ
MBcGA1UECwwQTlBBIElDREwgUm9vdCBDQYIIMjAwMDAwMTYwHQYDVR0OBBYEFLjL
n50hEKs3ISqxmW0+C81vmxvlMA4GA1UdDwEB/wQEAwIGwDBABgNVHSABAf8ENjA0
MDIGCyqDCIaOGAcFAQEKMCMwIQYIKwYBBQUHAgEWFWh0dHA6Ly93d3cubnBhLmdv
LmpwLzB0BgNVHRIEbTBrpGkwZzELMAkGA1UEBhMCSlAxGDAWBgNVBAoMD+aXpeac
rOWbveaUv+W6nDESMBAGA1UECwwJ6K2m5a+f5bqBMSowKAYDVQQLDCHorablr5/l
uoHpgYvou6LlhY3oqLHoqLzoqo3oqLzlsYAwgZ8GA1UdHwSBlzCBlDCBkaCBjqCB
i6SBiDCBhTELMAkGA1UEBhMCSlAxHDAaBgNVBAoME0phcGFuZXNlIEdvdmVybm1l
bnQxHzAdBgNVBAsMFk5hdGlvbmFsIFBvbGljZSBBZ2VuY3kxNzA1BgNVBAsMLlBy
ZWZlY3R1cmFsIFB1YmxpYyBTYWZldHkgQ29tbWlzc2lvbnMgZm9yIElDREwwDQYJ
KoZIhvcNAQELBQADggEBAETb96izh7plhTGxLmUBPPj2+VP6pYFTHPMRZCYecvMs
HxbyMrAGXoTUgjwB2m48j9sEJR/1WCwaZED1NJVtrfC5HMQCOQwiW7IoAjXQ8WEP
3mXt/N/Y2K+G+ChO+wAKBlrgrdEn1A7xLohBd/aS5KEjjhPylVr/lgLHoWzcC71P
OIobgQ8rBBR/xrTc7k1GUvm9IsLGQ44pbWGQjrDjJNxymC8poeyYApimt8SN6d0O
i1BfnIoTO63X4BYF+t270ZrbmCulxqOYyTgdro3+OEC0bhLIDEZaU1vP2VWl1lu1
vOu/ULWHAritY4ib/IW47NOaBYeaYyM2Zzet5qWxJeU=
-----END CERTIFICATE-----
