Certificate:
    Data:
        Version: 3 (0x2)
        Serial Number:
            32:30:30:30:30:30:35:35
        Signature Algorithm: sha256WithRSAEncryption
        Issuer: C=JP, O=Japanese Government, OU=National Police Agency, OU=NPA ICDL Root CA
        Validity
            Not Before: Feb  6 02:14:14 2023 GMT
            Not After : Feb  5 14:59:59 2028 GMT
        Subject: C=JP, O=Japanese Government, OU=National Police Agency, OU=Prefectural Public Safety Commissions for ICDL, CN=Toyama PPSC
        Subject Public Key Info:
            Public Key Algorithm: rsaEncryption
                Public-Key: (2048 bit)
                Modulus:
                    00:83:a7:29:ed:cf:ce:5d:95:77:61:ca:96:72:d4:
                    85:7a:5d:e6:82:67:23:7a:79:21:c1:b1:7d:7d:96:
                    76:c8:e7:14:fd:34:f5:2f:70:f9:86:6b:df:fa:de:
                    df:72:6b:22:f0:e6:80:46:f8:0c:80:e2:23:2e:10:
                    86:f4:dd:0e:06:b4:f9:b8:a8:01:d9:ac:9a:2f:4d:
                    95:cc:2c:c8:e6:8c:bf:89:5f:49:d5:b2:36:8d:43:
                    71:94:2a:25:52:04:46:65:0e:fe:93:08:22:bb:05:
                    c9:bc:1f:6b:f2:5e:4e:23:74:eb:7c:b5:fd:dd:fc:
                    ef:5b:01:fc:96:e4:b3:2d:a6:35:6b:bc:59:ad:db:
                    df:cc:75:d5:d7:b0:d2:44:8a:05:63:97:51:4d:fa:
                    05:02:78:a5:e5:c0:ec:86:68:99:30:97:8f:33:1c:
                    eb:05:6d:53:cd:19:4c:75:8d:ab:24:85:bb:b7:92:
                    7e:3d:26:00:33:88:59:f1:e2:45:02:87:66:14:42:
                    78:2e:35:ce:7f:54:73:1b:bd:b5:8d:16:15:9c:4e:
                    b6:b1:34:ed:bb:5d:76:c2:0f:0a:b4:fe:60:2a:db:
                    15:cc:41:10:ec:a5:9e:21:91:7c:68:be:90:ec:23:
                    b2:19:17:84:51:10:e2:4d:80:3a:a4:23:95:f8:e5:
                    ba:35
                Exponent: 65537 (0x10001)
        X509v3 extensions:
            X509v3 Authority Key Identifier: 
                keyid:11:CD:8E:60:44:47:57:4F:4F:CB:E9:E7:CB:A1:46:DF:BA:0E:50:8B
                DirName:/C=JP/O=Japanese Government/OU=National Police Agency/OU=NPA ICDL Root CA
                serial:32:30:30:30:30:30:31:36
            X509v3 Subject Key Identifier: 
                B9:17:78:59:17:20:2C:EF:32:88:BC:65:F6:38:64:A3:E7:39:CF:2F
            X509v3 Key Usage: critical
                Digital Signature, Non Repudiation
            X509v3 Certificate Policies: critical
                Policy: 1.2.392.100120.7.5.1.1.10
                  CPS: http://www.npa.go.jp/
            X509v3 Subject Alternative Name: 
                DirName:/C=JP/O=\xE6\x97\xA5\xE6\x9C\xAC\xE5\x9B\xBD\xE6\x94\xBF\xE5\xBA\x9C/OU=\xE8\xAD\xA6\xE5\xAF\x9F\xE5\xBA\x81/OU=\xE9\x83\xBD\xE9\x81\x93\xE5\xBA\x9C\xE7\x9C\x8C\xE5\x85\xAC\xE5\xAE\x89\xE5\xA7\x94\xE5\x93\xA1\xE4\xBC\x9A
            X509v3 Issuer Alternative Name: 
                DirName:/C=JP/O=\xE6\x97\xA5\xE6\x9C\xAC\xE5\x9B\xBD\xE6\x94\xBF\xE5\xBA\x9C/OU=\xE8\xAD\xA6\xE5\xAF\x9F\xE5\xBA\x81/OU=\xE8\xAD\xA6\xE5\xAF\x9F\xE5\xBA\x81\xE9\x81\x8B\xE8\xBB\xA2\xE5\x85\x8D\xE8\xA8\xB1\xE8\xA8\xBC\xE8\xAA\x8D\xE8\xA8\xBC\xE5\xB1\x80
            X509v3 CRL Distribution Points: 
                Full Name:
                  DirName:C = JP, O = Japanese Government, OU = National Police Agency, OU = Prefectural Public Safety Commissions for ICDL
    Signature Algorithm: sha256WithRSAEncryption
    Signature Value:
        66:7d:51:34:2b:4d:00:05:5d:c3:c7:31:9f:8e:38:6b:13:e8:
        7d:1a:1b:36:e5:77:46:4a:cd:dc:44:14:c5:e0:5e:4a:0c:70:
        11:d9:7a:ff:40:b6:c6:e3:91:d5:7c:26:0e:a6:3c:41:98:c9:
        ed:83:8f:dc:60:36:61:61:87:b2:b2:49:c3:b2:27:cd:5c:c7:
        e4:8a:97:9c:0b:e8:ca:58:e9:cc:b4:27:31:ea:9a:eb:15:db:
        cb:15:3e:ef:16:13:2e:07:f0:ce:2e:98:3f:32:25:1b:59:94:
        30:d2:6f:e1:68:aa:7f:ff:95:05:00:5b:d2:c3:74:a1:56:9c:
        a3:b7:b7:20:57:9b:2d:e3:bc:bf:26:82:ec:0c:4f:f8:f6:0c:
        87:40:e7:c9:0f:eb:89:12:61:e4:4c:48:25:e0:a1:37:9c:d2:
        5e:a3:81:b7:70:92:91:23:e3:ca:6f:fd:cf:1d:ec:f0:ba:9b:
        c5:29:40:e3:eb:58:2b:c3:be:33:34:96:0b:45:84:67:63:0d:
        65:85:26:ef:04:2d:4b:53:5b:68:b9:08:26:10:2a:7b:1d:c2:
        f6:5b:1b:a8:6c:45:74:e2:0a:8d:e7:ca:68:d9:e9:3c:ce:04:
        26:e6:27:09:47:1a:fd:cb:e7:df:4d:f1:8b:26:4d:2f:a7:69:
        02:e1:87:2b
-----BEGIN CERTIFICATE-----
MIIGRzCCBS+gAwIBAgIIMjAwMDAwNTUwDQYJKoZIhvcNAQELBQAwZzELMAkGA1UE
BhMCSlAxHDAaBgNVBAoME0phcGFuZXNlIEdvdmVybm1lbnQxHzAdBgNVBAsMFk5h
dGlvbmFsIFBvbGljZSBBZ2VuY3kxGTAXBgNVBAsMEE5QQSBJQ0RMIFJvb3QgQ0Ew
HhcNMjMwMjA2MDIxNDE0WhcNMjgwMjA1MTQ1OTU5WjCBmzELMAkGA1UEBhMCSlAx
HDAaBgNVBAoME0phcGFuZXNlIEdvdmVybm1lbnQxHzAdBgNVBAsMFk5hdGlvbmFs
IFBvbGljZSBBZ2VuY3kxNzA1BgNVBAsMLlByZWZlY3R1cmFsIFB1YmxpYyBTYWZl
dHkgQ29tbWlzc2lvbnMgZm9yIElDREwxFDASBgNVBAMMC1RveWFtYSBQUFNDMIIB
IjANBgkqhkiG9w0BAQEFAAOCAQ8AMIIBCgKCAQEAg6cp7c/OXZV3YcqWctSFel3m
gmcjenkhwbF9fZZ2yOcU/TT1L3D5hmvf+t7fcmsi8OaARvgMgOIjLhCG9N0OBrT5
uKgB2ayaL02VzCzI5oy/iV9J1bI2jUNxlColUgRGZQ7+kwgiuwXJvB9r8l5OI3Tr
fLX93fzvWwH8luSzLaY1a7xZrdvfzHXV17DSRIoFY5dRTfoFAnil5cDshmiZMJeP
MxzrBW1TzRlMdY2rJIW7t5J+PSYAM4hZ8eJFAodmFEJ4LjXOf1RzG721jRYVnE62
sTTtu112wg8KtP5gKtsVzEEQ7KWeIZF8aL6Q7COyGReEURDiTYA6pCOV+OW6NQID
AQABo4ICwDCCArwwgZgGA1UdIwSBkDCBjYAUEc2OYERHV09Py+nny6FG37oOUIuh
a6RpMGcxCzAJBgNVBAYTAkpQMRwwGgYDVQQKDBNKYXBhbmVzZSBHb3Zlcm5tZW50
MR8wHQYDVQQLDBZOYXRpb25hbCBQb2xpY2UgQWdlbmN5MRkwFwYDVQQLDBBOUEEg
SUNETCBSb290IENBgggyMDAwMDAxNjAdBgNVHQ4EFgQUuRd4WRcgLO8yiLxl9jhk
o+c5zy8wDgYDVR0PAQH/BAQDAgbAMEAGA1UdIAEB/wQ2MDQwMgYLKoMIho4YBwUB
AQowIzAhBggrBgEFBQcCARYVaHR0cDovL3d3dy5ucGEuZ28uanAvMIGVBgNVHREE
gY0wgYqkgYcwgYQxCzAJBgNVBAYTAkpQMRgwFgYDVQQKDA/ml6XmnKzlm73mlL/l
upwxEjAQBgNVBAsMCeitpuWvn+W6gTEkMCIGA1UECwwb6YO96YGT5bqc55yM5YWs
5a6J5aeU5ZOh5LyaMSEwHwYDVQQDDBjlr4zlsbHnnIzlhazlronlp5Tlk6HkvJow
dAYDVR0SBG0wa6RpMGcxCzAJBgNVBAYTAkpQMRgwFgYDVQQKDA/ml6XmnKzlm73m
lL/lupwxEjAQBgNVBAsMCeitpuWvn+W6gTEqMCgGA1UECwwh6K2m5a+f5bqB6YGL
6Lui5YWN6Kix6Ki86KqN6Ki85bGAMIGfBgNVHR8EgZcwgZQwgZGggY6ggYukgYgw
gYUxCzAJBgNVBAYTAkpQMRwwGgYDVQQKDBNKYXBhbmVzZSBHb3Zlcm5tZW50MR8w
HQYDVQQLDBZOYXRpb25hbCBQb2xpY2UgQWdlbmN5MTcwNQYDVQQLDC5QcmVmZWN0
dXJhbCBQdWJsaWMgU2FmZXR5IENvbW1pc3Npb25zIGZvciBJQ0RMMA0GCSqGSIb3
DQEBCwUAA4IBAQBmfVE0K00ABV3DxzGfjjhrE+h9Ghs25XdGSs3cRBTF4F5KDHAR
2Xr/QLbG45HVfCYOpjxBmMntg4/cYDZhYYeysknDsifNXMfkipecC+jKWOnMtCcx
6prrFdvLFT7vFhMuB/DOLpg/MiUbWZQw0m/haKp//5UFAFvSw3ShVpyjt7cgV5st
47y/JoLsDE/49gyHQOfJD+uJEmHkTEgl4KE3nNJeo4G3cJKRI+PKb/3PHezwupvF
KUDj61grw74zNJYLRYRnYw1lhSbvBC1LU1touQgmECp7HcL2WxuobEV04gqN58po
2ek8zgQm5icJRxr9y+ffTfGLJk0vp2kC4Ycr
-----END CERTIFICATE-----
