Certificate:
    Data:
        Version: 3 (0x2)
        Serial Number:
            33:30:30:30:30:31:30:34
        Signature Algorithm: sha256WithRSAEncryption
        Issuer: C=JP, O=Japanese Government, OU=National Police Agency, OU=NPA ICDL Root CA
        Validity
            Not Before: Sep 17 07:19:27 2024 GMT
            Not After : Sep 16 14:59:59 2029 GMT
        Subject: C=JP, O=Japanese Government, OU=National Police Agency, OU=Prefectural Public Safety Commissions for ICDL, CN=Toyama PPSC
        Subject Public Key Info:
            Public Key Algorithm: rsaEncryption
                Public-Key: (2048 bit)
                Modulus:
                    00:c7:a2:b4:b6:d1:7f:5a:f2:1a:2e:90:06:8d:6e:
                    b6:32:3d:86:22:91:c7:0c:f6:ba:76:e2:80:c3:e6:
                    3b:d2:7a:4c:b2:02:13:3d:0e:0e:e0:ff:0f:60:a2:
                    18:5f:bd:69:26:95:67:33:0a:1b:bd:68:31:fa:f9:
                    f0:73:05:0b:02:28:ea:8c:68:2b:61:48:24:0a:61:
                    38:66:5e:24:f9:3a:a9:af:87:27:2a:9d:42:d7:36:
                    40:33:ea:7c:00:b0:16:11:2e:2f:61:01:1a:c8:41:
                    b7:1f:7e:1b:be:ff:fc:f8:bc:e9:59:59:3b:ab:7d:
                    37:4d:e3:8a:17:23:d5:44:f5:6b:28:77:9c:bb:3d:
                    41:e2:c0:ee:72:fa:1a:b8:f8:5a:3d:d5:de:5f:90:
                    e1:d5:a2:82:18:6d:a6:99:b6:2b:ed:40:d9:c7:20:
                    cd:eb:34:a2:1d:07:14:b4:c3:99:61:b1:d8:50:c4:
                    fb:f5:66:ca:7c:69:49:c2:e6:25:75:fa:9d:33:b7:
                    81:62:9f:0b:6c:5f:74:63:d3:4b:18:48:e3:3a:df:
                    bd:41:3e:2c:e6:f6:7b:66:63:50:58:ea:81:fb:56:
                    0a:72:02:a4:cd:47:7e:eb:cf:b9:62:a9:ec:ec:b5:
                    e6:87:03:67:e4:57:3e:cf:a1:90:53:a0:1d:cc:6b:
                    e8:93
                Exponent: 65537 (0x10001)
        X509v3 extensions:
            X509v3 Authority Key Identifier: 
                keyid:11:CD:8E:60:44:47:57:4F:4F:CB:E9:E7:CB:A1:46:DF:BA:0E:50:8B
                DirName:/C=JP/O=Japanese Government/OU=National Police Agency/OU=NPA ICDL Root CA
                serial:32:30:30:30:30:30:31:36
            X509v3 Subject Key Identifier: 
                53:D9:1A:99:F7:9A:E7:4F:E9:00:AF:47:89:C8:2E:6D:5D:D9:C1:DB
            X509v3 Key Usage: critical
                Digital Signature, Non Repudiation
            X509v3 Certificate Policies: critical
                Policy: 1.2.392.100120.7.5.1.1.10
                  CPS: http://www.npa.go.jp/
            X509v3 Subject Alternative Name: 
                DirName:/C=JP/O=\xE6\x97\xA5\xE6\x9C\xAC\xE5\x9B\xBD\xE6\x94\xBF\xE5\xBA\x9C/OU=\xE8\xAD\xA6\xE5\xAF\x9F\xE5\xBA\x81/OU=\xE9\x83\xBD\xE9\x81\x93\xE5\xBA\x9C\xE7\x9C\x8C\xE5\x85\xAC\xE5\xAE\x89\xE5\xA7\x94\xE5\x93\xA1\xE4\xBC\x9A
            X509v3 Issuer Alternative Name: 
                DirName:/C=JP/O=\xE6\x97\xA5\xE6\x9C\xAC\xE5\x9B\xBD\xE6\x94\xBF\xE5\xBA\x9C/OU=\xE8\xAD\xA6\xE5\xAF\x9F\xE5\xBA\x81/OU=\xE8\xAD\xA6\xE5\xAF\x9F\xE5\xBA\x81\xE9\x81\x8B\xE8\xBB\xA2\xE5\x85\x8D\xE8\xA8\xB1\xE8\xA8\xBC\xE8\xAA\x8D\xE8\xA8\xBC\xE5\xB1\x80
            X509v3 CRL Distribution Points: 
                Full Name:
                  DirName:C = JP, O = Japanese Government, OU = National Police Agency, OU = Prefectural Public Safety Commissions for ICDL
    Signature Algorithm: sha256WithRSAEncryption
    Signature Value:
        a2:37:dc:d8:8e:33:bd:90:40:7a:40:d9:e7:ae:f2:16:17:9c:
        bb:d8:e3:28:15:70:d4:94:07:13:ec:7b:6e:12:31:59:67:07:
        02:bc:60:3e:f5:a7:cf:bb:e0:32:87:04:2e:66:32:20:c7:ed:
        6d:6b:23:2b:05:73:fc:f8:0e:b9:df:f4:25:04:57:24:c4:5f:
        ce:40:33:13:30:e0:60:d1:11:20:20:49:c3:09:29:75:2a:84:
        26:44:e0:44:69:fe:5d:76:87:5c:c5:32:5c:2f:57:9e:6f:8e:
        27:a6:28:da:08:3f:ad:69:09:79:99:6c:fd:7c:a8:d3:89:39:
        3c:9c:68:f1:44:d4:7c:51:dc:aa:01:13:e6:c0:87:d7:29:27:
        88:85:67:fe:28:08:78:58:33:53:dd:9b:97:d4:5c:f5:0c:23:
        e2:8d:20:5b:33:0a:de:a5:96:c7:48:58:72:af:f0:88:9d:76:
        76:c3:53:d8:14:57:d2:55:fb:eb:23:3a:18:b3:10:d0:31:7b:
        eb:2f:0c:18:2a:66:62:c2:24:1e:a9:35:8d:31:4a:b8:98:f5:
        42:8d:7c:e0:24:fa:27:44:71:cb:33:8e:e1:1e:63:09:7b:f8:
        ff:61:42:aa:9d:25:03:50:f4:a2:b6:03:da:e8:a9:cc:56:33:
        cf:3f:d7:10
-----BEGIN CERTIFICATE-----
MIIGRzCCBS+gAwIBAgIIMzAwMDAxMDQwDQYJKoZIhvcNAQELBQAwZzELMAkGA1UE
BhMCSlAxHDAaBgNVBAoME0phcGFuZXNlIEdvdmVybm1lbnQxHzAdBgNVBAsMFk5h
dGlvbmFsIFBvbGljZSBBZ2VuY3kxGTAXBgNVBAsMEE5QQSBJQ0RMIFJvb3QgQ0Ew
HhcNMjQwOTE3MDcxOTI3WhcNMjkwOTE2MTQ1OTU5WjCBmzELMAkGA1UEBhMCSlAx
HDAaBgNVBAoME0phcGFuZXNlIEdvdmVybm1lbnQxHzAdBgNVBAsMFk5hdGlvbmFs
IFBvbGljZSBBZ2VuY3kxNzA1BgNVBAsMLlByZWZlY3R1cmFsIFB1YmxpYyBTYWZl
dHkgQ29tbWlzc2lvbnMgZm9yIElDREwxFDASBgNVBAMMC1RveWFtYSBQUFNDMIIB
IjANBgkqhkiG9w0BAQEFAAOCAQ8AMIIBCgKCAQEAx6K0ttF/WvIaLpAGjW62Mj2G
IpHHDPa6duKAw+Y70npMsgITPQ4O4P8PYKIYX71pJpVnMwobvWgx+vnwcwULAijq
jGgrYUgkCmE4Zl4k+Tqpr4cnKp1C1zZAM+p8ALAWES4vYQEayEG3H34bvv/8+Lzp
WVk7q303TeOKFyPVRPVrKHecuz1B4sDucvoauPhaPdXeX5Dh1aKCGG2mmbYr7UDZ
xyDN6zSiHQcUtMOZYbHYUMT79WbKfGlJwuYldfqdM7eBYp8LbF90Y9NLGEjjOt+9
QT4s5vZ7ZmNQWOqB+1YKcgKkzUd+68+5Yqns7LXmhwNn5Fc+z6GQU6AdzGvokwID
AQABo4ICwDCCArwwgZgGA1UdIwSBkDCBjYAUEc2OYERHV09Py+nny6FG37oOUIuh
a6RpMGcxCzAJBgNVBAYTAkpQMRwwGgYDVQQKDBNKYXBhbmVzZSBHb3Zlcm5tZW50
MR8wHQYDVQQLDBZOYXRpb25hbCBQb2xpY2UgQWdlbmN5MRkwFwYDVQQLDBBOUEEg
SUNETCBSb290IENBgggyMDAwMDAxNjAdBgNVHQ4EFgQUU9kamfea50/pAK9Hicgu
bV3ZwdswDgYDVR0PAQH/BAQDAgbAMEAGA1UdIAEB/wQ2MDQwMgYLKoMIho4YBwUB
AQowIzAhBggrBgEFBQcCARYVaHR0cDovL3d3dy5ucGEuZ28uanAvMIGVBgNVHREE
gY0wgYqkgYcwgYQxCzAJBgNVBAYTAkpQMRgwFgYDVQQKDA/ml6XmnKzlm73mlL/l
upwxEjAQBgNVBAsMCeitpuWvn+W6gTEkMCIGA1UECwwb6YO96YGT5bqc55yM5YWs
5a6J5aeU5ZOh5LyaMSEwHwYDVQQDDBjlr4zlsbHnnIzlhazlronlp5Tlk6HkvJow
dAYDVR0SBG0wa6RpMGcxCzAJBgNVBAYTAkpQMRgwFgYDVQQKDA/ml6XmnKzlm73m
lL/lupwxEjAQBgNVBAsMCeitpuWvn+W6gTEqMCgGA1UECwwh6K2m5a+f5bqB6YGL
6Lui5YWN6Kix6Ki86KqN6Ki85bGAMIGfBgNVHR8EgZcwgZQwgZGggY6ggYukgYgw
gYUxCzAJBgNVBAYTAkpQMRwwGgYDVQQKDBNKYXBhbmVzZSBHb3Zlcm5tZW50MR8w
HQYDVQQLDBZOYXRpb25hbCBQb2xpY2UgQWdlbmN5MTcwNQYDVQQLDC5QcmVmZWN0
dXJhbCBQdWJsaWMgU2FmZXR5IENvbW1pc3Npb25zIGZvciBJQ0RMMA0GCSqGSIb3
DQEBCwUAA4IBAQCiN9zYjjO9kEB6QNnnrvIWF5y72OMoFXDUlAcT7HtuEjFZZwcC
vGA+9afPu+AyhwQuZjIgx+1tayMrBXP8+A653/QlBFckxF/OQDMTMOBg0REgIEnD
CSl1KoQmROBEaf5ddodcxTJcL1eeb44npijaCD+taQl5mWz9fKjTiTk8nGjxRNR8
UdyqARPmwIfXKSeIhWf+KAh4WDNT3ZuX1Fz1DCPijSBbMwrepZbHSFhyr/CInXZ2
w1PYFFfSVfvrIzoYsxDQMXvrLwwYKmZiwiQeqTWNMUq4mPVCjXzgJPonRHHLM47h
HmMJe/j/YUKqnSUDUPSitgPa6KnMVjPPP9cQ
-----END CERTIFICATE-----
