Certificate:
    Data:
        Version: 3 (0x2)
        Serial Number:
            32:30:30:30:30:30:36:35
        Signature Algorithm: sha256WithRSAEncryption
        Issuer: C=JP, O=Japanese Government, OU=National Police Agency, OU=NPA ICDL Root CA
        Validity
            Not Before: Feb  6 02:40:43 2023 GMT
            Not After : Feb  5 14:59:59 2028 GMT
        Subject: C=JP, O=Japanese Government, OU=National Police Agency, OU=Prefectural Public Safety Commissions for ICDL, CN=Wakayama PPSC
        Subject Public Key Info:
            Public Key Algorithm: rsaEncryption
                Public-Key: (2048 bit)
                Modulus:
                    00:94:61:e6:d1:1b:bb:88:bd:43:35:9c:7a:3e:c4:
                    f5:d9:e7:e0:66:b5:8c:65:1f:25:61:6c:1a:90:18:
                    7b:b3:02:3b:a5:d8:1c:9e:3f:43:40:50:02:51:72:
                    dc:44:a1:e2:38:1a:e7:ce:f9:36:9b:f1:ec:c0:57:
                    25:a4:1a:be:bf:61:53:99:93:70:f3:df:68:6c:fa:
                    d5:a0:df:8f:b6:8a:aa:d6:c0:e6:77:d1:57:fb:65:
                    54:19:ad:56:be:30:7b:4b:31:b3:ae:72:5c:94:3f:
                    bf:88:53:da:c2:77:ed:2a:f6:48:6f:41:28:6f:ef:
                    a5:52:a3:5f:a7:04:68:04:bd:89:d8:9f:b6:de:d3:
                    fc:86:d9:92:fd:ee:c6:3d:86:11:4a:5b:aa:c2:f8:
                    5a:1e:ac:4d:89:d8:66:4b:d8:ef:b2:8e:7b:e8:9c:
                    63:44:17:49:81:77:ab:02:3a:f4:3b:8e:7e:90:27:
                    dc:80:a5:f1:cd:dd:bf:ef:8e:d0:60:88:ac:56:d6:
                    32:c5:66:52:79:e2:3f:87:e1:36:92:d1:78:e7:f3:
                    4a:4e:00:d2:00:f8:f9:e6:1e:46:af:97:12:19:72:
                    46:bd:9c:41:89:d0:f6:9c:77:fa:7d:81:4c:4e:ae:
                    74:04:de:70:e9:f7:9d:46:8b:65:5d:5a:f0:b0:78:
                    f2:f1
                Exponent: 65537 (0x10001)
        X509v3 extensions:
            X509v3 Authority Key Identifier: 
                keyid:11:CD:8E:60:44:47:57:4F:4F:CB:E9:E7:CB:A1:46:DF:BA:0E:50:8B
                DirName:/C=JP/O=Japanese Government/OU=National Police Agency/OU=NPA ICDL Root CA
                serial:32:30:30:30:30:30:31:36
            X509v3 Subject Key Identifier: 
                32:B4:06:2D:52:D5:5C:93:FF:8C:A5:B4:72:37:72:AA:D8:D2:B0:8C
            X509v3 Key Usage: critical
                Digital Signature, Non Repudiation
            X509v3 Certificate Policies: critical
                Policy: 1.2.392.100120.7.5.1.1.10
                  CPS: http://www.npa.go.jp/
            X509v3 Subject Alternative Name: 
                DirName:/C=JP/O=\xE6\x97\xA5\xE6\x9C\xAC\xE5\x9B\xBD\xE6\x94\xBF\xE5\xBA\x9C/OU=\xE8\xAD\xA6\xE5\xAF\x9F\xE5\xBA\x81/OU=\xE9\x83\xBD\xE9\x81\x93\xE5\xBA\x9C\xE7\x9C\x8C\xE5\x85\xAC\xE5\xAE\x89\xE5\xA7\x94\xE5\x93\xA1\xE4\xBC\x9A
            X509v3 Issuer Alternative Name: 
                DirName:/C=JP/O=\xE6\x97\xA5\xE6\x9C\xAC\xE5\x9B\xBD\xE6\x94\xBF\xE5\xBA\x9C/OU=\xE8\xAD\xA6\xE5\xAF\x9F\xE5\xBA\x81/OU=\xE8\xAD\xA6\xE5\xAF\x9F\xE5\xBA\x81\xE9\x81\x8B\xE8\xBB\xA2\xE5\x85\x8D\xE8\xA8\xB1\xE8\xA8\xBC\xE8\xAA\x8D\xE8\xA8\xBC\xE5\xB1\x80
            X509v3 CRL Distribution Points: 
                Full Name:
                  DirName:C = JP, O = Japanese Government, OU = National Police Agency, OU = Prefectural Public Safety Commissions for ICDL
    Signature Algorithm: sha256WithRSAEncryption
    Signature Value:
        49:c0:5b:df:b0:85:94:18:55:d4:ae:41:4e:ea:93:30:ed:ef:
        be:ce:61:aa:d9:c5:8d:e1:11:6f:4f:63:84:cd:6b:67:6f:f1:
        a7:e5:53:bf:b3:48:41:e2:a5:4f:e8:0b:76:0b:e9:d9:63:15:
        fb:4a:69:50:47:17:81:11:09:5e:e8:62:cf:43:f6:54:5e:9f:
        d1:35:01:0b:fa:42:c9:7d:6d:da:75:77:9a:69:3e:55:25:74:
        ab:bf:c3:3b:46:98:b2:38:b7:50:00:2b:96:c9:1c:c3:f0:47:
        20:d9:63:90:59:b2:c4:ab:c6:61:f6:78:f8:2e:f6:61:56:e8:
        ea:21:a8:38:25:63:e0:7b:3f:64:e6:fb:bf:d7:2e:39:17:c2:
        16:a3:0c:e9:17:ed:df:0f:2b:35:b5:b9:a6:a0:41:43:5a:46:
        ad:59:85:2a:03:a4:9e:ce:c8:86:ec:6c:fb:1a:50:20:3a:8f:
        22:03:f9:85:35:44:1a:d3:30:c2:7d:aa:ab:80:9b:08:a1:d7:
        0f:d7:58:77:86:ef:b5:aa:f7:06:f8:97:7a:c5:94:ff:be:41:
        31:4c:f0:0f:99:37:45:53:5f:c0:3d:d3:a7:09:63:29:a5:24:
        03:7c:10:45:e9:df:58:56:7b:2c:28:fe:5d:f2:52:92:9f:ea:
        88:cf:7a:b5
-----BEGIN CERTIFICATE-----
MIIGTDCCBTSgAwIBAgIIMjAwMDAwNjUwDQYJKoZIhvcNAQELBQAwZzELMAkGA1UE
BhMCSlAxHDAaBgNVBAoME0phcGFuZXNlIEdvdmVybm1lbnQxHzAdBgNVBAsMFk5h
dGlvbmFsIFBvbGljZSBBZ2VuY3kxGTAXBgNVBAsMEE5QQSBJQ0RMIFJvb3QgQ0Ew
HhcNMjMwMjA2MDI0MDQzWhcNMjgwMjA1MTQ1OTU5WjCBnTELMAkGA1UEBhMCSlAx
HDAaBgNVBAoME0phcGFuZXNlIEdvdmVybm1lbnQxHzAdBgNVBAsMFk5hdGlvbmFs
IFBvbGljZSBBZ2VuY3kxNzA1BgNVBAsMLlByZWZlY3R1cmFsIFB1YmxpYyBTYWZl
dHkgQ29tbWlzc2lvbnMgZm9yIElDREwxFjAUBgNVBAMMDVdha2F5YW1hIFBQU0Mw
ggEiMA0GCSqGSIb3DQEBAQUAA4IBDwAwggEKAoIBAQCUYebRG7uIvUM1nHo+xPXZ
5+BmtYxlHyVhbBqQGHuzAjul2ByeP0NAUAJRctxEoeI4GufO+Tab8ezAVyWkGr6/
YVOZk3Dz32hs+tWg34+2iqrWwOZ30Vf7ZVQZrVa+MHtLMbOuclyUP7+IU9rCd+0q
9khvQShv76VSo1+nBGgEvYnYn7be0/yG2ZL97sY9hhFKW6rC+FoerE2J2GZL2O+y
jnvonGNEF0mBd6sCOvQ7jn6QJ9yApfHN3b/vjtBgiKxW1jLFZlJ54j+H4TaS0Xjn
80pOANIA+PnmHkavlxIZcka9nEGJ0Pacd/p9gUxOrnQE3nDp951Gi2VdWvCwePLx
AgMBAAGjggLDMIICvzCBmAYDVR0jBIGQMIGNgBQRzY5gREdXT0/L6efLoUbfug5Q
i6FrpGkwZzELMAkGA1UEBhMCSlAxHDAaBgNVBAoME0phcGFuZXNlIEdvdmVybm1l
bnQxHzAdBgNVBAsMFk5hdGlvbmFsIFBvbGljZSBBZ2VuY3kxGTAXBgNVBAsMEE5Q
QSBJQ0RMIFJvb3QgQ0GCCDIwMDAwMDE2MB0GA1UdDgQWBBQytAYtUtVck/+MpbRy
N3Kq2NKwjDAOBgNVHQ8BAf8EBAMCBsAwQAYDVR0gAQH/BDYwNDAyBgsqgwiGjhgH
BQEBCjAjMCEGCCsGAQUFBwIBFhVodHRwOi8vd3d3Lm5wYS5nby5qcC8wgZgGA1Ud
EQSBkDCBjaSBijCBhzELMAkGA1UEBhMCSlAxGDAWBgNVBAoMD+aXpeacrOWbveaU
v+W6nDESMBAGA1UECwwJ6K2m5a+f5bqBMSQwIgYDVQQLDBvpg73pgZPlupznnIzl
hazlronlp5Tlk6HkvJoxJDAiBgNVBAMMG+WSjOatjOWxseecjOWFrOWuieWnlOWT
oeS8mjB0BgNVHRIEbTBrpGkwZzELMAkGA1UEBhMCSlAxGDAWBgNVBAoMD+aXpeac
rOWbveaUv+W6nDESMBAGA1UECwwJ6K2m5a+f5bqBMSowKAYDVQQLDCHorablr5/l
uoHpgYvou6LlhY3oqLHoqLzoqo3oqLzlsYAwgZ8GA1UdHwSBlzCBlDCBkaCBjqCB
i6SBiDCBhTELMAkGA1UEBhMCSlAxHDAaBgNVBAoME0phcGFuZXNlIEdvdmVybm1l
bnQxHzAdBgNVBAsMFk5hdGlvbmFsIFBvbGljZSBBZ2VuY3kxNzA1BgNVBAsMLlBy
ZWZlY3R1cmFsIFB1YmxpYyBTYWZldHkgQ29tbWlzc2lvbnMgZm9yIElDREwwDQYJ
KoZIhvcNAQELBQADggEBAEnAW9+whZQYVdSuQU7qkzDt777OYarZxY3hEW9PY4TN
a2dv8aflU7+zSEHipU/oC3YL6dljFftKaVBHF4ERCV7oYs9D9lRen9E1AQv6Qsl9
bdp1d5ppPlUldKu/wztGmLI4t1AAK5bJHMPwRyDZY5BZssSrxmH2ePgu9mFW6Ooh
qDglY+B7P2Tm+7/XLjkXwhajDOkX7d8PKzW1uaagQUNaRq1ZhSoDpJ7OyIbsbPsa
UCA6jyID+YU1RBrTMMJ9qquAmwih1w/XWHeG77Wq9wb4l3rFlP++QTFM8A+ZN0VT
X8A906cJYymlJAN8EEXp31hWeywo/l3yUpKf6ojPerU=
-----END CERTIFICATE-----
