Certificate:
    Data:
        Version: 3 (0x2)
        Serial Number:
            33:30:30:30:30:30:33:39:49:40:98:ca:44:72:53:20:b8:c0
        Signature Algorithm: sha256WithRSAEncryption
        Issuer: C=JP, O=Japanese Government, OU=National Police Agency, OU=NPA ICDL Root CA
        Validity
            Not Before: Jun 19 06:03:37 2023 GMT
            Not After : Jun 18 14:59:59 2028 GMT
        Subject: C=JP, O=Japanese Government, OU=National Police Agency, OU=Prefectural Public Safety Commissions for ICDL, CN=Wakayama AltPPSC
        Subject Public Key Info:
            Public Key Algorithm: rsaEncryption
                Public-Key: (2048 bit)
                Modulus:
                    00:b3:0d:a9:e4:67:1d:ee:76:af:31:2d:81:4b:58:
                    37:3d:f4:5f:9b:e4:eb:54:7b:4f:10:8b:30:06:fc:
                    7f:31:c2:d8:b0:19:d5:fa:bd:10:3b:61:f4:67:bc:
                    26:9d:00:19:c3:52:52:8d:f6:aa:90:a4:70:49:10:
                    be:7c:fc:a9:3b:24:b0:cd:93:2d:af:13:16:0f:de:
                    da:d9:99:04:06:9a:7f:5c:20:c7:c4:58:5b:4b:14:
                    dd:eb:c6:d9:25:06:7e:c4:d3:ff:2a:12:c2:43:27:
                    9c:a3:80:a8:53:35:4f:63:fd:88:be:9b:bf:f0:cb:
                    9d:27:4b:aa:dc:db:14:5b:7d:a8:61:2f:c4:a4:67:
                    98:7d:2f:89:dd:fc:71:94:c7:4c:39:43:f6:dd:9d:
                    b1:6c:47:bf:30:ee:54:b8:e1:30:4b:0c:4b:8d:84:
                    8d:fc:c9:69:29:cf:ac:38:19:7e:42:65:90:f7:0b:
                    67:5b:86:6e:19:b8:92:28:2d:3b:b0:dc:43:bb:d4:
                    25:c2:f9:fe:8e:9b:eb:5e:1e:91:8b:99:6e:7b:54:
                    6c:1d:5d:d9:3b:2c:75:ab:7d:03:a6:f9:ff:a2:53:
                    94:a3:28:fe:95:98:b7:53:1d:8f:d0:a1:2d:b6:a3:
                    94:81:f4:c6:41:a9:84:df:a7:af:74:68:56:2f:28:
                    f3:4d
                Exponent: 65537 (0x10001)
        X509v3 extensions:
            X509v3 Authority Key Identifier: 
                keyid:11:CD:8E:60:44:47:57:4F:4F:CB:E9:E7:CB:A1:46:DF:BA:0E:50:8B
                DirName:/C=JP/O=Japanese Government/OU=National Police Agency/OU=NPA ICDL Root CA
                serial:32:30:30:30:30:30:31:36
            X509v3 Subject Key Identifier: 
                DE:6E:F2:E9:4B:1E:23:97:FD:BB:4A:62:E0:A0:DC:5E:CC:B5:A0:F7
            X509v3 Key Usage: critical
                Digital Signature, Non Repudiation
            X509v3 Certificate Policies: critical
                Policy: 1.2.392.100120.7.5.1.1.10
                  CPS: http://www.npa.go.jp/
            X509v3 Issuer Alternative Name: 
                DirName:/C=JP/O=\xE6\x97\xA5\xE6\x9C\xAC\xE5\x9B\xBD\xE6\x94\xBF\xE5\xBA\x9C/OU=\xE8\xAD\xA6\xE5\xAF\x9F\xE5\xBA\x81/OU=\xE8\xAD\xA6\xE5\xAF\x9F\xE5\xBA\x81\xE9\x81\x8B\xE8\xBB\xA2\xE5\x85\x8D\xE8\xA8\xB1\xE8\xA8\xBC\xE8\xAA\x8D\xE8\xA8\xBC\xE5\xB1\x80
            X509v3 CRL Distribution Points: 
                Full Name:
                  DirName:C = JP, O = Japanese Government, OU = National Police Agency, OU = Prefectural Public Safety Commissions for ICDL
    Signature Algorithm: sha256WithRSAEncryption
    Signature Value:
        7a:bb:45:ae:6f:bb:73:c4:84:fa:a7:13:92:73:ee:ca:62:57:
        90:49:3f:b9:9a:24:13:a2:f4:6e:8b:60:23:96:1e:29:b6:0a:
        64:a2:48:93:38:31:38:ad:3d:28:7e:42:55:f9:70:38:92:dd:
        39:05:59:5b:ad:f4:7f:82:1a:39:a9:c7:de:e3:44:13:69:c8:
        a8:94:cb:f5:23:a6:a1:d7:90:72:a6:70:39:0f:a5:96:31:34:
        d2:77:2f:16:88:b6:08:d8:ac:e5:ee:9d:3c:6e:04:67:99:f8:
        d9:4b:7f:e5:a5:18:5e:de:25:45:3f:6b:db:86:48:f9:f5:40:
        43:a9:49:da:5f:92:91:da:28:cd:3b:cc:c7:74:34:fa:94:73:
        59:13:b2:e9:e4:7c:4a:a5:f8:7b:a7:43:f9:c6:b5:d2:c5:3d:
        d0:5b:ab:5a:e5:06:5f:59:08:8c:fc:fa:92:5e:b3:e9:2b:e4:
        a7:d1:09:87:ed:57:96:24:90:e4:69:5d:77:12:c9:5b:14:e2:
        4c:3e:f0:46:27:fa:61:03:80:bd:ca:b2:e1:c3:bd:99:28:fd:
        1a:31:82:29:c4:c8:3e:0f:1e:42:6a:f1:a7:65:da:cb:0b:ba:
        5d:43:b6:76:eb:a6:9d:ec:4b:88:19:90:ad:90:69:10:98:ce:
        ce:a6:c7:9a
-----BEGIN CERTIFICATE-----
MIIFvjCCBKagAwIBAgISMzAwMDAwMzlJQJjKRHJTILjAMA0GCSqGSIb3DQEBCwUA
MGcxCzAJBgNVBAYTAkpQMRwwGgYDVQQKDBNKYXBhbmVzZSBHb3Zlcm5tZW50MR8w
HQYDVQQLDBZOYXRpb25hbCBQb2xpY2UgQWdlbmN5MRkwFwYDVQQLDBBOUEEgSUNE
TCBSb290IENBMB4XDTIzMDYxOTA2MDMzN1oXDTI4MDYxODE0NTk1OVowgaAxCzAJ
BgNVBAYTAkpQMRwwGgYDVQQKDBNKYXBhbmVzZSBHb3Zlcm5tZW50MR8wHQYDVQQL
DBZOYXRpb25hbCBQb2xpY2UgQWdlbmN5MTcwNQYDVQQLDC5QcmVmZWN0dXJhbCBQ
dWJsaWMgU2FmZXR5IENvbW1pc3Npb25zIGZvciBJQ0RMMRkwFwYDVQQDDBBXYWth
eWFtYSBBbHRQUFNDMIIBIjANBgkqhkiG9w0BAQEFAAOCAQ8AMIIBCgKCAQEAsw2p
5Gcd7navMS2BS1g3PfRfm+TrVHtPEIswBvx/McLYsBnV+r0QO2H0Z7wmnQAZw1JS
jfaqkKRwSRC+fPypOySwzZMtrxMWD97a2ZkEBpp/XCDHxFhbSxTd68bZJQZ+xNP/
KhLCQyeco4CoUzVPY/2Ivpu/8MudJ0uq3NsUW32oYS/EpGeYfS+J3fxxlMdMOUP2
3Z2xbEe/MO5UuOEwSwxLjYSN/MlpKc+sOBl+QmWQ9wtnW4ZuGbiSKC07sNxDu9Ql
wvn+jpvrXh6Ri5lue1RsHV3ZOyx1q30Dpvn/olOUoyj+lZi3Ux2P0KEttqOUgfTG
QamE36evdGhWLyjzTQIDAQABo4ICKDCCAiQwgZgGA1UdIwSBkDCBjYAUEc2OYERH
V09Py+nny6FG37oOUIuha6RpMGcxCzAJBgNVBAYTAkpQMRwwGgYDVQQKDBNKYXBh
bmVzZSBHb3Zlcm5tZW50MR8wHQYDVQQLDBZOYXRpb25hbCBQb2xpY2UgQWdlbmN5
MRkwFwYDVQQLDBBOUEEgSUNETCBSb290IENBgggyMDAwMDAxNjAdBgNVHQ4EFgQU
3m7y6UseI5f9u0pi4KDcXsy1oPcwDgYDVR0PAQH/BAQDAgbAMEAGA1UdIAEB/wQ2
MDQwMgYLKoMIho4YBwUBAQowIzAhBggrBgEFBQcCARYVaHR0cDovL3d3dy5ucGEu
Z28uanAvMHQGA1UdEgRtMGukaTBnMQswCQYDVQQGEwJKUDEYMBYGA1UECgwP5pel
5pys5Zu95pS/5bqcMRIwEAYDVQQLDAnorablr5/luoExKjAoBgNVBAsMIeitpuWv
n+W6gemBi+i7ouWFjeioseiovOiqjeiovOWxgDCBnwYDVR0fBIGXMIGUMIGRoIGO
oIGLpIGIMIGFMQswCQYDVQQGEwJKUDEcMBoGA1UECgwTSmFwYW5lc2UgR292ZXJu
bWVudDEfMB0GA1UECwwWTmF0aW9uYWwgUG9saWNlIEFnZW5jeTE3MDUGA1UECwwu
UHJlZmVjdHVyYWwgUHVibGljIFNhZmV0eSBDb21taXNzaW9ucyBmb3IgSUNETDAN
BgkqhkiG9w0BAQsFAAOCAQEAertFrm+7c8SE+qcTknPuymJXkEk/uZokE6L0botg
I5YeKbYKZKJIkzgxOK09KH5CVflwOJLdOQVZW630f4IaOanH3uNEE2nIqJTL9SOm
odeQcqZwOQ+lljE00ncvFoi2CNis5e6dPG4EZ5n42Ut/5aUYXt4lRT9r24ZI+fVA
Q6lJ2l+SkdoozTvMx3Q0+pRzWROy6eR8SqX4e6dD+ca10sU90FurWuUGX1kIjPz6
kl6z6Svkp9EJh+1XliSQ5GlddxLJWxTiTD7wRif6YQOAvcqy4cO9mSj9GjGCKcTI
Pg8eQmrxp2Xaywu6XUO2duumnexLiBmQrZBpEJjOzqbHmg==
-----END CERTIFICATE-----
