Certificate:
    Data:
        Version: 3 (0x2)
        Serial Number:
            33:30:30:30:30:31:31:33
        Signature Algorithm: sha256WithRSAEncryption
        Issuer: C=JP, O=Japanese Government, OU=National Police Agency, OU=NPA ICDL Root CA
        Validity
            Not Before: Sep 17 07:36:03 2024 GMT
            Not After : Sep 16 14:59:59 2029 GMT
        Subject: C=JP, O=Japanese Government, OU=National Police Agency, OU=Prefectural Public Safety Commissions for ICDL, CN=Wakayama PPSC
        Subject Public Key Info:
            Public Key Algorithm: rsaEncryption
                Public-Key: (2048 bit)
                Modulus:
                    00:ae:17:8a:5f:f0:89:77:e6:ca:6e:9e:14:a1:49:
                    a3:0b:a0:23:7f:c4:a3:29:5a:37:85:ac:24:6a:bc:
                    5f:bd:63:0a:d3:c4:2b:b1:35:f8:4e:ec:1d:61:32:
                    4d:63:d7:db:27:62:4c:c5:79:87:7a:9c:a5:e2:12:
                    3b:cd:78:16:8b:18:1a:22:00:db:35:00:42:df:ce:
                    c4:1b:92:51:5d:cf:ec:0a:96:2c:86:f7:30:7f:9f:
                    a5:43:09:2c:9e:d9:22:37:7d:8e:c6:1a:a4:64:72:
                    c2:c4:81:9b:cb:45:8e:06:70:f5:d7:5c:d6:12:e4:
                    1c:c7:66:ed:09:e8:26:0f:a6:b1:bb:03:fe:c4:4a:
                    5c:60:3b:76:6f:51:a9:72:a7:b2:9c:63:48:68:fe:
                    92:09:73:ca:6e:bd:0b:84:90:04:ab:77:c2:0e:ef:
                    3a:e9:d2:eb:0a:ef:ef:e4:8a:ec:4f:bd:84:4c:29:
                    c9:26:4f:45:24:93:3c:61:2b:13:b8:bc:11:e6:53:
                    be:f6:91:b6:bd:3e:72:7e:b1:b5:e9:e8:58:6d:72:
                    28:05:28:09:25:f1:ae:c9:ac:05:3d:e9:71:00:93:
                    e5:54:3d:5b:77:af:b1:d1:21:fe:a4:c1:a9:a5:32:
                    b6:98:8d:5b:71:a3:f6:4a:23:90:3d:87:27:d7:e2:
                    36:11
                Exponent: 65537 (0x10001)
        X509v3 extensions:
            X509v3 Authority Key Identifier: 
                keyid:11:CD:8E:60:44:47:57:4F:4F:CB:E9:E7:CB:A1:46:DF:BA:0E:50:8B
                DirName:/C=JP/O=Japanese Government/OU=National Police Agency/OU=NPA ICDL Root CA
                serial:32:30:30:30:30:30:31:36
            X509v3 Subject Key Identifier: 
                77:B5:7D:5D:0C:53:A7:34:F7:80:5F:10:D0:53:EB:49:54:4D:4D:09
            X509v3 Key Usage: critical
                Digital Signature, Non Repudiation
            X509v3 Certificate Policies: critical
                Policy: 1.2.392.100120.7.5.1.1.10
                  CPS: http://www.npa.go.jp/
            X509v3 Subject Alternative Name: 
                DirName:/C=JP/O=\xE6\x97\xA5\xE6\x9C\xAC\xE5\x9B\xBD\xE6\x94\xBF\xE5\xBA\x9C/OU=\xE8\xAD\xA6\xE5\xAF\x9F\xE5\xBA\x81/OU=\xE9\x83\xBD\xE9\x81\x93\xE5\xBA\x9C\xE7\x9C\x8C\xE5\x85\xAC\xE5\xAE\x89\xE5\xA7\x94\xE5\x93\xA1\xE4\xBC\x9A
            X509v3 Issuer Alternative Name: 
                DirName:/C=JP/O=\xE6\x97\xA5\xE6\x9C\xAC\xE5\x9B\xBD\xE6\x94\xBF\xE5\xBA\x9C/OU=\xE8\xAD\xA6\xE5\xAF\x9F\xE5\xBA\x81/OU=\xE8\xAD\xA6\xE5\xAF\x9F\xE5\xBA\x81\xE9\x81\x8B\xE8\xBB\xA2\xE5\x85\x8D\xE8\xA8\xB1\xE8\xA8\xBC\xE8\xAA\x8D\xE8\xA8\xBC\xE5\xB1\x80
            X509v3 CRL Distribution Points: 
                Full Name:
                  DirName:C = JP, O = Japanese Government, OU = National Police Agency, OU = Prefectural Public Safety Commissions for ICDL
    Signature Algorithm: sha256WithRSAEncryption
    Signature Value:
        4f:c7:b7:0c:a6:60:16:f9:18:fa:b7:c5:22:87:20:dd:8e:7f:
        cb:c1:68:cf:c4:5b:e5:ad:b5:36:f7:0f:42:5e:c9:0d:ca:d0:
        81:5d:e8:d0:92:b1:e0:ac:4f:e9:5a:ad:46:7d:cf:d5:63:5e:
        5a:02:0f:e1:95:ba:e9:a0:99:f3:fc:d3:68:69:da:92:6a:bf:
        45:65:7c:79:42:4c:07:7b:25:b1:d7:c6:ac:03:c4:95:07:37:
        65:88:04:af:d3:f0:38:eb:35:ae:64:99:94:96:55:b1:8f:1b:
        d8:4e:25:c9:9c:b3:7f:08:35:2d:a5:cc:d1:06:3e:4e:75:2c:
        34:06:e1:20:0a:4c:66:ce:05:da:84:c3:9a:bd:50:23:4a:be:
        41:90:6d:74:e5:82:6b:e5:5c:76:f9:06:05:a5:90:5b:1a:ed:
        b4:f1:b6:e9:70:62:25:cb:44:ab:88:96:92:40:be:aa:de:bc:
        4d:28:f6:b9:34:cb:be:94:90:aa:6b:8e:3c:1a:fd:9f:56:e9:
        17:5e:ff:20:3a:32:db:c7:29:b4:f2:b7:e0:c6:e7:3b:bc:5b:
        63:af:48:b9:74:9c:c4:e4:5a:01:03:13:17:04:75:0c:49:a3:
        b0:50:98:37:98:94:6c:5b:d2:d8:1c:a4:93:93:e8:ee:2f:f5:
        c2:68:d6:5d
-----BEGIN CERTIFICATE-----
MIIGTDCCBTSgAwIBAgIIMzAwMDAxMTMwDQYJKoZIhvcNAQELBQAwZzELMAkGA1UE
BhMCSlAxHDAaBgNVBAoME0phcGFuZXNlIEdvdmVybm1lbnQxHzAdBgNVBAsMFk5h
dGlvbmFsIFBvbGljZSBBZ2VuY3kxGTAXBgNVBAsMEE5QQSBJQ0RMIFJvb3QgQ0Ew
HhcNMjQwOTE3MDczNjAzWhcNMjkwOTE2MTQ1OTU5WjCBnTELMAkGA1UEBhMCSlAx
HDAaBgNVBAoME0phcGFuZXNlIEdvdmVybm1lbnQxHzAdBgNVBAsMFk5hdGlvbmFs
IFBvbGljZSBBZ2VuY3kxNzA1BgNVBAsMLlByZWZlY3R1cmFsIFB1YmxpYyBTYWZl
dHkgQ29tbWlzc2lvbnMgZm9yIElDREwxFjAUBgNVBAMMDVdha2F5YW1hIFBQU0Mw
ggEiMA0GCSqGSIb3DQEBAQUAA4IBDwAwggEKAoIBAQCuF4pf8Il35spunhShSaML
oCN/xKMpWjeFrCRqvF+9YwrTxCuxNfhO7B1hMk1j19snYkzFeYd6nKXiEjvNeBaL
GBoiANs1AELfzsQbklFdz+wKliyG9zB/n6VDCSye2SI3fY7GGqRkcsLEgZvLRY4G
cPXXXNYS5BzHZu0J6CYPprG7A/7ESlxgO3ZvUalyp7KcY0ho/pIJc8puvQuEkASr
d8IO7zrp0usK7+/kiuxPvYRMKckmT0UkkzxhKxO4vBHmU772kba9PnJ+sbXp6Fht
cigFKAkl8a7JrAU96XEAk+VUPVt3r7HRIf6kwamlMraYjVtxo/ZKI5A9hyfX4jYR
AgMBAAGjggLDMIICvzCBmAYDVR0jBIGQMIGNgBQRzY5gREdXT0/L6efLoUbfug5Q
i6FrpGkwZzELMAkGA1UEBhMCSlAxHDAaBgNVBAoME0phcGFuZXNlIEdvdmVybm1l
bnQxHzAdBgNVBAsMFk5hdGlvbmFsIFBvbGljZSBBZ2VuY3kxGTAXBgNVBAsMEE5Q
QSBJQ0RMIFJvb3QgQ0GCCDIwMDAwMDE2MB0GA1UdDgQWBBR3tX1dDFOnNPeAXxDQ
U+tJVE1NCTAOBgNVHQ8BAf8EBAMCBsAwQAYDVR0gAQH/BDYwNDAyBgsqgwiGjhgH
BQEBCjAjMCEGCCsGAQUFBwIBFhVodHRwOi8vd3d3Lm5wYS5nby5qcC8wgZgGA1Ud
EQSBkDCBjaSBijCBhzELMAkGA1UEBhMCSlAxGDAWBgNVBAoMD+aXpeacrOWbveaU
v+W6nDESMBAGA1UECwwJ6K2m5a+f5bqBMSQwIgYDVQQLDBvpg73pgZPlupznnIzl
hazlronlp5Tlk6HkvJoxJDAiBgNVBAMMG+WSjOatjOWxseecjOWFrOWuieWnlOWT
oeS8mjB0BgNVHRIEbTBrpGkwZzELMAkGA1UEBhMCSlAxGDAWBgNVBAoMD+aXpeac
rOWbveaUv+W6nDESMBAGA1UECwwJ6K2m5a+f5bqBMSowKAYDVQQLDCHorablr5/l
uoHpgYvou6LlhY3oqLHoqLzoqo3oqLzlsYAwgZ8GA1UdHwSBlzCBlDCBkaCBjqCB
i6SBiDCBhTELMAkGA1UEBhMCSlAxHDAaBgNVBAoME0phcGFuZXNlIEdvdmVybm1l
bnQxHzAdBgNVBAsMFk5hdGlvbmFsIFBvbGljZSBBZ2VuY3kxNzA1BgNVBAsMLlBy
ZWZlY3R1cmFsIFB1YmxpYyBTYWZldHkgQ29tbWlzc2lvbnMgZm9yIElDREwwDQYJ
KoZIhvcNAQELBQADggEBAE/HtwymYBb5GPq3xSKHIN2Of8vBaM/EW+WttTb3D0Je
yQ3K0IFd6NCSseCsT+larUZ9z9VjXloCD+GVuumgmfP802hp2pJqv0VlfHlCTAd7
JbHXxqwDxJUHN2WIBK/T8DjrNa5kmZSWVbGPG9hOJcmcs38INS2lzNEGPk51LDQG
4SAKTGbOBdqEw5q9UCNKvkGQbXTlgmvlXHb5BgWlkFsa7bTxtulwYiXLRKuIlpJA
vqrevE0o9rk0y76UkKprjjwa/Z9W6Rde/yA6MtvHKbTyt+DG5zu8W2OvSLl0nMTk
WgEDExcEdQxJo7BQmDeYlGxb0tgcpJOT6O4v9cJo1l0=
-----END CERTIFICATE-----
