Certificate:
    Data:
        Version: 3 (0x2)
        Serial Number:
            32:30:30:30:30:30:35:32
        Signature Algorithm: sha256WithRSAEncryption
        Issuer: C=JP, O=Japanese Government, OU=National Police Agency, OU=NPA ICDL Root CA
        Validity
            Not Before: Feb  6 02:05:58 2023 GMT
            Not After : Feb  5 14:59:59 2028 GMT
        Subject: C=JP, O=Japanese Government, OU=National Police Agency, OU=Prefectural Public Safety Commissions for ICDL, CN=Yamanashi PPSC
        Subject Public Key Info:
            Public Key Algorithm: rsaEncryption
                Public-Key: (2048 bit)
                Modulus:
                    00:8d:2e:fb:db:e0:bf:95:a6:e1:df:f8:a2:00:f9:
                    b1:58:f1:48:95:9b:3c:5e:6f:a2:a3:20:15:4b:82:
                    cd:66:87:84:df:3a:7b:52:f0:e5:d1:82:d9:9d:c3:
                    aa:5f:65:46:5b:ce:df:04:58:19:e2:44:30:fa:48:
                    92:5f:9c:20:58:e6:13:c8:52:e2:96:08:b0:9c:83:
                    51:09:a4:36:8b:6d:a7:9d:fc:13:51:0f:41:e6:79:
                    00:a6:b5:21:76:a6:83:b1:de:cd:61:9d:09:b1:bb:
                    6f:4a:8e:e1:ef:40:ff:77:62:f1:f8:71:9d:e5:02:
                    ce:42:30:13:89:e0:96:c4:46:76:cd:6a:68:d7:46:
                    34:36:d8:14:28:2c:46:be:2f:5f:5f:21:19:ac:65:
                    78:d5:f8:ec:54:e4:22:d3:1c:9f:ca:45:d8:3a:67:
                    80:fc:e3:ef:78:d2:20:b2:50:20:2e:94:1d:22:79:
                    7b:b9:be:c0:b2:02:51:1a:98:69:e4:ba:56:aa:6d:
                    8a:d6:f0:d1:ba:6f:93:34:28:4d:ac:3f:a0:d0:e5:
                    7a:e6:eb:fd:cf:19:0b:27:7a:0e:cb:ef:6e:81:99:
                    67:62:f9:f3:9f:c5:e9:e1:39:0c:30:c2:23:12:7d:
                    df:13:4f:3e:5b:48:52:2c:af:b8:4c:a0:e9:d0:33:
                    4a:57
                Exponent: 65537 (0x10001)
        X509v3 extensions:
            X509v3 Authority Key Identifier: 
                keyid:11:CD:8E:60:44:47:57:4F:4F:CB:E9:E7:CB:A1:46:DF:BA:0E:50:8B
                DirName:/C=JP/O=Japanese Government/OU=National Police Agency/OU=NPA ICDL Root CA
                serial:32:30:30:30:30:30:31:36
            X509v3 Subject Key Identifier: 
                F7:21:34:A0:82:6E:CF:F1:06:BA:CE:9B:F3:94:41:D8:E2:E3:50:5C
            X509v3 Key Usage: critical
                Digital Signature, Non Repudiation
            X509v3 Certificate Policies: critical
                Policy: 1.2.392.100120.7.5.1.1.10
                  CPS: http://www.npa.go.jp/
            X509v3 Subject Alternative Name: 
                DirName:/C=JP/O=\xE6\x97\xA5\xE6\x9C\xAC\xE5\x9B\xBD\xE6\x94\xBF\xE5\xBA\x9C/OU=\xE8\xAD\xA6\xE5\xAF\x9F\xE5\xBA\x81/OU=\xE9\x83\xBD\xE9\x81\x93\xE5\xBA\x9C\xE7\x9C\x8C\xE5\x85\xAC\xE5\xAE\x89\xE5\xA7\x94\xE5\x93\xA1\xE4\xBC\x9A
            X509v3 Issuer Alternative Name: 
                DirName:/C=JP/O=\xE6\x97\xA5\xE6\x9C\xAC\xE5\x9B\xBD\xE6\x94\xBF\xE5\xBA\x9C/OU=\xE8\xAD\xA6\xE5\xAF\x9F\xE5\xBA\x81/OU=\xE8\xAD\xA6\xE5\xAF\x9F\xE5\xBA\x81\xE9\x81\x8B\xE8\xBB\xA2\xE5\x85\x8D\xE8\xA8\xB1\xE8\xA8\xBC\xE8\xAA\x8D\xE8\xA8\xBC\xE5\xB1\x80
            X509v3 CRL Distribution Points: 
                Full Name:
                  DirName:C = JP, O = Japanese Government, OU = National Police Agency, OU = Prefectural Public Safety Commissions for ICDL
    Signature Algorithm: sha256WithRSAEncryption
    Signature Value:
        74:79:a7:c6:7b:32:1d:4c:5b:18:31:50:d4:2d:b3:81:da:58:
        6a:a6:8c:4e:3e:1f:1f:09:64:e1:14:7e:af:c8:ac:e5:fa:ef:
        5b:db:82:06:80:13:a4:60:66:35:0e:26:7a:11:57:5a:24:3f:
        aa:9a:31:f7:22:90:2c:27:a0:5c:b9:1f:25:e7:e5:91:cd:2f:
        ce:b7:e7:03:b3:68:c6:22:d0:dc:33:14:f2:85:ae:e9:50:5d:
        5a:b4:4f:da:86:e5:5c:b3:e4:8b:df:b6:09:0f:64:ae:66:be:
        17:00:2e:96:20:a4:cd:f2:88:4d:ab:f2:60:8c:1a:36:ee:6b:
        8b:8c:82:cc:4d:33:f8:4d:06:89:5b:f7:b5:70:e4:0c:48:bc:
        59:44:b2:1e:8f:43:5f:45:48:b9:7c:22:cd:e0:e2:bd:ab:bd:
        9c:c6:ba:51:6e:79:a3:b1:dd:ad:68:2f:76:5f:60:0b:b0:0a:
        15:f9:cc:6b:63:fa:f1:eb:df:eb:5f:41:7a:16:87:0a:32:de:
        26:86:a5:c8:d4:30:9d:c2:bb:35:32:66:2e:12:e6:81:17:25:
        6a:e7:ba:f5:b9:61:42:29:e2:c7:4e:15:5e:2d:8a:c7:30:f8:
        db:ab:44:95:bd:44:b1:1f:d5:46:48:46:8c:e8:87:c7:c6:32:
        93:56:3a:f8
-----BEGIN CERTIFICATE-----
MIIGSjCCBTKgAwIBAgIIMjAwMDAwNTIwDQYJKoZIhvcNAQELBQAwZzELMAkGA1UE
BhMCSlAxHDAaBgNVBAoME0phcGFuZXNlIEdvdmVybm1lbnQxHzAdBgNVBAsMFk5h
dGlvbmFsIFBvbGljZSBBZ2VuY3kxGTAXBgNVBAsMEE5QQSBJQ0RMIFJvb3QgQ0Ew
HhcNMjMwMjA2MDIwNTU4WhcNMjgwMjA1MTQ1OTU5WjCBnjELMAkGA1UEBhMCSlAx
HDAaBgNVBAoME0phcGFuZXNlIEdvdmVybm1lbnQxHzAdBgNVBAsMFk5hdGlvbmFs
IFBvbGljZSBBZ2VuY3kxNzA1BgNVBAsMLlByZWZlY3R1cmFsIFB1YmxpYyBTYWZl
dHkgQ29tbWlzc2lvbnMgZm9yIElDREwxFzAVBgNVBAMMDllhbWFuYXNoaSBQUFND
MIIBIjANBgkqhkiG9w0BAQEFAAOCAQ8AMIIBCgKCAQEAjS772+C/labh3/iiAPmx
WPFIlZs8Xm+ioyAVS4LNZoeE3zp7UvDl0YLZncOqX2VGW87fBFgZ4kQw+kiSX5wg
WOYTyFLilgiwnINRCaQ2i22nnfwTUQ9B5nkAprUhdqaDsd7NYZ0JsbtvSo7h70D/
d2Lx+HGd5QLOQjATieCWxEZ2zWpo10Y0NtgUKCxGvi9fXyEZrGV41fjsVOQi0xyf
ykXYOmeA/OPveNIgslAgLpQdInl7ub7AsgJRGphp5LpWqm2K1vDRum+TNChNrD+g
0OV65uv9zxkLJ3oOy+9ugZlnYvnzn8Xp4TkMMMIjEn3fE08+W0hSLK+4TKDp0DNK
VwIDAQABo4ICwDCCArwwgZgGA1UdIwSBkDCBjYAUEc2OYERHV09Py+nny6FG37oO
UIuha6RpMGcxCzAJBgNVBAYTAkpQMRwwGgYDVQQKDBNKYXBhbmVzZSBHb3Zlcm5t
ZW50MR8wHQYDVQQLDBZOYXRpb25hbCBQb2xpY2UgQWdlbmN5MRkwFwYDVQQLDBBO
UEEgSUNETCBSb290IENBgggyMDAwMDAxNjAdBgNVHQ4EFgQU9yE0oIJuz/EGus6b
85RB2OLjUFwwDgYDVR0PAQH/BAQDAgbAMEAGA1UdIAEB/wQ2MDQwMgYLKoMIho4Y
BwUBAQowIzAhBggrBgEFBQcCARYVaHR0cDovL3d3dy5ucGEuZ28uanAvMIGVBgNV
HREEgY0wgYqkgYcwgYQxCzAJBgNVBAYTAkpQMRgwFgYDVQQKDA/ml6XmnKzlm73m
lL/lupwxEjAQBgNVBAsMCeitpuWvn+W6gTEkMCIGA1UECwwb6YO96YGT5bqc55yM
5YWs5a6J5aeU5ZOh5LyaMSEwHwYDVQQDDBjlsbHmoqjnnIzlhazlronlp5Tlk6Hk
vJowdAYDVR0SBG0wa6RpMGcxCzAJBgNVBAYTAkpQMRgwFgYDVQQKDA/ml6XmnKzl
m73mlL/lupwxEjAQBgNVBAsMCeitpuWvn+W6gTEqMCgGA1UECwwh6K2m5a+f5bqB
6YGL6Lui5YWN6Kix6Ki86KqN6Ki85bGAMIGfBgNVHR8EgZcwgZQwgZGggY6ggYuk
gYgwgYUxCzAJBgNVBAYTAkpQMRwwGgYDVQQKDBNKYXBhbmVzZSBHb3Zlcm5tZW50
MR8wHQYDVQQLDBZOYXRpb25hbCBQb2xpY2UgQWdlbmN5MTcwNQYDVQQLDC5QcmVm
ZWN0dXJhbCBQdWJsaWMgU2FmZXR5IENvbW1pc3Npb25zIGZvciBJQ0RMMA0GCSqG
SIb3DQEBCwUAA4IBAQB0eafGezIdTFsYMVDULbOB2lhqpoxOPh8fCWThFH6vyKzl
+u9b24IGgBOkYGY1DiZ6EVdaJD+qmjH3IpAsJ6BcuR8l5+WRzS/Ot+cDs2jGItDc
MxTyha7pUF1atE/ahuVcs+SL37YJD2SuZr4XAC6WIKTN8ohNq/JgjBo27muLjILM
TTP4TQaJW/e1cOQMSLxZRLIej0NfRUi5fCLN4OK9q72cxrpRbnmjsd2taC92X2AL
sAoV+cxrY/rx69/rX0F6FocKMt4mhqXI1DCdwrs1MmYuEuaBFyVq57r1uWFCKeLH
ThVeLYrHMPjbq0SVvUSxH9VGSEaM6IfHxjKTVjr4
-----END CERTIFICATE-----
