Certificate:
    Data:
        Version: 3 (0x2)
        Serial Number:
            33:30:30:30:30:30:37:39
        Signature Algorithm: sha256WithRSAEncryption
        Issuer: C=JP, O=Japanese Government, OU=National Police Agency, OU=NPA ICDL Root CA
        Validity
            Not Before: Mar 18 05:14:19 2024 GMT
            Not After : Mar 17 14:59:59 2029 GMT
        Subject: C=JP, O=Japanese Government, OU=National Police Agency, OU=Prefectural Public Safety Commissions for ICDL, CN=Yamagata AltPPSC
        Subject Public Key Info:
            Public Key Algorithm: rsaEncryption
                Public-Key: (2048 bit)
                Modulus:
                    00:a5:a7:2d:e4:85:a9:c4:b6:f4:bc:d6:dd:cb:1a:
                    a9:e8:00:14:e7:47:0e:15:6c:a7:00:af:68:1e:3c:
                    71:24:8f:a0:a7:c6:ad:b1:fd:88:63:e4:5d:00:a5:
                    eb:65:ca:42:aa:51:df:16:ab:76:1a:68:4b:a1:35:
                    2b:97:1c:d7:fc:11:9e:a0:5a:fc:3f:18:7d:fa:0f:
                    02:f0:30:18:4e:9c:39:a1:11:03:eb:4f:55:57:e5:
                    c5:94:8c:54:13:86:ed:48:4f:15:32:8b:42:53:87:
                    aa:c8:8f:fa:80:db:4d:aa:b3:b0:96:a2:4c:c3:c8:
                    81:6f:cd:bf:be:43:da:54:41:11:0e:4f:b2:fd:78:
                    97:6c:31:f5:41:6a:e3:34:c1:dc:71:f9:ab:8b:75:
                    21:fb:36:71:bf:44:5f:75:95:84:05:7e:23:a2:b2:
                    4c:4a:52:dc:62:91:ad:69:fb:4a:a5:43:c0:72:20:
                    46:c7:48:c1:70:cc:04:cc:b9:2f:99:7f:33:66:90:
                    8b:9e:09:08:f0:3c:91:47:7b:d8:70:09:95:d5:45:
                    90:e9:03:65:3f:55:0d:7c:a1:36:6c:34:1e:ec:7d:
                    4c:f6:de:1d:7c:d2:72:21:c5:69:2b:d2:ca:4d:9a:
                    4f:cf:6d:19:bf:62:fc:4e:77:4c:4c:17:1a:5f:40:
                    6e:d3
                Exponent: 65537 (0x10001)
        X509v3 extensions:
            X509v3 Authority Key Identifier: 
                keyid:11:CD:8E:60:44:47:57:4F:4F:CB:E9:E7:CB:A1:46:DF:BA:0E:50:8B
                DirName:/C=JP/O=Japanese Government/OU=National Police Agency/OU=NPA ICDL Root CA
                serial:32:30:30:30:30:30:31:36
            X509v3 Subject Key Identifier: 
                96:BB:BF:90:77:B2:C0:B0:5B:FB:FA:7B:0D:0F:87:01:B1:0F:99:A5
            X509v3 Key Usage: critical
                Digital Signature, Non Repudiation
            X509v3 Certificate Policies: critical
                Policy: 1.2.392.100120.7.5.1.1.10
                  CPS: http://www.npa.go.jp/
            X509v3 Issuer Alternative Name: 
                DirName:/C=JP/O=\xE6\x97\xA5\xE6\x9C\xAC\xE5\x9B\xBD\xE6\x94\xBF\xE5\xBA\x9C/OU=\xE8\xAD\xA6\xE5\xAF\x9F\xE5\xBA\x81/OU=\xE8\xAD\xA6\xE5\xAF\x9F\xE5\xBA\x81\xE9\x81\x8B\xE8\xBB\xA2\xE5\x85\x8D\xE8\xA8\xB1\xE8\xA8\xBC\xE8\xAA\x8D\xE8\xA8\xBC\xE5\xB1\x80
            X509v3 CRL Distribution Points: 
                Full Name:
                  DirName:C = JP, O = Japanese Government, OU = National Police Agency, OU = Prefectural Public Safety Commissions for ICDL
    Signature Algorithm: sha256WithRSAEncryption
    Signature Value:
        91:4a:74:82:98:07:90:09:6b:13:b0:a3:74:d2:5f:26:51:c1:
        9c:c3:24:12:c6:07:d7:62:a3:46:10:eb:5d:21:c4:b3:76:6b:
        f6:82:87:2c:96:bd:4a:34:d7:f0:12:6d:1c:b7:37:1b:00:09:
        dd:f1:61:2e:40:2c:c6:9f:1f:2d:34:98:62:23:90:76:4b:15:
        e3:0f:8b:82:58:e6:e3:6f:3a:00:38:39:37:e4:bc:53:62:07:
        45:fb:32:dd:bb:97:08:c3:ef:ce:4c:ef:5f:67:e2:70:04:7d:
        38:24:6d:52:3e:27:77:17:81:11:7b:e6:bd:25:f7:89:cc:35:
        43:e0:ac:23:98:bc:3e:37:24:85:85:70:22:15:a6:cf:af:be:
        9b:6c:e0:dd:18:5a:0a:32:94:66:9e:7f:9b:9c:d8:2c:f1:73:
        dd:ab:24:fc:e8:7d:12:70:d0:b4:7a:42:b7:b4:af:bd:7e:0e:
        95:64:45:6e:15:e5:1a:7e:d8:98:a3:ce:1a:0b:df:62:00:30:
        1e:04:0c:1e:6e:96:1f:a2:b3:6d:eb:36:47:15:26:a3:04:b1:
        37:51:97:72:1b:f7:3f:af:e3:73:b2:e9:96:22:39:b8:a3:b5:
        94:78:6b:5e:d7:16:6f:f8:b5:dc:21:30:80:23:75:e0:ec:03:
        88:69:77:e7
-----BEGIN CERTIFICATE-----
MIIFtDCCBJygAwIBAgIIMzAwMDAwNzkwDQYJKoZIhvcNAQELBQAwZzELMAkGA1UE
BhMCSlAxHDAaBgNVBAoME0phcGFuZXNlIEdvdmVybm1lbnQxHzAdBgNVBAsMFk5h
dGlvbmFsIFBvbGljZSBBZ2VuY3kxGTAXBgNVBAsMEE5QQSBJQ0RMIFJvb3QgQ0Ew
HhcNMjQwMzE4MDUxNDE5WhcNMjkwMzE3MTQ1OTU5WjCBoDELMAkGA1UEBhMCSlAx
HDAaBgNVBAoME0phcGFuZXNlIEdvdmVybm1lbnQxHzAdBgNVBAsMFk5hdGlvbmFs
IFBvbGljZSBBZ2VuY3kxNzA1BgNVBAsMLlByZWZlY3R1cmFsIFB1YmxpYyBTYWZl
dHkgQ29tbWlzc2lvbnMgZm9yIElDREwxGTAXBgNVBAMMEFlhbWFnYXRhIEFsdFBQ
U0MwggEiMA0GCSqGSIb3DQEBAQUAA4IBDwAwggEKAoIBAQClpy3khanEtvS81t3L
GqnoABTnRw4VbKcAr2gePHEkj6Cnxq2x/Yhj5F0ApetlykKqUd8Wq3YaaEuhNSuX
HNf8EZ6gWvw/GH36DwLwMBhOnDmhEQPrT1VX5cWUjFQThu1ITxUyi0JTh6rIj/qA
202qs7CWokzDyIFvzb++Q9pUQREOT7L9eJdsMfVBauM0wdxx+auLdSH7NnG/RF91
lYQFfiOiskxKUtxika1p+0qlQ8ByIEbHSMFwzATMuS+ZfzNmkIueCQjwPJFHe9hw
CZXVRZDpA2U/VQ18oTZsNB7sfUz23h180nIhxWkr0spNmk/PbRm/YvxOd0xMFxpf
QG7TAgMBAAGjggIoMIICJDCBmAYDVR0jBIGQMIGNgBQRzY5gREdXT0/L6efLoUbf
ug5Qi6FrpGkwZzELMAkGA1UEBhMCSlAxHDAaBgNVBAoME0phcGFuZXNlIEdvdmVy
bm1lbnQxHzAdBgNVBAsMFk5hdGlvbmFsIFBvbGljZSBBZ2VuY3kxGTAXBgNVBAsM
EE5QQSBJQ0RMIFJvb3QgQ0GCCDIwMDAwMDE2MB0GA1UdDgQWBBSWu7+Qd7LAsFv7
+nsND4cBsQ+ZpTAOBgNVHQ8BAf8EBAMCBsAwQAYDVR0gAQH/BDYwNDAyBgsqgwiG
jhgHBQEBCjAjMCEGCCsGAQUFBwIBFhVodHRwOi8vd3d3Lm5wYS5nby5qcC8wdAYD
VR0SBG0wa6RpMGcxCzAJBgNVBAYTAkpQMRgwFgYDVQQKDA/ml6XmnKzlm73mlL/l
upwxEjAQBgNVBAsMCeitpuWvn+W6gTEqMCgGA1UECwwh6K2m5a+f5bqB6YGL6Lui
5YWN6Kix6Ki86KqN6Ki85bGAMIGfBgNVHR8EgZcwgZQwgZGggY6ggYukgYgwgYUx
CzAJBgNVBAYTAkpQMRwwGgYDVQQKDBNKYXBhbmVzZSBHb3Zlcm5tZW50MR8wHQYD
VQQLDBZOYXRpb25hbCBQb2xpY2UgQWdlbmN5MTcwNQYDVQQLDC5QcmVmZWN0dXJh
bCBQdWJsaWMgU2FmZXR5IENvbW1pc3Npb25zIGZvciBJQ0RMMA0GCSqGSIb3DQEB
CwUAA4IBAQCRSnSCmAeQCWsTsKN00l8mUcGcwyQSxgfXYqNGEOtdIcSzdmv2gocs
lr1KNNfwEm0ctzcbAAnd8WEuQCzGnx8tNJhiI5B2SxXjD4uCWObjbzoAODk35LxT
YgdF+zLdu5cIw+/OTO9fZ+JwBH04JG1SPid3F4ERe+a9JfeJzDVD4KwjmLw+NySF
hXAiFabPr76bbODdGFoKMpRmnn+bnNgs8XPdqyT86H0ScNC0ekK3tK+9fg6VZEVu
FeUaftiYo84aC99iADAeBAwebpYforNt6zZHFSajBLE3UZdyG/c/r+NzsumWIjm4
o7WUeGte1xZv+LXcITCAI3Xg7AOIaXfn
-----END CERTIFICATE-----
