Certificate:
    Data:
        Version: 3 (0x2)
        Serial Number:
            33:30:30:30:30:30:38:34
        Signature Algorithm: sha256WithRSAEncryption
        Issuer: C=JP, O=Japanese Government, OU=National Police Agency, OU=NPA ICDL Root CA
        Validity
            Not Before: Mar 18 05:21:40 2024 GMT
            Not After : Mar 17 14:59:59 2029 GMT
        Subject: C=JP, O=Japanese Government, OU=National Police Agency, OU=Prefectural Public Safety Commissions for ICDL, CN=Yamanashi AltPPSC
        Subject Public Key Info:
            Public Key Algorithm: rsaEncryption
                Public-Key: (2048 bit)
                Modulus:
                    00:8d:2e:fb:db:e0:bf:95:a6:e1:df:f8:a2:00:f9:
                    b1:58:f1:48:95:9b:3c:5e:6f:a2:a3:20:15:4b:82:
                    cd:66:87:84:df:3a:7b:52:f0:e5:d1:82:d9:9d:c3:
                    aa:5f:65:46:5b:ce:df:04:58:19:e2:44:30:fa:48:
                    92:5f:9c:20:58:e6:13:c8:52:e2:96:08:b0:9c:83:
                    51:09:a4:36:8b:6d:a7:9d:fc:13:51:0f:41:e6:79:
                    00:a6:b5:21:76:a6:83:b1:de:cd:61:9d:09:b1:bb:
                    6f:4a:8e:e1:ef:40:ff:77:62:f1:f8:71:9d:e5:02:
                    ce:42:30:13:89:e0:96:c4:46:76:cd:6a:68:d7:46:
                    34:36:d8:14:28:2c:46:be:2f:5f:5f:21:19:ac:65:
                    78:d5:f8:ec:54:e4:22:d3:1c:9f:ca:45:d8:3a:67:
                    80:fc:e3:ef:78:d2:20:b2:50:20:2e:94:1d:22:79:
                    7b:b9:be:c0:b2:02:51:1a:98:69:e4:ba:56:aa:6d:
                    8a:d6:f0:d1:ba:6f:93:34:28:4d:ac:3f:a0:d0:e5:
                    7a:e6:eb:fd:cf:19:0b:27:7a:0e:cb:ef:6e:81:99:
                    67:62:f9:f3:9f:c5:e9:e1:39:0c:30:c2:23:12:7d:
                    df:13:4f:3e:5b:48:52:2c:af:b8:4c:a0:e9:d0:33:
                    4a:57
                Exponent: 65537 (0x10001)
        X509v3 extensions:
            X509v3 Authority Key Identifier: 
                keyid:11:CD:8E:60:44:47:57:4F:4F:CB:E9:E7:CB:A1:46:DF:BA:0E:50:8B
                DirName:/C=JP/O=Japanese Government/OU=National Police Agency/OU=NPA ICDL Root CA
                serial:32:30:30:30:30:30:31:36
            X509v3 Subject Key Identifier: 
                F7:21:34:A0:82:6E:CF:F1:06:BA:CE:9B:F3:94:41:D8:E2:E3:50:5C
            X509v3 Key Usage: critical
                Digital Signature, Non Repudiation
            X509v3 Certificate Policies: critical
                Policy: 1.2.392.100120.7.5.1.1.10
                  CPS: http://www.npa.go.jp/
            X509v3 Issuer Alternative Name: 
                DirName:/C=JP/O=\xE6\x97\xA5\xE6\x9C\xAC\xE5\x9B\xBD\xE6\x94\xBF\xE5\xBA\x9C/OU=\xE8\xAD\xA6\xE5\xAF\x9F\xE5\xBA\x81/OU=\xE8\xAD\xA6\xE5\xAF\x9F\xE5\xBA\x81\xE9\x81\x8B\xE8\xBB\xA2\xE5\x85\x8D\xE8\xA8\xB1\xE8\xA8\xBC\xE8\xAA\x8D\xE8\xA8\xBC\xE5\xB1\x80
            X509v3 CRL Distribution Points: 
                Full Name:
                  DirName:C = JP, O = Japanese Government, OU = National Police Agency, OU = Prefectural Public Safety Commissions for ICDL
    Signature Algorithm: sha256WithRSAEncryption
    Signature Value:
        15:ab:85:47:84:a9:4f:cb:31:2f:30:77:11:7e:82:a0:ec:c3:
        6c:41:5b:74:df:6f:71:ae:3b:94:3e:cd:06:fa:58:57:c7:c4:
        ff:37:17:c4:40:0e:86:f4:b9:ba:72:02:01:06:b0:c4:f0:61:
        7b:ce:7b:6d:b8:75:df:2c:7e:02:76:04:55:c0:31:a3:57:4c:
        6a:20:28:70:a9:03:16:5a:15:e7:76:4f:f5:4f:ad:94:18:3b:
        34:f4:6b:59:6d:76:5f:08:22:8e:69:c4:af:b0:b0:7e:82:3d:
        7a:87:95:ce:6b:e8:31:63:74:97:62:f3:46:7e:18:b4:75:fe:
        3a:dc:db:e7:a6:45:f4:8e:06:7f:e0:3e:46:19:78:11:04:a8:
        9d:dd:5d:f7:c4:71:d9:1f:d6:6d:f6:1c:9c:db:f1:1d:33:07:
        27:45:47:ae:c9:4e:81:c9:90:eb:87:38:93:3c:dd:f7:3b:49:
        1d:ec:49:0c:5e:f8:35:43:b4:b9:2d:77:d4:cc:3c:37:87:70:
        2e:1e:f3:ff:e7:c1:20:d6:c0:03:0b:b8:a1:4c:55:9e:15:78:
        33:ac:b1:7d:18:9a:c7:23:5c:a9:b0:4e:c2:91:18:e6:4e:c5:
        a7:6d:4d:40:af:7c:af:af:77:6b:82:41:fa:a1:e7:1e:3e:ee:
        cd:c7:69:27
-----BEGIN CERTIFICATE-----
MIIFtTCCBJ2gAwIBAgIIMzAwMDAwODQwDQYJKoZIhvcNAQELBQAwZzELMAkGA1UE
BhMCSlAxHDAaBgNVBAoME0phcGFuZXNlIEdvdmVybm1lbnQxHzAdBgNVBAsMFk5h
dGlvbmFsIFBvbGljZSBBZ2VuY3kxGTAXBgNVBAsMEE5QQSBJQ0RMIFJvb3QgQ0Ew
HhcNMjQwMzE4MDUyMTQwWhcNMjkwMzE3MTQ1OTU5WjCBoTELMAkGA1UEBhMCSlAx
HDAaBgNVBAoME0phcGFuZXNlIEdvdmVybm1lbnQxHzAdBgNVBAsMFk5hdGlvbmFs
IFBvbGljZSBBZ2VuY3kxNzA1BgNVBAsMLlByZWZlY3R1cmFsIFB1YmxpYyBTYWZl
dHkgQ29tbWlzc2lvbnMgZm9yIElDREwxGjAYBgNVBAMMEVlhbWFuYXNoaSBBbHRQ
UFNDMIIBIjANBgkqhkiG9w0BAQEFAAOCAQ8AMIIBCgKCAQEAjS772+C/labh3/ii
APmxWPFIlZs8Xm+ioyAVS4LNZoeE3zp7UvDl0YLZncOqX2VGW87fBFgZ4kQw+kiS
X5wgWOYTyFLilgiwnINRCaQ2i22nnfwTUQ9B5nkAprUhdqaDsd7NYZ0JsbtvSo7h
70D/d2Lx+HGd5QLOQjATieCWxEZ2zWpo10Y0NtgUKCxGvi9fXyEZrGV41fjsVOQi
0xyfykXYOmeA/OPveNIgslAgLpQdInl7ub7AsgJRGphp5LpWqm2K1vDRum+TNChN
rD+g0OV65uv9zxkLJ3oOy+9ugZlnYvnzn8Xp4TkMMMIjEn3fE08+W0hSLK+4TKDp
0DNKVwIDAQABo4ICKDCCAiQwgZgGA1UdIwSBkDCBjYAUEc2OYERHV09Py+nny6FG
37oOUIuha6RpMGcxCzAJBgNVBAYTAkpQMRwwGgYDVQQKDBNKYXBhbmVzZSBHb3Zl
cm5tZW50MR8wHQYDVQQLDBZOYXRpb25hbCBQb2xpY2UgQWdlbmN5MRkwFwYDVQQL
DBBOUEEgSUNETCBSb290IENBgggyMDAwMDAxNjAdBgNVHQ4EFgQU9yE0oIJuz/EG
us6b85RB2OLjUFwwDgYDVR0PAQH/BAQDAgbAMEAGA1UdIAEB/wQ2MDQwMgYLKoMI
ho4YBwUBAQowIzAhBggrBgEFBQcCARYVaHR0cDovL3d3dy5ucGEuZ28uanAvMHQG
A1UdEgRtMGukaTBnMQswCQYDVQQGEwJKUDEYMBYGA1UECgwP5pel5pys5Zu95pS/
5bqcMRIwEAYDVQQLDAnorablr5/luoExKjAoBgNVBAsMIeitpuWvn+W6gemBi+i7
ouWFjeioseiovOiqjeiovOWxgDCBnwYDVR0fBIGXMIGUMIGRoIGOoIGLpIGIMIGF
MQswCQYDVQQGEwJKUDEcMBoGA1UECgwTSmFwYW5lc2UgR292ZXJubWVudDEfMB0G
A1UECwwWTmF0aW9uYWwgUG9saWNlIEFnZW5jeTE3MDUGA1UECwwuUHJlZmVjdHVy
YWwgUHVibGljIFNhZmV0eSBDb21taXNzaW9ucyBmb3IgSUNETDANBgkqhkiG9w0B
AQsFAAOCAQEAFauFR4SpT8sxLzB3EX6CoOzDbEFbdN9vca47lD7NBvpYV8fE/zcX
xEAOhvS5unICAQawxPBhe857bbh13yx+AnYEVcAxo1dMaiAocKkDFloV53ZP9U+t
lBg7NPRrWW12XwgijmnEr7CwfoI9eoeVzmvoMWN0l2LzRn4YtHX+Otzb56ZF9I4G
f+A+Rhl4EQSond1d98Rx2R/WbfYcnNvxHTMHJ0VHrslOgcmQ64c4kzzd9ztJHexJ
DF74NUO0uS131Mw8N4dwLh7z/+fBINbAAwu4oUxVnhV4M6yxfRiaxyNcqbBOwpEY
5k7Fp21NQK98r693a4JB+qHnHj7uzcdpJw==
-----END CERTIFICATE-----
