Certificate:
    Data:
        Version: 3 (0x2)
        Serial Number:
            33:30:30:30:30:30:31:35:db:8c:53:06:a8:a2:8c:9c:9f:93
        Signature Algorithm: sha256WithRSAEncryption
        Issuer: C=JP, O=Japanese Government, OU=National Police Agency, OU=NPA ICDL Root CA
        Validity
            Not Before: Jun 19 05:30:05 2023 GMT
            Not After : Jun 18 14:59:59 2028 GMT
        Subject: C=JP, O=Japanese Government, OU=National Police Agency, OU=Prefectural Public Safety Commissions for ICDL, CN=Yamagata AltPPSC
        Subject Public Key Info:
            Public Key Algorithm: rsaEncryption
                Public-Key: (2048 bit)
                Modulus:
                    00:ab:63:4f:4a:34:cc:16:be:55:3c:37:3e:50:48:
                    ca:a5:fd:f7:11:71:27:8f:39:8c:4a:21:ab:b8:83:
                    6c:ef:2f:e1:77:0e:17:a5:21:62:92:1e:3d:be:db:
                    f1:54:27:12:5e:6b:89:40:68:13:8d:8c:fd:d9:07:
                    d7:e2:d5:d1:07:52:84:44:e4:13:33:50:cd:3c:4f:
                    a8:19:0c:ad:9a:22:25:cb:36:fb:39:69:5d:1d:df:
                    0d:41:83:62:1b:d4:25:fe:7d:b2:86:85:02:60:36:
                    71:fd:af:67:a8:dc:12:3e:4e:b2:26:7c:17:12:ed:
                    36:9f:d8:95:24:64:a4:cf:ed:b9:75:f3:4e:8e:ab:
                    5e:a5:a3:cf:9c:e2:06:6b:0d:c0:ad:2a:cf:a2:47:
                    fa:a1:7c:c1:b0:5b:3e:3c:57:ef:59:08:10:1b:a0:
                    ef:b1:b7:5f:f3:8a:59:7d:6f:c8:4e:e4:c4:a6:a6:
                    86:85:b7:49:3c:d5:e2:08:da:c6:07:a5:1b:9f:19:
                    0c:0c:d3:19:6e:bc:49:12:c6:78:e3:61:5d:eb:dd:
                    2b:a7:38:25:31:b7:56:37:1b:2d:29:2a:6c:bf:56:
                    c9:23:50:c9:5d:5e:6d:e5:f5:bc:f4:d0:4a:c7:46:
                    e7:6a:1b:c4:6f:b3:92:b2:39:ef:1f:1a:72:f6:ce:
                    36:05
                Exponent: 65537 (0x10001)
        X509v3 extensions:
            X509v3 Authority Key Identifier: 
                keyid:11:CD:8E:60:44:47:57:4F:4F:CB:E9:E7:CB:A1:46:DF:BA:0E:50:8B
                DirName:/C=JP/O=Japanese Government/OU=National Police Agency/OU=NPA ICDL Root CA
                serial:32:30:30:30:30:30:31:36
            X509v3 Subject Key Identifier: 
                50:9C:06:83:45:71:24:C2:12:61:17:5C:5E:DC:68:26:D2:CC:53:9B
            X509v3 Key Usage: critical
                Digital Signature, Non Repudiation
            X509v3 Certificate Policies: critical
                Policy: 1.2.392.100120.7.5.1.1.10
                  CPS: http://www.npa.go.jp/
            X509v3 Issuer Alternative Name: 
                DirName:/C=JP/O=\xE6\x97\xA5\xE6\x9C\xAC\xE5\x9B\xBD\xE6\x94\xBF\xE5\xBA\x9C/OU=\xE8\xAD\xA6\xE5\xAF\x9F\xE5\xBA\x81/OU=\xE8\xAD\xA6\xE5\xAF\x9F\xE5\xBA\x81\xE9\x81\x8B\xE8\xBB\xA2\xE5\x85\x8D\xE8\xA8\xB1\xE8\xA8\xBC\xE8\xAA\x8D\xE8\xA8\xBC\xE5\xB1\x80
            X509v3 CRL Distribution Points: 
                Full Name:
                  DirName:C = JP, O = Japanese Government, OU = National Police Agency, OU = Prefectural Public Safety Commissions for ICDL
    Signature Algorithm: sha256WithRSAEncryption
    Signature Value:
        6b:bf:ec:ac:70:8b:45:3d:0a:15:23:61:ca:4f:89:78:77:a2:
        d3:da:2a:18:ac:d5:b0:fd:dc:3a:94:a4:a8:0b:82:93:9c:85:
        69:5b:ea:de:a2:97:f6:18:58:39:f3:31:24:70:be:f4:16:b2:
        1b:fa:4e:fc:75:ed:09:da:a0:b4:9b:15:39:f1:9a:de:b7:75:
        d2:de:08:2c:72:4d:d3:fe:86:6b:f5:e7:42:28:58:f6:51:96:
        b5:20:6b:f3:1b:1c:b4:b6:0b:34:b6:a9:14:ec:9d:3e:bd:25:
        78:49:60:6d:d7:13:05:9d:8d:cd:e0:d4:6f:af:3a:f4:55:3a:
        95:14:a7:5e:f7:6b:92:2d:1f:05:69:48:aa:8a:37:82:fe:bc:
        e7:51:54:f7:e4:9f:d7:7a:3f:10:f0:91:81:2d:52:bd:b0:18:
        e2:48:bd:91:ba:63:bc:f5:6a:20:c5:da:3c:a3:60:66:eb:36:
        a2:2d:08:53:f0:bf:cb:86:ca:9d:bb:a6:65:bc:d8:de:c5:75:
        1d:d0:b7:14:88:7e:bf:c1:76:43:0a:f9:73:4d:04:64:00:9c:
        75:07:46:d1:73:f8:34:d7:fb:e6:10:f7:2a:fd:2d:7a:4c:d3:
        7b:9f:fc:b9:e9:57:c1:84:8e:ec:7c:02:6d:ff:8f:0c:52:91:
        db:5e:69:7a
-----BEGIN CERTIFICATE-----
MIIFvjCCBKagAwIBAgISMzAwMDAwMTXbjFMGqKKMnJ+TMA0GCSqGSIb3DQEBCwUA
MGcxCzAJBgNVBAYTAkpQMRwwGgYDVQQKDBNKYXBhbmVzZSBHb3Zlcm5tZW50MR8w
HQYDVQQLDBZOYXRpb25hbCBQb2xpY2UgQWdlbmN5MRkwFwYDVQQLDBBOUEEgSUNE
TCBSb290IENBMB4XDTIzMDYxOTA1MzAwNVoXDTI4MDYxODE0NTk1OVowgaAxCzAJ
BgNVBAYTAkpQMRwwGgYDVQQKDBNKYXBhbmVzZSBHb3Zlcm5tZW50MR8wHQYDVQQL
DBZOYXRpb25hbCBQb2xpY2UgQWdlbmN5MTcwNQYDVQQLDC5QcmVmZWN0dXJhbCBQ
dWJsaWMgU2FmZXR5IENvbW1pc3Npb25zIGZvciBJQ0RMMRkwFwYDVQQDDBBZYW1h
Z2F0YSBBbHRQUFNDMIIBIjANBgkqhkiG9w0BAQEFAAOCAQ8AMIIBCgKCAQEAq2NP
SjTMFr5VPDc+UEjKpf33EXEnjzmMSiGruINs7y/hdw4XpSFikh49vtvxVCcSXmuJ
QGgTjYz92QfX4tXRB1KEROQTM1DNPE+oGQytmiIlyzb7OWldHd8NQYNiG9Ql/n2y
hoUCYDZx/a9nqNwSPk6yJnwXEu02n9iVJGSkz+25dfNOjqtepaPPnOIGaw3ArSrP
okf6oXzBsFs+PFfvWQgQG6Dvsbdf84pZfW/ITuTEpqaGhbdJPNXiCNrGB6UbnxkM
DNMZbrxJEsZ442Fd690rpzglMbdWNxstKSpsv1bJI1DJXV5t5fW89NBKx0bnahvE
b7OSsjnvHxpy9s42BQIDAQABo4ICKDCCAiQwgZgGA1UdIwSBkDCBjYAUEc2OYERH
V09Py+nny6FG37oOUIuha6RpMGcxCzAJBgNVBAYTAkpQMRwwGgYDVQQKDBNKYXBh
bmVzZSBHb3Zlcm5tZW50MR8wHQYDVQQLDBZOYXRpb25hbCBQb2xpY2UgQWdlbmN5
MRkwFwYDVQQLDBBOUEEgSUNETCBSb290IENBgggyMDAwMDAxNjAdBgNVHQ4EFgQU
UJwGg0VxJMISYRdcXtxoJtLMU5swDgYDVR0PAQH/BAQDAgbAMEAGA1UdIAEB/wQ2
MDQwMgYLKoMIho4YBwUBAQowIzAhBggrBgEFBQcCARYVaHR0cDovL3d3dy5ucGEu
Z28uanAvMHQGA1UdEgRtMGukaTBnMQswCQYDVQQGEwJKUDEYMBYGA1UECgwP5pel
5pys5Zu95pS/5bqcMRIwEAYDVQQLDAnorablr5/luoExKjAoBgNVBAsMIeitpuWv
n+W6gemBi+i7ouWFjeioseiovOiqjeiovOWxgDCBnwYDVR0fBIGXMIGUMIGRoIGO
oIGLpIGIMIGFMQswCQYDVQQGEwJKUDEcMBoGA1UECgwTSmFwYW5lc2UgR292ZXJu
bWVudDEfMB0GA1UECwwWTmF0aW9uYWwgUG9saWNlIEFnZW5jeTE3MDUGA1UECwwu
UHJlZmVjdHVyYWwgUHVibGljIFNhZmV0eSBDb21taXNzaW9ucyBmb3IgSUNETDAN
BgkqhkiG9w0BAQsFAAOCAQEAa7/srHCLRT0KFSNhyk+JeHei09oqGKzVsP3cOpSk
qAuCk5yFaVvq3qKX9hhYOfMxJHC+9BayG/pO/HXtCdqgtJsVOfGa3rd10t4ILHJN
0/6Ga/XnQihY9lGWtSBr8xsctLYLNLapFOydPr0leElgbdcTBZ2NzeDUb6869FU6
lRSnXvdrki0fBWlIqoo3gv6851FU9+Sf13o/EPCRgS1SvbAY4ki9kbpjvPVqIMXa
PKNgZus2oi0IU/C/y4bKnbumZbzY3sV1HdC3FIh+v8F2Qwr5c00EZACcdQdG0XP4
NNf75hD3Kv0tekzTe5/8uelXwYSO7HwCbf+PDFKR215peg==
-----END CERTIFICATE-----
