Certificate:
    Data:
        Version: 3 (0x2)
        Serial Number:
            32:30:30:30:30:30:36:39
        Signature Algorithm: sha256WithRSAEncryption
        Issuer: C=JP, O=Japanese Government, OU=National Police Agency, OU=NPA ICDL Root CA
        Validity
            Not Before: Feb  6 02:50:04 2023 GMT
            Not After : Feb  5 14:59:59 2028 GMT
        Subject: C=JP, O=Japanese Government, OU=National Police Agency, OU=Prefectural Public Safety Commissions for ICDL, CN=Yamaguchi PPSC
        Subject Public Key Info:
            Public Key Algorithm: rsaEncryption
                Public-Key: (2048 bit)
                Modulus:
                    00:8a:07:7d:81:6b:7f:fd:53:0e:1e:3d:e5:26:27:
                    9a:ed:26:e9:1e:e7:97:d3:60:5c:2f:d3:86:79:09:
                    1b:6c:bd:ef:e3:72:48:0e:53:20:79:36:81:e9:12:
                    c3:0a:f5:7b:9f:8a:3d:33:70:34:e7:22:0f:49:6b:
                    6f:92:0e:63:ef:e9:09:87:85:a5:a7:6e:ff:e4:d5:
                    68:b8:3c:e6:2e:3c:8d:2d:38:e9:23:31:05:df:32:
                    0e:c2:73:af:09:3e:bc:6a:af:ea:56:87:ed:b3:88:
                    19:7d:6e:9b:cf:9b:9b:ef:31:4a:23:fe:d5:c1:11:
                    aa:65:1b:4b:f6:27:6b:ed:cb:79:33:05:fb:8b:14:
                    0e:a6:bb:7c:8a:a0:5a:23:39:ec:50:40:a2:59:18:
                    41:c0:c7:d2:f3:3e:72:97:b5:f6:0d:71:c3:98:73:
                    66:72:7b:54:d9:c5:31:d5:d1:9f:69:5e:fb:9a:da:
                    e7:56:a1:e7:7b:cb:6e:67:b7:9d:e8:7e:32:3e:be:
                    d7:38:20:db:d1:60:59:e6:90:71:16:32:5c:f8:82:
                    e9:8f:7a:5b:b8:68:c7:26:4e:72:8b:40:59:bf:ec:
                    4c:0c:72:1a:ec:df:a6:82:16:dd:98:7d:16:d7:ae:
                    25:72:85:0b:69:08:f6:65:ee:46:70:da:d2:72:66:
                    7e:95
                Exponent: 65537 (0x10001)
        X509v3 extensions:
            X509v3 Authority Key Identifier: 
                keyid:11:CD:8E:60:44:47:57:4F:4F:CB:E9:E7:CB:A1:46:DF:BA:0E:50:8B
                DirName:/C=JP/O=Japanese Government/OU=National Police Agency/OU=NPA ICDL Root CA
                serial:32:30:30:30:30:30:31:36
            X509v3 Subject Key Identifier: 
                76:83:07:A5:36:BC:F4:D3:9B:09:4C:0E:FC:86:CB:CA:5B:3C:B0:F2
            X509v3 Key Usage: critical
                Digital Signature, Non Repudiation
            X509v3 Certificate Policies: critical
                Policy: 1.2.392.100120.7.5.1.1.10
                  CPS: http://www.npa.go.jp/
            X509v3 Subject Alternative Name: 
                DirName:/C=JP/O=\xE6\x97\xA5\xE6\x9C\xAC\xE5\x9B\xBD\xE6\x94\xBF\xE5\xBA\x9C/OU=\xE8\xAD\xA6\xE5\xAF\x9F\xE5\xBA\x81/OU=\xE9\x83\xBD\xE9\x81\x93\xE5\xBA\x9C\xE7\x9C\x8C\xE5\x85\xAC\xE5\xAE\x89\xE5\xA7\x94\xE5\x93\xA1\xE4\xBC\x9A
            X509v3 Issuer Alternative Name: 
                DirName:/C=JP/O=\xE6\x97\xA5\xE6\x9C\xAC\xE5\x9B\xBD\xE6\x94\xBF\xE5\xBA\x9C/OU=\xE8\xAD\xA6\xE5\xAF\x9F\xE5\xBA\x81/OU=\xE8\xAD\xA6\xE5\xAF\x9F\xE5\xBA\x81\xE9\x81\x8B\xE8\xBB\xA2\xE5\x85\x8D\xE8\xA8\xB1\xE8\xA8\xBC\xE8\xAA\x8D\xE8\xA8\xBC\xE5\xB1\x80
            X509v3 CRL Distribution Points: 
                Full Name:
                  DirName:C = JP, O = Japanese Government, OU = National Police Agency, OU = Prefectural Public Safety Commissions for ICDL
    Signature Algorithm: sha256WithRSAEncryption
    Signature Value:
        1c:bd:62:e8:aa:50:12:d0:f1:8b:96:a8:9f:43:ac:6b:e7:97:
        a4:28:c8:c7:41:49:8c:ac:26:b4:a7:f2:5e:ac:56:9d:a4:48:
        e2:43:3c:dc:02:e1:59:55:41:e5:84:6c:17:f7:97:21:ec:0a:
        a1:5f:9e:71:57:83:75:08:d2:0f:bb:e2:db:7a:be:87:97:f1:
        da:46:9f:c9:70:d8:cb:ee:99:bf:32:6f:5b:1b:00:4d:99:59:
        79:3d:be:4a:a2:2f:4c:9b:31:1f:92:0d:91:2c:ea:0f:25:34:
        02:6a:3f:88:54:52:11:f4:4c:d3:70:32:33:eb:02:d8:54:ad:
        37:73:1c:9c:9d:2a:1e:d3:c6:ee:a2:61:ed:51:c4:1b:90:bb:
        13:87:84:67:61:9a:47:81:cb:d4:e1:fc:bb:da:54:f2:4d:71:
        a1:41:53:d1:d3:ba:e1:0e:cf:5a:59:b3:93:77:f7:e9:c4:0c:
        8f:20:71:8f:53:fa:78:e0:78:7a:fb:dc:80:0a:15:90:53:22:
        94:5c:58:53:bd:a7:7c:0c:ed:78:a2:5a:9d:52:14:a7:ff:7b:
        f8:32:61:05:9b:fb:82:f6:8c:9d:1a:40:fc:d7:ac:ea:29:b8:
        36:15:44:d7:2c:f5:e9:ee:28:75:67:cb:62:c1:96:ef:66:bd:
        a1:cb:85:29
-----BEGIN CERTIFICATE-----
MIIGSjCCBTKgAwIBAgIIMjAwMDAwNjkwDQYJKoZIhvcNAQELBQAwZzELMAkGA1UE
BhMCSlAxHDAaBgNVBAoME0phcGFuZXNlIEdvdmVybm1lbnQxHzAdBgNVBAsMFk5h
dGlvbmFsIFBvbGljZSBBZ2VuY3kxGTAXBgNVBAsMEE5QQSBJQ0RMIFJvb3QgQ0Ew
HhcNMjMwMjA2MDI1MDA0WhcNMjgwMjA1MTQ1OTU5WjCBnjELMAkGA1UEBhMCSlAx
HDAaBgNVBAoME0phcGFuZXNlIEdvdmVybm1lbnQxHzAdBgNVBAsMFk5hdGlvbmFs
IFBvbGljZSBBZ2VuY3kxNzA1BgNVBAsMLlByZWZlY3R1cmFsIFB1YmxpYyBTYWZl
dHkgQ29tbWlzc2lvbnMgZm9yIElDREwxFzAVBgNVBAMMDllhbWFndWNoaSBQUFND
MIIBIjANBgkqhkiG9w0BAQEFAAOCAQ8AMIIBCgKCAQEAigd9gWt//VMOHj3lJiea
7SbpHueX02BcL9OGeQkbbL3v43JIDlMgeTaB6RLDCvV7n4o9M3A05yIPSWtvkg5j
7+kJh4Wlp27/5NVouDzmLjyNLTjpIzEF3zIOwnOvCT68aq/qVofts4gZfW6bz5ub
7zFKI/7VwRGqZRtL9idr7ct5MwX7ixQOprt8iqBaIznsUECiWRhBwMfS8z5yl7X2
DXHDmHNmcntU2cUx1dGfaV77mtrnVqHne8tuZ7ed6H4yPr7XOCDb0WBZ5pBxFjJc
+ILpj3pbuGjHJk5yi0BZv+xMDHIa7N+mghbdmH0W164lcoULaQj2Ze5GcNrScmZ+
lQIDAQABo4ICwDCCArwwgZgGA1UdIwSBkDCBjYAUEc2OYERHV09Py+nny6FG37oO
UIuha6RpMGcxCzAJBgNVBAYTAkpQMRwwGgYDVQQKDBNKYXBhbmVzZSBHb3Zlcm5t
ZW50MR8wHQYDVQQLDBZOYXRpb25hbCBQb2xpY2UgQWdlbmN5MRkwFwYDVQQLDBBO
UEEgSUNETCBSb290IENBgggyMDAwMDAxNjAdBgNVHQ4EFgQUdoMHpTa89NObCUwO
/IbLyls8sPIwDgYDVR0PAQH/BAQDAgbAMEAGA1UdIAEB/wQ2MDQwMgYLKoMIho4Y
BwUBAQowIzAhBggrBgEFBQcCARYVaHR0cDovL3d3dy5ucGEuZ28uanAvMIGVBgNV
HREEgY0wgYqkgYcwgYQxCzAJBgNVBAYTAkpQMRgwFgYDVQQKDA/ml6XmnKzlm73m
lL/lupwxEjAQBgNVBAsMCeitpuWvn+W6gTEkMCIGA1UECwwb6YO96YGT5bqc55yM
5YWs5a6J5aeU5ZOh5LyaMSEwHwYDVQQDDBjlsbHlj6PnnIzlhazlronlp5Tlk6Hk
vJowdAYDVR0SBG0wa6RpMGcxCzAJBgNVBAYTAkpQMRgwFgYDVQQKDA/ml6XmnKzl
m73mlL/lupwxEjAQBgNVBAsMCeitpuWvn+W6gTEqMCgGA1UECwwh6K2m5a+f5bqB
6YGL6Lui5YWN6Kix6Ki86KqN6Ki85bGAMIGfBgNVHR8EgZcwgZQwgZGggY6ggYuk
gYgwgYUxCzAJBgNVBAYTAkpQMRwwGgYDVQQKDBNKYXBhbmVzZSBHb3Zlcm5tZW50
MR8wHQYDVQQLDBZOYXRpb25hbCBQb2xpY2UgQWdlbmN5MTcwNQYDVQQLDC5QcmVm
ZWN0dXJhbCBQdWJsaWMgU2FmZXR5IENvbW1pc3Npb25zIGZvciBJQ0RMMA0GCSqG
SIb3DQEBCwUAA4IBAQAcvWLoqlAS0PGLlqifQ6xr55ekKMjHQUmMrCa0p/JerFad
pEjiQzzcAuFZVUHlhGwX95ch7AqhX55xV4N1CNIPu+Lber6Hl/HaRp/JcNjL7pm/
Mm9bGwBNmVl5Pb5Koi9MmzEfkg2RLOoPJTQCaj+IVFIR9EzTcDIz6wLYVK03cxyc
nSoe08buomHtUcQbkLsTh4RnYZpHgcvU4fy72lTyTXGhQVPR07rhDs9aWbOTd/fp
xAyPIHGPU/p44Hh6+9yAChWQUyKUXFhTvad8DO14olqdUhSn/3v4MmEFm/uC9oyd
GkD816zqKbg2FUTXLPXp7ih1Z8tiwZbvZr2hy4Up
-----END CERTIFICATE-----
