Certificate:
    Data:
        Version: 3 (0x2)
        Serial Number:
            33:30:30:30:30:30:36:34
        Signature Algorithm: sha256WithRSAEncryption
        Issuer: C=JP, O=Japanese Government, OU=National Police Agency, OU=NPA ICDL Root CA
        Validity
            Not Before: Nov  1 04:36:45 2023 GMT
            Not After : Oct 31 14:59:59 2028 GMT
        Subject: C=JP, O=Japanese Government, OU=National Police Agency, OU=Prefectural Public Safety Commissions for ICDL, CN=Yamanashi PPSC
        Subject Public Key Info:
            Public Key Algorithm: rsaEncryption
                Public-Key: (2048 bit)
                Modulus:
                    00:d9:37:10:ed:17:98:33:d7:74:ff:cf:77:0d:d6:
                    3b:68:ee:85:c7:a2:53:d0:8b:b1:4c:df:0d:f8:8e:
                    cd:52:a3:50:b1:03:c1:a8:8a:e6:9a:73:1c:13:44:
                    c3:0d:e3:c8:be:eb:ee:66:f5:1f:82:83:9a:d3:88:
                    83:4a:da:53:b8:3f:4a:57:0f:e3:22:fb:04:97:e6:
                    e8:74:88:5a:7e:90:9a:42:3b:36:1c:2b:95:e4:d2:
                    e8:50:f1:53:90:f6:33:01:24:4b:31:57:4b:4f:09:
                    20:c8:82:32:80:53:04:8f:39:4a:b2:10:ac:54:76:
                    07:fd:27:ba:1b:c3:13:63:bc:68:56:25:7f:f2:92:
                    eb:69:3f:7a:48:e6:25:47:8c:06:36:d4:3b:03:3f:
                    76:cc:41:bd:a2:0c:ed:85:83:1c:b4:6a:8b:a3:da:
                    59:ec:20:e5:0d:10:2a:92:6c:8f:5c:83:f4:91:59:
                    8b:f0:43:c2:41:93:d3:81:94:64:d6:55:30:59:ad:
                    f4:24:31:ef:02:a5:e4:2d:f3:97:8b:7b:2c:5c:41:
                    21:48:e0:58:ca:a2:f2:6e:cf:90:29:29:dc:4a:ce:
                    d7:9c:50:5f:37:ab:93:82:fa:a4:be:96:8e:5e:40:
                    8a:5c:54:6d:91:e9:2f:2f:d0:c4:c1:4a:82:a3:09:
                    25:29
                Exponent: 65537 (0x10001)
        X509v3 extensions:
            X509v3 Authority Key Identifier: 
                keyid:11:CD:8E:60:44:47:57:4F:4F:CB:E9:E7:CB:A1:46:DF:BA:0E:50:8B
                DirName:/C=JP/O=Japanese Government/OU=National Police Agency/OU=NPA ICDL Root CA
                serial:32:30:30:30:30:30:31:36
            X509v3 Subject Key Identifier: 
                C2:AE:95:B1:55:D6:84:DF:57:EE:C7:44:00:25:9D:C5:C9:09:F5:B6
            X509v3 Key Usage: critical
                Digital Signature, Non Repudiation
            X509v3 Certificate Policies: critical
                Policy: 1.2.392.100120.7.5.1.1.10
                  CPS: http://www.npa.go.jp/
            X509v3 Subject Alternative Name: 
                DirName:/C=JP/O=\xE6\x97\xA5\xE6\x9C\xAC\xE5\x9B\xBD\xE6\x94\xBF\xE5\xBA\x9C/OU=\xE8\xAD\xA6\xE5\xAF\x9F\xE5\xBA\x81/OU=\xE9\x83\xBD\xE9\x81\x93\xE5\xBA\x9C\xE7\x9C\x8C\xE5\x85\xAC\xE5\xAE\x89\xE5\xA7\x94\xE5\x93\xA1\xE4\xBC\x9A
            X509v3 Issuer Alternative Name: 
                DirName:/C=JP/O=\xE6\x97\xA5\xE6\x9C\xAC\xE5\x9B\xBD\xE6\x94\xBF\xE5\xBA\x9C/OU=\xE8\xAD\xA6\xE5\xAF\x9F\xE5\xBA\x81/OU=\xE8\xAD\xA6\xE5\xAF\x9F\xE5\xBA\x81\xE9\x81\x8B\xE8\xBB\xA2\xE5\x85\x8D\xE8\xA8\xB1\xE8\xA8\xBC\xE8\xAA\x8D\xE8\xA8\xBC\xE5\xB1\x80
            X509v3 CRL Distribution Points: 
                Full Name:
                  DirName:C = JP, O = Japanese Government, OU = National Police Agency, OU = Prefectural Public Safety Commissions for ICDL
    Signature Algorithm: sha256WithRSAEncryption
    Signature Value:
        26:9c:e1:e3:cb:32:1e:ae:46:f8:6b:e1:e3:a4:9a:59:24:b4:
        ec:a0:de:fb:bc:2d:e5:dc:73:f8:ee:e5:39:43:69:9f:bb:aa:
        ed:36:1d:03:e5:49:f0:06:58:de:83:b9:f7:81:df:0e:89:27:
        a8:a3:14:83:07:45:fd:19:1f:ac:95:0a:f6:07:74:9c:c2:02:
        c2:05:5b:ff:8b:95:bd:30:24:6d:8d:0f:1c:ba:ed:c3:f4:e1:
        2b:be:20:3e:c7:47:0b:b6:53:b0:5f:e5:9c:aa:b0:1e:26:3f:
        68:98:0e:65:e0:e3:d6:cb:06:26:47:a7:21:3b:a5:fe:b6:63:
        c2:17:66:61:16:59:be:38:35:45:1e:58:2d:54:8f:03:1c:45:
        ca:8d:c2:e1:a8:9a:b6:94:88:12:06:b6:98:21:83:8e:ee:b6:
        2b:7d:d7:6a:9d:46:79:0d:68:2e:27:2e:04:97:91:30:91:83:
        8a:e7:a9:0d:44:37:db:ec:0d:25:5b:54:b4:c5:ec:db:1d:50:
        73:38:33:d4:40:a4:91:3d:c5:42:cc:e1:23:a4:16:5c:84:64:
        41:7c:64:e1:9e:90:0a:53:14:9a:63:4e:07:77:9e:40:5a:ca:
        84:ca:7b:c8:42:a6:85:a8:e2:4f:0d:1e:ed:3d:82:f0:73:01:
        18:e6:86:4c
-----BEGIN CERTIFICATE-----
MIIGSjCCBTKgAwIBAgIIMzAwMDAwNjQwDQYJKoZIhvcNAQELBQAwZzELMAkGA1UE
BhMCSlAxHDAaBgNVBAoME0phcGFuZXNlIEdvdmVybm1lbnQxHzAdBgNVBAsMFk5h
dGlvbmFsIFBvbGljZSBBZ2VuY3kxGTAXBgNVBAsMEE5QQSBJQ0RMIFJvb3QgQ0Ew
HhcNMjMxMTAxMDQzNjQ1WhcNMjgxMDMxMTQ1OTU5WjCBnjELMAkGA1UEBhMCSlAx
HDAaBgNVBAoME0phcGFuZXNlIEdvdmVybm1lbnQxHzAdBgNVBAsMFk5hdGlvbmFs
IFBvbGljZSBBZ2VuY3kxNzA1BgNVBAsMLlByZWZlY3R1cmFsIFB1YmxpYyBTYWZl
dHkgQ29tbWlzc2lvbnMgZm9yIElDREwxFzAVBgNVBAMMDllhbWFuYXNoaSBQUFND
MIIBIjANBgkqhkiG9w0BAQEFAAOCAQ8AMIIBCgKCAQEA2TcQ7ReYM9d0/893DdY7
aO6Fx6JT0IuxTN8N+I7NUqNQsQPBqIrmmnMcE0TDDePIvuvuZvUfgoOa04iDStpT
uD9KVw/jIvsEl+bodIhafpCaQjs2HCuV5NLoUPFTkPYzASRLMVdLTwkgyIIygFME
jzlKshCsVHYH/Se6G8MTY7xoViV/8pLraT96SOYlR4wGNtQ7Az92zEG9ogzthYMc
tGqLo9pZ7CDlDRAqkmyPXIP0kVmL8EPCQZPTgZRk1lUwWa30JDHvAqXkLfOXi3ss
XEEhSOBYyqLybs+QKSncSs7XnFBfN6uTgvqkvpaOXkCKXFRtkekvL9DEwUqCowkl
KQIDAQABo4ICwDCCArwwgZgGA1UdIwSBkDCBjYAUEc2OYERHV09Py+nny6FG37oO
UIuha6RpMGcxCzAJBgNVBAYTAkpQMRwwGgYDVQQKDBNKYXBhbmVzZSBHb3Zlcm5t
ZW50MR8wHQYDVQQLDBZOYXRpb25hbCBQb2xpY2UgQWdlbmN5MRkwFwYDVQQLDBBO
UEEgSUNETCBSb290IENBgggyMDAwMDAxNjAdBgNVHQ4EFgQUwq6VsVXWhN9X7sdE
ACWdxckJ9bYwDgYDVR0PAQH/BAQDAgbAMEAGA1UdIAEB/wQ2MDQwMgYLKoMIho4Y
BwUBAQowIzAhBggrBgEFBQcCARYVaHR0cDovL3d3dy5ucGEuZ28uanAvMIGVBgNV
HREEgY0wgYqkgYcwgYQxCzAJBgNVBAYTAkpQMRgwFgYDVQQKDA/ml6XmnKzlm73m
lL/lupwxEjAQBgNVBAsMCeitpuWvn+W6gTEkMCIGA1UECwwb6YO96YGT5bqc55yM
5YWs5a6J5aeU5ZOh5LyaMSEwHwYDVQQDDBjlsbHmoqjnnIzlhazlronlp5Tlk6Hk
vJowdAYDVR0SBG0wa6RpMGcxCzAJBgNVBAYTAkpQMRgwFgYDVQQKDA/ml6XmnKzl
m73mlL/lupwxEjAQBgNVBAsMCeitpuWvn+W6gTEqMCgGA1UECwwh6K2m5a+f5bqB
6YGL6Lui5YWN6Kix6Ki86KqN6Ki85bGAMIGfBgNVHR8EgZcwgZQwgZGggY6ggYuk
gYgwgYUxCzAJBgNVBAYTAkpQMRwwGgYDVQQKDBNKYXBhbmVzZSBHb3Zlcm5tZW50
MR8wHQYDVQQLDBZOYXRpb25hbCBQb2xpY2UgQWdlbmN5MTcwNQYDVQQLDC5QcmVm
ZWN0dXJhbCBQdWJsaWMgU2FmZXR5IENvbW1pc3Npb25zIGZvciBJQ0RMMA0GCSqG
SIb3DQEBCwUAA4IBAQAmnOHjyzIerkb4a+HjpJpZJLTsoN77vC3l3HP47uU5Q2mf
u6rtNh0D5UnwBljeg7n3gd8OiSeooxSDB0X9GR+slQr2B3ScwgLCBVv/i5W9MCRt
jQ8cuu3D9OErviA+x0cLtlOwX+WcqrAeJj9omA5l4OPWywYmR6chO6X+tmPCF2Zh
Flm+ODVFHlgtVI8DHEXKjcLhqJq2lIgSBraYIYOO7rYrfddqnUZ5DWguJy4El5Ew
kYOK56kNRDfb7A0lW1S0xezbHVBzODPUQKSRPcVCzOEjpBZchGRBfGThnpAKUxSa
Y04Hd55AWsqEynvIQqaFqOJPDR7tPYLwcwEY5oZM
-----END CERTIFICATE-----
