Certificate:
    Data:
        Version: 3 (0x2)
        Serial Number:
            33:30:30:30:30:31:31:35
        Signature Algorithm: sha256WithRSAEncryption
        Issuer: C=JP, O=Japanese Government, OU=National Police Agency, OU=NPA ICDL Root CA
        Validity
            Not Before: Sep 17 07:39:36 2024 GMT
            Not After : Sep 16 14:59:59 2029 GMT
        Subject: C=JP, O=Japanese Government, OU=National Police Agency, OU=Prefectural Public Safety Commissions for ICDL, CN=Yamaguchi PPSC
        Subject Public Key Info:
            Public Key Algorithm: rsaEncryption
                Public-Key: (2048 bit)
                Modulus:
                    00:c8:2f:5b:ac:b7:37:01:f1:e6:fc:39:ec:b8:33:
                    ed:a4:39:6e:c1:92:ea:82:96:51:0f:5d:68:6f:62:
                    e3:b8:0f:19:db:83:48:b5:95:3c:78:48:18:63:82:
                    3f:ce:89:0d:b4:22:f3:91:2c:9c:78:9c:15:f6:6c:
                    ef:32:b4:1d:c8:05:74:a5:4b:5d:c8:65:f8:06:f9:
                    c5:35:31:2b:9a:e3:d9:52:08:36:05:8f:34:44:49:
                    0a:31:44:fb:a6:3a:79:d9:ac:79:3f:c9:1c:3f:63:
                    25:80:e9:6d:98:b7:9f:b5:89:ee:ec:12:0f:99:37:
                    86:ae:55:87:47:de:15:62:4f:4d:68:5e:2b:f9:f8:
                    68:36:79:c9:1b:e5:65:e4:05:b5:ae:67:7c:6b:86:
                    0e:a2:e6:3a:28:3e:c9:fc:cc:7c:54:de:f4:f8:fb:
                    39:b6:82:cb:bb:e1:38:bc:44:65:4a:dd:14:68:44:
                    eb:d1:2e:db:4d:b6:a4:8f:b9:0b:4d:f0:87:d0:c8:
                    eb:62:9a:1e:13:24:f9:34:8e:bf:c9:d2:74:d2:18:
                    ea:ea:39:6b:0d:ea:0e:98:be:90:f9:33:71:4c:74:
                    7a:bd:04:d2:04:44:7a:cf:40:77:b2:6d:c4:0e:6a:
                    b8:43:65:fa:d5:ee:59:e1:0f:a8:ce:6a:15:7e:2e:
                    27:d9
                Exponent: 65537 (0x10001)
        X509v3 extensions:
            X509v3 Authority Key Identifier: 
                keyid:11:CD:8E:60:44:47:57:4F:4F:CB:E9:E7:CB:A1:46:DF:BA:0E:50:8B
                DirName:/C=JP/O=Japanese Government/OU=National Police Agency/OU=NPA ICDL Root CA
                serial:32:30:30:30:30:30:31:36
            X509v3 Subject Key Identifier: 
                EE:15:65:4C:8D:E3:41:50:F1:CD:78:93:B2:67:CB:8C:08:40:40:62
            X509v3 Key Usage: critical
                Digital Signature, Non Repudiation
            X509v3 Certificate Policies: critical
                Policy: 1.2.392.100120.7.5.1.1.10
                  CPS: http://www.npa.go.jp/
            X509v3 Subject Alternative Name: 
                DirName:/C=JP/O=\xE6\x97\xA5\xE6\x9C\xAC\xE5\x9B\xBD\xE6\x94\xBF\xE5\xBA\x9C/OU=\xE8\xAD\xA6\xE5\xAF\x9F\xE5\xBA\x81/OU=\xE9\x83\xBD\xE9\x81\x93\xE5\xBA\x9C\xE7\x9C\x8C\xE5\x85\xAC\xE5\xAE\x89\xE5\xA7\x94\xE5\x93\xA1\xE4\xBC\x9A
            X509v3 Issuer Alternative Name: 
                DirName:/C=JP/O=\xE6\x97\xA5\xE6\x9C\xAC\xE5\x9B\xBD\xE6\x94\xBF\xE5\xBA\x9C/OU=\xE8\xAD\xA6\xE5\xAF\x9F\xE5\xBA\x81/OU=\xE8\xAD\xA6\xE5\xAF\x9F\xE5\xBA\x81\xE9\x81\x8B\xE8\xBB\xA2\xE5\x85\x8D\xE8\xA8\xB1\xE8\xA8\xBC\xE8\xAA\x8D\xE8\xA8\xBC\xE5\xB1\x80
            X509v3 CRL Distribution Points: 
                Full Name:
                  DirName:C = JP, O = Japanese Government, OU = National Police Agency, OU = Prefectural Public Safety Commissions for ICDL
    Signature Algorithm: sha256WithRSAEncryption
    Signature Value:
        01:b6:cb:c6:40:32:b3:4a:52:b3:aa:bf:15:22:a2:e3:bb:ee:
        59:37:f7:7e:3d:76:6c:0d:d3:8b:1c:55:cc:44:20:4b:8d:ba:
        33:0a:9a:fa:47:bd:72:15:73:cd:38:bf:e4:f7:b7:b3:06:01:
        99:a6:90:43:80:56:66:e3:4a:74:f4:d6:d2:c6:f2:77:05:44:
        14:42:16:63:14:89:40:69:37:26:39:db:5f:71:dd:c3:14:0d:
        7b:f3:6d:78:40:38:ce:ef:a0:de:ee:dd:4b:8e:07:47:03:6b:
        ab:d8:95:d6:0c:7d:37:83:bf:aa:95:61:00:bb:50:7e:de:2a:
        fb:21:08:4c:81:93:3d:73:a1:d1:b7:41:56:1b:3d:89:e4:cf:
        61:a6:ec:42:63:e3:f2:66:cd:e1:33:70:b3:07:72:37:96:25:
        0c:4d:4a:7a:20:ca:18:fc:94:91:e2:2b:4f:ba:ee:68:9b:93:
        a0:c3:f4:1c:dd:c1:9b:77:e9:f0:ae:c6:60:25:70:75:80:a3:
        11:90:df:00:ca:91:37:20:aa:11:b2:7a:12:04:6b:4e:b4:0e:
        94:c2:5c:f2:6f:17:bf:42:6b:74:f6:cb:fb:60:1d:c4:e4:9f:
        eb:5f:6d:b7:83:79:ba:6c:ab:85:78:f2:63:6d:d4:54:3d:d8:
        e1:0f:68:29
-----BEGIN CERTIFICATE-----
MIIGSjCCBTKgAwIBAgIIMzAwMDAxMTUwDQYJKoZIhvcNAQELBQAwZzELMAkGA1UE
BhMCSlAxHDAaBgNVBAoME0phcGFuZXNlIEdvdmVybm1lbnQxHzAdBgNVBAsMFk5h
dGlvbmFsIFBvbGljZSBBZ2VuY3kxGTAXBgNVBAsMEE5QQSBJQ0RMIFJvb3QgQ0Ew
HhcNMjQwOTE3MDczOTM2WhcNMjkwOTE2MTQ1OTU5WjCBnjELMAkGA1UEBhMCSlAx
HDAaBgNVBAoME0phcGFuZXNlIEdvdmVybm1lbnQxHzAdBgNVBAsMFk5hdGlvbmFs
IFBvbGljZSBBZ2VuY3kxNzA1BgNVBAsMLlByZWZlY3R1cmFsIFB1YmxpYyBTYWZl
dHkgQ29tbWlzc2lvbnMgZm9yIElDREwxFzAVBgNVBAMMDllhbWFndWNoaSBQUFND
MIIBIjANBgkqhkiG9w0BAQEFAAOCAQ8AMIIBCgKCAQEAyC9brLc3AfHm/DnsuDPt
pDluwZLqgpZRD11ob2LjuA8Z24NItZU8eEgYY4I/zokNtCLzkSyceJwV9mzvMrQd
yAV0pUtdyGX4BvnFNTErmuPZUgg2BY80REkKMUT7pjp52ax5P8kcP2MlgOltmLef
tYnu7BIPmTeGrlWHR94VYk9NaF4r+fhoNnnJG+Vl5AW1rmd8a4YOouY6KD7J/Mx8
VN70+Ps5toLLu+E4vERlSt0UaETr0S7bTbakj7kLTfCH0MjrYpoeEyT5NI6/ydJ0
0hjq6jlrDeoOmL6Q+TNxTHR6vQTSBER6z0B3sm3EDmq4Q2X61e5Z4Q+ozmoVfi4n
2QIDAQABo4ICwDCCArwwgZgGA1UdIwSBkDCBjYAUEc2OYERHV09Py+nny6FG37oO
UIuha6RpMGcxCzAJBgNVBAYTAkpQMRwwGgYDVQQKDBNKYXBhbmVzZSBHb3Zlcm5t
ZW50MR8wHQYDVQQLDBZOYXRpb25hbCBQb2xpY2UgQWdlbmN5MRkwFwYDVQQLDBBO
UEEgSUNETCBSb290IENBgggyMDAwMDAxNjAdBgNVHQ4EFgQU7hVlTI3jQVDxzXiT
smfLjAhAQGIwDgYDVR0PAQH/BAQDAgbAMEAGA1UdIAEB/wQ2MDQwMgYLKoMIho4Y
BwUBAQowIzAhBggrBgEFBQcCARYVaHR0cDovL3d3dy5ucGEuZ28uanAvMIGVBgNV
HREEgY0wgYqkgYcwgYQxCzAJBgNVBAYTAkpQMRgwFgYDVQQKDA/ml6XmnKzlm73m
lL/lupwxEjAQBgNVBAsMCeitpuWvn+W6gTEkMCIGA1UECwwb6YO96YGT5bqc55yM
5YWs5a6J5aeU5ZOh5LyaMSEwHwYDVQQDDBjlsbHlj6PnnIzlhazlronlp5Tlk6Hk
vJowdAYDVR0SBG0wa6RpMGcxCzAJBgNVBAYTAkpQMRgwFgYDVQQKDA/ml6XmnKzl
m73mlL/lupwxEjAQBgNVBAsMCeitpuWvn+W6gTEqMCgGA1UECwwh6K2m5a+f5bqB
6YGL6Lui5YWN6Kix6Ki86KqN6Ki85bGAMIGfBgNVHR8EgZcwgZQwgZGggY6ggYuk
gYgwgYUxCzAJBgNVBAYTAkpQMRwwGgYDVQQKDBNKYXBhbmVzZSBHb3Zlcm5tZW50
MR8wHQYDVQQLDBZOYXRpb25hbCBQb2xpY2UgQWdlbmN5MTcwNQYDVQQLDC5QcmVm
ZWN0dXJhbCBQdWJsaWMgU2FmZXR5IENvbW1pc3Npb25zIGZvciBJQ0RMMA0GCSqG
SIb3DQEBCwUAA4IBAQABtsvGQDKzSlKzqr8VIqLju+5ZN/d+PXZsDdOLHFXMRCBL
jbozCpr6R71yFXPNOL/k97ezBgGZppBDgFZm40p09NbSxvJ3BUQUQhZjFIlAaTcm
Odtfcd3DFA178214QDjO76De7t1LjgdHA2ur2JXWDH03g7+qlWEAu1B+3ir7IQhM
gZM9c6HRt0FWGz2J5M9hpuxCY+PyZs3hM3CzB3I3liUMTUp6IMoY/JSR4itPuu5o
m5Ogw/Qc3cGbd+nwrsZgJXB1gKMRkN8AypE3IKoRsnoSBGtOtA6Uwlzybxe/Qmt0
9sv7YB3E5J/rX223g3m6bKuFePJjbdRUPdjhD2gp
-----END CERTIFICATE-----
