Certificate:
    Data:
        Version: 3 (0x2)
        Serial Number:
            33:30:30:30:30:30:32:35:a9:12:22:f7:4a:f7:57:a9:49:1e
        Signature Algorithm: sha256WithRSAEncryption
        Issuer: C=JP, O=Japanese Government, OU=National Police Agency, OU=NPA ICDL Root CA
        Validity
            Not Before: Jun 19 05:42:53 2023 GMT
            Not After : Jun 18 14:59:59 2028 GMT
        Subject: C=JP, O=Japanese Government, OU=National Police Agency, OU=Prefectural Public Safety Commissions for ICDL, CN=Yamanashi AltPPSC
        Subject Public Key Info:
            Public Key Algorithm: rsaEncryption
                Public-Key: (2048 bit)
                Modulus:
                    00:80:02:26:c6:07:85:9d:95:f0:14:3d:32:d5:de:
                    aa:20:a4:0a:34:89:6c:a8:3c:ed:eb:47:79:5b:0d:
                    be:4a:3b:88:c1:37:9a:9b:b8:7a:b9:97:07:cc:d4:
                    4f:63:5d:01:25:2b:0f:66:32:22:c4:3f:be:51:4b:
                    2a:a4:c0:ee:2d:14:20:92:db:91:07:06:77:5e:42:
                    1a:f9:0d:e9:3b:85:aa:ae:93:92:9d:2b:2b:19:e2:
                    55:d2:4d:6b:13:cb:f5:19:18:37:9c:5e:d9:5a:f3:
                    ae:c8:bf:f0:72:f6:bb:3b:e4:78:54:b9:03:df:3f:
                    33:ff:c8:9a:f1:97:85:6c:dd:31:83:26:55:20:6a:
                    da:5b:7a:ed:c0:cc:95:6e:93:25:3e:ef:30:92:b0:
                    b8:3d:f0:7d:a9:16:6f:48:9b:23:e9:83:9f:77:90:
                    70:13:e3:7c:ba:08:bd:d5:dd:d7:59:73:18:60:dd:
                    2e:f3:df:71:13:55:52:7f:42:77:4d:f1:95:ae:6e:
                    72:7e:f1:51:99:33:2d:f5:89:48:8b:73:6e:38:b7:
                    5d:4e:88:e4:8f:33:04:7b:32:e1:30:03:ea:4f:e7:
                    2c:86:85:aa:ce:0d:bb:a8:81:c3:a3:f1:1d:2a:b6:
                    7a:f5:c2:54:31:25:cb:5d:54:1e:64:dd:35:dd:94:
                    ae:0f
                Exponent: 65537 (0x10001)
        X509v3 extensions:
            X509v3 Authority Key Identifier: 
                keyid:11:CD:8E:60:44:47:57:4F:4F:CB:E9:E7:CB:A1:46:DF:BA:0E:50:8B
                DirName:/C=JP/O=Japanese Government/OU=National Police Agency/OU=NPA ICDL Root CA
                serial:32:30:30:30:30:30:31:36
            X509v3 Subject Key Identifier: 
                4B:1B:0D:1A:52:7C:7B:1C:A8:3E:41:1B:50:91:FA:58:F6:53:B2:8C
            X509v3 Key Usage: critical
                Digital Signature, Non Repudiation
            X509v3 Certificate Policies: critical
                Policy: 1.2.392.100120.7.5.1.1.10
                  CPS: http://www.npa.go.jp/
            X509v3 Issuer Alternative Name: 
                DirName:/C=JP/O=\xE6\x97\xA5\xE6\x9C\xAC\xE5\x9B\xBD\xE6\x94\xBF\xE5\xBA\x9C/OU=\xE8\xAD\xA6\xE5\xAF\x9F\xE5\xBA\x81/OU=\xE8\xAD\xA6\xE5\xAF\x9F\xE5\xBA\x81\xE9\x81\x8B\xE8\xBB\xA2\xE5\x85\x8D\xE8\xA8\xB1\xE8\xA8\xBC\xE8\xAA\x8D\xE8\xA8\xBC\xE5\xB1\x80
            X509v3 CRL Distribution Points: 
                Full Name:
                  DirName:C = JP, O = Japanese Government, OU = National Police Agency, OU = Prefectural Public Safety Commissions for ICDL
    Signature Algorithm: sha256WithRSAEncryption
    Signature Value:
        9f:36:67:19:9e:36:73:d2:02:61:08:24:40:f1:d5:44:5b:b9:
        5e:b3:a1:95:a1:c1:e3:70:7b:29:b8:ac:b5:96:b3:fe:a0:5a:
        7d:4a:fc:9e:89:67:93:62:23:22:3e:f1:c0:fc:04:f5:1c:3e:
        aa:bc:26:01:78:37:3d:5c:4d:89:08:7c:3a:e4:0d:92:dd:f8:
        29:ae:80:0e:82:fc:ca:a9:ee:63:54:86:d3:05:ca:81:4c:18:
        3f:bc:2d:64:87:1a:29:ac:b3:34:81:d7:2d:64:b8:0b:6d:b3:
        ec:f3:0a:09:c8:88:07:f6:b7:06:b5:aa:51:23:6e:00:65:3f:
        20:6a:5e:af:31:46:46:26:cf:e5:32:3a:5e:a8:a1:01:e6:0c:
        9c:b5:d4:f2:b6:e9:dc:2b:66:80:cd:a0:bc:73:35:cf:1d:bf:
        1a:23:62:bf:d6:75:84:bf:d7:69:81:cd:81:a1:4e:94:a4:21:
        fa:42:17:99:f5:65:f6:ea:80:12:7f:4a:67:ce:99:f0:41:2c:
        89:74:dc:3f:5c:ab:67:72:10:bf:fa:56:19:e0:db:de:8c:80:
        84:b7:8f:56:92:fe:27:1b:2e:e8:4f:0f:1e:d8:2f:de:26:90:
        3a:cb:b6:0a:96:0a:c5:9a:1d:18:86:7f:31:96:9d:e0:f4:61:
        3e:5b:61:92
-----BEGIN CERTIFICATE-----
MIIFvzCCBKegAwIBAgISMzAwMDAwMjWpEiL3SvdXqUkeMA0GCSqGSIb3DQEBCwUA
MGcxCzAJBgNVBAYTAkpQMRwwGgYDVQQKDBNKYXBhbmVzZSBHb3Zlcm5tZW50MR8w
HQYDVQQLDBZOYXRpb25hbCBQb2xpY2UgQWdlbmN5MRkwFwYDVQQLDBBOUEEgSUNE
TCBSb290IENBMB4XDTIzMDYxOTA1NDI1M1oXDTI4MDYxODE0NTk1OVowgaExCzAJ
BgNVBAYTAkpQMRwwGgYDVQQKDBNKYXBhbmVzZSBHb3Zlcm5tZW50MR8wHQYDVQQL
DBZOYXRpb25hbCBQb2xpY2UgQWdlbmN5MTcwNQYDVQQLDC5QcmVmZWN0dXJhbCBQ
dWJsaWMgU2FmZXR5IENvbW1pc3Npb25zIGZvciBJQ0RMMRowGAYDVQQDDBFZYW1h
bmFzaGkgQWx0UFBTQzCCASIwDQYJKoZIhvcNAQEBBQADggEPADCCAQoCggEBAIAC
JsYHhZ2V8BQ9MtXeqiCkCjSJbKg87etHeVsNvko7iME3mpu4ermXB8zUT2NdASUr
D2YyIsQ/vlFLKqTA7i0UIJLbkQcGd15CGvkN6TuFqq6Tkp0rKxniVdJNaxPL9RkY
N5xe2Vrzrsi/8HL2uzvkeFS5A98/M//ImvGXhWzdMYMmVSBq2lt67cDMlW6TJT7v
MJKwuD3wfakWb0ibI+mDn3eQcBPjfLoIvdXd11lzGGDdLvPfcRNVUn9Cd03xla5u
cn7xUZkzLfWJSItzbji3XU6I5I8zBHsy4TAD6k/nLIaFqs4Nu6iBw6PxHSq2evXC
VDEly11UHmTdNd2Urg8CAwEAAaOCAigwggIkMIGYBgNVHSMEgZAwgY2AFBHNjmBE
R1dPT8vp58uhRt+6DlCLoWukaTBnMQswCQYDVQQGEwJKUDEcMBoGA1UECgwTSmFw
YW5lc2UgR292ZXJubWVudDEfMB0GA1UECwwWTmF0aW9uYWwgUG9saWNlIEFnZW5j
eTEZMBcGA1UECwwQTlBBIElDREwgUm9vdCBDQYIIMjAwMDAwMTYwHQYDVR0OBBYE
FEsbDRpSfHscqD5BG1CR+lj2U7KMMA4GA1UdDwEB/wQEAwIGwDBABgNVHSABAf8E
NjA0MDIGCyqDCIaOGAcFAQEKMCMwIQYIKwYBBQUHAgEWFWh0dHA6Ly93d3cubnBh
LmdvLmpwLzB0BgNVHRIEbTBrpGkwZzELMAkGA1UEBhMCSlAxGDAWBgNVBAoMD+aX
peacrOWbveaUv+W6nDESMBAGA1UECwwJ6K2m5a+f5bqBMSowKAYDVQQLDCHorabl
r5/luoHpgYvou6LlhY3oqLHoqLzoqo3oqLzlsYAwgZ8GA1UdHwSBlzCBlDCBkaCB
jqCBi6SBiDCBhTELMAkGA1UEBhMCSlAxHDAaBgNVBAoME0phcGFuZXNlIEdvdmVy
bm1lbnQxHzAdBgNVBAsMFk5hdGlvbmFsIFBvbGljZSBBZ2VuY3kxNzA1BgNVBAsM
LlByZWZlY3R1cmFsIFB1YmxpYyBTYWZldHkgQ29tbWlzc2lvbnMgZm9yIElDREww
DQYJKoZIhvcNAQELBQADggEBAJ82ZxmeNnPSAmEIJEDx1URbuV6zoZWhweNweym4
rLWWs/6gWn1K/J6JZ5NiIyI+8cD8BPUcPqq8JgF4Nz1cTYkIfDrkDZLd+CmugA6C
/Mqp7mNUhtMFyoFMGD+8LWSHGimsszSB1y1kuAtts+zzCgnIiAf2twa1qlEjbgBl
PyBqXq8xRkYmz+UyOl6ooQHmDJy11PK26dwrZoDNoLxzNc8dvxojYr/WdYS/12mB
zYGhTpSkIfpCF5n1ZfbqgBJ/SmfOmfBBLIl03D9cq2dyEL/6Vhng296MgIS3j1aS
/icbLuhPDx7YL94mkDrLtgqWCsWaHRiGfzGWneD0YT5bYZI=
-----END CERTIFICATE-----
