Certificate:
    Data:
        Version: 3 (0x2)
        Serial Number:
            33:30:30:30:30:30:35:39
        Signature Algorithm: sha256WithRSAEncryption
        Issuer: C=JP, O=Japanese Government, OU=National Police Agency, OU=NPA ICDL Root CA
        Validity
            Not Before: Nov  1 04:18:47 2023 GMT
            Not After : Oct 31 14:59:59 2028 GMT
        Subject: C=JP, O=Japanese Government, OU=National Police Agency, OU=Prefectural Public Safety Commissions for ICDL, CN=Yamagata PPSC
        Subject Public Key Info:
            Public Key Algorithm: rsaEncryption
                Public-Key: (2048 bit)
                Modulus:
                    00:e7:ce:da:f7:bf:67:b1:77:c4:8e:c3:50:b4:47:
                    55:14:10:ab:30:6b:c7:15:66:8c:6f:d7:dd:eb:7c:
                    18:bd:18:a1:53:b5:20:55:35:06:03:94:3e:51:96:
                    5b:bd:15:5e:40:7c:2c:d5:3e:0e:15:21:9a:03:ce:
                    23:a2:72:13:64:0d:5b:88:59:1b:9f:cb:67:91:0e:
                    a6:e4:a1:6f:9d:98:44:36:d3:01:2b:40:fa:8c:1b:
                    c5:89:37:97:71:b1:ba:0c:63:32:9e:4b:de:f9:f4:
                    b0:0c:12:3e:c6:ba:19:e9:69:1e:14:ac:83:18:8a:
                    27:94:a8:d4:dc:be:3b:77:c8:2c:9d:28:a0:23:75:
                    59:12:23:08:58:f3:58:03:29:f4:de:34:13:5b:df:
                    99:09:90:3f:f3:a8:dc:1f:8b:a4:09:4c:4d:93:e1:
                    21:10:5c:7f:83:b9:04:fd:e4:54:a6:6e:36:c6:a0:
                    e1:6e:95:51:1a:1e:18:55:c1:f7:1d:e6:42:4b:65:
                    8a:ee:80:45:26:4f:08:4f:72:b9:19:73:78:f9:c2:
                    a4:5e:4a:cd:0c:96:b2:c9:85:ea:43:eb:8b:6d:63:
                    5a:5f:2c:ca:05:63:af:d9:0f:a7:d9:0b:03:45:56:
                    88:b3:fc:c9:ef:fd:1b:c6:73:af:2b:d0:4d:01:40:
                    e7:71
                Exponent: 65537 (0x10001)
        X509v3 extensions:
            X509v3 Authority Key Identifier: 
                keyid:11:CD:8E:60:44:47:57:4F:4F:CB:E9:E7:CB:A1:46:DF:BA:0E:50:8B
                DirName:/C=JP/O=Japanese Government/OU=National Police Agency/OU=NPA ICDL Root CA
                serial:32:30:30:30:30:30:31:36
            X509v3 Subject Key Identifier: 
                38:7D:63:0B:16:6B:F1:E2:A5:3C:D0:95:61:95:33:0A:75:CD:3F:D7
            X509v3 Key Usage: critical
                Digital Signature, Non Repudiation
            X509v3 Certificate Policies: critical
                Policy: 1.2.392.100120.7.5.1.1.10
                  CPS: http://www.npa.go.jp/
            X509v3 Subject Alternative Name: 
                DirName:/C=JP/O=\xE6\x97\xA5\xE6\x9C\xAC\xE5\x9B\xBD\xE6\x94\xBF\xE5\xBA\x9C/OU=\xE8\xAD\xA6\xE5\xAF\x9F\xE5\xBA\x81/OU=\xE9\x83\xBD\xE9\x81\x93\xE5\xBA\x9C\xE7\x9C\x8C\xE5\x85\xAC\xE5\xAE\x89\xE5\xA7\x94\xE5\x93\xA1\xE4\xBC\x9A
            X509v3 Issuer Alternative Name: 
                DirName:/C=JP/O=\xE6\x97\xA5\xE6\x9C\xAC\xE5\x9B\xBD\xE6\x94\xBF\xE5\xBA\x9C/OU=\xE8\xAD\xA6\xE5\xAF\x9F\xE5\xBA\x81/OU=\xE8\xAD\xA6\xE5\xAF\x9F\xE5\xBA\x81\xE9\x81\x8B\xE8\xBB\xA2\xE5\x85\x8D\xE8\xA8\xB1\xE8\xA8\xBC\xE8\xAA\x8D\xE8\xA8\xBC\xE5\xB1\x80
            X509v3 CRL Distribution Points: 
                Full Name:
                  DirName:C = JP, O = Japanese Government, OU = National Police Agency, OU = Prefectural Public Safety Commissions for ICDL
    Signature Algorithm: sha256WithRSAEncryption
    Signature Value:
        25:81:fa:f0:c0:dd:e9:76:37:9a:cf:d0:55:78:33:3f:68:c6:
        e3:5c:2d:f1:de:b1:df:9b:08:e9:0f:e6:ce:51:51:f3:2b:3f:
        e3:a0:76:89:50:56:32:42:77:c5:e3:d2:df:84:24:cf:37:4a:
        dd:30:d6:0f:7d:97:3a:eb:f5:a3:f1:5b:d0:bb:c8:86:88:b0:
        28:6b:5c:47:46:54:37:6d:b0:73:07:55:42:84:f7:d4:cc:0d:
        63:89:2a:06:c0:bd:f4:d5:c8:cd:69:dd:37:19:3a:27:e0:5b:
        3e:22:17:20:b2:8e:57:37:31:18:80:eb:af:d4:9f:4a:ed:c7:
        9b:73:2c:b4:00:b9:7e:b4:de:6b:54:19:cd:b7:0c:a2:4d:f9:
        9b:2f:c8:c9:c1:4b:83:fe:ab:9a:f5:7a:9c:06:ff:f9:a3:97:
        9b:82:87:b9:76:18:62:42:0c:5b:5d:f0:bd:d7:0f:94:b4:56:
        4f:3c:5c:53:1d:6f:57:ad:a7:ce:d0:67:89:bf:72:17:c3:aa:
        6f:71:5e:14:04:8d:ce:0c:33:44:cf:80:c9:08:51:8b:39:ad:
        f9:19:f4:e6:a1:f9:a4:c2:4b:fe:5a:08:35:da:a4:54:15:e2:
        1b:3f:0f:bd:f2:97:9f:f9:62:ae:4f:49:3a:9e:fc:cc:df:fc:
        3c:4f:fb:d0
-----BEGIN CERTIFICATE-----
MIIGSTCCBTGgAwIBAgIIMzAwMDAwNTkwDQYJKoZIhvcNAQELBQAwZzELMAkGA1UE
BhMCSlAxHDAaBgNVBAoME0phcGFuZXNlIEdvdmVybm1lbnQxHzAdBgNVBAsMFk5h
dGlvbmFsIFBvbGljZSBBZ2VuY3kxGTAXBgNVBAsMEE5QQSBJQ0RMIFJvb3QgQ0Ew
HhcNMjMxMTAxMDQxODQ3WhcNMjgxMDMxMTQ1OTU5WjCBnTELMAkGA1UEBhMCSlAx
HDAaBgNVBAoME0phcGFuZXNlIEdvdmVybm1lbnQxHzAdBgNVBAsMFk5hdGlvbmFs
IFBvbGljZSBBZ2VuY3kxNzA1BgNVBAsMLlByZWZlY3R1cmFsIFB1YmxpYyBTYWZl
dHkgQ29tbWlzc2lvbnMgZm9yIElDREwxFjAUBgNVBAMMDVlhbWFnYXRhIFBQU0Mw
ggEiMA0GCSqGSIb3DQEBAQUAA4IBDwAwggEKAoIBAQDnztr3v2exd8SOw1C0R1UU
EKswa8cVZoxv193rfBi9GKFTtSBVNQYDlD5Rllu9FV5AfCzVPg4VIZoDziOichNk
DVuIWRufy2eRDqbkoW+dmEQ20wErQPqMG8WJN5dxsboMYzKeS9759LAMEj7Guhnp
aR4UrIMYiieUqNTcvjt3yCydKKAjdVkSIwhY81gDKfTeNBNb35kJkD/zqNwfi6QJ
TE2T4SEQXH+DuQT95FSmbjbGoOFulVEaHhhVwfcd5kJLZYrugEUmTwhPcrkZc3j5
wqReSs0MlrLJhepD64ttY1pfLMoFY6/ZD6fZCwNFVoiz/Mnv/RvGc68r0E0BQOdx
AgMBAAGjggLAMIICvDCBmAYDVR0jBIGQMIGNgBQRzY5gREdXT0/L6efLoUbfug5Q
i6FrpGkwZzELMAkGA1UEBhMCSlAxHDAaBgNVBAoME0phcGFuZXNlIEdvdmVybm1l
bnQxHzAdBgNVBAsMFk5hdGlvbmFsIFBvbGljZSBBZ2VuY3kxGTAXBgNVBAsMEE5Q
QSBJQ0RMIFJvb3QgQ0GCCDIwMDAwMDE2MB0GA1UdDgQWBBQ4fWMLFmvx4qU80JVh
lTMKdc0/1zAOBgNVHQ8BAf8EBAMCBsAwQAYDVR0gAQH/BDYwNDAyBgsqgwiGjhgH
BQEBCjAjMCEGCCsGAQUFBwIBFhVodHRwOi8vd3d3Lm5wYS5nby5qcC8wgZUGA1Ud
EQSBjTCBiqSBhzCBhDELMAkGA1UEBhMCSlAxGDAWBgNVBAoMD+aXpeacrOWbveaU
v+W6nDESMBAGA1UECwwJ6K2m5a+f5bqBMSQwIgYDVQQLDBvpg73pgZPlupznnIzl
hazlronlp5Tlk6HkvJoxITAfBgNVBAMMGOWxseW9ouecjOWFrOWuieWnlOWToeS8
mjB0BgNVHRIEbTBrpGkwZzELMAkGA1UEBhMCSlAxGDAWBgNVBAoMD+aXpeacrOWb
veaUv+W6nDESMBAGA1UECwwJ6K2m5a+f5bqBMSowKAYDVQQLDCHorablr5/luoHp
gYvou6LlhY3oqLHoqLzoqo3oqLzlsYAwgZ8GA1UdHwSBlzCBlDCBkaCBjqCBi6SB
iDCBhTELMAkGA1UEBhMCSlAxHDAaBgNVBAoME0phcGFuZXNlIEdvdmVybm1lbnQx
HzAdBgNVBAsMFk5hdGlvbmFsIFBvbGljZSBBZ2VuY3kxNzA1BgNVBAsMLlByZWZl
Y3R1cmFsIFB1YmxpYyBTYWZldHkgQ29tbWlzc2lvbnMgZm9yIElDREwwDQYJKoZI
hvcNAQELBQADggEBACWB+vDA3el2N5rP0FV4Mz9oxuNcLfHesd+bCOkP5s5RUfMr
P+OgdolQVjJCd8Xj0t+EJM83St0w1g99lzrr9aPxW9C7yIaIsChrXEdGVDdtsHMH
VUKE99TMDWOJKgbAvfTVyM1p3TcZOifgWz4iFyCyjlc3MRiA66/Un0rtx5tzLLQA
uX603mtUGc23DKJN+ZsvyMnBS4P+q5r1epwG//mjl5uCh7l2GGJCDFtd8L3XD5S0
Vk88XFMdb1etp87QZ4m/chfDqm9xXhQEjc4MM0TPgMkIUYs5rfkZ9Oah+aTCS/5a
CDXapFQV4hs/D73yl5/5Yq5PSTqe/Mzf/DxP+9A=
-----END CERTIFICATE-----
