Certificate:
    Data:
        Version: 3 (0x2)
        Serial Number:
            32:30:30:30:30:30:34:34
        Signature Algorithm: sha256WithRSAEncryption
        Issuer: C=JP, O=Japanese Government, OU=National Police Agency, OU=NPA ICDL Root CA
        Validity
            Not Before: Feb  6 01:41:01 2023 GMT
            Not After : Feb  5 14:59:59 2028 GMT
        Subject: C=JP, O=Japanese Government, OU=National Police Agency, OU=Prefectural Public Safety Commissions for ICDL, CN=Yamagata PPSC
        Subject Public Key Info:
            Public Key Algorithm: rsaEncryption
                Public-Key: (2048 bit)
                Modulus:
                    00:a5:a7:2d:e4:85:a9:c4:b6:f4:bc:d6:dd:cb:1a:
                    a9:e8:00:14:e7:47:0e:15:6c:a7:00:af:68:1e:3c:
                    71:24:8f:a0:a7:c6:ad:b1:fd:88:63:e4:5d:00:a5:
                    eb:65:ca:42:aa:51:df:16:ab:76:1a:68:4b:a1:35:
                    2b:97:1c:d7:fc:11:9e:a0:5a:fc:3f:18:7d:fa:0f:
                    02:f0:30:18:4e:9c:39:a1:11:03:eb:4f:55:57:e5:
                    c5:94:8c:54:13:86:ed:48:4f:15:32:8b:42:53:87:
                    aa:c8:8f:fa:80:db:4d:aa:b3:b0:96:a2:4c:c3:c8:
                    81:6f:cd:bf:be:43:da:54:41:11:0e:4f:b2:fd:78:
                    97:6c:31:f5:41:6a:e3:34:c1:dc:71:f9:ab:8b:75:
                    21:fb:36:71:bf:44:5f:75:95:84:05:7e:23:a2:b2:
                    4c:4a:52:dc:62:91:ad:69:fb:4a:a5:43:c0:72:20:
                    46:c7:48:c1:70:cc:04:cc:b9:2f:99:7f:33:66:90:
                    8b:9e:09:08:f0:3c:91:47:7b:d8:70:09:95:d5:45:
                    90:e9:03:65:3f:55:0d:7c:a1:36:6c:34:1e:ec:7d:
                    4c:f6:de:1d:7c:d2:72:21:c5:69:2b:d2:ca:4d:9a:
                    4f:cf:6d:19:bf:62:fc:4e:77:4c:4c:17:1a:5f:40:
                    6e:d3
                Exponent: 65537 (0x10001)
        X509v3 extensions:
            X509v3 Authority Key Identifier: 
                keyid:11:CD:8E:60:44:47:57:4F:4F:CB:E9:E7:CB:A1:46:DF:BA:0E:50:8B
                DirName:/C=JP/O=Japanese Government/OU=National Police Agency/OU=NPA ICDL Root CA
                serial:32:30:30:30:30:30:31:36
            X509v3 Subject Key Identifier: 
                96:BB:BF:90:77:B2:C0:B0:5B:FB:FA:7B:0D:0F:87:01:B1:0F:99:A5
            X509v3 Key Usage: critical
                Digital Signature, Non Repudiation
            X509v3 Certificate Policies: critical
                Policy: 1.2.392.100120.7.5.1.1.10
                  CPS: http://www.npa.go.jp/
            X509v3 Subject Alternative Name: 
                DirName:/C=JP/O=\xE6\x97\xA5\xE6\x9C\xAC\xE5\x9B\xBD\xE6\x94\xBF\xE5\xBA\x9C/OU=\xE8\xAD\xA6\xE5\xAF\x9F\xE5\xBA\x81/OU=\xE9\x83\xBD\xE9\x81\x93\xE5\xBA\x9C\xE7\x9C\x8C\xE5\x85\xAC\xE5\xAE\x89\xE5\xA7\x94\xE5\x93\xA1\xE4\xBC\x9A
            X509v3 Issuer Alternative Name: 
                DirName:/C=JP/O=\xE6\x97\xA5\xE6\x9C\xAC\xE5\x9B\xBD\xE6\x94\xBF\xE5\xBA\x9C/OU=\xE8\xAD\xA6\xE5\xAF\x9F\xE5\xBA\x81/OU=\xE8\xAD\xA6\xE5\xAF\x9F\xE5\xBA\x81\xE9\x81\x8B\xE8\xBB\xA2\xE5\x85\x8D\xE8\xA8\xB1\xE8\xA8\xBC\xE8\xAA\x8D\xE8\xA8\xBC\xE5\xB1\x80
            X509v3 CRL Distribution Points: 
                Full Name:
                  DirName:C = JP, O = Japanese Government, OU = National Police Agency, OU = Prefectural Public Safety Commissions for ICDL
    Signature Algorithm: sha256WithRSAEncryption
    Signature Value:
        1a:c9:91:e5:89:f7:5e:cf:4b:ba:c9:0e:f7:40:d8:36:c3:40:
        df:00:61:74:47:da:bf:aa:52:79:23:a9:4b:52:b3:c4:46:0f:
        39:74:64:ac:83:b2:43:b6:cc:8c:df:40:aa:bd:f2:e6:0b:1b:
        83:6e:35:9a:57:b7:5b:10:d1:09:bd:dc:6f:1b:a3:69:d0:d3:
        e9:9c:6d:b1:8a:9e:12:73:96:86:f0:08:85:fd:f6:e9:08:f6:
        73:75:af:c7:10:f3:2b:3a:c1:9c:6d:ce:83:19:cb:72:2d:1b:
        b8:4d:22:97:86:44:2b:41:ca:7c:55:13:a1:09:4f:c5:6a:e2:
        8c:5b:92:f7:06:1e:72:89:29:0f:55:c9:81:a8:b5:3e:fd:51:
        72:2d:e5:19:5d:02:7a:25:c5:63:37:fd:b4:3c:f6:3c:62:79:
        a2:ad:88:c2:ee:cf:6b:d0:8d:5b:9e:e9:5c:39:97:8e:8a:6c:
        51:29:7f:5e:65:b2:66:32:4e:c8:ca:ff:02:26:00:83:73:49:
        9b:7b:f2:72:18:30:a9:5b:ee:8b:c2:44:f7:4f:92:83:b8:6d:
        16:56:ba:f1:24:87:25:60:be:66:65:0a:ae:44:4f:70:70:8b:
        b7:5b:d5:79:0f:84:af:c9:7e:47:9b:59:fd:95:ba:18:b9:1e:
        f8:32:39:28
-----BEGIN CERTIFICATE-----
MIIGSTCCBTGgAwIBAgIIMjAwMDAwNDQwDQYJKoZIhvcNAQELBQAwZzELMAkGA1UE
BhMCSlAxHDAaBgNVBAoME0phcGFuZXNlIEdvdmVybm1lbnQxHzAdBgNVBAsMFk5h
dGlvbmFsIFBvbGljZSBBZ2VuY3kxGTAXBgNVBAsMEE5QQSBJQ0RMIFJvb3QgQ0Ew
HhcNMjMwMjA2MDE0MTAxWhcNMjgwMjA1MTQ1OTU5WjCBnTELMAkGA1UEBhMCSlAx
HDAaBgNVBAoME0phcGFuZXNlIEdvdmVybm1lbnQxHzAdBgNVBAsMFk5hdGlvbmFs
IFBvbGljZSBBZ2VuY3kxNzA1BgNVBAsMLlByZWZlY3R1cmFsIFB1YmxpYyBTYWZl
dHkgQ29tbWlzc2lvbnMgZm9yIElDREwxFjAUBgNVBAMMDVlhbWFnYXRhIFBQU0Mw
ggEiMA0GCSqGSIb3DQEBAQUAA4IBDwAwggEKAoIBAQClpy3khanEtvS81t3LGqno
ABTnRw4VbKcAr2gePHEkj6Cnxq2x/Yhj5F0ApetlykKqUd8Wq3YaaEuhNSuXHNf8
EZ6gWvw/GH36DwLwMBhOnDmhEQPrT1VX5cWUjFQThu1ITxUyi0JTh6rIj/qA202q
s7CWokzDyIFvzb++Q9pUQREOT7L9eJdsMfVBauM0wdxx+auLdSH7NnG/RF91lYQF
fiOiskxKUtxika1p+0qlQ8ByIEbHSMFwzATMuS+ZfzNmkIueCQjwPJFHe9hwCZXV
RZDpA2U/VQ18oTZsNB7sfUz23h180nIhxWkr0spNmk/PbRm/YvxOd0xMFxpfQG7T
AgMBAAGjggLAMIICvDCBmAYDVR0jBIGQMIGNgBQRzY5gREdXT0/L6efLoUbfug5Q
i6FrpGkwZzELMAkGA1UEBhMCSlAxHDAaBgNVBAoME0phcGFuZXNlIEdvdmVybm1l
bnQxHzAdBgNVBAsMFk5hdGlvbmFsIFBvbGljZSBBZ2VuY3kxGTAXBgNVBAsMEE5Q
QSBJQ0RMIFJvb3QgQ0GCCDIwMDAwMDE2MB0GA1UdDgQWBBSWu7+Qd7LAsFv7+nsN
D4cBsQ+ZpTAOBgNVHQ8BAf8EBAMCBsAwQAYDVR0gAQH/BDYwNDAyBgsqgwiGjhgH
BQEBCjAjMCEGCCsGAQUFBwIBFhVodHRwOi8vd3d3Lm5wYS5nby5qcC8wgZUGA1Ud
EQSBjTCBiqSBhzCBhDELMAkGA1UEBhMCSlAxGDAWBgNVBAoMD+aXpeacrOWbveaU
v+W6nDESMBAGA1UECwwJ6K2m5a+f5bqBMSQwIgYDVQQLDBvpg73pgZPlupznnIzl
hazlronlp5Tlk6HkvJoxITAfBgNVBAMMGOWxseW9ouecjOWFrOWuieWnlOWToeS8
mjB0BgNVHRIEbTBrpGkwZzELMAkGA1UEBhMCSlAxGDAWBgNVBAoMD+aXpeacrOWb
veaUv+W6nDESMBAGA1UECwwJ6K2m5a+f5bqBMSowKAYDVQQLDCHorablr5/luoHp
gYvou6LlhY3oqLHoqLzoqo3oqLzlsYAwgZ8GA1UdHwSBlzCBlDCBkaCBjqCBi6SB
iDCBhTELMAkGA1UEBhMCSlAxHDAaBgNVBAoME0phcGFuZXNlIEdvdmVybm1lbnQx
HzAdBgNVBAsMFk5hdGlvbmFsIFBvbGljZSBBZ2VuY3kxNzA1BgNVBAsMLlByZWZl
Y3R1cmFsIFB1YmxpYyBTYWZldHkgQ29tbWlzc2lvbnMgZm9yIElDREwwDQYJKoZI
hvcNAQELBQADggEBABrJkeWJ917PS7rJDvdA2DbDQN8AYXRH2r+qUnkjqUtSs8RG
Dzl0ZKyDskO2zIzfQKq98uYLG4NuNZpXt1sQ0Qm93G8bo2nQ0+mcbbGKnhJzlobw
CIX99ukI9nN1r8cQ8ys6wZxtzoMZy3ItG7hNIpeGRCtBynxVE6EJT8Vq4oxbkvcG
HnKJKQ9VyYGotT79UXIt5RldAnolxWM3/bQ89jxieaKtiMLuz2vQjVue6Vw5l46K
bFEpf15lsmYyTsjK/wImAINzSZt78nIYMKlb7ovCRPdPkoO4bRZWuvEkhyVgvmZl
Cq5ET3Bwi7db1XkPhK/JfkebWf2Vuhi5HvgyOSg=
-----END CERTIFICATE-----
