Certificate:
    Data:
        Version: 3 (0x2)
        Serial Number:
            33:30:30:30:30:30:34:34:13:a4:54:fd:27:a1:42:93:21:a5
        Signature Algorithm: sha256WithRSAEncryption
        Issuer: C=JP, O=Japanese Government, OU=National Police Agency, OU=NPA ICDL Root CA
        Validity
            Not Before: Jun 19 06:10:10 2023 GMT
            Not After : Jun 18 14:59:59 2028 GMT
        Subject: C=JP, O=Japanese Government, OU=National Police Agency, OU=Prefectural Public Safety Commissions for ICDL, CN=Yamaguchi AltPPSC
        Subject Public Key Info:
            Public Key Algorithm: rsaEncryption
                Public-Key: (2048 bit)
                Modulus:
                    00:8b:c4:35:b5:2b:91:0c:27:9b:38:e0:2f:7e:b9:
                    ed:59:5a:80:16:22:73:5d:17:bd:bc:59:a7:42:1d:
                    ed:64:59:75:f9:54:f6:f2:f9:2b:b4:d1:9c:06:1d:
                    c8:88:b3:91:50:e3:60:ea:bf:0d:6d:a1:cf:3e:ce:
                    67:29:f8:b9:62:36:b0:5c:bd:12:4b:60:8e:14:84:
                    cc:4a:2f:db:cf:ee:ec:3f:af:f4:fc:9f:35:d6:9d:
                    47:59:22:ed:0e:fc:c9:ef:5a:7d:08:9b:37:b1:82:
                    dc:57:c9:92:48:16:86:13:52:74:b3:96:8b:5a:6c:
                    b1:62:7a:0f:01:7b:c6:d8:02:ca:23:0b:1a:bd:ca:
                    ac:67:5b:b6:3c:ad:00:14:5e:e2:ca:ab:c3:b5:0b:
                    47:92:48:ca:5b:51:50:12:22:6c:da:92:2b:c9:46:
                    cc:6d:bc:92:a3:29:6b:fc:f7:1f:56:2d:a0:03:97:
                    ef:88:b0:bc:cf:3a:4f:36:33:e8:5a:58:7f:bd:13:
                    b1:73:7d:78:03:7a:1b:4c:71:84:c8:ff:9f:b9:45:
                    18:d4:c4:54:e0:62:b9:fe:35:db:d6:d2:e7:53:1a:
                    68:e5:7a:32:76:60:62:c7:70:e3:dc:8a:55:92:60:
                    c0:a9:53:d6:52:77:c1:68:1e:6b:17:f0:56:b7:91:
                    4f:89
                Exponent: 65537 (0x10001)
        X509v3 extensions:
            X509v3 Authority Key Identifier: 
                keyid:11:CD:8E:60:44:47:57:4F:4F:CB:E9:E7:CB:A1:46:DF:BA:0E:50:8B
                DirName:/C=JP/O=Japanese Government/OU=National Police Agency/OU=NPA ICDL Root CA
                serial:32:30:30:30:30:30:31:36
            X509v3 Subject Key Identifier: 
                8D:84:E5:CD:27:86:1B:C7:E6:CB:57:7B:3E:41:0B:2F:B3:B1:76:31
            X509v3 Key Usage: critical
                Digital Signature, Non Repudiation
            X509v3 Certificate Policies: critical
                Policy: 1.2.392.100120.7.5.1.1.10
                  CPS: http://www.npa.go.jp/
            X509v3 Issuer Alternative Name: 
                DirName:/C=JP/O=\xE6\x97\xA5\xE6\x9C\xAC\xE5\x9B\xBD\xE6\x94\xBF\xE5\xBA\x9C/OU=\xE8\xAD\xA6\xE5\xAF\x9F\xE5\xBA\x81/OU=\xE8\xAD\xA6\xE5\xAF\x9F\xE5\xBA\x81\xE9\x81\x8B\xE8\xBB\xA2\xE5\x85\x8D\xE8\xA8\xB1\xE8\xA8\xBC\xE8\xAA\x8D\xE8\xA8\xBC\xE5\xB1\x80
            X509v3 CRL Distribution Points: 
                Full Name:
                  DirName:C = JP, O = Japanese Government, OU = National Police Agency, OU = Prefectural Public Safety Commissions for ICDL
    Signature Algorithm: sha256WithRSAEncryption
    Signature Value:
        aa:a6:ae:3c:31:b9:91:f4:44:22:4f:fb:1e:37:1a:2c:44:1b:
        70:fa:e5:8d:42:c7:b6:14:6c:44:5f:03:56:c5:e3:45:22:d3:
        df:49:cd:ea:e7:f3:da:17:4c:b8:cf:64:2c:93:c2:ae:f0:fe:
        5d:c3:a9:29:b4:a8:00:90:bd:99:94:cf:f2:e4:15:d1:50:7d:
        eb:39:fa:88:cc:81:e4:03:ac:bf:76:6b:63:a9:78:07:43:1d:
        d3:f6:39:5e:e2:79:84:4c:18:97:9f:69:e8:6f:a2:7a:33:ee:
        30:c4:26:45:ef:e4:70:9e:11:f7:e1:e2:5c:21:f9:1f:92:25:
        dd:8c:07:49:2f:c3:40:b5:72:07:ec:d9:5b:32:7a:03:03:d8:
        39:34:64:05:76:e4:bc:af:1a:cc:6f:9d:ad:57:6c:6b:1f:f4:
        f9:8f:ab:55:b5:e7:2d:c1:37:a8:c5:a4:ef:3f:06:2d:c7:21:
        26:af:33:c5:d1:e4:3b:fc:8a:75:6c:8e:47:28:ed:43:76:8f:
        5b:bc:65:64:0d:d2:57:6b:2b:ca:37:09:7d:4d:65:e1:a2:03:
        e0:ec:71:85:57:0b:6c:ea:c8:b1:57:a1:53:4f:c9:f7:fc:a5:
        23:14:24:fa:36:79:da:b0:db:bb:65:f3:90:cd:8e:90:e0:27:
        93:6a:ce:e7
-----BEGIN CERTIFICATE-----
MIIFvzCCBKegAwIBAgISMzAwMDAwNDQTpFT9J6FCkyGlMA0GCSqGSIb3DQEBCwUA
MGcxCzAJBgNVBAYTAkpQMRwwGgYDVQQKDBNKYXBhbmVzZSBHb3Zlcm5tZW50MR8w
HQYDVQQLDBZOYXRpb25hbCBQb2xpY2UgQWdlbmN5MRkwFwYDVQQLDBBOUEEgSUNE
TCBSb290IENBMB4XDTIzMDYxOTA2MTAxMFoXDTI4MDYxODE0NTk1OVowgaExCzAJ
BgNVBAYTAkpQMRwwGgYDVQQKDBNKYXBhbmVzZSBHb3Zlcm5tZW50MR8wHQYDVQQL
DBZOYXRpb25hbCBQb2xpY2UgQWdlbmN5MTcwNQYDVQQLDC5QcmVmZWN0dXJhbCBQ
dWJsaWMgU2FmZXR5IENvbW1pc3Npb25zIGZvciBJQ0RMMRowGAYDVQQDDBFZYW1h
Z3VjaGkgQWx0UFBTQzCCASIwDQYJKoZIhvcNAQEBBQADggEPADCCAQoCggEBAIvE
NbUrkQwnmzjgL3657VlagBYic10XvbxZp0Id7WRZdflU9vL5K7TRnAYdyIizkVDj
YOq/DW2hzz7OZyn4uWI2sFy9EktgjhSEzEov28/u7D+v9PyfNdadR1ki7Q78ye9a
fQibN7GC3FfJkkgWhhNSdLOWi1pssWJ6DwF7xtgCyiMLGr3KrGdbtjytABRe4sqr
w7ULR5JIyltRUBIibNqSK8lGzG28kqMpa/z3H1YtoAOX74iwvM86TzYz6FpYf70T
sXN9eAN6G0xxhMj/n7lFGNTEVOBiuf4129bS51MaaOV6MnZgYsdw49yKVZJgwKlT
1lJ3wWgeaxfwVreRT4kCAwEAAaOCAigwggIkMIGYBgNVHSMEgZAwgY2AFBHNjmBE
R1dPT8vp58uhRt+6DlCLoWukaTBnMQswCQYDVQQGEwJKUDEcMBoGA1UECgwTSmFw
YW5lc2UgR292ZXJubWVudDEfMB0GA1UECwwWTmF0aW9uYWwgUG9saWNlIEFnZW5j
eTEZMBcGA1UECwwQTlBBIElDREwgUm9vdCBDQYIIMjAwMDAwMTYwHQYDVR0OBBYE
FI2E5c0nhhvH5stXez5BCy+zsXYxMA4GA1UdDwEB/wQEAwIGwDBABgNVHSABAf8E
NjA0MDIGCyqDCIaOGAcFAQEKMCMwIQYIKwYBBQUHAgEWFWh0dHA6Ly93d3cubnBh
LmdvLmpwLzB0BgNVHRIEbTBrpGkwZzELMAkGA1UEBhMCSlAxGDAWBgNVBAoMD+aX
peacrOWbveaUv+W6nDESMBAGA1UECwwJ6K2m5a+f5bqBMSowKAYDVQQLDCHorabl
r5/luoHpgYvou6LlhY3oqLHoqLzoqo3oqLzlsYAwgZ8GA1UdHwSBlzCBlDCBkaCB
jqCBi6SBiDCBhTELMAkGA1UEBhMCSlAxHDAaBgNVBAoME0phcGFuZXNlIEdvdmVy
bm1lbnQxHzAdBgNVBAsMFk5hdGlvbmFsIFBvbGljZSBBZ2VuY3kxNzA1BgNVBAsM
LlByZWZlY3R1cmFsIFB1YmxpYyBTYWZldHkgQ29tbWlzc2lvbnMgZm9yIElDREww
DQYJKoZIhvcNAQELBQADggEBAKqmrjwxuZH0RCJP+x43GixEG3D65Y1Cx7YUbERf
A1bF40Ui099Jzern89oXTLjPZCyTwq7w/l3DqSm0qACQvZmUz/LkFdFQfes5+ojM
geQDrL92a2OpeAdDHdP2OV7ieYRMGJefaehvonoz7jDEJkXv5HCeEffh4lwh+R+S
Jd2MB0kvw0C1cgfs2VsyegMD2Dk0ZAV25LyvGsxvna1XbGsf9PmPq1W15y3BN6jF
pO8/Bi3HISavM8XR5Dv8inVsjkco7UN2j1u8ZWQN0ldrK8o3CX1NZeGiA+DscYVX
C2zqyLFXoVNPyff8pSMUJPo2edqw27tl85DNjpDgJ5Nqzuc=
-----END CERTIFICATE-----
