Certificate:
    Data:
        Version: 3 (0x2)
        Serial Number: 1 (0x1)
        Signature Algorithm: sha256WithRSAEncryption
        Issuer: C=JP, O=JPKI, OU=JPKI for user authentication, OU=Japan Agency for Local Authority Information Systems
        Validity
            Not Before: Oct 20 03:08:13 2015 GMT
            Not After : Oct 19 14:59:59 2025 GMT
        Subject: C=JP, O=JPKI, OU=JPKI for user authentication, OU=Japan Agency for Local Authority Information Systems
        Subject Public Key Info:
            Public Key Algorithm: rsaEncryption
                Public-Key: (2048 bit)
                Modulus:
                    00:c4:ac:ca:d3:c0:e2:32:d1:5e:cb:1d:80:81:b6:
                    dc:da:02:a8:5e:b5:fa:28:25:ff:05:d1:83:12:19:
                    52:01:9d:90:f3:c4:ac:f8:b6:83:43:59:8e:26:37:
                    dd:f9:52:8f:6c:68:f4:ec:4e:db:08:45:e7:79:6b:
                    31:40:7a:41:37:56:14:ca:4a:b7:e1:03:7f:6e:1a:
                    cb:09:05:41:22:7e:ac:5a:cb:75:98:f1:78:80:20:
                    f1:39:8c:1e:41:f0:67:3a:29:e7:7d:1a:f9:b3:c0:
                    0e:d3:54:dc:60:e4:cf:6a:e4:8d:3e:83:1b:49:da:
                    87:2a:31:63:88:ec:0f:2d:7c:bd:94:a7:03:aa:c9:
                    56:0a:45:95:57:8c:a2:24:04:f2:1b:62:b3:4b:75:
                    9a:c0:92:2d:c5:b0:20:b2:97:ba:d1:e3:b3:4e:b7:
                    7b:0b:65:6d:68:cf:67:f1:25:46:6e:6c:3e:e8:01:
                    7c:ca:99:98:68:7d:4f:73:dc:a4:06:e9:d8:13:68:
                    dc:ce:a6:73:ca:86:7c:5b:4f:05:cc:eb:cc:d0:5b:
                    9d:87:f2:89:22:af:fe:a0:27:6d:e0:02:bf:9f:47:
                    c6:7e:20:cb:8a:90:28:fb:75:ff:bb:2e:ff:9a:6f:
                    fd:d9:22:77:1b:d3:5f:90:2f:95:c4:80:7b:3b:44:
                    ba:c7
                Exponent: 65537 (0x10001)
        X509v3 extensions:
            X509v3 Key Usage: critical
                Certificate Sign, CRL Sign
            X509v3 Subject Alternative Name: 
                DirName:/C=JP/O=\xE5\x85\xAC\xE7\x9A\x84\xE5\x80\x8B\xE4\xBA\xBA\xE8\xAA\x8D\xE8\xA8\xBC\xE3\x82\xB5\xE3\x83\xBC\xE3\x83\x93\xE3\x82\xB9
            X509v3 Basic Constraints: critical
                CA:TRUE
            X509v3 CRL Distribution Points: 
                Full Name:
                  DirName:C = JP, O = JPKI, OU = JPKI for user authentication, OU = Japan Agency for Local Authority Information Systems
            X509v3 Subject Key Identifier: 
                95:67:95:1B:5C:A7:0D:84:A0:FF:F1:D8:5A:87:F1:AA:B1:34:03:85
    Signature Algorithm: sha256WithRSAEncryption
    Signature Value:
        22:67:94:64:b7:d0:e5:75:f7:52:22:0a:f1:4a:07:6b:46:15:
        2d:42:ce:7e:7a:79:5e:02:39:3c:e5:36:bf:86:86:89:da:f7:
        a6:c2:cb:a6:c2:75:0b:dc:46:b6:ce:30:52:bf:4b:bd:6e:98:
        83:bd:21:34:7f:79:85:07:87:2b:79:68:9b:fc:c2:58:cd:19:
        cb:43:53:3b:ce:cc:5b:f0:90:3b:36:1c:e2:df:bf:c9:fe:fc:
        bf:08:ea:b4:70:22:8c:f2:63:9f:25:53:37:08:16:a7:bf:83:
        1d:25:2e:ea:50:f5:0b:0c:f9:7f:f0:88:0f:ba:a1:2c:95:f3:
        fc:ab:33:e7:3b:6a:81:8a:45:24:3f:3c:51:55:d6:75:53:4b:
        b1:ba:55:80:eb:28:e3:0a:b2:fa:e1:e1:be:5b:b8:ad:c9:3e:
        4e:e1:73:b0:2a:44:cc:78:94:5c:f2:26:0f:ad:ab:a4:32:eb:
        66:8b:e2:50:a8:22:a2:9f:98:f7:e9:e3:e1:8c:6a:71:1f:0a:
        c0:e2:d4:94:98:a5:ab:8f:9a:91:4c:08:b3:34:07:cb:ab:51:
        49:5f:0d:2e:56:e2:bb:47:db:70:f7:c1:c5:21:d4:b5:48:f2:
        43:18:9f:27:38:9a:92:a8:7b:97:a8:a8:6f:1e:09:69:1d:d2:
        5c:f5:9a:ce
-----BEGIN CERTIFICATE-----
MIIFIDCCBAigAwIBAgIBATANBgkqhkiG9w0BAQsFADCBgjELMAkGA1UEBhMCSlAx
DTALBgNVBAoMBEpQS0kxJTAjBgNVBAsMHEpQS0kgZm9yIHVzZXIgYXV0aGVudGlj
YXRpb24xPTA7BgNVBAsMNEphcGFuIEFnZW5jeSBmb3IgTG9jYWwgQXV0aG9yaXR5
IEluZm9ybWF0aW9uIFN5c3RlbXMwHhcNMTUxMDIwMDMwODEzWhcNMjUxMDE5MTQ1
OTU5WjCBgjELMAkGA1UEBhMCSlAxDTALBgNVBAoMBEpQS0kxJTAjBgNVBAsMHEpQ
S0kgZm9yIHVzZXIgYXV0aGVudGljYXRpb24xPTA7BgNVBAsMNEphcGFuIEFnZW5j
eSBmb3IgTG9jYWwgQXV0aG9yaXR5IEluZm9ybWF0aW9uIFN5c3RlbXMwggEiMA0G
CSqGSIb3DQEBAQUAA4IBDwAwggEKAoIBAQDErMrTwOIy0V7LHYCBttzaAqhetfoo
Jf8F0YMSGVIBnZDzxKz4toNDWY4mN935Uo9saPTsTtsIRed5azFAekE3VhTKSrfh
A39uGssJBUEifqxay3WY8XiAIPE5jB5B8Gc6Ked9GvmzwA7TVNxg5M9q5I0+gxtJ
2ocqMWOI7A8tfL2UpwOqyVYKRZVXjKIkBPIbYrNLdZrAki3FsCCyl7rR47NOt3sL
ZW1oz2fxJUZubD7oAXzKmZhofU9z3KQG6dgTaNzOpnPKhnxbTwXM68zQW52H8oki
r/6gJ23gAr+fR8Z+IMuKkCj7df+7Lv+ab/3ZIncb01+QL5XEgHs7RLrHAgMBAAGj
ggGdMIIBmTAOBgNVHQ8BAf8EBAMCAQYwgbcGA1UdEQSBrzCBrKSBqTCBpjELMAkG
A1UEBhMCSlAxJzAlBgNVBAoMHuWFrOeahOWAi+S6uuiqjeiovOOCteODvOODk+OC
uTE5MDcGA1UECwww5YWs55qE5YCL5Lq66KqN6Ki844K144O844OT44K55Yip55So
6ICF6Ki85piO55SoMTMwMQYDVQQLDCrlnLDmlrnlhazlhbHlm6PkvZPmg4XloLHj
grfjgrnjg4bjg6DmqZ/mp4swDwYDVR0TAQH/BAUwAwEB/zCBnAYDVR0fBIGUMIGR
MIGOoIGLoIGIpIGFMIGCMQswCQYDVQQGEwJKUDENMAsGA1UECgwESlBLSTElMCMG
A1UECwwcSlBLSSBmb3IgdXNlciBhdXRoZW50aWNhdGlvbjE9MDsGA1UECww0SmFw
YW4gQWdlbmN5IGZvciBMb2NhbCBBdXRob3JpdHkgSW5mb3JtYXRpb24gU3lzdGVt
czAdBgNVHQ4EFgQUlWeVG1ynDYSg//HYWofxqrE0A4UwDQYJKoZIhvcNAQELBQAD
ggEBACJnlGS30OV191IiCvFKB2tGFS1Czn56eV4COTzlNr+Ghona96bCy6bCdQvc
RrbOMFK/S71umIO9ITR/eYUHhyt5aJv8wljNGctDUzvOzFvwkDs2HOLfv8n+/L8I
6rRwIozyY58lUzcIFqe/gx0lLupQ9QsM+X/wiA+6oSyV8/yrM+c7aoGKRSQ/PFFV
1nVTS7G6VYDrKOMKsvrh4b5buK3JPk7hc7AqRMx4lFzyJg+tq6Qy62aL4lCoIqKf
mPfp4+GManEfCsDi1JSYpauPmpFMCLM0B8urUUlfDS5W4rtH23D3wcUh1LVI8kMY
nyc4mpKoe5eoqG8eCWkd0lz1ms4=
-----END CERTIFICATE-----
