Certificate:
    Data:
        Version: 3 (0x2)
        Serial Number: 114393094 (0x6d18006)
        Signature Algorithm: sha256WithRSAEncryption
        Issuer: C=JP, O=JPKI, OU=JPKI for user authentication, OU=Japan Agency for Local Authority Information Systems
        Validity
            Not Before: Jul 16 01:01:04 2023 GMT
            Not After : Jul 15 14:59:59 2033 GMT
        Subject: C=JP, O=JPKI, OU=JPKI for user authentication, OU=Japan Agency for Local Authority Information Systems
        Subject Public Key Info:
            Public Key Algorithm: rsaEncryption
                Public-Key: (2048 bit)
                Modulus:
                    00:dd:c4:db:7e:c5:ea:81:f4:ee:74:08:1c:76:22:
                    34:f7:7d:fc:3c:1b:fc:0e:7f:04:09:d9:17:cf:1d:
                    3b:b0:06:8b:9d:ba:bc:43:96:fa:97:e4:c3:d6:95:
                    9a:45:68:a3:69:6d:8d:28:5a:33:ac:03:80:6e:2d:
                    6e:34:6d:2e:81:5b:ec:e6:76:f6:08:66:fb:6e:c4:
                    ab:b2:e5:4e:b5:dc:51:95:d1:46:cc:ed:44:f6:b3:
                    86:7f:5a:4e:10:27:e0:7a:b0:54:27:9e:84:25:cb:
                    36:c3:2f:7c:7b:d0:64:3e:a1:03:28:f1:3a:34:b0:
                    56:ea:a1:15:94:40:0b:b7:42:80:d4:35:bf:c7:d3:
                    f9:3c:3f:16:70:86:d5:18:63:6a:b9:91:a3:5b:b6:
                    52:38:ab:ed:2e:fa:a9:d0:5e:2c:d7:38:fc:75:3c:
                    91:2f:3e:cb:f4:11:0c:84:d3:ee:da:89:26:79:91:
                    d8:ae:0e:f6:7d:55:d5:17:aa:22:47:52:71:25:8c:
                    26:05:45:18:91:27:82:e5:ba:01:06:c2:a3:15:5a:
                    bd:2f:53:ed:94:4e:0f:8a:e2:f4:fa:11:26:31:8d:
                    30:1f:8e:03:65:47:59:16:3c:4b:3f:d5:41:1b:96:
                    a7:eb:25:0a:3f:db:9a:d3:c6:84:1d:e3:f5:97:c8:
                    9a:1f
                Exponent: 65537 (0x10001)
        X509v3 extensions:
            X509v3 Key Usage: critical
                Certificate Sign, CRL Sign
            X509v3 Subject Alternative Name: 
                DirName:/C=JP/O=\xE5\x85\xAC\xE7\x9A\x84\xE5\x80\x8B\xE4\xBA\xBA\xE8\xAA\x8D\xE8\xA8\xBC\xE3\x82\xB5\xE3\x83\xBC\xE3\x83\x93\xE3\x82\xB9
            X509v3 Basic Constraints: critical
                CA:TRUE
            X509v3 CRL Distribution Points: 
                Full Name:
                  DirName:C = JP, O = JPKI, OU = JPKI for user authentication, OU = Japan Agency for Local Authority Information Systems
            X509v3 Subject Key Identifier: 
                1A:C1:00:F5:96:A3:BC:8C:4B:3D:F1:95:E3:26:99:24:9E:9E:30:8A
    Signature Algorithm: sha256WithRSAEncryption
    Signature Value:
        70:76:32:e6:ca:d5:85:30:15:de:b3:51:0a:e2:9d:85:dd:91:
        b5:ca:19:c9:bb:5f:b5:9f:7b:c6:d1:93:1a:fa:3c:60:de:42:
        05:a3:82:00:89:e3:81:eb:53:c5:19:3c:07:9c:ee:80:b3:a9:
        ec:b4:c1:04:ea:ce:20:55:8f:27:7d:f2:7b:56:95:55:79:4a:
        b8:17:79:a5:9b:7e:02:39:d4:c8:16:b3:98:f7:6b:c8:6b:08:
        f0:30:c1:c4:62:f5:78:13:16:01:af:9b:08:c0:39:1a:cc:68:
        db:9e:1a:4a:80:2b:fd:58:16:cf:53:1a:e8:89:c4:87:3c:4e:
        6d:30:fd:b5:46:36:84:b8:78:9d:2e:c9:a9:aa:b0:b4:2b:a0:
        0f:7f:a4:70:a4:a7:40:1e:84:5b:f8:7a:89:e1:88:ff:13:dc:
        eb:1a:88:c1:b7:f0:90:9b:e5:af:4a:ec:50:df:af:07:77:4f:
        8f:b3:8c:32:1b:79:c2:4b:fa:f8:88:d2:9b:07:5b:05:66:a3:
        20:41:2d:73:41:32:30:39:90:a2:2a:0d:86:98:a3:a8:ec:77:
        bc:a8:56:24:c6:70:3a:68:61:e4:72:9d:a9:79:ca:39:06:c9:
        78:a0:49:a9:7e:b2:d6:83:dc:fe:98:7f:b7:49:6f:41:d7:d2:
        00:34:29:10
-----BEGIN CERTIFICATE-----
MIIFIzCCBAugAwIBAgIEBtGABjANBgkqhkiG9w0BAQsFADCBgjELMAkGA1UEBhMC
SlAxDTALBgNVBAoMBEpQS0kxJTAjBgNVBAsMHEpQS0kgZm9yIHVzZXIgYXV0aGVu
dGljYXRpb24xPTA7BgNVBAsMNEphcGFuIEFnZW5jeSBmb3IgTG9jYWwgQXV0aG9y
aXR5IEluZm9ybWF0aW9uIFN5c3RlbXMwHhcNMjMwNzE2MDEwMTA0WhcNMzMwNzE1
MTQ1OTU5WjCBgjELMAkGA1UEBhMCSlAxDTALBgNVBAoMBEpQS0kxJTAjBgNVBAsM
HEpQS0kgZm9yIHVzZXIgYXV0aGVudGljYXRpb24xPTA7BgNVBAsMNEphcGFuIEFn
ZW5jeSBmb3IgTG9jYWwgQXV0aG9yaXR5IEluZm9ybWF0aW9uIFN5c3RlbXMwggEi
MA0GCSqGSIb3DQEBAQUAA4IBDwAwggEKAoIBAQDdxNt+xeqB9O50CBx2IjT3ffw8
G/wOfwQJ2RfPHTuwBoudurxDlvqX5MPWlZpFaKNpbY0oWjOsA4BuLW40bS6BW+zm
dvYIZvtuxKuy5U613FGV0UbM7UT2s4Z/Wk4QJ+B6sFQnnoQlyzbDL3x70GQ+oQMo
8To0sFbqoRWUQAu3QoDUNb/H0/k8PxZwhtUYY2q5kaNbtlI4q+0u+qnQXizXOPx1
PJEvPsv0EQyE0+7aiSZ5kdiuDvZ9VdUXqiJHUnEljCYFRRiRJ4LlugEGwqMVWr0v
U+2UTg+K4vT6ESYxjTAfjgNlR1kWPEs/1UEblqfrJQo/25rTxoQd4/WXyJofAgMB
AAGjggGdMIIBmTAOBgNVHQ8BAf8EBAMCAQYwgbcGA1UdEQSBrzCBrKSBqTCBpjEL
MAkGA1UEBhMCSlAxJzAlBgNVBAoMHuWFrOeahOWAi+S6uuiqjeiovOOCteODvOOD
k+OCuTE5MDcGA1UECwww5YWs55qE5YCL5Lq66KqN6Ki844K144O844OT44K55Yip
55So6ICF6Ki85piO55SoMTMwMQYDVQQLDCrlnLDmlrnlhazlhbHlm6PkvZPmg4Xl
oLHjgrfjgrnjg4bjg6DmqZ/mp4swDwYDVR0TAQH/BAUwAwEB/zCBnAYDVR0fBIGU
MIGRMIGOoIGLoIGIpIGFMIGCMQswCQYDVQQGEwJKUDENMAsGA1UECgwESlBLSTEl
MCMGA1UECwwcSlBLSSBmb3IgdXNlciBhdXRoZW50aWNhdGlvbjE9MDsGA1UECww0
SmFwYW4gQWdlbmN5IGZvciBMb2NhbCBBdXRob3JpdHkgSW5mb3JtYXRpb24gU3lz
dGVtczAdBgNVHQ4EFgQUGsEA9ZajvIxLPfGV4yaZJJ6eMIowDQYJKoZIhvcNAQEL
BQADggEBAHB2MubK1YUwFd6zUQrinYXdkbXKGcm7X7Wfe8bRkxr6PGDeQgWjggCJ
44HrU8UZPAec7oCzqey0wQTqziBVjyd98ntWlVV5SrgXeaWbfgI51MgWs5j3a8hr
CPAwwcRi9XgTFgGvmwjAORrMaNueGkqAK/1YFs9TGuiJxIc8Tm0w/bVGNoS4eJ0u
yamqsLQroA9/pHCkp0AehFv4eonhiP8T3OsaiMG38JCb5a9K7FDfrwd3T4+zjDIb
ecJL+viI0psHWwVmoyBBLXNBMjA5kKIqDYaYo6jsd7yoViTGcDpoYeRynal5yjkG
yXigSal+staD3P6Yf7dJb0HX0gA0KRA=
-----END CERTIFICATE-----
