Certificate:
    Data:
        Version: 3 (0x2)
        Serial Number: 20169545 (0x133c349)
        Signature Algorithm: sha256WithRSAEncryption
        Issuer: C=JP, O=JPKI, OU=JPKI for user authentication, OU=Japan Agency for Local Authority Information Systems
        Validity
            Not Before: Sep 14 23:41:59 2019 GMT
            Not After : Sep 14 14:59:59 2029 GMT
        Subject: C=JP, O=JPKI, OU=JPKI for user authentication, OU=Japan Agency for Local Authority Information Systems
        Subject Public Key Info:
            Public Key Algorithm: rsaEncryption
                Public-Key: (2048 bit)
                Modulus:
                    00:94:5f:7c:26:5a:cd:71:69:01:22:67:b3:d9:81:
                    3f:10:b5:ac:04:91:67:ce:9c:fd:ae:10:4c:32:f8:
                    31:4e:48:65:ad:ae:c6:9c:59:1d:c1:38:f6:7b:43:
                    b0:1c:86:5e:dc:f8:34:0c:5d:78:52:d7:65:c4:6d:
                    e8:6d:85:e7:aa:64:6d:5a:42:ef:c8:91:3a:22:40:
                    fb:8e:60:7f:1e:7c:00:a5:23:dc:55:42:ad:b4:56:
                    fd:b0:08:d4:5e:c3:83:15:19:8b:cc:e2:ec:29:b5:
                    e8:1d:71:9f:8c:3c:d5:4f:d1:2c:70:52:a2:a3:a4:
                    d6:4c:5e:ce:63:55:51:4b:b3:cb:40:07:59:a0:89:
                    96:d0:6d:d8:2f:79:68:4e:4d:a6:10:4f:9c:93:a5:
                    7b:24:6a:bc:95:d5:02:c9:67:b0:f6:06:6a:30:8a:
                    e6:30:d4:a5:6d:f7:8b:6f:16:3f:29:d0:a3:7a:eb:
                    16:65:e4:fc:98:5c:cf:19:9f:f8:04:46:4f:3c:18:
                    76:b3:0f:d0:52:f5:40:e7:5e:41:0a:6a:b5:b5:38:
                    18:7f:2d:5b:67:ee:ac:fb:33:cd:fd:78:2c:9c:02:
                    dd:46:f6:2f:fd:be:69:e1:da:c8:cc:0f:ed:5d:5c:
                    f0:29:ca:43:50:ea:dd:a8:58:7e:c0:d5:ed:bf:a1:
                    f8:53
                Exponent: 65537 (0x10001)
        X509v3 extensions:
            X509v3 Key Usage: critical
                Certificate Sign, CRL Sign
            X509v3 Subject Alternative Name: 
                DirName:/C=JP/O=\xE5\x85\xAC\xE7\x9A\x84\xE5\x80\x8B\xE4\xBA\xBA\xE8\xAA\x8D\xE8\xA8\xBC\xE3\x82\xB5\xE3\x83\xBC\xE3\x83\x93\xE3\x82\xB9
            X509v3 Basic Constraints: critical
                CA:TRUE
            X509v3 CRL Distribution Points: 
                Full Name:
                  DirName:C = JP, O = JPKI, OU = JPKI for user authentication, OU = Japan Agency for Local Authority Information Systems
            X509v3 Subject Key Identifier: 
                8C:D5:58:6A:89:14:85:E5:59:37:9B:7E:29:D4:10:CF:D2:8B:35:93
    Signature Algorithm: sha256WithRSAEncryption
    Signature Value:
        45:aa:72:54:eb:b2:31:8e:82:7a:ee:e9:97:0d:f4:ae:2e:77:
        22:d7:88:fe:c6:cc:1a:6b:4e:ed:32:f3:7f:84:02:c8:4a:02:
        86:77:7d:fb:cf:e9:92:52:a1:54:44:88:26:fb:95:08:cc:ff:
        65:73:a5:c8:17:1c:84:4e:da:e2:9f:64:0d:6c:cb:9f:20:3f:
        1e:48:91:11:36:fe:7c:17:a5:c9:26:21:8e:8f:46:00:fc:d5:
        63:0a:d2:0f:1c:59:dd:cc:3c:db:00:7f:47:62:6f:5d:16:eb:
        fb:81:a4:d2:2a:01:9f:14:bf:e5:6c:51:90:03:f6:07:1a:34:
        a3:73:bf:3b:08:09:f2:ac:37:90:1c:5b:ba:7a:32:52:ed:81:
        36:1c:1b:4e:a7:56:78:8a:b6:98:fb:bc:46:98:d0:b6:51:2e:
        f9:56:16:46:82:80:a7:3e:62:94:1e:82:71:6a:fe:0f:40:aa:
        4a:58:a5:2b:f7:d7:d4:2a:32:d8:72:93:93:ea:a4:e1:b2:26:
        66:3d:1f:6d:70:8b:a7:99:e9:26:e5:01:b4:aa:ee:82:c0:1c:
        44:82:6c:05:14:9a:e3:57:47:ce:56:f4:61:b5:c2:fb:a5:b5:
        71:86:ea:28:30:7f:bd:70:b8:5a:88:a6:31:92:21:da:a7:62:
        f1:54:c3:53
-----BEGIN CERTIFICATE-----
MIIFIzCCBAugAwIBAgIEATPDSTANBgkqhkiG9w0BAQsFADCBgjELMAkGA1UEBhMC
SlAxDTALBgNVBAoMBEpQS0kxJTAjBgNVBAsMHEpQS0kgZm9yIHVzZXIgYXV0aGVu
dGljYXRpb24xPTA7BgNVBAsMNEphcGFuIEFnZW5jeSBmb3IgTG9jYWwgQXV0aG9y
aXR5IEluZm9ybWF0aW9uIFN5c3RlbXMwHhcNMTkwOTE0MjM0MTU5WhcNMjkwOTE0
MTQ1OTU5WjCBgjELMAkGA1UEBhMCSlAxDTALBgNVBAoMBEpQS0kxJTAjBgNVBAsM
HEpQS0kgZm9yIHVzZXIgYXV0aGVudGljYXRpb24xPTA7BgNVBAsMNEphcGFuIEFn
ZW5jeSBmb3IgTG9jYWwgQXV0aG9yaXR5IEluZm9ybWF0aW9uIFN5c3RlbXMwggEi
MA0GCSqGSIb3DQEBAQUAA4IBDwAwggEKAoIBAQCUX3wmWs1xaQEiZ7PZgT8QtawE
kWfOnP2uEEwy+DFOSGWtrsacWR3BOPZ7Q7Achl7c+DQMXXhS12XEbehtheeqZG1a
Qu/IkToiQPuOYH8efAClI9xVQq20Vv2wCNRew4MVGYvM4uwptegdcZ+MPNVP0Sxw
UqKjpNZMXs5jVVFLs8tAB1mgiZbQbdgveWhOTaYQT5yTpXskaryV1QLJZ7D2Bmow
iuYw1KVt94tvFj8p0KN66xZl5PyYXM8Zn/gERk88GHazD9BS9UDnXkEKarW1OBh/
LVtn7qz7M839eCycAt1G9i/9vmnh2sjMD+1dXPApykNQ6t2oWH7A1e2/ofhTAgMB
AAGjggGdMIIBmTAOBgNVHQ8BAf8EBAMCAQYwgbcGA1UdEQSBrzCBrKSBqTCBpjEL
MAkGA1UEBhMCSlAxJzAlBgNVBAoMHuWFrOeahOWAi+S6uuiqjeiovOOCteODvOOD
k+OCuTE5MDcGA1UECwww5YWs55qE5YCL5Lq66KqN6Ki844K144O844OT44K55Yip
55So6ICF6Ki85piO55SoMTMwMQYDVQQLDCrlnLDmlrnlhazlhbHlm6PkvZPmg4Xl
oLHjgrfjgrnjg4bjg6DmqZ/mp4swDwYDVR0TAQH/BAUwAwEB/zCBnAYDVR0fBIGU
MIGRMIGOoIGLoIGIpIGFMIGCMQswCQYDVQQGEwJKUDENMAsGA1UECgwESlBLSTEl
MCMGA1UECwwcSlBLSSBmb3IgdXNlciBhdXRoZW50aWNhdGlvbjE9MDsGA1UECww0
SmFwYW4gQWdlbmN5IGZvciBMb2NhbCBBdXRob3JpdHkgSW5mb3JtYXRpb24gU3lz
dGVtczAdBgNVHQ4EFgQUjNVYaokUheVZN5t+KdQQz9KLNZMwDQYJKoZIhvcNAQEL
BQADggEBAEWqclTrsjGOgnru6ZcN9K4udyLXiP7GzBprTu0y83+EAshKAoZ3ffvP
6ZJSoVREiCb7lQjM/2VzpcgXHIRO2uKfZA1sy58gPx5IkRE2/nwXpckmIY6PRgD8
1WMK0g8cWd3MPNsAf0dib10W6/uBpNIqAZ8Uv+VsUZAD9gcaNKNzvzsICfKsN5Ac
W7p6MlLtgTYcG06nVniKtpj7vEaY0LZRLvlWFkaCgKc+YpQegnFq/g9AqkpYpSv3
19QqMthyk5PqpOGyJmY9H21wi6eZ6SblAbSq7oLAHESCbAUUmuNXR85W9GG1wvul
tXGG6igwf71wuFqIpjGSIdqnYvFUw1M=
-----END CERTIFICATE-----
