Certificate:
    Data:
        Version: 3 (0x2)
        Serial Number: 20104363 (0x132c4ab)
        Signature Algorithm: sha256WithRSAEncryption
        Issuer: C=JP, O=JPKI, OU=JPKI for digital signature, OU=Japan Agency for Local Authority Information Systems
        Validity
            Not Before: Sep 14 23:41:56 2019 GMT
            Not After : Sep 14 14:59:59 2029 GMT
        Subject: C=JP, O=JPKI, OU=JPKI for digital signature, OU=Japan Agency for Local Authority Information Systems
        Subject Public Key Info:
            Public Key Algorithm: rsaEncryption
                Public-Key: (2048 bit)
                Modulus:
                    00:a7:a4:7e:81:f7:dc:12:9f:64:0d:53:6a:37:56:
                    13:93:9a:1d:f9:95:f3:af:36:9b:9e:ae:3d:7f:4c:
                    58:0f:7d:b0:6b:54:4b:d7:5d:dd:51:0c:04:0e:f9:
                    5d:6c:eb:e7:85:ff:75:46:fc:10:c6:e7:58:40:d4:
                    78:a6:9d:ff:e9:c2:0c:67:e5:85:db:64:78:a7:67:
                    3d:7f:b7:a5:8a:b9:f8:68:d3:4d:4e:ba:ff:38:11:
                    1c:86:98:4e:4d:74:9e:a8:ff:93:4d:b1:a1:e6:4d:
                    cb:4b:8f:f0:13:a2:39:30:72:d5:0c:1f:cb:9c:81:
                    2c:ef:c8:95:1c:a8:60:61:8c:46:01:c4:94:e1:28:
                    e0:bb:bb:53:2b:4a:60:be:f7:0f:4a:c2:23:62:ea:
                    7a:ef:7f:6f:81:52:65:ed:c2:0f:0f:63:30:25:98:
                    88:b3:24:33:58:52:10:cd:92:a8:a8:ab:fc:dc:ef:
                    e6:07:fa:0c:cd:0b:6e:f3:0d:4d:c1:0b:b9:51:b8:
                    db:b9:db:86:7c:2b:45:2e:e3:ad:a5:01:7e:1b:a8:
                    1e:6f:be:ae:82:5c:e6:5a:0b:8b:0f:47:f4:a1:e4:
                    b3:71:76:ee:5e:55:84:48:6e:37:6b:a1:7b:a6:52:
                    5a:5d:de:6f:01:69:48:72:2e:f0:29:00:17:12:ee:
                    6a:4f
                Exponent: 65537 (0x10001)
        X509v3 extensions:
            X509v3 Key Usage: critical
                Certificate Sign, CRL Sign
            X509v3 Subject Alternative Name: 
                DirName:/C=JP/O=\xE5\x85\xAC\xE7\x9A\x84\xE5\x80\x8B\xE4\xBA\xBA\xE8\xAA\x8D\xE8\xA8\xBC\xE3\x82\xB5\xE3\x83\xBC\xE3\x83\x93\xE3\x82\xB9
            X509v3 Basic Constraints: critical
                CA:TRUE
            X509v3 CRL Distribution Points: 
                Full Name:
                  DirName:C = JP, O = JPKI, OU = JPKI for digital signature, OU = Japan Agency for Local Authority Information Systems
            X509v3 Subject Key Identifier: 
                4D:E0:17:DE:4B:7F:47:3D:CD:86:7A:62:D3:8B:13:4A:CE:83:55:8A
    Signature Algorithm: sha256WithRSAEncryption
    Signature Value:
        a3:21:e7:1c:97:4d:f3:79:94:b5:d3:34:ad:13:56:43:54:af:
        2d:39:da:ac:2a:12:46:b7:b2:bb:a7:05:c2:61:8b:a2:08:2c:
        ad:58:9e:9c:d1:4d:29:3c:dd:4f:c0:6b:c1:47:a4:79:05:bf:
        3d:4a:7e:11:dd:7e:82:37:d6:44:da:b2:84:80:f5:6b:cb:63:
        54:82:4a:17:46:be:e2:a4:2e:78:70:4f:06:94:1a:d0:bf:8f:
        4b:79:90:59:52:51:c0:fa:02:a5:14:64:3c:8f:9a:e1:58:e9:
        eb:f6:42:b4:b8:3b:2a:96:a6:77:c0:52:1b:de:a6:f8:cf:4f:
        73:33:10:e5:82:cd:91:64:8c:3d:aa:b7:b6:f5:d1:ba:0e:9b:
        66:2a:65:8a:dc:4e:9c:00:3f:f5:3d:ed:d6:5c:dd:bf:2d:33:
        2b:49:17:54:f9:49:77:30:91:94:e5:d6:a3:b3:74:8d:f0:34:
        c5:8b:86:88:03:09:51:44:eb:93:f0:aa:b5:9c:c0:4d:a8:65:
        48:d0:03:01:68:5b:a4:38:cf:82:c4:3f:1d:2d:0a:10:72:6f:
        8b:47:97:6c:b2:52:66:35:64:7c:af:40:67:58:ca:bc:99:95:
        81:c4:9d:d6:36:b3:16:2e:19:4d:7b:00:eb:a0:64:0c:40:8f:
        b8:c6:01:46
-----BEGIN CERTIFICATE-----
MIIFFDCCA/ygAwIBAgIEATLEqzANBgkqhkiG9w0BAQsFADCBgDELMAkGA1UEBhMC
SlAxDTALBgNVBAoMBEpQS0kxIzAhBgNVBAsMGkpQS0kgZm9yIGRpZ2l0YWwgc2ln
bmF0dXJlMT0wOwYDVQQLDDRKYXBhbiBBZ2VuY3kgZm9yIExvY2FsIEF1dGhvcml0
eSBJbmZvcm1hdGlvbiBTeXN0ZW1zMB4XDTE5MDkxNDIzNDE1NloXDTI5MDkxNDE0
NTk1OVowgYAxCzAJBgNVBAYTAkpQMQ0wCwYDVQQKDARKUEtJMSMwIQYDVQQLDBpK
UEtJIGZvciBkaWdpdGFsIHNpZ25hdHVyZTE9MDsGA1UECww0SmFwYW4gQWdlbmN5
IGZvciBMb2NhbCBBdXRob3JpdHkgSW5mb3JtYXRpb24gU3lzdGVtczCCASIwDQYJ
KoZIhvcNAQEBBQADggEPADCCAQoCggEBAKekfoH33BKfZA1TajdWE5OaHfmV8682
m56uPX9MWA99sGtUS9dd3VEMBA75XWzr54X/dUb8EMbnWEDUeKad/+nCDGflhdtk
eKdnPX+3pYq5+GjTTU66/zgRHIaYTk10nqj/k02xoeZNy0uP8BOiOTBy1Qwfy5yB
LO/IlRyoYGGMRgHElOEo4Lu7UytKYL73D0rCI2Lqeu9/b4FSZe3CDw9jMCWYiLMk
M1hSEM2SqKir/Nzv5gf6DM0LbvMNTcELuVG427nbhnwrRS7jraUBfhuoHm++roJc
5loLiw9H9KHks3F27l5VhEhuN2uhe6ZSWl3ebwFpSHIu8CkAFxLuak8CAwEAAaOC
AZIwggGOMA4GA1UdDwEB/wQEAwIBBjCBrgYDVR0RBIGmMIGjpIGgMIGdMQswCQYD
VQQGEwJKUDEnMCUGA1UECgwe5YWs55qE5YCL5Lq66KqN6Ki844K144O844OT44K5
MTAwLgYDVQQLDCflhaznmoTlgIvkurroqo3oqLzjgrXjg7zjg5PjgrnnvbLlkI3n
lKgxMzAxBgNVBAsMKuWcsOaWueWFrOWFseWbo+S9k+aDheWgseOCt+OCueODhuOD
oOapn+anizAPBgNVHRMBAf8EBTADAQH/MIGaBgNVHR8EgZIwgY8wgYyggYmggYak
gYMwgYAxCzAJBgNVBAYTAkpQMQ0wCwYDVQQKDARKUEtJMSMwIQYDVQQLDBpKUEtJ
IGZvciBkaWdpdGFsIHNpZ25hdHVyZTE9MDsGA1UECww0SmFwYW4gQWdlbmN5IGZv
ciBMb2NhbCBBdXRob3JpdHkgSW5mb3JtYXRpb24gU3lzdGVtczAdBgNVHQ4EFgQU
TeAX3kt/Rz3Nhnpi04sTSs6DVYowDQYJKoZIhvcNAQELBQADggEBAKMh5xyXTfN5
lLXTNK0TVkNUry052qwqEka3srunBcJhi6IILK1YnpzRTSk83U/Aa8FHpHkFvz1K
fhHdfoI31kTasoSA9WvLY1SCShdGvuKkLnhwTwaUGtC/j0t5kFlSUcD6AqUUZDyP
muFY6ev2QrS4OyqWpnfAUhvepvjPT3MzEOWCzZFkjD2qt7b10boOm2YqZYrcTpwA
P/U97dZc3b8tMytJF1T5SXcwkZTl1qOzdI3wNMWLhogDCVFE65PwqrWcwE2oZUjQ
AwFoW6Q4z4LEPx0tChByb4tHl2yyUmY1ZHyvQGdYyryZlYHEndY2sxYuGU17AOug
ZAxAj7jGAUY=
-----END CERTIFICATE-----
