Certificate:
    Data:
        Version: 3 (0x2)
        Serial Number: 108816929 (0x67c6a21)
        Signature Algorithm: sha256WithRSAEncryption
        Issuer: C=JP, O=JPKI, OU=JPKI for digital signature, OU=Japan Agency for Local Authority Information Systems
        Validity
            Not Before: Jul 16 00:50:27 2023 GMT
            Not After : Jul 15 14:59:59 2033 GMT
        Subject: C=JP, O=JPKI, OU=JPKI for digital signature, OU=Japan Agency for Local Authority Information Systems
        Subject Public Key Info:
            Public Key Algorithm: rsaEncryption
                Public-Key: (2048 bit)
                Modulus:
                    00:d8:b4:c4:bf:35:5a:5e:94:ca:84:98:80:fe:25:
                    44:e3:46:ce:03:a8:1d:92:e6:84:a6:27:ed:1e:fc:
                    76:30:6b:87:a5:62:c1:9d:d4:35:3d:a0:8f:51:5b:
                    02:95:9d:3d:9c:72:3c:31:b7:ed:15:c9:07:36:38:
                    aa:3b:a3:62:05:86:e5:b0:c4:9e:44:49:7c:c1:86:
                    fb:1b:2e:1e:44:35:cc:17:f6:af:14:9b:c2:67:d6:
                    8c:99:83:d3:3a:e2:54:a5:26:38:90:9b:cc:d0:99:
                    c9:9b:7a:3a:b7:95:8d:07:2e:79:e5:b1:e6:76:58:
                    4b:32:6d:f3:21:ba:3b:d1:90:8f:e3:84:d1:48:8d:
                    fb:3c:1e:00:87:cc:0e:73:fd:92:31:88:cc:e1:b7:
                    66:80:e7:af:ed:f0:aa:ff:d6:3d:f1:e4:29:92:a4:
                    9c:e9:77:a1:a8:2d:6a:c2:9a:1d:76:66:66:f9:ad:
                    88:4a:46:d5:be:f4:3f:67:65:81:ec:b0:0c:3a:41:
                    0b:27:cf:f9:0a:51:e4:1a:ee:79:79:c7:8e:fa:97:
                    ec:6d:2e:c8:68:90:9d:d2:fe:0c:0b:7d:73:27:08:
                    41:ea:e0:5c:8a:cc:74:e6:b1:db:00:cf:fd:93:d2:
                    7b:54:91:d4:92:05:28:f0:da:ad:f2:99:65:46:77:
                    89:49
                Exponent: 65537 (0x10001)
        X509v3 extensions:
            X509v3 Key Usage: critical
                Certificate Sign, CRL Sign
            X509v3 Subject Alternative Name: 
                DirName:/C=JP/O=\xE5\x85\xAC\xE7\x9A\x84\xE5\x80\x8B\xE4\xBA\xBA\xE8\xAA\x8D\xE8\xA8\xBC\xE3\x82\xB5\xE3\x83\xBC\xE3\x83\x93\xE3\x82\xB9
            X509v3 Basic Constraints: critical
                CA:TRUE
            X509v3 CRL Distribution Points: 
                Full Name:
                  DirName:C = JP, O = JPKI, OU = JPKI for digital signature, OU = Japan Agency for Local Authority Information Systems
            X509v3 Subject Key Identifier: 
                D2:1E:A5:58:95:61:7E:93:AD:BF:96:6B:94:1A:B4:ED:F6:53:F0:8F
    Signature Algorithm: sha256WithRSAEncryption
    Signature Value:
        d2:ea:e5:fc:20:42:5b:db:a3:04:e8:00:67:9c:6a:d8:93:6b:
        6a:d2:0a:94:4d:36:26:c3:80:da:ea:82:8a:c8:bf:04:b5:9a:
        2c:44:00:8b:49:58:4a:57:69:6a:be:de:5f:e6:37:47:0d:5b:
        d9:0e:66:c1:f9:db:a5:b2:f5:76:e5:be:6b:10:9b:60:9f:4c:
        1f:25:b6:9e:e4:7e:48:88:1c:82:20:dc:e5:a7:44:16:f1:01:
        df:88:e8:0b:2f:ba:21:3c:37:74:48:64:14:ca:13:93:7f:d3:
        c5:b1:94:c3:dd:d3:7c:24:72:08:b2:4f:ac:ae:fc:6e:7b:b4:
        8e:e8:4b:47:ba:14:35:b7:d4:15:5d:4b:82:72:b9:75:87:b3:
        bf:2b:82:bc:6b:1a:67:13:d4:bf:c8:e9:37:86:f9:c4:27:f8:
        c0:82:32:9e:d3:0f:91:97:62:d5:1d:af:1f:50:da:69:ab:49:
        1e:f0:7f:66:4d:1e:25:2d:62:af:61:4e:46:e7:17:43:2d:e0:
        15:1a:13:0d:41:aa:d7:21:d2:a9:66:55:01:ba:ed:84:d4:7a:
        b2:3c:ac:12:2c:0e:e9:49:73:0c:c3:79:56:79:3f:45:03:dd:
        30:70:2e:63:3d:b7:4f:3c:06:0a:ef:ea:2b:3b:74:53:d3:d0:
        91:2a:37:05
-----BEGIN CERTIFICATE-----
MIIFFDCCA/ygAwIBAgIEBnxqITANBgkqhkiG9w0BAQsFADCBgDELMAkGA1UEBhMC
SlAxDTALBgNVBAoMBEpQS0kxIzAhBgNVBAsMGkpQS0kgZm9yIGRpZ2l0YWwgc2ln
bmF0dXJlMT0wOwYDVQQLDDRKYXBhbiBBZ2VuY3kgZm9yIExvY2FsIEF1dGhvcml0
eSBJbmZvcm1hdGlvbiBTeXN0ZW1zMB4XDTIzMDcxNjAwNTAyN1oXDTMzMDcxNTE0
NTk1OVowgYAxCzAJBgNVBAYTAkpQMQ0wCwYDVQQKDARKUEtJMSMwIQYDVQQLDBpK
UEtJIGZvciBkaWdpdGFsIHNpZ25hdHVyZTE9MDsGA1UECww0SmFwYW4gQWdlbmN5
IGZvciBMb2NhbCBBdXRob3JpdHkgSW5mb3JtYXRpb24gU3lzdGVtczCCASIwDQYJ
KoZIhvcNAQEBBQADggEPADCCAQoCggEBANi0xL81Wl6UyoSYgP4lRONGzgOoHZLm
hKYn7R78djBrh6ViwZ3UNT2gj1FbApWdPZxyPDG37RXJBzY4qjujYgWG5bDEnkRJ
fMGG+xsuHkQ1zBf2rxSbwmfWjJmD0zriVKUmOJCbzNCZyZt6OreVjQcueeWx5nZY
SzJt8yG6O9GQj+OE0UiN+zweAIfMDnP9kjGIzOG3ZoDnr+3wqv/WPfHkKZKknOl3
oagtasKaHXZmZvmtiEpG1b70P2dlgeywDDpBCyfP+QpR5BrueXnHjvqX7G0uyGiQ
ndL+DAt9cycIQergXIrMdOax2wDP/ZPSe1SR1JIFKPDarfKZZUZ3iUkCAwEAAaOC
AZIwggGOMA4GA1UdDwEB/wQEAwIBBjCBrgYDVR0RBIGmMIGjpIGgMIGdMQswCQYD
VQQGEwJKUDEnMCUGA1UECgwe5YWs55qE5YCL5Lq66KqN6Ki844K144O844OT44K5
MTAwLgYDVQQLDCflhaznmoTlgIvkurroqo3oqLzjgrXjg7zjg5PjgrnnvbLlkI3n
lKgxMzAxBgNVBAsMKuWcsOaWueWFrOWFseWbo+S9k+aDheWgseOCt+OCueODhuOD
oOapn+anizAPBgNVHRMBAf8EBTADAQH/MIGaBgNVHR8EgZIwgY8wgYyggYmggYak
gYMwgYAxCzAJBgNVBAYTAkpQMQ0wCwYDVQQKDARKUEtJMSMwIQYDVQQLDBpKUEtJ
IGZvciBkaWdpdGFsIHNpZ25hdHVyZTE9MDsGA1UECww0SmFwYW4gQWdlbmN5IGZv
ciBMb2NhbCBBdXRob3JpdHkgSW5mb3JtYXRpb24gU3lzdGVtczAdBgNVHQ4EFgQU
0h6lWJVhfpOtv5ZrlBq07fZT8I8wDQYJKoZIhvcNAQELBQADggEBANLq5fwgQlvb
owToAGecatiTa2rSCpRNNibDgNrqgorIvwS1mixEAItJWEpXaWq+3l/mN0cNW9kO
ZsH526Wy9XblvmsQm2CfTB8ltp7kfkiIHIIg3OWnRBbxAd+I6AsvuiE8N3RIZBTK
E5N/08WxlMPd03wkcgiyT6yu/G57tI7oS0e6FDW31BVdS4JyuXWHs78rgrxrGmcT
1L/I6TeG+cQn+MCCMp7TD5GXYtUdrx9Q2mmrSR7wf2ZNHiUtYq9hTkbnF0Mt4BUa
Ew1Bqtch0qlmVQG67YTUerI8rBIsDulJcwzDeVZ5P0UD3TBwLmM9t088Bgrv6is7
dFPT0JEqNwU=
-----END CERTIFICATE-----
