Certificate:
    Data:
        Version: 3 (0x2)
        Serial Number: 1 (0x1)
        Signature Algorithm: sha256WithRSAEncryption
        Issuer: C=JP, O=JPKI, OU=JPKI for digital signature, OU=Japan Agency for Local Authority Information Systems
        Validity
            Not Before: Oct 20 02:40:28 2015 GMT
            Not After : Oct 19 14:59:59 2025 GMT
        Subject: C=JP, O=JPKI, OU=JPKI for digital signature, OU=Japan Agency for Local Authority Information Systems
        Subject Public Key Info:
            Public Key Algorithm: rsaEncryption
                Public-Key: (2048 bit)
                Modulus:
                    00:d7:e1:59:3a:a7:a4:0b:44:bc:13:59:1a:e8:68:
                    5d:2a:39:77:32:4b:2e:17:7e:5e:ec:0d:13:3f:55:
                    21:99:16:41:bb:77:bb:76:26:b3:02:36:b3:3b:e8:
                    8d:84:32:6c:cb:0b:37:ed:77:0d:1f:73:08:07:ac:
                    b9:29:01:7b:cd:1f:c8:95:0c:8b:a6:eb:1a:85:48:
                    cf:54:34:1e:18:4c:2d:08:f9:8d:29:ce:be:f8:a3:
                    a3:86:6b:a7:cf:62:de:39:7c:d6:5d:17:df:de:36:
                    89:38:3c:2f:26:a4:02:c6:80:1e:3c:8d:79:70:83:
                    07:7a:f3:47:cf:da:a9:7a:6a:5f:4e:ad:41:1a:88:
                    7b:16:2e:93:72:6b:58:a9:fa:4d:9d:02:cb:75:2e:
                    91:86:43:9b:2a:4b:f9:06:80:62:3f:20:20:de:7f:
                    15:53:c3:ae:8c:2a:7a:a7:48:f2:1c:ac:1f:3c:c0:
                    09:96:db:e3:b1:34:10:cb:49:84:bf:f7:07:d5:fc:
                    83:24:36:a5:e8:6c:9b:96:c1:05:82:92:e9:40:e9:
                    d4:c8:c5:98:b3:e9:57:a5:b6:8b:b2:14:4b:45:fe:
                    87:7f:1a:48:fc:2a:ec:ad:45:c4:be:d7:9d:3a:86:
                    fe:5c:03:61:23:33:ad:70:15:61:6b:6a:aa:e0:ba:
                    2b:01
                Exponent: 65537 (0x10001)
        X509v3 extensions:
            X509v3 Key Usage: critical
                Certificate Sign, CRL Sign
            X509v3 Subject Alternative Name: 
                DirName:/C=JP/O=\xE5\x85\xAC\xE7\x9A\x84\xE5\x80\x8B\xE4\xBA\xBA\xE8\xAA\x8D\xE8\xA8\xBC\xE3\x82\xB5\xE3\x83\xBC\xE3\x83\x93\xE3\x82\xB9
            X509v3 Basic Constraints: critical
                CA:TRUE
            X509v3 CRL Distribution Points: 
                Full Name:
                  DirName:C = JP, O = JPKI, OU = JPKI for digital signature, OU = Japan Agency for Local Authority Information Systems
            X509v3 Subject Key Identifier: 
                0D:03:4C:BB:34:D0:71:4F:45:E4:5A:1C:AF:D8:FD:14:3F:AB:54:A7
    Signature Algorithm: sha256WithRSAEncryption
    Signature Value:
        95:98:35:f5:fc:db:b4:6c:80:bd:2a:e8:c0:05:7f:23:2a:f9:
        b5:1b:8b:d2:b3:d8:52:66:ef:7b:b4:fe:53:36:67:4d:dd:e1:
        90:1a:9b:b2:27:cf:02:c8:1e:89:7f:bd:10:35:4c:d6:c3:70:
        fb:61:53:b7:8c:06:ed:0f:72:b1:9f:00:d5:b2:92:38:6f:ca:
        ef:0a:a2:b3:3e:46:5a:5c:dd:73:5c:ca:58:e1:47:de:8b:71:
        35:94:4d:47:4c:9a:a1:f5:65:54:0d:90:32:45:f9:90:13:a7:
        18:a1:c2:f9:ef:2a:1e:f4:d0:9c:26:ad:06:76:63:24:8d:c3:
        fe:f0:ba:55:aa:6a:2b:3d:d0:b1:8d:1c:86:31:60:ad:48:27:
        9b:af:d9:0d:7c:20:f5:1b:bb:35:be:d5:fc:32:e9:43:dd:03:
        53:81:75:b7:63:5f:d2:c5:08:d2:bc:10:14:81:b3:99:ee:7a:
        51:a7:96:d6:ca:21:bb:45:3e:a7:e3:59:23:8b:89:bf:68:d5:
        3a:53:57:5c:07:ad:12:b9:e3:66:d6:a8:f0:4a:24:65:25:f2:
        15:6e:ce:69:18:a3:c2:eb:f7:3e:a5:2f:7e:4d:d7:35:85:88:
        d7:c8:1d:b2:ab:69:aa:a6:3f:9c:c2:a3:3d:d1:99:86:16:a7:
        48:c2:6c:9f
-----BEGIN CERTIFICATE-----
MIIFETCCA/mgAwIBAgIBATANBgkqhkiG9w0BAQsFADCBgDELMAkGA1UEBhMCSlAx
DTALBgNVBAoMBEpQS0kxIzAhBgNVBAsMGkpQS0kgZm9yIGRpZ2l0YWwgc2lnbmF0
dXJlMT0wOwYDVQQLDDRKYXBhbiBBZ2VuY3kgZm9yIExvY2FsIEF1dGhvcml0eSBJ
bmZvcm1hdGlvbiBTeXN0ZW1zMB4XDTE1MTAyMDAyNDAyOFoXDTI1MTAxOTE0NTk1
OVowgYAxCzAJBgNVBAYTAkpQMQ0wCwYDVQQKDARKUEtJMSMwIQYDVQQLDBpKUEtJ
IGZvciBkaWdpdGFsIHNpZ25hdHVyZTE9MDsGA1UECww0SmFwYW4gQWdlbmN5IGZv
ciBMb2NhbCBBdXRob3JpdHkgSW5mb3JtYXRpb24gU3lzdGVtczCCASIwDQYJKoZI
hvcNAQEBBQADggEPADCCAQoCggEBANfhWTqnpAtEvBNZGuhoXSo5dzJLLhd+XuwN
Ez9VIZkWQbt3u3YmswI2szvojYQybMsLN+13DR9zCAesuSkBe80fyJUMi6brGoVI
z1Q0HhhMLQj5jSnOvvijo4Zrp89i3jl81l0X3942iTg8LyakAsaAHjyNeXCDB3rz
R8/aqXpqX06tQRqIexYuk3JrWKn6TZ0Cy3UukYZDmypL+QaAYj8gIN5/FVPDrowq
eqdI8hysHzzACZbb47E0EMtJhL/3B9X8gyQ2pehsm5bBBYKS6UDp1MjFmLPpV6W2
i7IUS0X+h38aSPwq7K1FxL7XnTqG/lwDYSMzrXAVYWtqquC6KwECAwEAAaOCAZIw
ggGOMA4GA1UdDwEB/wQEAwIBBjCBrgYDVR0RBIGmMIGjpIGgMIGdMQswCQYDVQQG
EwJKUDEnMCUGA1UECgwe5YWs55qE5YCL5Lq66KqN6Ki844K144O844OT44K5MTAw
LgYDVQQLDCflhaznmoTlgIvkurroqo3oqLzjgrXjg7zjg5PjgrnnvbLlkI3nlKgx
MzAxBgNVBAsMKuWcsOaWueWFrOWFseWbo+S9k+aDheWgseOCt+OCueODhuODoOap
n+anizAPBgNVHRMBAf8EBTADAQH/MIGaBgNVHR8EgZIwgY8wgYyggYmggYakgYMw
gYAxCzAJBgNVBAYTAkpQMQ0wCwYDVQQKDARKUEtJMSMwIQYDVQQLDBpKUEtJIGZv
ciBkaWdpdGFsIHNpZ25hdHVyZTE9MDsGA1UECww0SmFwYW4gQWdlbmN5IGZvciBM
b2NhbCBBdXRob3JpdHkgSW5mb3JtYXRpb24gU3lzdGVtczAdBgNVHQ4EFgQUDQNM
uzTQcU9F5Focr9j9FD+rVKcwDQYJKoZIhvcNAQELBQADggEBAJWYNfX827RsgL0q
6MAFfyMq+bUbi9Kz2FJm73u0/lM2Z03d4ZAam7InzwLIHol/vRA1TNbDcPthU7eM
Bu0PcrGfANWykjhvyu8KorM+Rlpc3XNcyljhR96LcTWUTUdMmqH1ZVQNkDJF+ZAT
pxihwvnvKh700JwmrQZ2YySNw/7wulWqais90LGNHIYxYK1IJ5uv2Q18IPUbuzW+
1fwy6UPdA1OBdbdjX9LFCNK8EBSBs5nuelGnltbKIbtFPqfjWSOLib9o1TpTV1wH
rRK542bWqPBKJGUl8hVuzmkYo8Lr9z6lL35N1zWFiNfIHbKraaqmP5zCoz3RmYYW
p0jCbJ8=
-----END CERTIFICATE-----
